///////////////////////////////////////////////////////////////////////////////
//                                                                            /
// IAR C/C++ Compiler V8.10.3.10338/W32 for 8051        07/Mar/2019  11:32:15 /
// Copyright 2004-2011 IAR Systems AB.                                        /
//                                                                            /
//    Core               =  plain                                             /
//    Code model         =  banked                                            /
//    Data model         =  large                                             /
//    Calling convention =  xdata reentrant                                   /
//    Constant location  =  data_rom                                          /
//    Dptr setup         =  1,16                                              /
//    Source file        =  D:\ZigBee\KJXY-ZigBee\ZigBee-experiment\exp9-grou /
//                          p\Projects\zstack\Samples\SampleApp\Source\EndDev /
//                          ice-TempHumi.c                                    /
//    Command line       =  -f D:\ZigBee\KJXY-ZigBee\ZigBee-experiment\exp9-g /
//                          roup\Projects\zstack\Samples\SampleApp\CC2530DB\. /
//                          .\..\..\Tools\CC2530DB\f8wEndev.cfg (-DCPU32MHZ   /
//                          -DROOT=__near_func -DBLINK_LEDS) -f               /
//                          D:\ZigBee\KJXY-ZigBee\ZigBee-experiment\exp9-grou /
//                          p\Projects\zstack\Samples\SampleApp\CC2530DB\..\. /
//                          .\..\Tools\CC2530DB\f8wConfig.cfg (-DSECURE=0     /
//                          -DZG_SECURE_DYNAMIC=0 -DREFLECTOR                 /
//                          -DDEFAULT_CHANLIST=0x00000800                     /
//                          -DZDAPP_CONFIG_PAN_ID=0xFF11                      /
//                          -DNWK_START_DELAY=100 -DEXTENDED_JOINING_RANDOM_M /
//                          ASK=0x007F -DBEACON_REQUEST_DELAY=100             /
//                          -DBEACON_REQ_DELAY_MASK=0x00FF                    /
//                          -DROUTE_EXPIRY_TIME=30 -DAPSC_ACK_WAIT_DURATION_P /
//                          OLLED=3000 -DNWK_INDIRECT_MSG_TIMEOUT=7           /
//                          -DMAX_RREQ_ENTRIES=8 -DAPSC_MAX_FRAME_RETRIES=3   /
//                          -DNWK_MAX_DATA_RETRIES=2                          /
//                          -DMAX_POLL_FAILURE_RETRIES=2 -DMAX_BCAST=9        /
//                          -DAPS_MAX_GROUPS=16 -DMAX_RTG_ENTRIES=40          /
//                          -DNWK_MAX_BINDING_ENTRIES=4                       /
//                          -DMAX_BINDING_CLUSTER_IDS=4                       /
//                          "-DDEFAULT_KEY={0x01, 0x03, 0x05, 0x07, 0x09,     /
//                          0x0B, 0x0D, 0x0F, 0x00, 0x02, 0x04, 0x06, 0x08,   /
//                          0x0A, 0x0C, 0x0D}" -DMAC_MAX_FRAME_SIZE=116       /
//                          "-DCONST=const __code" -DGENERIC=__generic        /
//                          -DRFD_RCVC_ALWAYS_ON=TRUE -DPOLL_RATE=1000        /
//                          -DQUEUED_POLL_RATE=100 -DRESPONSE_POLL_RATE=100)  /
//                          -DREJOIN_POLL_RATE=440 D:\ZigBee\KJXY-ZigBee\ZigB /
//                          ee-experiment\exp9-group\Projects\zstack\Samples\ /
//                          SampleApp\Source\EndDevice-TempHumi.c -D          /
//                          NWK_AUTO_POLL -D ZTOOL_P1 -D MT_SYS_FUNC -D       /
//                          MT_ZDO_FUNC -D LCD_SUPPORTED=DEBUG -lC            /
//                          D:\ZigBee\KJXY-ZigBee\ZigBee-experiment\exp9-grou /
//                          p\Projects\zstack\Samples\SampleApp\CC2530DB\EndD /
//                          eviceEB-TeHu\List\ -lA D:\ZigBee\KJXY-ZigBee\ZigB /
//                          ee-experiment\exp9-group\Projects\zstack\Samples\ /
//                          SampleApp\CC2530DB\EndDeviceEB-TeHu\List\         /
//                          --diag_suppress Pe001,Pa010 -o                    /
//                          D:\ZigBee\KJXY-ZigBee\ZigBee-experiment\exp9-grou /
//                          p\Projects\zstack\Samples\SampleApp\CC2530DB\EndD /
//                          eviceEB-TeHu\Obj\ -e --no_unroll --no_inline      /
//                          --no_tbaa --debug --core=plain --dptr=16,1        /
//                          --data_model=large --code_model=banked            /
//                          --calling_convention=xdata_reentrant              /
//                          --place_constants=data_rom --nr_virtual_regs 16   /
//                          -I D:\ZigBee\KJXY-ZigBee\ZigBee-experiment\exp9-g /
//                          roup\Projects\zstack\Samples\SampleApp\CC2530DB\  /
//                          -I D:\ZigBee\KJXY-ZigBee\ZigBee-experiment\exp9-g /
//                          roup\Projects\zstack\Samples\SampleApp\CC2530DB\. /
//                          .\SOURCE\ -I D:\ZigBee\KJXY-ZigBee\ZigBee-experim /
//                          ent\exp9-group\Projects\zstack\Samples\SampleApp\ /
//                          CC2530DB\..\..\..\ZMAIN\TI2530DB\ -I              /
//                          D:\ZigBee\KJXY-ZigBee\ZigBee-experiment\exp9-grou /
//                          p\Projects\zstack\Samples\SampleApp\CC2530DB\..\. /
//                          .\..\..\..\COMPONENTS\MT\ -I                      /
//                          D:\ZigBee\KJXY-ZigBee\ZigBee-experiment\exp9-grou /
//                          p\Projects\zstack\Samples\SampleApp\CC2530DB\..\. /
//                          .\..\..\..\COMPONENTS\HAL\INCLUDE\ -I             /
//                          D:\ZigBee\KJXY-ZigBee\ZigBee-experiment\exp9-grou /
//                          p\Projects\zstack\Samples\SampleApp\CC2530DB\..\. /
//                          .\..\..\..\COMPONENTS\HAL\TARGET\CC2530EB\ -I     /
//                          D:\ZigBee\KJXY-ZigBee\ZigBee-experiment\exp9-grou /
//                          p\Projects\zstack\Samples\SampleApp\CC2530DB\..\. /
//                          .\..\..\..\COMPONENTS\OSAL\MCU\CCSOC\ -I          /
//                          D:\ZigBee\KJXY-ZigBee\ZigBee-experiment\exp9-grou /
//                          p\Projects\zstack\Samples\SampleApp\CC2530DB\..\. /
//                          .\..\..\..\COMPONENTS\OSAL\INCLUDE\ -I            /
//                          D:\ZigBee\KJXY-ZigBee\ZigBee-experiment\exp9-grou /
//                          p\Projects\zstack\Samples\SampleApp\CC2530DB\..\. /
//                          .\..\..\..\COMPONENTS\STACK\AF\ -I                /
//                          D:\ZigBee\KJXY-ZigBee\ZigBee-experiment\exp9-grou /
//                          p\Projects\zstack\Samples\SampleApp\CC2530DB\..\. /
//                          .\..\..\..\COMPONENTS\STACK\NWK\ -I               /
//                          D:\ZigBee\KJXY-ZigBee\ZigBee-experiment\exp9-grou /
//                          p\Projects\zstack\Samples\SampleApp\CC2530DB\..\. /
//                          .\..\..\..\COMPONENTS\STACK\SEC\ -I               /
//                          D:\ZigBee\KJXY-ZigBee\ZigBee-experiment\exp9-grou /
//                          p\Projects\zstack\Samples\SampleApp\CC2530DB\..\. /
//                          .\..\..\..\COMPONENTS\STACK\SAPI\ -I              /
//                          D:\ZigBee\KJXY-ZigBee\ZigBee-experiment\exp9-grou /
//                          p\Projects\zstack\Samples\SampleApp\CC2530DB\..\. /
//                          .\..\..\..\COMPONENTS\STACK\SYS\ -I               /
//                          D:\ZigBee\KJXY-ZigBee\ZigBee-experiment\exp9-grou /
//                          p\Projects\zstack\Samples\SampleApp\CC2530DB\..\. /
//                          .\..\..\..\COMPONENTS\STACK\ZDO\ -I               /
//                          D:\ZigBee\KJXY-ZigBee\ZigBee-experiment\exp9-grou /
//                          p\Projects\zstack\Samples\SampleApp\CC2530DB\..\. /
//                          .\..\..\..\COMPONENTS\ZMAC\F8W\ -I                /
//                          D:\ZigBee\KJXY-ZigBee\ZigBee-experiment\exp9-grou /
//                          p\Projects\zstack\Samples\SampleApp\CC2530DB\..\. /
//                          .\..\..\..\COMPONENTS\ZMAC\ -I                    /
//                          D:\ZigBee\KJXY-ZigBee\ZigBee-experiment\exp9-grou /
//                          p\Projects\zstack\Samples\SampleApp\CC2530DB\..\. /
//                          .\..\..\..\COMPONENTS\SERVICES\SADDR\ -I          /
//                          D:\ZigBee\KJXY-ZigBee\ZigBee-experiment\exp9-grou /
//                          p\Projects\zstack\Samples\SampleApp\CC2530DB\..\. /
//                          .\..\..\..\COMPONENTS\SERVICES\SDATA\ -I          /
//                          D:\ZigBee\KJXY-ZigBee\ZigBee-experiment\exp9-grou /
//                          p\Projects\zstack\Samples\SampleApp\CC2530DB\..\. /
//                          .\..\..\..\COMPONENTS\MAC\INCLUDE\ -I             /
//                          D:\ZigBee\KJXY-ZigBee\ZigBee-experiment\exp9-grou /
//                          p\Projects\zstack\Samples\SampleApp\CC2530DB\..\. /
//                          .\..\..\..\COMPONENTS\MAC\HIGH_LEVEL\ -I          /
//                          D:\ZigBee\KJXY-ZigBee\ZigBee-experiment\exp9-grou /
//                          p\Projects\zstack\Samples\SampleApp\CC2530DB\..\. /
//                          .\..\..\..\COMPONENTS\MAC\LOW_LEVEL\srf04\ -I     /
//                          D:\ZigBee\KJXY-ZigBee\ZigBee-experiment\exp9-grou /
//                          p\Projects\zstack\Samples\SampleApp\CC2530DB\..\. /
//                          .\..\..\..\COMPONENTS\MAC\LOW_LEVEL\srf04\SINGLE_ /
//                          CHIP\ -I D:\ZigBee\KJXY-ZigBee\ZigBee-experiment\ /
//                          exp9-group\Projects\zstack\Samples\SampleApp\CC25 /
//                          30DB\..\..\..\..\..\COMPONENTS\HARDWARE\ -I       /
//                          D:\ZigBee\KJXY-ZigBee\ZigBee-experiment\exp9-grou /
//                          p\Projects\zstack\Samples\SampleApp\CC2530DB\..\. /
//                          .\..\..\..\COMPONENTS\HARDWARE\MPU6050\ -I        /
//                          D:\ZigBee\KJXY-ZigBee\ZigBee-experiment\exp9-grou /
//                          p\Projects\zstack\Samples\SampleApp\CC2530DB\..\. /
//                          .\..\..\..\COMPONENTS\HARDWARE\MPU6050\eMPL\ -Om  /
//    List file          =  D:\ZigBee\KJXY-ZigBee\ZigBee-experiment\exp9-grou /
//                          p\Projects\zstack\Samples\SampleApp\CC2530DB\EndD /
//                          eviceEB-TeHu\List\EndDevice-TempHumi.s51          /
//                                                                            /
//                                                                            /
///////////////////////////////////////////////////////////////////////////////

        NAME `EndDevice-TempHumi`

        RTMODEL "__SystemLibrary", "CLib"
        RTMODEL "__calling_convention", "xdata_reentrant"
        RTMODEL "__code_model", "banked"
        RTMODEL "__core", "plain"
        RTMODEL "__data_model", "large"
        RTMODEL "__dptr_size", "16"
        RTMODEL "__extended_stack", "disabled"
        RTMODEL "__location_for_constants", "data"
        RTMODEL "__number_of_dptrs", "1"
        RTMODEL "__rt_version", "1"

        RSEG DOVERLAY:DATA:NOROOT(0)
        RSEG IOVERLAY:IDATA:NOROOT(0)
        RSEG ISTACK:IDATA:NOROOT(0)
        RSEG PSTACK:XDATA:NOROOT(0)
        RSEG XSTACK:XDATA:NOROOT(0)

        EXTERN ?ALLOC_XSTACK8
        EXTERN ?BANKED_ENTER_XDATA
        EXTERN ?BANKED_LEAVE_XDATA
        EXTERN ?BDISPATCH
        EXTERN ?BRET
        EXTERN ?DEALLOC_XSTACK8
        EXTERN ?PUSH_XSTACK_I_ONE
        EXTERN ?PUSH_XSTACK_I_THREE
        EXTERN ?PUSH_XSTACK_I_TWO
        EXTERN ?V0
        EXTERN ?XSP
        EXTERN ?XSTACK_DISP0_8
        EXTERN __INIT_XDATA_I
        EXTERN __INIT_XDATA_Z

        PUBLIC ??Group_SendTemperature?relay
        FUNCTION ??Group_SendTemperature?relay,0203H
        PUBLIC ??SampleApp_Init?relay
        FUNCTION ??SampleApp_Init?relay,0203H
        PUBLIC ??SampleApp_MessageMSGCB?relay
        FUNCTION ??SampleApp_MessageMSGCB?relay,0203H
        PUBLIC ??SampleApp_ProcessEvent?relay
        FUNCTION ??SampleApp_ProcessEvent?relay,0203H
        PUBLIC ??osalInitTasks?relay
        FUNCTION ??osalInitTasks?relay,0203H
        PUBLIC Group_DstAddr
        PUBLIC Group_SendTemperature
        FUNCTION Group_SendTemperature,021203H
        ARGFRAME XSTACK, 12, STACK
        ARGFRAME IOVERLAY, 0, STATIC
        ARGFRAME DOVERLAY, 0, STATIC
        LOCFRAME ISTACK, 1, STACK
        LOCFRAME XSTACK, 21, STACK
        PUBLIC Point_To_Point_DstAddr
        PUBLIC ReadTempHumiControl
        PUBLIC SampleApp_Flash_DstAddr
        PUBLIC SampleApp_Group
        PUBLIC SampleApp_Init
        FUNCTION SampleApp_Init,021203H
        ARGFRAME XSTACK, 0, STACK
        ARGFRAME IOVERLAY, 0, STATIC
        ARGFRAME DOVERLAY, 0, STATIC
        LOCFRAME XSTACK, 14, STACK
        PUBLIC SampleApp_MessageMSGCB
        FUNCTION SampleApp_MessageMSGCB,0203H
        ARGFRAME XSTACK, 12, STACK
        ARGFRAME IOVERLAY, 0, STATIC
        ARGFRAME DOVERLAY, 0, STATIC
        PUBLIC SampleApp_NwkState
        PUBLIC SampleApp_OutClusterList
        PUBLIC SampleApp_Periodic_DstAddr
        PUBLIC SampleApp_ProcessEvent
        FUNCTION SampleApp_ProcessEvent,021603H
        ARGFRAME XSTACK, 0, STACK
        LOCFRAME XSTACK, 12, STACK
        PUBLIC SampleApp_SimpleDesc
        PUBLIC SampleApp_TaskID
        PUBLIC SampleApp_TransID
        PUBLIC SampleApp_epDesc
        PUBLIC SendIndicate
        PUBLIC WEBEE_Group
        PUBLIC osalInitTasks
        FUNCTION osalInitTasks,021203H
        ARGFRAME XSTACK, 0, STACK
        LOCFRAME ISTACK, 2, STACK
        PUBLIC tasksArr
        PUBLIC tasksCnt
        PUBLIC tasksEvents
        
        CFI Names cfiNames0
        CFI StackFrame CFA_SP SP IDATA
        CFI StackFrame CFA_PSP16 PSP16 XDATA
        CFI StackFrame CFA_XSP16 XSP16 XDATA
        CFI StaticOverlayFrame CFA_IOVERLAY IOVERLAY
        CFI StaticOverlayFrame CFA_DOVERLAY DOVERLAY
        CFI Resource `PSW.CY`:1, `B.BR0`:1, `B.BR1`:1, `B.BR2`:1, `B.BR3`:1
        CFI Resource `B.BR4`:1, `B.BR5`:1, `B.BR6`:1, `B.BR7`:1, `VB.BR8`:1
        CFI Resource `VB.BR9`:1, `VB.BR10`:1, `VB.BR11`:1, `VB.BR12`:1
        CFI Resource `VB.BR13`:1, `VB.BR14`:1, `VB.BR15`:1, VB:8, B:8, A:8
        CFI Resource PSW:8, DPL0:8, DPH0:8, R0:8, R1:8, R2:8, R3:8, R4:8, R5:8
        CFI Resource R6:8, R7:8, V0:8, V1:8, V2:8, V3:8, V4:8, V5:8, V6:8, V7:8
        CFI Resource V8:8, V9:8, V10:8, V11:8, V12:8, V13:8, V14:8, V15:8, SP:8
        CFI Resource PSPH:8, PSPL:8, PSP16:16, XSPH:8, XSPL:8, XSP16:16
        CFI VirtualResource ?RET:24
        CFI Resource ?BRET_EXT:8
        CFI VirtualResource ?RET_HIGH:8, ?RET_LOW:8
        CFI ResourceParts PSP16 PSPH, PSPL
        CFI ResourceParts XSP16 XSPH, XSPL
        CFI ResourceParts ?RET ?BRET_EXT, ?RET_HIGH, ?RET_LOW
        CFI EndNames cfiNames0
        
        CFI Common cfiCommon0 Using cfiNames0
        CFI CodeAlign 1
        CFI DataAlign -1
        CFI ReturnAddress ?RET CODE
        CFI CFA_DOVERLAY Used
        CFI CFA_IOVERLAY Used
        CFI CFA_SP SP+-3
        CFI CFA_PSP16 PSP16+0
        CFI CFA_XSP16 XSP16+0
        CFI `PSW.CY` SameValue
        CFI `B.BR0` SameValue
        CFI `B.BR1` SameValue
        CFI `B.BR2` SameValue
        CFI `B.BR3` SameValue
        CFI `B.BR4` SameValue
        CFI `B.BR5` SameValue
        CFI `B.BR6` SameValue
        CFI `B.BR7` SameValue
        CFI `VB.BR8` SameValue
        CFI `VB.BR9` SameValue
        CFI `VB.BR10` SameValue
        CFI `VB.BR11` SameValue
        CFI `VB.BR12` SameValue
        CFI `VB.BR13` SameValue
        CFI `VB.BR14` SameValue
        CFI `VB.BR15` SameValue
        CFI VB SameValue
        CFI B Undefined
        CFI A Undefined
        CFI PSW SameValue
        CFI DPL0 SameValue
        CFI DPH0 SameValue
        CFI R0 Undefined
        CFI R1 Undefined
        CFI R2 Undefined
        CFI R3 Undefined
        CFI R4 Undefined
        CFI R5 Undefined
        CFI R6 SameValue
        CFI R7 SameValue
        CFI V0 SameValue
        CFI V1 SameValue
        CFI V2 SameValue
        CFI V3 SameValue
        CFI V4 SameValue
        CFI V5 SameValue
        CFI V6 SameValue
        CFI V7 SameValue
        CFI V8 SameValue
        CFI V9 SameValue
        CFI V10 SameValue
        CFI V11 SameValue
        CFI V12 SameValue
        CFI V13 SameValue
        CFI V14 SameValue
        CFI V15 SameValue
        CFI PSPH Undefined
        CFI PSPL Undefined
        CFI XSPH Undefined
        CFI XSPL Undefined
        CFI ?RET Concat
        CFI ?BRET_EXT Frame(CFA_SP, 3)
        CFI ?RET_HIGH Frame(CFA_SP, 2)
        CFI ?RET_LOW Frame(CFA_SP, 1)
        CFI EndCommon cfiCommon0
        
osal_mem_alloc      SYMBOL "osal_mem_alloc"
osal_memset         SYMBOL "osal_memset"
macTaskInit         SYMBOL "macTaskInit"
nwk_init            SYMBOL "nwk_init"
Hal_Init            SYMBOL "Hal_Init"
APS_Init            SYMBOL "APS_Init"
ZDApp_Init          SYMBOL "ZDApp_Init"
ZDNwkMgr_Init       SYMBOL "ZDNwkMgr_Init"
printf              SYMBOL "printf"
SHT2x_Init          SYMBOL "SHT2x_Init"
bottom_led_init     SYMBOL "bottom_led_init"
UART2RS485_Init     SYMBOL "UART2RS485_Init"
Bottom_Blue         SYMBOL "Bottom_Blue"
osal_memcpy         SYMBOL "osal_memcpy"
aps_AddGroup        SYMBOL "aps_AddGroup"
afRegister          SYMBOL "afRegister"
osal_start_timerEx  SYMBOL "osal_start_timerEx"
osal_msg_receive    SYMBOL "osal_msg_receive"
osal_set_event      SYMBOL "osal_set_event"
osal_msg_deallocate SYMBOL "osal_msg_deallocate"
SHT2x_ReadTemp      SYMBOL "SHT2x_ReadTemp"
SHT2x_ReadHumi      SYMBOL "SHT2x_ReadHumi"
Bottom_BlackOut     SYMBOL "Bottom_BlackOut"
osal_rand           SYMBOL "osal_rand"
SHT2x_GetTemp       SYMBOL "SHT2x_GetTemp"
SHT2x_GetHumi       SYMBOL "SHT2x_GetHumi"
AF_DataRequest      SYMBOL "AF_DataRequest"
??AF_DataRequest?relay SYMBOL "?relay", AF_DataRequest
??APS_Init?relay    SYMBOL "?relay", APS_Init
`?<Name APS_event_loop 29>` SYMBOL "APS_event_loop"
??APS_event_loop?relay SYMBOL "?relay", `?<Name APS_event_loop 29>`
??Bottom_BlackOut?relay SYMBOL "?relay", Bottom_BlackOut
??Bottom_Blue?relay SYMBOL "?relay", Bottom_Blue
??Hal_Init?relay    SYMBOL "?relay", Hal_Init
`?<Name Hal_ProcessEvent 34>` SYMBOL "Hal_ProcessEvent"
??Hal_ProcessEvent?relay SYMBOL "?relay", `?<Name Hal_ProcessEvent 34>`
??SHT2x_GetHumi?relay SYMBOL "?relay", SHT2x_GetHumi
??SHT2x_GetTemp?relay SYMBOL "?relay", SHT2x_GetTemp
??SHT2x_Init?relay  SYMBOL "?relay", SHT2x_Init
??SHT2x_ReadHumi?relay SYMBOL "?relay", SHT2x_ReadHumi
??SHT2x_ReadTemp?relay SYMBOL "?relay", SHT2x_ReadTemp
??UART2RS485_Init?relay SYMBOL "?relay", UART2RS485_Init
??ZDApp_Init?relay  SYMBOL "?relay", ZDApp_Init
`?<Name ZDApp_event_loop 43>` SYMBOL "ZDApp_event_loop"
??ZDApp_event_loop?relay SYMBOL "?relay", `?<Name ZDApp_event_loop 43>`
??ZDNwkMgr_Init?relay SYMBOL "?relay", ZDNwkMgr_Init
`?<Name ZDNwkMgr_event_loop 46>` SYMBOL "ZDNwkMgr_event_loop"
??ZDNwkMgr_event_loop?relay SYMBOL "?relay", `?<Name ZDNwkMgr_event_loop 46>`
??afRegister?relay  SYMBOL "?relay", afRegister
??aps_AddGroup?relay SYMBOL "?relay", aps_AddGroup
??bottom_led_init?relay SYMBOL "?relay", bottom_led_init
`?<Name macEventLoop 51>` SYMBOL "macEventLoop"
??macEventLoop?relay SYMBOL "?relay", `?<Name macEventLoop 51>`
??macTaskInit?relay SYMBOL "?relay", macTaskInit
`?<Name nwk_event_loop 54>` SYMBOL "nwk_event_loop"
??nwk_event_loop?relay SYMBOL "?relay", `?<Name nwk_event_loop 54>`
??nwk_init?relay    SYMBOL "?relay", nwk_init
??osal_mem_alloc?relay SYMBOL "?relay", osal_mem_alloc
??osal_memcpy?relay SYMBOL "?relay", osal_memcpy
??osal_memset?relay SYMBOL "?relay", osal_memset
??osal_msg_deallocate?relay SYMBOL "?relay", osal_msg_deallocate
??osal_msg_receive?relay SYMBOL "?relay", osal_msg_receive
??osal_rand?relay   SYMBOL "?relay", osal_rand
??osal_set_event?relay SYMBOL "?relay", osal_set_event
??osal_start_timerEx?relay SYMBOL "?relay", osal_start_timerEx
??printf?relay      SYMBOL "?relay", printf
Group_SendTemperature SYMBOL "Group_SendTemperature"
??Group_SendTemperature?relay SYMBOL "?relay", Group_SendTemperature
SampleApp_Init      SYMBOL "SampleApp_Init"
??SampleApp_Init?relay SYMBOL "?relay", SampleApp_Init
SampleApp_MessageMSGCB SYMBOL "SampleApp_MessageMSGCB"
??SampleApp_MessageMSGCB?relay SYMBOL "?relay", SampleApp_MessageMSGCB
SampleApp_ProcessEvent SYMBOL "SampleApp_ProcessEvent"
??SampleApp_ProcessEvent?relay SYMBOL "?relay", SampleApp_ProcessEvent
osalInitTasks       SYMBOL "osalInitTasks"
??osalInitTasks?relay SYMBOL "?relay", osalInitTasks

        EXTERN osal_mem_alloc
        FUNCTION osal_mem_alloc,0202H
        ARGFRAME ISTACK, 2, STACK
        ARGFRAME PSTACK, 0, STACK
        ARGFRAME XSTACK, 0, STACK
        ARGFRAME IOVERLAY, 0, STATIC
        ARGFRAME DOVERLAY, 0, STATIC
        EXTERN osal_memset
        FUNCTION osal_memset,0202H
        ARGFRAME ISTACK, 2, STACK
        ARGFRAME PSTACK, 0, STACK
        ARGFRAME XSTACK, 0, STACK
        ARGFRAME IOVERLAY, 0, STATIC
        ARGFRAME DOVERLAY, 0, STATIC
        EXTERN macTaskInit
        FUNCTION macTaskInit,0202H
        ARGFRAME ISTACK, 2, STACK
        ARGFRAME PSTACK, 0, STACK
        ARGFRAME XSTACK, 0, STACK
        ARGFRAME IOVERLAY, 0, STATIC
        ARGFRAME DOVERLAY, 0, STATIC
        EXTERN nwk_init
        FUNCTION nwk_init,0202H
        ARGFRAME ISTACK, 2, STACK
        ARGFRAME PSTACK, 0, STACK
        ARGFRAME XSTACK, 0, STACK
        ARGFRAME IOVERLAY, 0, STATIC
        ARGFRAME DOVERLAY, 0, STATIC
        EXTERN Hal_Init
        FUNCTION Hal_Init,0202H
        ARGFRAME ISTACK, 2, STACK
        ARGFRAME PSTACK, 0, STACK
        ARGFRAME XSTACK, 0, STACK
        ARGFRAME IOVERLAY, 0, STATIC
        ARGFRAME DOVERLAY, 0, STATIC
        EXTERN APS_Init
        FUNCTION APS_Init,0202H
        ARGFRAME ISTACK, 2, STACK
        ARGFRAME PSTACK, 0, STACK
        ARGFRAME XSTACK, 0, STACK
        ARGFRAME IOVERLAY, 0, STATIC
        ARGFRAME DOVERLAY, 0, STATIC
        EXTERN ZDApp_Init
        FUNCTION ZDApp_Init,0202H
        ARGFRAME ISTACK, 2, STACK
        ARGFRAME PSTACK, 0, STACK
        ARGFRAME XSTACK, 0, STACK
        ARGFRAME IOVERLAY, 0, STATIC
        ARGFRAME DOVERLAY, 0, STATIC
        EXTERN ZDNwkMgr_Init
        FUNCTION ZDNwkMgr_Init,0202H
        ARGFRAME ISTACK, 2, STACK
        ARGFRAME PSTACK, 0, STACK
        ARGFRAME XSTACK, 0, STACK
        ARGFRAME IOVERLAY, 0, STATIC
        ARGFRAME DOVERLAY, 0, STATIC
        EXTERN printf
        FUNCTION printf,0202H
        ARGFRAME ISTACK, 0, STACK
        ARGFRAME PSTACK, 0, STACK
        ARGFRAME XSTACK, 12, STACK
        ARGFRAME IOVERLAY, 0, STATIC
        ARGFRAME DOVERLAY, 0, STATIC
        EXTERN SHT2x_Init
        FUNCTION SHT2x_Init,0202H
        ARGFRAME ISTACK, 0, STACK
        ARGFRAME PSTACK, 0, STACK
        ARGFRAME XSTACK, 11, STACK
        ARGFRAME IOVERLAY, 0, STATIC
        ARGFRAME DOVERLAY, 0, STATIC
        EXTERN bottom_led_init
        FUNCTION bottom_led_init,0202H
        ARGFRAME ISTACK, 0, STACK
        ARGFRAME PSTACK, 0, STACK
        ARGFRAME XSTACK, 11, STACK
        ARGFRAME IOVERLAY, 0, STATIC
        ARGFRAME DOVERLAY, 0, STATIC
        EXTERN UART2RS485_Init
        FUNCTION UART2RS485_Init,0202H
        ARGFRAME ISTACK, 0, STACK
        ARGFRAME PSTACK, 0, STACK
        ARGFRAME XSTACK, 11, STACK
        ARGFRAME IOVERLAY, 0, STATIC
        ARGFRAME DOVERLAY, 0, STATIC
        EXTERN Bottom_Blue
        FUNCTION Bottom_Blue,0202H
        ARGFRAME ISTACK, 0, STACK
        ARGFRAME PSTACK, 0, STACK
        ARGFRAME XSTACK, 12, STACK
        ARGFRAME IOVERLAY, 0, STATIC
        ARGFRAME DOVERLAY, 0, STATIC
        EXTERN osal_memcpy
        FUNCTION osal_memcpy,0202H
        ARGFRAME ISTACK, 0, STACK
        ARGFRAME PSTACK, 0, STACK
        ARGFRAME XSTACK, 14, STACK
        ARGFRAME IOVERLAY, 0, STATIC
        ARGFRAME DOVERLAY, 0, STATIC
        EXTERN aps_AddGroup
        FUNCTION aps_AddGroup,0202H
        ARGFRAME ISTACK, 0, STACK
        ARGFRAME PSTACK, 0, STACK
        ARGFRAME XSTACK, 11, STACK
        ARGFRAME IOVERLAY, 0, STATIC
        ARGFRAME DOVERLAY, 0, STATIC
        EXTERN afRegister
        FUNCTION afRegister,0202H
        ARGFRAME ISTACK, 0, STACK
        ARGFRAME PSTACK, 0, STACK
        ARGFRAME XSTACK, 11, STACK
        ARGFRAME IOVERLAY, 0, STATIC
        ARGFRAME DOVERLAY, 0, STATIC
        EXTERN osal_start_timerEx
        FUNCTION osal_start_timerEx,0202H
        ARGFRAME ISTACK, 0, STACK
        ARGFRAME PSTACK, 0, STACK
        ARGFRAME XSTACK, 12, STACK
        ARGFRAME IOVERLAY, 0, STATIC
        ARGFRAME DOVERLAY, 0, STATIC
        EXTERN osal_msg_receive
        FUNCTION osal_msg_receive,0202H
        ARGFRAME ISTACK, 0, STACK
        ARGFRAME PSTACK, 0, STACK
        ARGFRAME XSTACK, 12, STACK
        ARGFRAME IOVERLAY, 0, STATIC
        ARGFRAME DOVERLAY, 0, STATIC
        EXTERN osal_set_event
        FUNCTION osal_set_event,0202H
        ARGFRAME ISTACK, 0, STACK
        ARGFRAME PSTACK, 0, STACK
        ARGFRAME XSTACK, 12, STACK
        ARGFRAME IOVERLAY, 0, STATIC
        ARGFRAME DOVERLAY, 0, STATIC
        EXTERN osal_msg_deallocate
        FUNCTION osal_msg_deallocate,0202H
        ARGFRAME ISTACK, 0, STACK
        ARGFRAME PSTACK, 0, STACK
        ARGFRAME XSTACK, 12, STACK
        ARGFRAME IOVERLAY, 0, STATIC
        ARGFRAME DOVERLAY, 0, STATIC
        EXTERN SHT2x_ReadTemp
        FUNCTION SHT2x_ReadTemp,0202H
        ARGFRAME ISTACK, 0, STACK
        ARGFRAME PSTACK, 0, STACK
        ARGFRAME XSTACK, 12, STACK
        ARGFRAME IOVERLAY, 0, STATIC
        ARGFRAME DOVERLAY, 0, STATIC
        EXTERN SHT2x_ReadHumi
        FUNCTION SHT2x_ReadHumi,0202H
        ARGFRAME ISTACK, 0, STACK
        ARGFRAME PSTACK, 0, STACK
        ARGFRAME XSTACK, 12, STACK
        ARGFRAME IOVERLAY, 0, STATIC
        ARGFRAME DOVERLAY, 0, STATIC
        EXTERN Bottom_BlackOut
        FUNCTION Bottom_BlackOut,0202H
        ARGFRAME ISTACK, 0, STACK
        ARGFRAME PSTACK, 0, STACK
        ARGFRAME XSTACK, 12, STACK
        ARGFRAME IOVERLAY, 0, STATIC
        ARGFRAME DOVERLAY, 0, STATIC
        EXTERN osal_rand
        FUNCTION osal_rand,0202H
        ARGFRAME ISTACK, 0, STACK
        ARGFRAME PSTACK, 0, STACK
        ARGFRAME XSTACK, 12, STACK
        ARGFRAME IOVERLAY, 0, STATIC
        ARGFRAME DOVERLAY, 0, STATIC
        EXTERN SHT2x_GetTemp
        FUNCTION SHT2x_GetTemp,0202H
        ARGFRAME ISTACK, 0, STACK
        ARGFRAME PSTACK, 0, STACK
        ARGFRAME XSTACK, 12, STACK
        ARGFRAME IOVERLAY, 0, STATIC
        ARGFRAME DOVERLAY, 0, STATIC
        EXTERN SHT2x_GetHumi
        FUNCTION SHT2x_GetHumi,0202H
        ARGFRAME ISTACK, 0, STACK
        ARGFRAME PSTACK, 0, STACK
        ARGFRAME XSTACK, 12, STACK
        ARGFRAME IOVERLAY, 0, STATIC
        ARGFRAME DOVERLAY, 0, STATIC
        EXTERN AF_DataRequest
        FUNCTION AF_DataRequest,0202H
        ARGFRAME ISTACK, 0, STACK
        ARGFRAME PSTACK, 0, STACK
        ARGFRAME XSTACK, 21, STACK
        ARGFRAME IOVERLAY, 0, STATIC
        ARGFRAME DOVERLAY, 0, STATIC
        EXTERN ??AF_DataRequest?relay
        FUNCTION ??AF_DataRequest?relay,00H
        EXTERN ??APS_Init?relay
        FUNCTION ??APS_Init?relay,00H
        EXTERN ??APS_event_loop?relay
        FUNCTION ??APS_event_loop?relay,00H
        EXTERN ??Bottom_BlackOut?relay
        FUNCTION ??Bottom_BlackOut?relay,00H
        EXTERN ??Bottom_Blue?relay
        FUNCTION ??Bottom_Blue?relay,00H
        EXTERN ??Hal_Init?relay
        FUNCTION ??Hal_Init?relay,00H
        EXTERN ??Hal_ProcessEvent?relay
        FUNCTION ??Hal_ProcessEvent?relay,00H
        EXTERN ??SHT2x_GetHumi?relay
        FUNCTION ??SHT2x_GetHumi?relay,00H
        EXTERN ??SHT2x_GetTemp?relay
        FUNCTION ??SHT2x_GetTemp?relay,00H
        EXTERN ??SHT2x_Init?relay
        FUNCTION ??SHT2x_Init?relay,00H
        EXTERN ??SHT2x_ReadHumi?relay
        FUNCTION ??SHT2x_ReadHumi?relay,00H
        EXTERN ??SHT2x_ReadTemp?relay
        FUNCTION ??SHT2x_ReadTemp?relay,00H
        EXTERN ??UART2RS485_Init?relay
        FUNCTION ??UART2RS485_Init?relay,00H
        EXTERN ??ZDApp_Init?relay
        FUNCTION ??ZDApp_Init?relay,00H
        EXTERN ??ZDApp_event_loop?relay
        FUNCTION ??ZDApp_event_loop?relay,00H
        EXTERN ??ZDNwkMgr_Init?relay
        FUNCTION ??ZDNwkMgr_Init?relay,00H
        EXTERN ??ZDNwkMgr_event_loop?relay
        FUNCTION ??ZDNwkMgr_event_loop?relay,00H
        EXTERN ??afRegister?relay
        FUNCTION ??afRegister?relay,00H
        EXTERN ??aps_AddGroup?relay
        FUNCTION ??aps_AddGroup?relay,00H
        EXTERN ??bottom_led_init?relay
        FUNCTION ??bottom_led_init?relay,00H
        EXTERN ??macEventLoop?relay
        FUNCTION ??macEventLoop?relay,00H
        EXTERN ??macTaskInit?relay
        FUNCTION ??macTaskInit?relay,00H
        EXTERN ??nwk_event_loop?relay
        FUNCTION ??nwk_event_loop?relay,00H
        EXTERN ??nwk_init?relay
        FUNCTION ??nwk_init?relay,00H
        EXTERN ??osal_mem_alloc?relay
        FUNCTION ??osal_mem_alloc?relay,00H
        EXTERN ??osal_memcpy?relay
        FUNCTION ??osal_memcpy?relay,00H
        EXTERN ??osal_memset?relay
        FUNCTION ??osal_memset?relay,00H
        EXTERN ??osal_msg_deallocate?relay
        FUNCTION ??osal_msg_deallocate?relay,00H
        EXTERN ??osal_msg_receive?relay
        FUNCTION ??osal_msg_receive?relay,00H
        EXTERN ??osal_rand?relay
        FUNCTION ??osal_rand?relay,00H
        EXTERN ??osal_set_event?relay
        FUNCTION ??osal_set_event?relay,00H
        EXTERN ??osal_start_timerEx?relay
        FUNCTION ??osal_start_timerEx?relay,00H
        EXTERN ??printf?relay
        FUNCTION ??printf?relay,00H

// D:\ZigBee\KJXY-ZigBee\ZigBee-experiment\exp9-group\Projects\zstack\Samples\SampleApp\Source\EndDevice-TempHumi.c
//    1 /**************************************************************************************************
//    2   Filename:       SampleApp.c
//    3   Revised:        $Date: 2009-03-18 15:56:27 -0700 (Wed, 18 Mar 2009) $
//    4   Revision:       $Revision: 19453 $
//    5 
//    6   Description:    Sample Application (no Profile).
//    7 
//    8 
//    9   Copyright 2007 Texas Instruments Incorporated. All rights reserved.
//   10 
//   11   IMPORTANT: Your use of this Software is limited to those specific rights
//   12   granted under the terms of a software license agreement between the user
//   13   who downloaded the software, his/her employer (which must be your employer)
//   14   and Texas Instruments Incorporated (the "License").  You may not use this
//   15   Software unless you agree to abide by the terms of the License. The License
//   16   limits your use, and you acknowledge, that the Software may not be modified,
//   17   copied or distributed unless embedded on a Texas Instruments microcontroller
//   18   or used solely and exclusively in conjunction with a Texas Instruments radio
//   19   frequency transceiver, which is integrated into your product.  Other than for
//   20   the foregoing purpose, you may not use, reproduce, copy, prepare derivative
//   21   works of, modify, distribute, perform, display or sell this Software and/or
//   22   its documentation for any purpose.
//   23 
//   24   YOU FURTHER ACKNOWLEDGE AND AGREE THAT THE SOFTWARE AND DOCUMENTATION ARE
//   25   PROVIDED AS IS?WITHOUT WARRANTY OF ANY KIND, EITHER EXPRESS OR IMPLIED,
//   26   INCLUDING WITHOUT LIMITATION, ANY WARRANTY OF MERCHANTABILITY, TITLE,
//   27   NON-INFRINGEMENT AND FITNESS FOR A PARTICULAR PURPOSE. IN NO EVENT SHALL
//   28   TEXAS INSTRUMENTS OR ITS LICENSORS BE LIABLE OR OBLIGATED UNDER CONTRACT,
//   29   NEGLIGENCE, STRICT LIABILITY, CONTRIBUTION, BREACH OF WARRANTY, OR OTHER
//   30   LEGAL EQUITABLE THEORY ANY DIRECT OR INDIRECT DAMAGES OR EXPENSES
//   31   INCLUDING BUT NOT LIMITED TO ANY INCIDENTAL, SPECIAL, INDIRECT, PUNITIVE
//   32   OR CONSEQUENTIAL DAMAGES, LOST PROFITS OR LOST DATA, COST OF PROCUREMENT
//   33   OF SUBSTITUTE GOODS, TECHNOLOGY, SERVICES, OR ANY CLAIMS BY THIRD PARTIES
//   34   (INCLUDING BUT NOT LIMITED TO ANY DEFENSE THEREOF), OR OTHER SIMILAR COSTS.
//   35 
//   36   Should you have any questions regarding your right to use this Software,
//   37   contact Texas Instruments Incorporated at www.TI.com.
//   38 **************************************************************************************************/
//   39 
//   40 /*********************************************************************
//   41   This application isn't intended to do anything useful, it is
//   42   intended to be a simple example of an application's structure.
//   43 
//   44   This application sends it's messages either as broadcast or
//   45   broadcast filtered group messages.  The other (more normal)
//   46   message addressing is unicast.  Most of the other sample
//   47   applications are written to support the unicast message model.
//   48 
//   49   Key control:
//   50     SW1:  Sends a flash command to all devices in Group 1.
//   51     SW2:  Adds/Removes (toggles) this device in and out
//   52           of Group 1.  This will enable and disable the
//   53           reception of the flash command.
//   54 *********************************************************************/
//   55 
//   56 /*********************************************************************
//   57  * INCLUDES
//   58  */
//   59 #include "ZComDef.h"
//   60 #include "hal_drivers.h"
//   61 #include "OSAL.h"
//   62 #include "OSAL_Tasks.h"
//   63 
//   64 #if defined ( MT_TASK )
//   65   #include "MT.h"
//   66   #include "MT_TASK.h"
//   67 #endif
//   68 
//   69 #include "nwk.h"
//   70 #include "APS.h"
//   71 #include "ZDApp.h"
//   72 #if defined ( ZIGBEE_FREQ_AGILITY ) || defined ( ZIGBEE_PANID_CONFLICT )
//   73   #include "ZDNwkMgr.h"
//   74 #endif
//   75 #if defined ( ZIGBEE_FRAGMENTATION )
//   76   #include "aps_frag.h"
//   77 #endif
//   78 
//   79 #include "SampleApp.h"
//   80 #include "WiFiGate.h"
//   81 #include "OSAL.h"
//   82 #include "ZGlobals.h"
//   83 #include "AF.h"
//   84 #include "aps_groups.h"
//   85 #include "ZDApp.h"
//   86 
//   87 #include "SampleApp.h"
//   88 #include "SampleAppHw.h"
//   89 
//   90 #include "OnBoard.h"
//   91 
//   92 /* HAL */
//   93 #include "hal_lcd.h"
//   94 #include "hal_led.h"
//   95 #include "hal_key.h"
//   96 #include "string.h"
//   97 
//   98 #include "MT_UART.h"
//   99 #include "MT_APP.h"
//  100 #include "MT.h"
//  101 #include "OLED.h"
//  102 #include "SHT20.h"
//  103 #include "bottom_led.h"
//  104 #include "stdio.h"
//  105 #include "UART2RS485.h"
//  106 
//  107 #define SEND_TEMP_HUMI_MSG_EVT      0x0001 
//  108 #define SEND_TEMP_HUMI_MSG_TIMEOUT  0x2000
//  109 
//  110 #define READ_TEMP_HUMI_MSG_EVT      0x0002
//  111 #define READ_TEMP_HUMI_MSG_TIMEOUT  0x1000
//  112 
//  113 void Group_SendTemperature(void);
//  114 // The order in this table must be identical to the task initialization calls below in osalInitTask.

        RSEG XDATA_ROM_C:CONST:REORDER:NOROOT(0)
        DATA8
//  115 const pTaskEventHandlerFn tasksArr[] = {
tasksArr:
        DATA16
        DW ??macEventLoop?relay
        DW ??nwk_event_loop?relay
        DW ??Hal_ProcessEvent?relay
        DW ??APS_event_loop?relay
        DW ??ZDApp_event_loop?relay
        DW ??ZDNwkMgr_event_loop?relay
        DW ??SampleApp_ProcessEvent?relay
//  116   macEventLoop,
//  117   nwk_event_loop,
//  118   Hal_ProcessEvent,
//  119 #if defined( MT_TASK )
//  120   MT_ProcessEvent,
//  121 #endif
//  122   APS_event_loop,
//  123 #if defined ( ZIGBEE_FRAGMENTATION )
//  124   APSF_ProcessEvent,
//  125 #endif
//  126   ZDApp_event_loop,
//  127 #if defined ( ZIGBEE_FREQ_AGILITY ) || defined ( ZIGBEE_PANID_CONFLICT )
//  128   ZDNwkMgr_event_loop,
//  129 #endif
//  130   SampleApp_ProcessEvent
//  131 };
//  132 

        RSEG XDATA_ROM_C:CONST:REORDER:NOROOT(0)
        DATA8
//  133 const uint8 tasksCnt = sizeof( tasksArr ) / sizeof( tasksArr[0] );
tasksCnt:
        DB 7

        RSEG XDATA_Z:XDATA:NOROOT(0)
        DATA16
//  134 uint16 *tasksEvents;
tasksEvents:
        DS 2
        REQUIRE __INIT_XDATA_Z
//  135 /*********************************************************************
//  136  * @fn      osalInitTasks
//  137  *
//  138  * @brief   This function invokes the initialization function for each task.
//  139  *
//  140  * @param   void
//  141  *
//  142  * @return  none
//  143  */

        RSEG BANKED_CODE:CODE:NOROOT(0)
//  144 void osalInitTasks( void )
osalInitTasks:
        CFI Block cfiBlock0 Using cfiCommon0
        CFI Function osalInitTasks
        CODE
//  145 {
        FUNCALL osalInitTasks, osal_mem_alloc
        LOCFRAME ISTACK, 2, STACK
        LOCFRAME PSTACK, 0, STACK
        LOCFRAME XSTACK, 0, STACK
        LOCFRAME IOVERLAY, 0, STATIC
        LOCFRAME DOVERLAY, 0, STATIC
        ARGFRAME ISTACK, 2, STACK
        ARGFRAME PSTACK, 0, STACK
        ARGFRAME XSTACK, 0, STACK
        ARGFRAME IOVERLAY, 0, STATIC
        ARGFRAME DOVERLAY, 0, STATIC
        FUNCALL osalInitTasks, osal_memset
        LOCFRAME ISTACK, 2, STACK
        LOCFRAME PSTACK, 0, STACK
        LOCFRAME XSTACK, 0, STACK
        LOCFRAME IOVERLAY, 0, STATIC
        LOCFRAME DOVERLAY, 0, STATIC
        ARGFRAME ISTACK, 2, STACK
        ARGFRAME PSTACK, 0, STACK
        ARGFRAME XSTACK, 0, STACK
        ARGFRAME IOVERLAY, 0, STATIC
        ARGFRAME DOVERLAY, 0, STATIC
        FUNCALL osalInitTasks, macTaskInit
        LOCFRAME ISTACK, 2, STACK
        LOCFRAME PSTACK, 0, STACK
        LOCFRAME XSTACK, 0, STACK
        LOCFRAME IOVERLAY, 0, STATIC
        LOCFRAME DOVERLAY, 0, STATIC
        ARGFRAME ISTACK, 2, STACK
        ARGFRAME PSTACK, 0, STACK
        ARGFRAME XSTACK, 0, STACK
        ARGFRAME IOVERLAY, 0, STATIC
        ARGFRAME DOVERLAY, 0, STATIC
        FUNCALL osalInitTasks, nwk_init
        LOCFRAME ISTACK, 2, STACK
        LOCFRAME PSTACK, 0, STACK
        LOCFRAME XSTACK, 0, STACK
        LOCFRAME IOVERLAY, 0, STATIC
        LOCFRAME DOVERLAY, 0, STATIC
        ARGFRAME ISTACK, 2, STACK
        ARGFRAME PSTACK, 0, STACK
        ARGFRAME XSTACK, 0, STACK
        ARGFRAME IOVERLAY, 0, STATIC
        ARGFRAME DOVERLAY, 0, STATIC
        FUNCALL osalInitTasks, Hal_Init
        LOCFRAME ISTACK, 2, STACK
        LOCFRAME PSTACK, 0, STACK
        LOCFRAME XSTACK, 0, STACK
        LOCFRAME IOVERLAY, 0, STATIC
        LOCFRAME DOVERLAY, 0, STATIC
        ARGFRAME ISTACK, 2, STACK
        ARGFRAME PSTACK, 0, STACK
        ARGFRAME XSTACK, 0, STACK
        ARGFRAME IOVERLAY, 0, STATIC
        ARGFRAME DOVERLAY, 0, STATIC
        FUNCALL osalInitTasks, APS_Init
        LOCFRAME ISTACK, 2, STACK
        LOCFRAME PSTACK, 0, STACK
        LOCFRAME XSTACK, 0, STACK
        LOCFRAME IOVERLAY, 0, STATIC
        LOCFRAME DOVERLAY, 0, STATIC
        ARGFRAME ISTACK, 2, STACK
        ARGFRAME PSTACK, 0, STACK
        ARGFRAME XSTACK, 0, STACK
        ARGFRAME IOVERLAY, 0, STATIC
        ARGFRAME DOVERLAY, 0, STATIC
        FUNCALL osalInitTasks, ZDApp_Init
        LOCFRAME ISTACK, 2, STACK
        LOCFRAME PSTACK, 0, STACK
        LOCFRAME XSTACK, 0, STACK
        LOCFRAME IOVERLAY, 0, STATIC
        LOCFRAME DOVERLAY, 0, STATIC
        ARGFRAME ISTACK, 2, STACK
        ARGFRAME PSTACK, 0, STACK
        ARGFRAME XSTACK, 0, STACK
        ARGFRAME IOVERLAY, 0, STATIC
        ARGFRAME DOVERLAY, 0, STATIC
        FUNCALL osalInitTasks, ZDNwkMgr_Init
        LOCFRAME ISTACK, 2, STACK
        LOCFRAME PSTACK, 0, STACK
        LOCFRAME XSTACK, 0, STACK
        LOCFRAME IOVERLAY, 0, STATIC
        LOCFRAME DOVERLAY, 0, STATIC
        ARGFRAME ISTACK, 2, STACK
        ARGFRAME PSTACK, 0, STACK
        ARGFRAME XSTACK, 0, STACK
        ARGFRAME IOVERLAY, 0, STATIC
        ARGFRAME DOVERLAY, 0, STATIC
        FUNCALL osalInitTasks, SampleApp_Init
        LOCFRAME ISTACK, 2, STACK
        LOCFRAME PSTACK, 0, STACK
        LOCFRAME XSTACK, 0, STACK
        LOCFRAME IOVERLAY, 0, STATIC
        LOCFRAME DOVERLAY, 0, STATIC
        ARGFRAME ISTACK, 2, STACK
        ARGFRAME PSTACK, 0, STACK
        ARGFRAME XSTACK, 0, STACK
        ARGFRAME IOVERLAY, 0, STATIC
        ARGFRAME DOVERLAY, 0, STATIC
        PUSH    DPL
        CFI DPL0 Frame(CFA_SP, 4)
        CFI CFA_SP SP+-4
        PUSH    DPH
        CFI DPH0 Frame(CFA_SP, 5)
        CFI CFA_SP SP+-5
        ; Saved register size: 2
        ; Auto size: 0
//  146   uint8 taskID = 0;
//  147 
//  148   tasksEvents = (uint16 *)osal_mem_alloc( sizeof( uint16 ) * tasksCnt);
        ; Setup parameters for call to function osal_mem_alloc
        MOV     R2,#0xe
        MOV     R3,#0x0
        LCALL   ??osal_mem_alloc?relay
        MOV     DPTR,#tasksEvents
        MOV     A,R2
        MOVX    @DPTR,A
        INC     DPTR
        MOV     A,R3
        MOVX    @DPTR,A
//  149   osal_memset( tasksEvents, 0, (sizeof( uint16 ) * tasksCnt));
        ; Setup parameters for call to function osal_memset
        MOV     R4,#0xe
        MOV     R5,#0x0
        MOV     R1,#0x0
        MOV     DPTR,#tasksEvents
        MOVX    A,@DPTR
        MOV     R2,A
        INC     DPTR
        MOVX    A,@DPTR
        MOV     R3,A
        LCALL   ??osal_memset?relay
//  150 
//  151   macTaskInit( taskID++ );
        ; Setup parameters for call to function macTaskInit
        MOV     R1,#0x0
        LCALL   ??macTaskInit?relay
//  152   nwk_init( taskID++ );
        ; Setup parameters for call to function nwk_init
        MOV     R1,#0x1
        LCALL   ??nwk_init?relay
//  153   Hal_Init( taskID++ );
        ; Setup parameters for call to function Hal_Init
        MOV     R1,#0x2
        LCALL   ??Hal_Init?relay
//  154 #if defined( MT_TASK )
//  155   MT_TaskInit( taskID++ );
//  156 #endif
//  157   APS_Init( taskID++ );
        ; Setup parameters for call to function APS_Init
        MOV     R1,#0x3
        LCALL   ??APS_Init?relay
//  158 #if defined ( ZIGBEE_FRAGMENTATION )
//  159   APSF_Init( taskID++ );
//  160 #endif
//  161   ZDApp_Init( taskID++ );
        ; Setup parameters for call to function ZDApp_Init
        MOV     R1,#0x4
        LCALL   ??ZDApp_Init?relay
//  162 #if defined ( ZIGBEE_FREQ_AGILITY ) || defined ( ZIGBEE_PANID_CONFLICT )
//  163   ZDNwkMgr_Init( taskID++ );
        ; Setup parameters for call to function ZDNwkMgr_Init
        MOV     R1,#0x5
        LCALL   ??ZDNwkMgr_Init?relay
//  164 #endif
//  165   SampleApp_Init( taskID );
        ; Setup parameters for call to function SampleApp_Init
        MOV     R1,#0x6
        LCALL   ??SampleApp_Init?relay
//  166 }
        POP     DPH
        CFI DPH0 SameValue
        CFI CFA_SP SP+-4
        POP     DPL
        CFI DPL0 SameValue
        CFI CFA_SP SP+-3
        LJMP    ?BRET
        CFI EndBlock cfiBlock0
//  167 /*********************************************************************
//  168  * MACROS
//  169  */
//  170 
//  171 /*********************************************************************
//  172  * CONSTANTS
//  173  */
//  174 
//  175 /*********************************************************************
//  176  * TYPEDEFS
//  177  */
//  178 
//  179 /*********************************************************************
//  180  * GLOBAL VARIABLES
//  181  */
//  182 
//  183 // This list should be filled with Application specific Cluster IDs.

        RSEG XDATA_ROM_C:CONST:REORDER:NOROOT(0)
        DATA16
//  184 const cId_t SampleApp_OutClusterList[1] =
SampleApp_OutClusterList:
        DW 1
//  185 {
//  186   TEMP_HUMI_CLUSTER_ID
//  187 };
//  188 

        RSEG XDATA_ROM_C:CONST:REORDER:NOROOT(0)
        DATA8
//  189 const SimpleDescriptionFormat_t SampleApp_SimpleDesc =
SampleApp_SimpleDesc:
        DB 25
        DATA16
        DW 3848
        DW 1
        DATA8
        DB 0
        DB 0
        DATA16
        DW 0H
        DATA8
        DB 1
        DATA16
        DW SampleApp_OutClusterList
//  190 {
//  191   SAMPLEAPP_ENDPOINT,              //  int Endpoint;
//  192   SAMPLEAPP_PROFID,                //  uint16 AppProfId[2];
//  193   SAMPLEAPP_DEVICEID,              //  uint16 AppDeviceId[2];
//  194   SAMPLEAPP_DEVICE_VERSION,        //  int   AppDevVer:4;
//  195   SAMPLEAPP_FLAGS,                 //  int   AppFlags:4;
//  196   0,                               //  uint8  AppNumInClusters;
//  197   (cId_t *)NULL,                   //  uint8 *pAppInClusterList;
//  198   1,                               //  uint8  AppNumInClusters;
//  199   (cId_t *)SampleApp_OutClusterList //  uint8 *pAppOutClusterList;
//  200 };
//  201 
//  202 // This is the Endpoint/Interface description.  It is defined here, but
//  203 // filled-in in SampleApp_Init().  Another way to go would be to fill
//  204 // in the structure here and make it a "const" (in code space).  The
//  205 // way it's defined in this sample app it is define in RAM.

        RSEG XDATA_Z:XDATA:NOROOT(0)
        DATA8
//  206 endPointDesc_t SampleApp_epDesc;
SampleApp_epDesc:
        DS 6
        REQUIRE __INIT_XDATA_Z
//  207 
//  208 /*********************************************************************
//  209  * EXTERNAL VARIABLES
//  210  */
//  211 
//  212 /*********************************************************************
//  213  * EXTERNAL FUNCTIONS
//  214  */
//  215 
//  216 /*********************************************************************
//  217  * LOCAL VARIABLES
//  218  */

        RSEG XDATA_Z:XDATA:NOROOT(0)
        DATA8
//  219 uint8 SampleApp_TaskID;   // Task ID for internal task/event processing
SampleApp_TaskID:
        DS 1
        REQUIRE __INIT_XDATA_Z
//  220                           // This variable will be received when
//  221                           // SampleApp_Init() is called.

        RSEG XDATA_Z:XDATA:NOROOT(0)
        DATA8
//  222 devStates_t SampleApp_NwkState;
SampleApp_NwkState:
        DS 1
        REQUIRE __INIT_XDATA_Z
//  223 

        RSEG XDATA_Z:XDATA:NOROOT(0)
        DATA8
//  224 uint8 SampleApp_TransID;  // This is the unique message ID (counter)
SampleApp_TransID:
        DS 1
        REQUIRE __INIT_XDATA_Z
//  225 

        RSEG XDATA_Z:XDATA:NOROOT(0)
        DATA8
//  226 afAddrType_t SampleApp_Periodic_DstAddr;
SampleApp_Periodic_DstAddr:
        DS 12
        REQUIRE __INIT_XDATA_Z

        RSEG XDATA_Z:XDATA:NOROOT(0)
        DATA8
//  227 afAddrType_t SampleApp_Flash_DstAddr;
SampleApp_Flash_DstAddr:
        DS 12
        REQUIRE __INIT_XDATA_Z
//  228 

        RSEG XDATA_Z:XDATA:NOROOT(0)
        DATA8
//  229 afAddrType_t Point_To_Point_DstAddr;//点对点通信定义
Point_To_Point_DstAddr:
        DS 12
        REQUIRE __INIT_XDATA_Z
//  230 

        RSEG XDATA_Z:XDATA:NOROOT(0)
        DATA8
//  231 afAddrType_t Group_DstAddr;//网蜂组播通信定义
Group_DstAddr:
        DS 12
        REQUIRE __INIT_XDATA_Z
//  232 
//  233 //设置两个组 SampleApp_Group WEBEE_Group

        RSEG XDATA_Z:XDATA:NOROOT(0)
        DATA8
//  234 aps_Group_t SampleApp_Group;
SampleApp_Group:
        DS 18
        REQUIRE __INIT_XDATA_Z

        RSEG XDATA_Z:XDATA:NOROOT(0)
        DATA8
//  235 aps_Group_t WEBEE_Group; 
WEBEE_Group:
        DS 18
        REQUIRE __INIT_XDATA_Z
//  236 
//  237 #define WEBEE_GROUP       0x0002      //网蜂组播号2
//  238 #define SAMPLE_APP_GROUNP 0x0001      //网蜂组播号1
//  239 

        RSEG XDATA_I:XDATA:NOROOT(0)
//  240 uint8 SendIndicate = 1;
SendIndicate:
        DATA8
        DS 1
        REQUIRE `?<Initializer for SendIndicate>`
        REQUIRE __INIT_XDATA_I

        RSEG XDATA_I:XDATA:NOROOT(0)
//  241 uint8 ReadTempHumiControl = 1;//ReadTempHumiControl=0 读温度 ;=1 读湿度
ReadTempHumiControl:
        DATA8
        DS 1
        REQUIRE `?<Initializer for ReadTempHumiControl>`
        REQUIRE __INIT_XDATA_I
//  242 /*********************************************************************
//  243  * LOCAL FUNCTIONS
//  244  */
//  245 void SampleApp_MessageMSGCB( afIncomingMSGPacket_t *pckt );
//  246 /*********************************************************************
//  247  * NETWORK LAYER CALLBACKS
//  248  */
//  249 
//  250 /*********************************************************************
//  251  * PUBLIC FUNCTIONS
//  252  */
//  253 
//  254 /*********************************************************************
//  255  * @fn      SampleApp_Init
//  256  *
//  257  * @brief   Initialization function for the Generic App Task.
//  258  *          This is called during initialization and should contain
//  259  *          any application specific initialization (ie. hardware
//  260  *          initialization/setup, table initialization, power up
//  261  *          notificaiton ... ).
//  262  *
//  263  * @param   task_id - the ID assigned by OSAL.  This ID should be
//  264  *                    used to send messages and set timers.
//  265  *
//  266  * @return  none
//  267  */

        RSEG BANKED_CODE:CODE:NOROOT(0)
//  268 void SampleApp_Init( uint8 task_id )
SampleApp_Init:
        CFI Block cfiBlock1 Using cfiCommon0
        CFI Function SampleApp_Init
        CODE
//  269 {
        FUNCALL SampleApp_Init, printf
        LOCFRAME ISTACK, 0, STACK
        LOCFRAME PSTACK, 0, STACK
        LOCFRAME XSTACK, 11, STACK
        LOCFRAME IOVERLAY, 0, STATIC
        LOCFRAME DOVERLAY, 0, STATIC
        ARGFRAME ISTACK, 0, STACK
        ARGFRAME PSTACK, 0, STACK
        ARGFRAME XSTACK, 11, STACK
        ARGFRAME IOVERLAY, 0, STATIC
        ARGFRAME DOVERLAY, 0, STATIC
        FUNCALL SampleApp_Init, SHT2x_Init
        LOCFRAME ISTACK, 0, STACK
        LOCFRAME PSTACK, 0, STACK
        LOCFRAME XSTACK, 11, STACK
        LOCFRAME IOVERLAY, 0, STATIC
        LOCFRAME DOVERLAY, 0, STATIC
        ARGFRAME ISTACK, 0, STACK
        ARGFRAME PSTACK, 0, STACK
        ARGFRAME XSTACK, 11, STACK
        ARGFRAME IOVERLAY, 0, STATIC
        ARGFRAME DOVERLAY, 0, STATIC
        FUNCALL SampleApp_Init, bottom_led_init
        LOCFRAME ISTACK, 0, STACK
        LOCFRAME PSTACK, 0, STACK
        LOCFRAME XSTACK, 11, STACK
        LOCFRAME IOVERLAY, 0, STATIC
        LOCFRAME DOVERLAY, 0, STATIC
        ARGFRAME ISTACK, 0, STACK
        ARGFRAME PSTACK, 0, STACK
        ARGFRAME XSTACK, 11, STACK
        ARGFRAME IOVERLAY, 0, STATIC
        ARGFRAME DOVERLAY, 0, STATIC
        FUNCALL SampleApp_Init, UART2RS485_Init
        LOCFRAME ISTACK, 0, STACK
        LOCFRAME PSTACK, 0, STACK
        LOCFRAME XSTACK, 11, STACK
        LOCFRAME IOVERLAY, 0, STATIC
        LOCFRAME DOVERLAY, 0, STATIC
        ARGFRAME ISTACK, 0, STACK
        ARGFRAME PSTACK, 0, STACK
        ARGFRAME XSTACK, 11, STACK
        ARGFRAME IOVERLAY, 0, STATIC
        ARGFRAME DOVERLAY, 0, STATIC
        FUNCALL SampleApp_Init, Bottom_Blue
        LOCFRAME ISTACK, 0, STACK
        LOCFRAME PSTACK, 0, STACK
        LOCFRAME XSTACK, 11, STACK
        LOCFRAME IOVERLAY, 0, STATIC
        LOCFRAME DOVERLAY, 0, STATIC
        ARGFRAME ISTACK, 0, STACK
        ARGFRAME PSTACK, 0, STACK
        ARGFRAME XSTACK, 11, STACK
        ARGFRAME IOVERLAY, 0, STATIC
        ARGFRAME DOVERLAY, 0, STATIC
        FUNCALL SampleApp_Init, osal_memcpy
        LOCFRAME ISTACK, 0, STACK
        LOCFRAME PSTACK, 0, STACK
        LOCFRAME XSTACK, 14, STACK
        LOCFRAME IOVERLAY, 0, STATIC
        LOCFRAME DOVERLAY, 0, STATIC
        ARGFRAME ISTACK, 0, STACK
        ARGFRAME PSTACK, 0, STACK
        ARGFRAME XSTACK, 14, STACK
        ARGFRAME IOVERLAY, 0, STATIC
        ARGFRAME DOVERLAY, 0, STATIC
        FUNCALL SampleApp_Init, aps_AddGroup
        LOCFRAME ISTACK, 0, STACK
        LOCFRAME PSTACK, 0, STACK
        LOCFRAME XSTACK, 11, STACK
        LOCFRAME IOVERLAY, 0, STATIC
        LOCFRAME DOVERLAY, 0, STATIC
        ARGFRAME ISTACK, 0, STACK
        ARGFRAME PSTACK, 0, STACK
        ARGFRAME XSTACK, 11, STACK
        ARGFRAME IOVERLAY, 0, STATIC
        ARGFRAME DOVERLAY, 0, STATIC
        FUNCALL SampleApp_Init, afRegister
        LOCFRAME ISTACK, 0, STACK
        LOCFRAME PSTACK, 0, STACK
        LOCFRAME XSTACK, 11, STACK
        LOCFRAME IOVERLAY, 0, STATIC
        LOCFRAME DOVERLAY, 0, STATIC
        ARGFRAME ISTACK, 0, STACK
        ARGFRAME PSTACK, 0, STACK
        ARGFRAME XSTACK, 11, STACK
        ARGFRAME IOVERLAY, 0, STATIC
        ARGFRAME DOVERLAY, 0, STATIC
        FUNCALL SampleApp_Init, osal_start_timerEx
        LOCFRAME ISTACK, 0, STACK
        LOCFRAME PSTACK, 0, STACK
        LOCFRAME XSTACK, 11, STACK
        LOCFRAME IOVERLAY, 0, STATIC
        LOCFRAME DOVERLAY, 0, STATIC
        ARGFRAME ISTACK, 0, STACK
        ARGFRAME PSTACK, 0, STACK
        ARGFRAME XSTACK, 11, STACK
        ARGFRAME IOVERLAY, 0, STATIC
        ARGFRAME DOVERLAY, 0, STATIC
        MOV     A,#-0xb
        LCALL   ?BANKED_ENTER_XDATA
        CFI DPH0 load(1, XDATA, add(CFA_XSP16, literal(-1)))
        CFI DPL0 load(1, XDATA, add(CFA_XSP16, literal(-2)))
        CFI ?BRET_EXT load(1, XDATA, add(CFA_XSP16, literal(-3)))
        CFI ?RET_HIGH load(1, XDATA, add(CFA_XSP16, literal(-4)))
        CFI ?RET_LOW load(1, XDATA, add(CFA_XSP16, literal(-5)))
        CFI R7 load(1, XDATA, add(CFA_XSP16, literal(-6)))
        CFI V2 load(1, XDATA, add(CFA_XSP16, literal(-7)))
        CFI V1 load(1, XDATA, add(CFA_XSP16, literal(-8)))
        CFI V0 load(1, XDATA, add(CFA_XSP16, literal(-9)))
        CFI VB load(1, XDATA, add(CFA_XSP16, literal(-10)))
        CFI R6 load(1, XDATA, add(CFA_XSP16, literal(-11)))
        CFI CFA_SP SP+0
        CFI CFA_XSP16 add(XSP16, 11)
        ; Saved register size: 11
        ; Auto size: 0
        MOV     A,R1
//  270   SampleApp_TaskID = task_id;
        MOV     DPTR,#SampleApp_TaskID
        MOVX    @DPTR,A
//  271   SampleApp_NwkState = DEV_INIT;
        MOV     DPTR,#SampleApp_NwkState
        MOV     A,#0x1
        MOVX    @DPTR,A
//  272   SampleApp_TransID = 0;
        MOV     DPTR,#SampleApp_TransID
        CLR     A
        MOVX    @DPTR,A
//  273   
//  274  /***********串口初始化************/
//  275   printf("i am coordinator\r\n");
        ; Setup parameters for call to function printf
        MOV     R2,#`?<Constant "i am coordinator\\r\\n">` & 0xff
        MOV     R3,#(`?<Constant "i am coordinator\\r\\n">` >> 8) & 0xff
        LCALL   ??printf?relay
//  276   SHT2x_Init();       //初始化温度传感器   
        ; Setup parameters for call to function SHT2x_Init
        LCALL   ??SHT2x_Init?relay
//  277   bottom_led_init(); //初始化底部LED
        ; Setup parameters for call to function bottom_led_init
        LCALL   ??bottom_led_init?relay
//  278   UART2RS485_Init(); //使能UART1、RS485 
        ; Setup parameters for call to function UART2RS485_Init
        LCALL   ??UART2RS485_Init?relay
//  279   Bottom_Blue();
        ; Setup parameters for call to function Bottom_Blue
        LCALL   ??Bottom_Blue?relay
//  280 //***************设置组播通信目的地址参数****************************** 
//  281   Group_DstAddr.addrMode = (afAddrMode_t)afAddrGroup;
        MOV     DPTR,#Group_DstAddr + 8
        MOV     A,#0x1
        MOVX    @DPTR,A
//  282   Group_DstAddr.endPoint = SAMPLEAPP_ENDPOINT;    
        INC     DPTR
        MOV     A,#0x19
        MOVX    @DPTR,A
//  283   Group_DstAddr.addr.shortAddr = SAMPLE_APP_GROUNP;//WEBEE_GROUP; //加入WEBEE_GROUP    
        MOV     DPTR,#Group_DstAddr
        MOV     A,#0x1
        MOVX    @DPTR,A
        INC     DPTR
        CLR     A
        MOVX    @DPTR,A
//  284   SampleApp_Group.ID = SAMPLE_APP_GROUNP;//加入到SAMPLE_APP_GROUP组ID
        MOV     DPTR,#SampleApp_Group
        INC     A
        MOVX    @DPTR,A
        INC     DPTR
        CLR     A
        MOVX    @DPTR,A
//  285   osal_memcpy( SampleApp_Group.name, "Group 1", 7  );//组名称   
        ; Setup parameters for call to function osal_memcpy
        MOV     ?V0 + 0,#`?<Constant "Group 1">` & 0xff
        MOV     ?V0 + 1,#(`?<Constant "Group 1">` >> 8) & 0xff
        MOV     ?V0 + 2,A
        MOV     R0,#?V0 + 0
        LCALL   ?PUSH_XSTACK_I_THREE
        CFI CFA_XSP16 add(XSP16, 14)
        MOV     R4,#0x7
        MOV     R5,#0x0
        MOV     R2,#(SampleApp_Group + 2) & 0xff
        MOV     R3,#((SampleApp_Group + 2) >> 8) & 0xff
        LCALL   ??osal_memcpy?relay
        MOV     A,#0x3
        LCALL   ?DEALLOC_XSTACK8
        CFI CFA_XSP16 add(XSP16, 11)
//  286   aps_AddGroup( SAMPLEAPP_ENDPOINT, &SampleApp_Group ); 
        ; Setup parameters for call to function aps_AddGroup
        MOV     R2,#SampleApp_Group & 0xff
        MOV     R3,#(SampleApp_Group >> 8) & 0xff
        MOV     R1,#0x19
        LCALL   ??aps_AddGroup?relay
//  287 //*********注册端点**************************************
//  288 
//  289   SampleApp_epDesc.endPoint     = SAMPLEAPP_ENDPOINT;
        MOV     DPTR,#SampleApp_epDesc
        MOV     A,#0x19
        MOVX    @DPTR,A
//  290   SampleApp_epDesc.task_id      = &SampleApp_TaskID;
        INC     DPTR
        MOV     A,#SampleApp_TaskID & 0xff
        MOVX    @DPTR,A
        INC     DPTR
        MOV     A,#(SampleApp_TaskID >> 8) & 0xff
        MOVX    @DPTR,A
//  291   SampleApp_epDesc.simpleDesc   = (SimpleDescriptionFormat_t *)&SampleApp_SimpleDesc;
        INC     DPTR
        MOV     A,#SampleApp_SimpleDesc & 0xff
        MOVX    @DPTR,A
        INC     DPTR
        MOV     A,#(SampleApp_SimpleDesc >> 8) & 0xff
        MOVX    @DPTR,A
//  292   SampleApp_epDesc.latencyReq   = noLatencyReqs;
        INC     DPTR
        CLR     A
        MOVX    @DPTR,A
//  293 
//  294   afRegister( &SampleApp_epDesc );
        ; Setup parameters for call to function afRegister
        MOV     R2,#SampleApp_epDesc & 0xff
        MOV     R3,#(SampleApp_epDesc >> 8) & 0xff
        LCALL   ??afRegister?relay
//  295   osal_start_timerEx( SampleApp_TaskID, READ_TEMP_HUMI_MSG_EVT,READ_TEMP_HUMI_MSG_TIMEOUT); //启动读温湿度 
        ; Setup parameters for call to function osal_start_timerEx
        MOV     R4,#0x0
        MOV     R5,#0x10
        MOV     R2,#0x2
        MOV     R3,#0x0
        MOV     DPTR,#SampleApp_TaskID
        MOVX    A,@DPTR
        MOV     R1,A
        LCALL   ??osal_start_timerEx?relay
//  296 //*********注册端点**************************************  
//  297 }
        MOV     R7,#0x3
        LJMP    ?BANKED_LEAVE_XDATA
        CFI EndBlock cfiBlock1
//  298 
//  299 /*********************************************************************
//  300  * @fn      SampleApp_ProcessEvent
//  301  *
//  302  * @brief   Generic Application Task event processor.  This function
//  303  *          is called to process all events for the task.  Events
//  304  *          include timers, messages and any other user defined events.
//  305  *
//  306  * @param   task_id  - The OSAL assigned task ID.
//  307  * @param   events - events to process.  This is a bit map and can
//  308  *                   contain more than one event.
//  309  *
//  310  * @return  none
//  311  */

        RSEG BANKED_CODE:CODE:NOROOT(0)
//  312 uint16 SampleApp_ProcessEvent( uint8 task_id, uint16 events )
SampleApp_ProcessEvent:
        CFI Block cfiBlock2 Using cfiCommon0
        CFI Function SampleApp_ProcessEvent
        CODE
//  313 {
        FUNCALL SampleApp_ProcessEvent, osal_msg_receive
        LOCFRAME ISTACK, 0, STACK
        LOCFRAME PSTACK, 0, STACK
        LOCFRAME XSTACK, 12, STACK
        LOCFRAME IOVERLAY, 0, STATIC
        LOCFRAME DOVERLAY, 0, STATIC
        ARGFRAME ISTACK, 0, STACK
        ARGFRAME PSTACK, 0, STACK
        ARGFRAME XSTACK, 12, STACK
        ARGFRAME IOVERLAY, 0, STATIC
        ARGFRAME DOVERLAY, 0, STATIC
        FUNCALL SampleApp_ProcessEvent, printf
        LOCFRAME ISTACK, 0, STACK
        LOCFRAME PSTACK, 0, STACK
        LOCFRAME XSTACK, 12, STACK
        LOCFRAME IOVERLAY, 0, STATIC
        LOCFRAME DOVERLAY, 0, STATIC
        ARGFRAME ISTACK, 0, STACK
        ARGFRAME PSTACK, 0, STACK
        ARGFRAME XSTACK, 12, STACK
        ARGFRAME IOVERLAY, 0, STATIC
        ARGFRAME DOVERLAY, 0, STATIC
        FUNCALL SampleApp_ProcessEvent, osal_set_event
        LOCFRAME ISTACK, 0, STACK
        LOCFRAME PSTACK, 0, STACK
        LOCFRAME XSTACK, 12, STACK
        LOCFRAME IOVERLAY, 0, STATIC
        LOCFRAME DOVERLAY, 0, STATIC
        ARGFRAME ISTACK, 0, STACK
        ARGFRAME PSTACK, 0, STACK
        ARGFRAME XSTACK, 12, STACK
        ARGFRAME IOVERLAY, 0, STATIC
        ARGFRAME DOVERLAY, 0, STATIC
        FUNCALL SampleApp_ProcessEvent, osal_start_timerEx
        LOCFRAME ISTACK, 0, STACK
        LOCFRAME PSTACK, 0, STACK
        LOCFRAME XSTACK, 12, STACK
        LOCFRAME IOVERLAY, 0, STATIC
        LOCFRAME DOVERLAY, 0, STATIC
        ARGFRAME ISTACK, 0, STACK
        ARGFRAME PSTACK, 0, STACK
        ARGFRAME XSTACK, 12, STACK
        ARGFRAME IOVERLAY, 0, STATIC
        ARGFRAME DOVERLAY, 0, STATIC
        FUNCALL SampleApp_ProcessEvent, osal_msg_deallocate
        LOCFRAME ISTACK, 0, STACK
        LOCFRAME PSTACK, 0, STACK
        LOCFRAME XSTACK, 12, STACK
        LOCFRAME IOVERLAY, 0, STATIC
        LOCFRAME DOVERLAY, 0, STATIC
        ARGFRAME ISTACK, 0, STACK
        ARGFRAME PSTACK, 0, STACK
        ARGFRAME XSTACK, 12, STACK
        ARGFRAME IOVERLAY, 0, STATIC
        ARGFRAME DOVERLAY, 0, STATIC
        FUNCALL SampleApp_ProcessEvent, osal_msg_receive
        LOCFRAME ISTACK, 0, STACK
        LOCFRAME PSTACK, 0, STACK
        LOCFRAME XSTACK, 12, STACK
        LOCFRAME IOVERLAY, 0, STATIC
        LOCFRAME DOVERLAY, 0, STATIC
        ARGFRAME ISTACK, 0, STACK
        ARGFRAME PSTACK, 0, STACK
        ARGFRAME XSTACK, 12, STACK
        ARGFRAME IOVERLAY, 0, STATIC
        ARGFRAME DOVERLAY, 0, STATIC
        FUNCALL SampleApp_ProcessEvent, SampleApp_MessageMSGCB
        LOCFRAME ISTACK, 0, STACK
        LOCFRAME PSTACK, 0, STACK
        LOCFRAME XSTACK, 12, STACK
        LOCFRAME IOVERLAY, 0, STATIC
        LOCFRAME DOVERLAY, 0, STATIC
        ARGFRAME ISTACK, 0, STACK
        ARGFRAME PSTACK, 0, STACK
        ARGFRAME XSTACK, 12, STACK
        ARGFRAME IOVERLAY, 0, STATIC
        ARGFRAME DOVERLAY, 0, STATIC
        FUNCALL SampleApp_ProcessEvent, printf
        LOCFRAME ISTACK, 0, STACK
        LOCFRAME PSTACK, 0, STACK
        LOCFRAME XSTACK, 12, STACK
        LOCFRAME IOVERLAY, 0, STATIC
        LOCFRAME DOVERLAY, 0, STATIC
        ARGFRAME ISTACK, 0, STACK
        ARGFRAME PSTACK, 0, STACK
        ARGFRAME XSTACK, 12, STACK
        ARGFRAME IOVERLAY, 0, STATIC
        ARGFRAME DOVERLAY, 0, STATIC
        FUNCALL SampleApp_ProcessEvent, SHT2x_ReadTemp
        LOCFRAME ISTACK, 0, STACK
        LOCFRAME PSTACK, 0, STACK
        LOCFRAME XSTACK, 12, STACK
        LOCFRAME IOVERLAY, 0, STATIC
        LOCFRAME DOVERLAY, 0, STATIC
        ARGFRAME ISTACK, 0, STACK
        ARGFRAME PSTACK, 0, STACK
        ARGFRAME XSTACK, 12, STACK
        ARGFRAME IOVERLAY, 0, STATIC
        ARGFRAME DOVERLAY, 0, STATIC
        FUNCALL SampleApp_ProcessEvent, SHT2x_ReadHumi
        LOCFRAME ISTACK, 0, STACK
        LOCFRAME PSTACK, 0, STACK
        LOCFRAME XSTACK, 12, STACK
        LOCFRAME IOVERLAY, 0, STATIC
        LOCFRAME DOVERLAY, 0, STATIC
        ARGFRAME ISTACK, 0, STACK
        ARGFRAME PSTACK, 0, STACK
        ARGFRAME XSTACK, 12, STACK
        ARGFRAME IOVERLAY, 0, STATIC
        ARGFRAME DOVERLAY, 0, STATIC
        FUNCALL SampleApp_ProcessEvent, osal_start_timerEx
        LOCFRAME ISTACK, 0, STACK
        LOCFRAME PSTACK, 0, STACK
        LOCFRAME XSTACK, 12, STACK
        LOCFRAME IOVERLAY, 0, STATIC
        LOCFRAME DOVERLAY, 0, STATIC
        ARGFRAME ISTACK, 0, STACK
        ARGFRAME PSTACK, 0, STACK
        ARGFRAME XSTACK, 12, STACK
        ARGFRAME IOVERLAY, 0, STATIC
        ARGFRAME DOVERLAY, 0, STATIC
        FUNCALL SampleApp_ProcessEvent, Bottom_Blue
        LOCFRAME ISTACK, 0, STACK
        LOCFRAME PSTACK, 0, STACK
        LOCFRAME XSTACK, 12, STACK
        LOCFRAME IOVERLAY, 0, STATIC
        LOCFRAME DOVERLAY, 0, STATIC
        ARGFRAME ISTACK, 0, STACK
        ARGFRAME PSTACK, 0, STACK
        ARGFRAME XSTACK, 12, STACK
        ARGFRAME IOVERLAY, 0, STATIC
        ARGFRAME DOVERLAY, 0, STATIC
        FUNCALL SampleApp_ProcessEvent, Bottom_BlackOut
        LOCFRAME ISTACK, 0, STACK
        LOCFRAME PSTACK, 0, STACK
        LOCFRAME XSTACK, 12, STACK
        LOCFRAME IOVERLAY, 0, STATIC
        LOCFRAME DOVERLAY, 0, STATIC
        ARGFRAME ISTACK, 0, STACK
        ARGFRAME PSTACK, 0, STACK
        ARGFRAME XSTACK, 12, STACK
        ARGFRAME IOVERLAY, 0, STATIC
        ARGFRAME DOVERLAY, 0, STATIC
        FUNCALL SampleApp_ProcessEvent, Group_SendTemperature
        LOCFRAME ISTACK, 0, STACK
        LOCFRAME PSTACK, 0, STACK
        LOCFRAME XSTACK, 12, STACK
        LOCFRAME IOVERLAY, 0, STATIC
        LOCFRAME DOVERLAY, 0, STATIC
        ARGFRAME ISTACK, 0, STACK
        ARGFRAME PSTACK, 0, STACK
        ARGFRAME XSTACK, 12, STACK
        ARGFRAME IOVERLAY, 0, STATIC
        ARGFRAME DOVERLAY, 0, STATIC
        FUNCALL SampleApp_ProcessEvent, osal_rand
        LOCFRAME ISTACK, 0, STACK
        LOCFRAME PSTACK, 0, STACK
        LOCFRAME XSTACK, 12, STACK
        LOCFRAME IOVERLAY, 0, STATIC
        LOCFRAME DOVERLAY, 0, STATIC
        ARGFRAME ISTACK, 0, STACK
        ARGFRAME PSTACK, 0, STACK
        ARGFRAME XSTACK, 12, STACK
        ARGFRAME IOVERLAY, 0, STATIC
        ARGFRAME DOVERLAY, 0, STATIC
        FUNCALL SampleApp_ProcessEvent, osal_start_timerEx
        LOCFRAME ISTACK, 0, STACK
        LOCFRAME PSTACK, 0, STACK
        LOCFRAME XSTACK, 12, STACK
        LOCFRAME IOVERLAY, 0, STATIC
        LOCFRAME DOVERLAY, 0, STATIC
        ARGFRAME ISTACK, 0, STACK
        ARGFRAME PSTACK, 0, STACK
        ARGFRAME XSTACK, 12, STACK
        ARGFRAME IOVERLAY, 0, STATIC
        ARGFRAME DOVERLAY, 0, STATIC
        MOV     A,#-0xc
        LCALL   ?BANKED_ENTER_XDATA
        CFI DPH0 load(1, XDATA, add(CFA_XSP16, literal(-1)))
        CFI DPL0 load(1, XDATA, add(CFA_XSP16, literal(-2)))
        CFI ?BRET_EXT load(1, XDATA, add(CFA_XSP16, literal(-3)))
        CFI ?RET_HIGH load(1, XDATA, add(CFA_XSP16, literal(-4)))
        CFI ?RET_LOW load(1, XDATA, add(CFA_XSP16, literal(-5)))
        CFI R7 load(1, XDATA, add(CFA_XSP16, literal(-6)))
        CFI V3 load(1, XDATA, add(CFA_XSP16, literal(-7)))
        CFI V2 load(1, XDATA, add(CFA_XSP16, literal(-8)))
        CFI V1 load(1, XDATA, add(CFA_XSP16, literal(-9)))
        CFI V0 load(1, XDATA, add(CFA_XSP16, literal(-10)))
        CFI VB load(1, XDATA, add(CFA_XSP16, literal(-11)))
        CFI R6 load(1, XDATA, add(CFA_XSP16, literal(-12)))
        CFI CFA_SP SP+0
        CFI CFA_XSP16 add(XSP16, 12)
        ; Saved register size: 12
        ; Auto size: 0
        MOV     A,R2
        MOV     R6,A
        MOV     A,R3
        MOV     R7,A
//  314   afIncomingMSGPacket_t *MSGpkt;
//  315   (void)task_id;  // Intentionally unreferenced parameter
//  316 
//  317   if ( events & SYS_EVENT_MSG )
        ANL     A,#0x80
        JZ      ??SampleApp_ProcessEvent_0
//  318   {
//  319     MSGpkt = (afIncomingMSGPacket_t *)osal_msg_receive( SampleApp_TaskID );
        ; Setup parameters for call to function osal_msg_receive
        SJMP    ??SampleApp_ProcessEvent_1
//  320     while ( MSGpkt )
//  321     {
//  322       switch ( MSGpkt->hdr.event )
//  323       {        
//  324         // Received when a messages is received (OTA) for this endpoint
//  325         case AF_INCOMING_MSG_CMD:
//  326           SampleApp_MessageMSGCB( MSGpkt );
//  327           break;
//  328 
//  329         // Received whenever the device changes state in the network
//  330         case ZDO_STATE_CHANGE:
//  331           SampleApp_NwkState = (devStates_t)(MSGpkt->hdr.status);
??SampleApp_ProcessEvent_2:
        INC     DPTR
        MOVX    A,@DPTR
        MOV     DPTR,#SampleApp_NwkState
        MOVX    @DPTR,A
//  332           if(SampleApp_NwkState == DEV_ZB_COORD)
        MOVX    A,@DPTR
        XRL     A,#0x9
        JNZ     ??SampleApp_ProcessEvent_3
//  333           {
//  334             printf("coord ready!\r\n");
        ; Setup parameters for call to function printf
        MOV     R2,#`?<Constant "coord ready!\\r\\n">` & 0xff
        MOV     R3,#(`?<Constant "coord ready!\\r\\n">` >> 8) & 0xff
        LCALL   ??printf?relay
//  335           }
//  336           if (  (SampleApp_NwkState == DEV_ROUTER)
//  337               ||(SampleApp_NwkState == DEV_END_DEVICE) )
??SampleApp_ProcessEvent_3:
        MOV     DPTR,#SampleApp_NwkState
        MOVX    A,@DPTR
        XRL     A,#0x7
        JZ      ??SampleApp_ProcessEvent_4
        MOVX    A,@DPTR
        XRL     A,#0x6
        JNZ     ??SampleApp_ProcessEvent_5
//  338           {
//  339             //设置读温湿度传感器值，读出的数据保存在变量发送时再将数据读出来。
//  340             osal_set_event( SampleApp_TaskID,
//  341                             READ_TEMP_HUMI_MSG_EVT);
??SampleApp_ProcessEvent_4:
        ; Setup parameters for call to function osal_set_event
        MOV     R2,#0x2
        MOV     R3,#0x0
        MOV     DPTR,#SampleApp_TaskID
        MOVX    A,@DPTR
        MOV     R1,A
        LCALL   ??osal_set_event?relay
//  342             // 启动定时发送READ_TEMP_HUMI_MSG_TIMEOUT秒后发送传感器数据
//  343             osal_start_timerEx( SampleApp_TaskID,
//  344                               SEND_TEMP_HUMI_MSG_EVT,
//  345                               SEND_TEMP_HUMI_MSG_TIMEOUT );
        ; Setup parameters for call to function osal_start_timerEx
        MOV     R4,#0x0
        MOV     R5,#0x20
        MOV     R2,#0x1
        MOV     R3,#0x0
        MOV     DPTR,#SampleApp_TaskID
        MOVX    A,@DPTR
        MOV     R1,A
        LCALL   ??osal_start_timerEx?relay
//  346           }
//  347           break;
//  348 
//  349         default:
//  350           break;
//  351       }
//  352       // Release the memory
//  353       osal_msg_deallocate( (uint8 *)MSGpkt );
??SampleApp_ProcessEvent_5:
        ; Setup parameters for call to function osal_msg_deallocate
        MOV     R2,?V0 + 0
        MOV     R3,?V0 + 1
        LCALL   ??osal_msg_deallocate?relay
//  354       // Next - if one is available
//  355       MSGpkt = (afIncomingMSGPacket_t *)osal_msg_receive( SampleApp_TaskID );
        ; Setup parameters for call to function osal_msg_receive
??SampleApp_ProcessEvent_1:
        MOV     DPTR,#SampleApp_TaskID
        MOVX    A,@DPTR
        MOV     R1,A
        LCALL   ??osal_msg_receive?relay
        MOV     ?V0 + 0,R2
        MOV     ?V0 + 1,R3
        MOV     A,?V0 + 0
        ORL     A,?V0 + 1
        JZ      ??SampleApp_ProcessEvent_6
        MOV     DPL,?V0 + 0
        MOV     DPH,?V0 + 1
        MOVX    A,@DPTR
        ADD     A,#-0x1a
        JZ      ??SampleApp_ProcessEvent_7
        ADD     A,#0x49
        JZ      ??SampleApp_ProcessEvent_2
        SJMP    ??SampleApp_ProcessEvent_5
??SampleApp_ProcessEvent_7:
        ; Setup parameters for call to function SampleApp_MessageMSGCB
        MOV     R2,?V0 + 0
        MOV     R3,?V0 + 1
        LCALL   ??SampleApp_MessageMSGCB?relay
        SJMP    ??SampleApp_ProcessEvent_5
//  356     }
//  357     // return unprocessed events
//  358     return (events ^ SYS_EVENT_MSG);
??SampleApp_ProcessEvent_6:
        MOV     A,R6
        MOV     R2,A
        MOV     A,R7
        XRL     A,#0x80
??SampleApp_ProcessEvent_8:
        MOV     R3,A
        SJMP    ??SampleApp_ProcessEvent_9
//  359   }
//  360 
//  361   if(events & READ_TEMP_HUMI_MSG_EVT )
??SampleApp_ProcessEvent_0:
        MOV     A,R6
        ANL     A,#0x2
        JZ      ??SampleApp_ProcessEvent_10
//  362   {
//  363     printf("read temp and humi\r\n");
        ; Setup parameters for call to function printf
        MOV     R2,#`?<Constant "read temp and humi\\r\\n">` & 0xff
        MOV     R3,#(`?<Constant "read temp and humi\\r\\n">` >> 8) & 0xff
        LCALL   ??printf?relay
//  364     ReadTempHumiControl?(SHT2x_ReadTemp()):(SHT2x_ReadHumi());//读温湿度值并显示
        MOV     DPTR,#ReadTempHumiControl
        MOVX    A,@DPTR
        JZ      ??SampleApp_ProcessEvent_11
        ; Setup parameters for call to function SHT2x_ReadTemp
        LCALL   ??SHT2x_ReadTemp?relay
        SJMP    ??SampleApp_ProcessEvent_12
??SampleApp_ProcessEvent_11:
        ; Setup parameters for call to function SHT2x_ReadHumi
        LCALL   ??SHT2x_ReadHumi?relay
//  365     ReadTempHumiControl = 1 - ReadTempHumiControl;
??SampleApp_ProcessEvent_12:
        MOV     DPTR,#ReadTempHumiControl
        MOVX    A,@DPTR
        MOV     R0,A
        MOV     A,#0x1
        CLR     C
        SUBB    A,R0
        MOVX    @DPTR,A
//  366     
//  367     osal_start_timerEx( SampleApp_TaskID, READ_TEMP_HUMI_MSG_EVT,READ_TEMP_HUMI_MSG_TIMEOUT);
        ; Setup parameters for call to function osal_start_timerEx
        MOV     R4,#0x0
        MOV     R5,#0x10
        MOV     R2,#0x2
        MOV     R3,#0x0
        MOV     DPTR,#SampleApp_TaskID
        MOVX    A,@DPTR
        MOV     R1,A
        LCALL   ??osal_start_timerEx?relay
//  368     
//  369     return (events ^ READ_TEMP_HUMI_MSG_EVT);
        MOV     A,R6
        XRL     A,#0x2
??SampleApp_ProcessEvent_13:
        MOV     R2,A
        MOV     A,R7
        SJMP    ??SampleApp_ProcessEvent_8
//  370   }
//  371   if ( events & SEND_TEMP_HUMI_MSG_EVT )
??SampleApp_ProcessEvent_10:
        MOV     A,R6
        MOV     C,0xE0 /* A   */.0
        JNC     ??SampleApp_ProcessEvent_14
//  372   {//发送温湿度数据
//  373     SendIndicate = 1-SendIndicate;
        MOV     DPTR,#SendIndicate
        MOVX    A,@DPTR
        MOV     R0,A
        MOV     A,#0x1
        CLR     C
        SUBB    A,R0
        MOVX    @DPTR,A
//  374     SendIndicate?Bottom_Blue():Bottom_BlackOut();
        MOVX    A,@DPTR
        JZ      ??SampleApp_ProcessEvent_15
        ; Setup parameters for call to function Bottom_Blue
        LCALL   ??Bottom_Blue?relay
        SJMP    ??SampleApp_ProcessEvent_16
??SampleApp_ProcessEvent_15:
        ; Setup parameters for call to function Bottom_BlackOut
        LCALL   ??Bottom_BlackOut?relay
//  375     
//  376     Group_SendTemperature();
??SampleApp_ProcessEvent_16:
        ; Setup parameters for call to function Group_SendTemperature
        LCALL   ??Group_SendTemperature?relay
//  377     osal_start_timerEx( SampleApp_TaskID, SEND_TEMP_HUMI_MSG_EVT,
//  378         (SEND_TEMP_HUMI_MSG_TIMEOUT + (osal_rand() & 0x00FF)) );
        ; Setup parameters for call to function osal_rand
        LCALL   ??osal_rand?relay
        ; Setup parameters for call to function osal_start_timerEx
        MOV     A,R2
        MOV     R4,A
        MOV     R5,#0x20
        MOV     R2,#0x1
        MOV     R3,#0x0
        MOV     DPTR,#SampleApp_TaskID
        MOVX    A,@DPTR
        MOV     R1,A
        LCALL   ??osal_start_timerEx?relay
//  379 
//  380     // return unprocessed events
//  381     return (events ^ SEND_TEMP_HUMI_MSG_EVT);
        MOV     A,R6
        XRL     A,#0x1
        SJMP    ??SampleApp_ProcessEvent_13
//  382   }
//  383 
//  384   // Discard unknown events
//  385   return 0;
??SampleApp_ProcessEvent_14:
        MOV     R2,#0x0
        MOV     R3,#0x0
??SampleApp_ProcessEvent_9:
        MOV     R7,#0x4
        LJMP    ?BANKED_LEAVE_XDATA
        CFI EndBlock cfiBlock2
//  386 }
//  387 /*********************************************************************
//  388  * @fn      SampleApp_MessageMSGCB
//  389  *
//  390  * @brief   Data message processor callback.  This function processes
//  391  *          any incoming data - probably from other devices.  So, based
//  392  *          on cluster ID, perform the intended action.
//  393  *
//  394  * @param   none
//  395  *
//  396  * @return  none
//  397  */

        RSEG BANKED_CODE:CODE:NOROOT(0)
//  398 void SampleApp_MessageMSGCB( afIncomingMSGPacket_t *pkt )
SampleApp_MessageMSGCB:
        CFI Block cfiBlock3 Using cfiCommon0
        CFI Function SampleApp_MessageMSGCB
        CODE
//  399 {
        ; Saved register size: 0
        ; Auto size: 0
//  400   switch ( pkt->clusterId )
//  401   {   
//  402   }
//  403 }
        LJMP    ?BRET
        CFI EndBlock cfiBlock3

        RSEG BANKED_CODE:CODE:NOROOT(0)
//  404 void Group_SendTemperature( void )
Group_SendTemperature:
        CFI Block cfiBlock4 Using cfiCommon0
        CFI Function Group_SendTemperature
        CODE
//  405 {
        FUNCALL Group_SendTemperature, SHT2x_GetTemp
        LOCFRAME ISTACK, 0, STACK
        LOCFRAME PSTACK, 0, STACK
        LOCFRAME XSTACK, 12, STACK
        LOCFRAME IOVERLAY, 0, STATIC
        LOCFRAME DOVERLAY, 0, STATIC
        ARGFRAME ISTACK, 0, STACK
        ARGFRAME PSTACK, 0, STACK
        ARGFRAME XSTACK, 12, STACK
        ARGFRAME IOVERLAY, 0, STATIC
        ARGFRAME DOVERLAY, 0, STATIC
        FUNCALL Group_SendTemperature, SHT2x_GetHumi
        LOCFRAME ISTACK, 0, STACK
        LOCFRAME PSTACK, 0, STACK
        LOCFRAME XSTACK, 12, STACK
        LOCFRAME IOVERLAY, 0, STATIC
        LOCFRAME DOVERLAY, 0, STATIC
        ARGFRAME ISTACK, 0, STACK
        ARGFRAME PSTACK, 0, STACK
        ARGFRAME XSTACK, 12, STACK
        ARGFRAME IOVERLAY, 0, STATIC
        ARGFRAME DOVERLAY, 0, STATIC
        FUNCALL Group_SendTemperature, AF_DataRequest
        LOCFRAME ISTACK, 0, STACK
        LOCFRAME PSTACK, 0, STACK
        LOCFRAME XSTACK, 21, STACK
        LOCFRAME IOVERLAY, 0, STATIC
        LOCFRAME DOVERLAY, 0, STATIC
        ARGFRAME ISTACK, 0, STACK
        ARGFRAME PSTACK, 0, STACK
        ARGFRAME XSTACK, 21, STACK
        ARGFRAME IOVERLAY, 0, STATIC
        ARGFRAME DOVERLAY, 0, STATIC
        FUNCALL Group_SendTemperature, printf
        LOCFRAME ISTACK, 0, STACK
        LOCFRAME PSTACK, 0, STACK
        LOCFRAME XSTACK, 12, STACK
        LOCFRAME IOVERLAY, 0, STATIC
        LOCFRAME DOVERLAY, 0, STATIC
        ARGFRAME ISTACK, 0, STACK
        ARGFRAME PSTACK, 0, STACK
        ARGFRAME XSTACK, 12, STACK
        ARGFRAME IOVERLAY, 0, STATIC
        ARGFRAME DOVERLAY, 0, STATIC
        MOV     A,#-0xa
        LCALL   ?BANKED_ENTER_XDATA
        CFI DPH0 load(1, XDATA, add(CFA_XSP16, literal(-1)))
        CFI DPL0 load(1, XDATA, add(CFA_XSP16, literal(-2)))
        CFI ?BRET_EXT load(1, XDATA, add(CFA_XSP16, literal(-3)))
        CFI ?RET_HIGH load(1, XDATA, add(CFA_XSP16, literal(-4)))
        CFI ?RET_LOW load(1, XDATA, add(CFA_XSP16, literal(-5)))
        CFI R7 load(1, XDATA, add(CFA_XSP16, literal(-6)))
        CFI V1 load(1, XDATA, add(CFA_XSP16, literal(-7)))
        CFI V0 load(1, XDATA, add(CFA_XSP16, literal(-8)))
        CFI VB load(1, XDATA, add(CFA_XSP16, literal(-9)))
        CFI R6 load(1, XDATA, add(CFA_XSP16, literal(-10)))
        CFI CFA_SP SP+0
        CFI CFA_XSP16 add(XSP16, 10)
        ; Saved register size: 10
        ; Auto size: 2
        MOV     A,#-0x2
        LCALL   ?ALLOC_XSTACK8
        CFI CFA_XSP16 add(XSP16, 12)
//  406   uint8 sendbuf[2];
//  407   sendbuf[0] = SHT2x_GetTemp();//获取温度值
        ; Setup parameters for call to function SHT2x_GetTemp
        LCALL   ??SHT2x_GetTemp?relay
        MOV     A,R1
        MOV     DPL,?XSP + 0
        MOV     DPH,?XSP + 1
        MOVX    @DPTR,A
//  408   sendbuf[1] = SHT2x_GetHumi();//获取湿度值  
        ; Setup parameters for call to function SHT2x_GetHumi
        LCALL   ??SHT2x_GetHumi?relay
        MOV     A,R1
        PUSH    A
        CFI CFA_SP SP+-1
        MOV     A,#0x1
        LCALL   ?XSTACK_DISP0_8
        POP     A
        CFI CFA_SP SP+0
        MOVX    @DPTR,A
//  409   
//  410   if ( AF_DataRequest( &Group_DstAddr, &SampleApp_epDesc,
//  411                        TEMP_HUMI_CLUSTER_ID,
//  412                        2,
//  413                        sendbuf,
//  414                        &SampleApp_TransID,
//  415                        AF_DISCV_ROUTE,
//  416                        AF_DEFAULT_RADIUS ) == afStatus_SUCCESS )
        ; Setup parameters for call to function AF_DataRequest
        MOV     ?V0 + 0,#0x1e
        MOV     R0,#?V0 + 0
        LCALL   ?PUSH_XSTACK_I_ONE
        CFI CFA_XSP16 add(XSP16, 13)
        MOV     ?V0 + 0,#SampleApp_TransID & 0xff
        MOV     ?V0 + 1,#(SampleApp_TransID >> 8) & 0xff
        MOV     R0,#?V0 + 0
        LCALL   ?PUSH_XSTACK_I_TWO
        CFI CFA_XSP16 add(XSP16, 15)
        MOV     A,#0x3
        LCALL   ?XSTACK_DISP0_8
        MOV     ?V0 + 0,DPL
        MOV     ?V0 + 1,DPH
        MOV     R0,#?V0 + 0
        LCALL   ?PUSH_XSTACK_I_TWO
        CFI CFA_XSP16 add(XSP16, 17)
        MOV     ?V0 + 0,#0x2
        MOV     ?V0 + 1,#0x0
        MOV     R0,#?V0 + 0
        LCALL   ?PUSH_XSTACK_I_TWO
        CFI CFA_XSP16 add(XSP16, 19)
        MOV     ?V0 + 0,#0x1
        MOV     R0,#?V0 + 0
        LCALL   ?PUSH_XSTACK_I_TWO
        CFI CFA_XSP16 add(XSP16, 21)
        MOV     R1,#0x20
        MOV     R4,#SampleApp_epDesc & 0xff
        MOV     R5,#(SampleApp_epDesc >> 8) & 0xff
        MOV     R2,#Group_DstAddr & 0xff
        MOV     R3,#(Group_DstAddr >> 8) & 0xff
        LCALL   ??AF_DataRequest?relay
        MOV     A,#0x9
        LCALL   ?DEALLOC_XSTACK8
        CFI CFA_XSP16 add(XSP16, 12)
        MOV     A,R1
        JNZ     ??Group_SendTemperature_0
//  417   {
//  418     printf("tx sucess\r\n");
        ; Setup parameters for call to function printf
        MOV     R2,#`?<Constant "tx sucess\\r\\n">` & 0xff
        MOV     R3,#(`?<Constant "tx sucess\\r\\n">` >> 8) & 0xff
        LCALL   ??printf?relay
//  419   }
//  420 }
??Group_SendTemperature_0:
        MOV     A,#0x2
        LCALL   ?DEALLOC_XSTACK8
        CFI CFA_XSP16 add(XSP16, 10)
        MOV     R7,#0x2
        LJMP    ?BANKED_LEAVE_XDATA
        CFI EndBlock cfiBlock4

        RSEG XDATA_ID:CODE:NOROOT(0)
`?<Initializer for SendIndicate>`:
        DATA8
        DB 1

        RSEG XDATA_ID:CODE:NOROOT(0)
`?<Initializer for ReadTempHumiControl>`:
        DATA8
        DB 1

        RSEG BANK_RELAYS:CODE:REORDER:NOROOT(0)
??osalInitTasks?relay:
        LCALL   ?BDISPATCH
        DATA
        DC24    osalInitTasks

        RSEG BANK_RELAYS:CODE:REORDER:NOROOT(0)
??SampleApp_Init?relay:
        LCALL   ?BDISPATCH
        DATA
        DC24    SampleApp_Init

        RSEG BANK_RELAYS:CODE:REORDER:NOROOT(0)
??SampleApp_ProcessEvent?relay:
        LCALL   ?BDISPATCH
        DATA
        DC24    SampleApp_ProcessEvent

        RSEG BANK_RELAYS:CODE:REORDER:NOROOT(0)
??SampleApp_MessageMSGCB?relay:
        LCALL   ?BDISPATCH
        DATA
        DC24    SampleApp_MessageMSGCB

        RSEG BANK_RELAYS:CODE:REORDER:NOROOT(0)
??Group_SendTemperature?relay:
        LCALL   ?BDISPATCH
        DATA
        DC24    Group_SendTemperature

        RSEG XDATA_ROM_C:CONST:REORDER:NOROOT(0)
        DATA8
`?<Constant "i am coordinator\\r\\n">`:
        DB "i am coordinator\015\012"

        RSEG XDATA_ROM_C:CONST:REORDER:NOROOT(0)
        DATA8
`?<Constant "Group 1">`:
        DB "Group 1"

        RSEG XDATA_ROM_C:CONST:REORDER:NOROOT(0)
        DATA8
`?<Constant "coord ready!\\r\\n">`:
        DB "coord ready!\015\012"

        RSEG XDATA_ROM_C:CONST:REORDER:NOROOT(0)
        DATA8
`?<Constant "read temp and humi\\r\\n">`:
        DB "read temp and humi\015\012"

        RSEG XDATA_ROM_C:CONST:REORDER:NOROOT(0)
        DATA8
`?<Constant "tx sucess\\r\\n">`:
        DB "tx sucess\015\012"

        END
//  421 /*********************************************************************
//  422 *********************************************************************/
// 
// 620 bytes in segment BANKED_CODE
//  30 bytes in segment BANK_RELAYS
//   2 bytes in segment XDATA_I
//   2 bytes in segment XDATA_ID
// 104 bytes in segment XDATA_ROM_C
//  95 bytes in segment XDATA_Z
// 
// 652 bytes of CODE  memory
// 104 bytes of CONST memory
//  97 bytes of XDATA memory
//
//Errors: none
//Warnings: none
