///////////////////////////////////////////////////////////////////////////////
//                                                                            /
// IAR C/C++ Compiler V8.10.3.10338/W32 for 8051        29/Nov/2018  12:16:52 /
// Copyright 2004-2011 IAR Systems AB.                                        /
//                                                                            /
//    Core               =  plain                                             /
//    Code model         =  banked                                            /
//    Data model         =  large                                             /
//    Calling convention =  xdata reentrant                                   /
//    Constant location  =  data_rom                                          /
//    Dptr setup         =  1,16                                              /
//    Source file        =  D:\ZigBee\KJXY-ZigBee\useful_code\board\Component /
//                          s\hal\common\hal_drivers.c                        /
//    Command line       =  -f D:\ZigBee\KJXY-ZigBee\useful_code\board\Projec /
//                          ts\zstack\Samples\SampleApp\CC2530DB\..\..\..\Too /
//                          ls\CC2530DB\f8wEndev.cfg (-DCPU32MHZ              /
//                          -DROOT=__near_func -DBLINK_LEDS) -f               /
//                          D:\ZigBee\KJXY-ZigBee\useful_code\board\Projects\ /
//                          zstack\Samples\SampleApp\CC2530DB\..\..\..\Tools\ /
//                          CC2530DB\f8wConfig.cfg (-DSECURE=0                /
//                          -DZG_SECURE_DYNAMIC=0 -DREFLECTOR                 /
//                          -DDEFAULT_CHANLIST=0x00000800                     /
//                          -DZDAPP_CONFIG_PAN_ID=0xFF11                      /
//                          -DNWK_START_DELAY=100 -DEXTENDED_JOINING_RANDOM_M /
//                          ASK=0x007F -DBEACON_REQUEST_DELAY=100             /
//                          -DBEACON_REQ_DELAY_MASK=0x00FF                    /
//                          -DROUTE_EXPIRY_TIME=30 -DAPSC_ACK_WAIT_DURATION_P /
//                          OLLED=3000 -DNWK_INDIRECT_MSG_TIMEOUT=7           /
//                          -DMAX_RREQ_ENTRIES=8 -DAPSC_MAX_FRAME_RETRIES=3   /
//                          -DNWK_MAX_DATA_RETRIES=2                          /
//                          -DMAX_POLL_FAILURE_RETRIES=2 -DMAX_BCAST=9        /
//                          -DAPS_MAX_GROUPS=16 -DMAX_RTG_ENTRIES=40          /
//                          -DNWK_MAX_BINDING_ENTRIES=4                       /
//                          -DMAX_BINDING_CLUSTER_IDS=4                       /
//                          "-DDEFAULT_KEY={0x01, 0x03, 0x05, 0x07, 0x09,     /
//                          0x0B, 0x0D, 0x0F, 0x00, 0x02, 0x04, 0x06, 0x08,   /
//                          0x0A, 0x0C, 0x0D}" -DMAC_MAX_FRAME_SIZE=116       /
//                          "-DCONST=const __code" -DGENERIC=__generic        /
//                          -DRFD_RCVC_ALWAYS_ON=TRUE -DPOLL_RATE=1000        /
//                          -DQUEUED_POLL_RATE=100 -DRESPONSE_POLL_RATE=100)  /
//                          -DREJOIN_POLL_RATE=440 D:\ZigBee\KJXY-ZigBee\usef /
//                          ul_code\board\Components\hal\common\hal_drivers.c /
//                           -D NWK_AUTO_POLL -D ZTOOL_P1 -D MT_SYS_FUNC -D   /
//                          MT_ZDO_FUNC -D LCD_SUPPORTED=DEBUG -lC            /
//                          D:\ZigBee\KJXY-ZigBee\useful_code\board\Projects\ /
//                          zstack\Samples\SampleApp\CC2530DB\EndDeviceEB-RFI /
//                          D\List\ -lA D:\ZigBee\KJXY-ZigBee\useful_code\boa /
//                          rd\Projects\zstack\Samples\SampleApp\CC2530DB\End /
//                          DeviceEB-RFID\List\ --diag_suppress Pe001,Pa010   /
//                          -o D:\ZigBee\KJXY-ZigBee\useful_code\board\Projec /
//                          ts\zstack\Samples\SampleApp\CC2530DB\EndDeviceEB- /
//                          RFID\Obj\ -e --no_unroll --no_inline --no_tbaa    /
//                          --debug --core=plain --dptr=16,1                  /
//                          --data_model=large --code_model=banked            /
//                          --calling_convention=xdata_reentrant              /
//                          --place_constants=data_rom --nr_virtual_regs 16   /
//                          -I D:\ZigBee\KJXY-ZigBee\useful_code\board\Projec /
//                          ts\zstack\Samples\SampleApp\CC2530DB\ -I          /
//                          D:\ZigBee\KJXY-ZigBee\useful_code\board\Projects\ /
//                          zstack\Samples\SampleApp\CC2530DB\..\SOURCE\ -I   /
//                          D:\ZigBee\KJXY-ZigBee\useful_code\board\Projects\ /
//                          zstack\Samples\SampleApp\CC2530DB\..\..\..\ZMAIN\ /
//                          TI2530DB\ -I D:\ZigBee\KJXY-ZigBee\useful_code\bo /
//                          ard\Projects\zstack\Samples\SampleApp\CC2530DB\.. /
//                          \..\..\..\..\COMPONENTS\MT\ -I                    /
//                          D:\ZigBee\KJXY-ZigBee\useful_code\board\Projects\ /
//                          zstack\Samples\SampleApp\CC2530DB\..\..\..\..\..\ /
//                          COMPONENTS\HAL\INCLUDE\ -I                        /
//                          D:\ZigBee\KJXY-ZigBee\useful_code\board\Projects\ /
//                          zstack\Samples\SampleApp\CC2530DB\..\..\..\..\..\ /
//                          COMPONENTS\HAL\TARGET\CC2530EB\ -I                /
//                          D:\ZigBee\KJXY-ZigBee\useful_code\board\Projects\ /
//                          zstack\Samples\SampleApp\CC2530DB\..\..\..\..\..\ /
//                          COMPONENTS\OSAL\MCU\CCSOC\ -I                     /
//                          D:\ZigBee\KJXY-ZigBee\useful_code\board\Projects\ /
//                          zstack\Samples\SampleApp\CC2530DB\..\..\..\..\..\ /
//                          COMPONENTS\OSAL\INCLUDE\ -I                       /
//                          D:\ZigBee\KJXY-ZigBee\useful_code\board\Projects\ /
//                          zstack\Samples\SampleApp\CC2530DB\..\..\..\..\..\ /
//                          COMPONENTS\STACK\AF\ -I                           /
//                          D:\ZigBee\KJXY-ZigBee\useful_code\board\Projects\ /
//                          zstack\Samples\SampleApp\CC2530DB\..\..\..\..\..\ /
//                          COMPONENTS\STACK\NWK\ -I                          /
//                          D:\ZigBee\KJXY-ZigBee\useful_code\board\Projects\ /
//                          zstack\Samples\SampleApp\CC2530DB\..\..\..\..\..\ /
//                          COMPONENTS\STACK\SEC\ -I                          /
//                          D:\ZigBee\KJXY-ZigBee\useful_code\board\Projects\ /
//                          zstack\Samples\SampleApp\CC2530DB\..\..\..\..\..\ /
//                          COMPONENTS\STACK\SAPI\ -I                         /
//                          D:\ZigBee\KJXY-ZigBee\useful_code\board\Projects\ /
//                          zstack\Samples\SampleApp\CC2530DB\..\..\..\..\..\ /
//                          COMPONENTS\STACK\SYS\ -I                          /
//                          D:\ZigBee\KJXY-ZigBee\useful_code\board\Projects\ /
//                          zstack\Samples\SampleApp\CC2530DB\..\..\..\..\..\ /
//                          COMPONENTS\STACK\ZDO\ -I                          /
//                          D:\ZigBee\KJXY-ZigBee\useful_code\board\Projects\ /
//                          zstack\Samples\SampleApp\CC2530DB\..\..\..\..\..\ /
//                          COMPONENTS\ZMAC\F8W\ -I                           /
//                          D:\ZigBee\KJXY-ZigBee\useful_code\board\Projects\ /
//                          zstack\Samples\SampleApp\CC2530DB\..\..\..\..\..\ /
//                          COMPONENTS\ZMAC\ -I D:\ZigBee\KJXY-ZigBee\useful_ /
//                          code\board\Projects\zstack\Samples\SampleApp\CC25 /
//                          30DB\..\..\..\..\..\COMPONENTS\SERVICES\SADDR\    /
//                          -I D:\ZigBee\KJXY-ZigBee\useful_code\board\Projec /
//                          ts\zstack\Samples\SampleApp\CC2530DB\..\..\..\..\ /
//                          ..\COMPONENTS\SERVICES\SDATA\ -I                  /
//                          D:\ZigBee\KJXY-ZigBee\useful_code\board\Projects\ /
//                          zstack\Samples\SampleApp\CC2530DB\..\..\..\..\..\ /
//                          COMPONENTS\MAC\INCLUDE\ -I                        /
//                          D:\ZigBee\KJXY-ZigBee\useful_code\board\Projects\ /
//                          zstack\Samples\SampleApp\CC2530DB\..\..\..\..\..\ /
//                          COMPONENTS\MAC\HIGH_LEVEL\ -I                     /
//                          D:\ZigBee\KJXY-ZigBee\useful_code\board\Projects\ /
//                          zstack\Samples\SampleApp\CC2530DB\..\..\..\..\..\ /
//                          COMPONENTS\MAC\LOW_LEVEL\srf04\ -I                /
//                          D:\ZigBee\KJXY-ZigBee\useful_code\board\Projects\ /
//                          zstack\Samples\SampleApp\CC2530DB\..\..\..\..\..\ /
//                          COMPONENTS\MAC\LOW_LEVEL\srf04\SINGLE_CHIP\ -I    /
//                          D:\ZigBee\KJXY-ZigBee\useful_code\board\Projects\ /
//                          zstack\Samples\SampleApp\CC2530DB\..\..\..\..\..\ /
//                          COMPONENTS\HARDWARE\ -Om                          /
//    List file          =  D:\ZigBee\KJXY-ZigBee\useful_code\board\Projects\ /
//                          zstack\Samples\SampleApp\CC2530DB\EndDeviceEB-RFI /
//                          D\List\hal_drivers.s51                            /
//                                                                            /
//                                                                            /
///////////////////////////////////////////////////////////////////////////////

        NAME hal_drivers

        RTMODEL "__SystemLibrary", "CLib"
        RTMODEL "__calling_convention", "xdata_reentrant"
        RTMODEL "__code_model", "banked"
        RTMODEL "__core", "plain"
        RTMODEL "__data_model", "large"
        RTMODEL "__dptr_size", "16"
        RTMODEL "__extended_stack", "disabled"
        RTMODEL "__location_for_constants", "data"
        RTMODEL "__number_of_dptrs", "1"
        RTMODEL "__rt_version", "1"

        RSEG DOVERLAY:DATA:NOROOT(0)
        RSEG IOVERLAY:IDATA:NOROOT(0)
        RSEG ISTACK:IDATA:NOROOT(0)
        RSEG PSTACK:XDATA:NOROOT(0)
        RSEG XSTACK:XDATA:NOROOT(0)

        EXTERN ?BANKED_ENTER_XDATA
        EXTERN ?BANKED_LEAVE_XDATA
        EXTERN ?BDISPATCH
        EXTERN ?BRET
        EXTERN __INIT_XDATA_Z

        PUBLIC ??HalDriverInit?relay
        FUNCTION ??HalDriverInit?relay,0203H
        PUBLIC ??Hal_Init?relay
        FUNCTION ??Hal_Init?relay,0203H
        PUBLIC ??Hal_ProcessEvent?relay
        FUNCTION ??Hal_ProcessEvent?relay,0203H
        PUBLIC ??Hal_ProcessPoll?relay
        FUNCTION ??Hal_ProcessPoll?relay,0203H
        PUBLIC HalDriverInit
        FUNCTION HalDriverInit,021203H
        ARGFRAME XSTACK, 0, STACK
        LOCFRAME ISTACK, 2, STACK
        PUBLIC Hal_Init
        FUNCTION Hal_Init,0203H
        ARGFRAME XSTACK, 0, STACK
        LOCFRAME ISTACK, 2, STACK
        PUBLIC Hal_ProcessEvent
        FUNCTION Hal_ProcessEvent,021203H
        ARGFRAME XSTACK, 0, STACK
        LOCFRAME XSTACK, 10, STACK
        PUBLIC Hal_ProcessPoll
        FUNCTION Hal_ProcessPoll,021203H
        ARGFRAME XSTACK, 0, STACK
        LOCFRAME ISTACK, 2, STACK
        PUBLIC Hal_TaskID
        
        CFI Names cfiNames0
        CFI StackFrame CFA_SP SP IDATA
        CFI StackFrame CFA_PSP16 PSP16 XDATA
        CFI StackFrame CFA_XSP16 XSP16 XDATA
        CFI StaticOverlayFrame CFA_IOVERLAY IOVERLAY
        CFI StaticOverlayFrame CFA_DOVERLAY DOVERLAY
        CFI Resource `PSW.CY`:1, `B.BR0`:1, `B.BR1`:1, `B.BR2`:1, `B.BR3`:1
        CFI Resource `B.BR4`:1, `B.BR5`:1, `B.BR6`:1, `B.BR7`:1, `VB.BR8`:1
        CFI Resource `VB.BR9`:1, `VB.BR10`:1, `VB.BR11`:1, `VB.BR12`:1
        CFI Resource `VB.BR13`:1, `VB.BR14`:1, `VB.BR15`:1, VB:8, B:8, A:8
        CFI Resource PSW:8, DPL0:8, DPH0:8, R0:8, R1:8, R2:8, R3:8, R4:8, R5:8
        CFI Resource R6:8, R7:8, V0:8, V1:8, V2:8, V3:8, V4:8, V5:8, V6:8, V7:8
        CFI Resource V8:8, V9:8, V10:8, V11:8, V12:8, V13:8, V14:8, V15:8, SP:8
        CFI Resource PSPH:8, PSPL:8, PSP16:16, XSPH:8, XSPL:8, XSP16:16
        CFI VirtualResource ?RET:24
        CFI Resource ?BRET_EXT:8
        CFI VirtualResource ?RET_HIGH:8, ?RET_LOW:8
        CFI ResourceParts PSP16 PSPH, PSPL
        CFI ResourceParts XSP16 XSPH, XSPL
        CFI ResourceParts ?RET ?BRET_EXT, ?RET_HIGH, ?RET_LOW
        CFI EndNames cfiNames0
        
        CFI Common cfiCommon0 Using cfiNames0
        CFI CodeAlign 1
        CFI DataAlign -1
        CFI ReturnAddress ?RET CODE
        CFI CFA_DOVERLAY Used
        CFI CFA_IOVERLAY Used
        CFI CFA_SP SP+-3
        CFI CFA_PSP16 PSP16+0
        CFI CFA_XSP16 XSP16+0
        CFI `PSW.CY` SameValue
        CFI `B.BR0` SameValue
        CFI `B.BR1` SameValue
        CFI `B.BR2` SameValue
        CFI `B.BR3` SameValue
        CFI `B.BR4` SameValue
        CFI `B.BR5` SameValue
        CFI `B.BR6` SameValue
        CFI `B.BR7` SameValue
        CFI `VB.BR8` SameValue
        CFI `VB.BR9` SameValue
        CFI `VB.BR10` SameValue
        CFI `VB.BR11` SameValue
        CFI `VB.BR12` SameValue
        CFI `VB.BR13` SameValue
        CFI `VB.BR14` SameValue
        CFI `VB.BR15` SameValue
        CFI VB SameValue
        CFI B Undefined
        CFI A Undefined
        CFI PSW SameValue
        CFI DPL0 SameValue
        CFI DPH0 SameValue
        CFI R0 Undefined
        CFI R1 Undefined
        CFI R2 Undefined
        CFI R3 Undefined
        CFI R4 Undefined
        CFI R5 Undefined
        CFI R6 SameValue
        CFI R7 SameValue
        CFI V0 SameValue
        CFI V1 SameValue
        CFI V2 SameValue
        CFI V3 SameValue
        CFI V4 SameValue
        CFI V5 SameValue
        CFI V6 SameValue
        CFI V7 SameValue
        CFI V8 SameValue
        CFI V9 SameValue
        CFI V10 SameValue
        CFI V11 SameValue
        CFI V12 SameValue
        CFI V13 SameValue
        CFI V14 SameValue
        CFI V15 SameValue
        CFI PSPH Undefined
        CFI PSPL Undefined
        CFI XSPH Undefined
        CFI XSPL Undefined
        CFI ?RET Concat
        CFI ?BRET_EXT Frame(CFA_SP, 3)
        CFI ?RET_HIGH Frame(CFA_SP, 2)
        CFI ?RET_LOW Frame(CFA_SP, 1)
        CFI EndCommon cfiCommon0
        
HalAdcInit          SYMBOL "HalAdcInit"
HalDmaInit          SYMBOL "HalDmaInit"
HalFlashInit        SYMBOL "HalFlashInit"
HalAesInit          SYMBOL "HalAesInit"
HalUARTInit         SYMBOL "HalUARTInit"
SHT2x_Init          SYMBOL "SHT2x_Init"
OLED_Init           SYMBOL "OLED_Init"
bottom_led_init     SYMBOL "bottom_led_init"
RC522_Init          SYMBOL "RC522_Init"
osal_msg_receive    SYMBOL "osal_msg_receive"
osal_msg_deallocate SYMBOL "osal_msg_deallocate"
HalLedUpdate        SYMBOL "HalLedUpdate"
HalKeyPoll          SYMBOL "HalKeyPoll"
osal_start_timerEx  SYMBOL "osal_start_timerEx"
HalUARTPoll         SYMBOL "HalUARTPoll"
??HalAdcInit?relay  SYMBOL "?relay", HalAdcInit
??HalAesInit?relay  SYMBOL "?relay", HalAesInit
??HalDmaInit?relay  SYMBOL "?relay", HalDmaInit
??HalFlashInit?relay SYMBOL "?relay", HalFlashInit
??HalKeyPoll?relay  SYMBOL "?relay", HalKeyPoll
??HalLedUpdate?relay SYMBOL "?relay", HalLedUpdate
??HalUARTInit?relay SYMBOL "?relay", HalUARTInit
??HalUARTPoll?relay SYMBOL "?relay", HalUARTPoll
??OLED_Init?relay   SYMBOL "?relay", OLED_Init
??RC522_Init?relay  SYMBOL "?relay", RC522_Init
??SHT2x_Init?relay  SYMBOL "?relay", SHT2x_Init
??bottom_led_init?relay SYMBOL "?relay", bottom_led_init
??osal_msg_deallocate?relay SYMBOL "?relay", osal_msg_deallocate
??osal_msg_receive?relay SYMBOL "?relay", osal_msg_receive
??osal_start_timerEx?relay SYMBOL "?relay", osal_start_timerEx
HalDriverInit       SYMBOL "HalDriverInit"
??HalDriverInit?relay SYMBOL "?relay", HalDriverInit
Hal_Init            SYMBOL "Hal_Init"
??Hal_Init?relay    SYMBOL "?relay", Hal_Init
Hal_ProcessEvent    SYMBOL "Hal_ProcessEvent"
??Hal_ProcessEvent?relay SYMBOL "?relay", Hal_ProcessEvent
Hal_ProcessPoll     SYMBOL "Hal_ProcessPoll"
??Hal_ProcessPoll?relay SYMBOL "?relay", Hal_ProcessPoll

        EXTERN HalAdcInit
        FUNCTION HalAdcInit,0202H
        ARGFRAME ISTACK, 2, STACK
        ARGFRAME PSTACK, 0, STACK
        ARGFRAME XSTACK, 0, STACK
        ARGFRAME IOVERLAY, 0, STATIC
        ARGFRAME DOVERLAY, 0, STATIC
        EXTERN HalDmaInit
        FUNCTION HalDmaInit,0202H
        ARGFRAME ISTACK, 2, STACK
        ARGFRAME PSTACK, 0, STACK
        ARGFRAME XSTACK, 0, STACK
        ARGFRAME IOVERLAY, 0, STATIC
        ARGFRAME DOVERLAY, 0, STATIC
        EXTERN HalFlashInit
        FUNCTION HalFlashInit,0202H
        ARGFRAME ISTACK, 2, STACK
        ARGFRAME PSTACK, 0, STACK
        ARGFRAME XSTACK, 0, STACK
        ARGFRAME IOVERLAY, 0, STATIC
        ARGFRAME DOVERLAY, 0, STATIC
        EXTERN HalAesInit
        FUNCTION HalAesInit,0202H
        ARGFRAME ISTACK, 2, STACK
        ARGFRAME PSTACK, 0, STACK
        ARGFRAME XSTACK, 0, STACK
        ARGFRAME IOVERLAY, 0, STATIC
        ARGFRAME DOVERLAY, 0, STATIC
        EXTERN HalUARTInit
        FUNCTION HalUARTInit,0202H
        ARGFRAME ISTACK, 2, STACK
        ARGFRAME PSTACK, 0, STACK
        ARGFRAME XSTACK, 0, STACK
        ARGFRAME IOVERLAY, 0, STATIC
        ARGFRAME DOVERLAY, 0, STATIC
        EXTERN SHT2x_Init
        FUNCTION SHT2x_Init,0202H
        ARGFRAME ISTACK, 2, STACK
        ARGFRAME PSTACK, 0, STACK
        ARGFRAME XSTACK, 0, STACK
        ARGFRAME IOVERLAY, 0, STATIC
        ARGFRAME DOVERLAY, 0, STATIC
        EXTERN OLED_Init
        FUNCTION OLED_Init,0202H
        ARGFRAME ISTACK, 2, STACK
        ARGFRAME PSTACK, 0, STACK
        ARGFRAME XSTACK, 0, STACK
        ARGFRAME IOVERLAY, 0, STATIC
        ARGFRAME DOVERLAY, 0, STATIC
        EXTERN bottom_led_init
        FUNCTION bottom_led_init,0202H
        ARGFRAME ISTACK, 2, STACK
        ARGFRAME PSTACK, 0, STACK
        ARGFRAME XSTACK, 0, STACK
        ARGFRAME IOVERLAY, 0, STATIC
        ARGFRAME DOVERLAY, 0, STATIC
        EXTERN RC522_Init
        FUNCTION RC522_Init,0202H
        ARGFRAME ISTACK, 2, STACK
        ARGFRAME PSTACK, 0, STACK
        ARGFRAME XSTACK, 0, STACK
        ARGFRAME IOVERLAY, 0, STATIC
        ARGFRAME DOVERLAY, 0, STATIC
        EXTERN osal_msg_receive
        FUNCTION osal_msg_receive,0202H
        ARGFRAME ISTACK, 0, STACK
        ARGFRAME PSTACK, 0, STACK
        ARGFRAME XSTACK, 10, STACK
        ARGFRAME IOVERLAY, 0, STATIC
        ARGFRAME DOVERLAY, 0, STATIC
        EXTERN osal_msg_deallocate
        FUNCTION osal_msg_deallocate,0202H
        ARGFRAME ISTACK, 0, STACK
        ARGFRAME PSTACK, 0, STACK
        ARGFRAME XSTACK, 10, STACK
        ARGFRAME IOVERLAY, 0, STATIC
        ARGFRAME DOVERLAY, 0, STATIC
        EXTERN HalLedUpdate
        FUNCTION HalLedUpdate,0202H
        ARGFRAME ISTACK, 0, STACK
        ARGFRAME PSTACK, 0, STACK
        ARGFRAME XSTACK, 10, STACK
        ARGFRAME IOVERLAY, 0, STATIC
        ARGFRAME DOVERLAY, 0, STATIC
        EXTERN HalKeyPoll
        FUNCTION HalKeyPoll,0202H
        ARGFRAME ISTACK, 0, STACK
        ARGFRAME PSTACK, 0, STACK
        ARGFRAME XSTACK, 10, STACK
        ARGFRAME IOVERLAY, 0, STATIC
        ARGFRAME DOVERLAY, 0, STATIC
        EXTERN osal_start_timerEx
        FUNCTION osal_start_timerEx,0202H
        ARGFRAME ISTACK, 0, STACK
        ARGFRAME PSTACK, 0, STACK
        ARGFRAME XSTACK, 10, STACK
        ARGFRAME IOVERLAY, 0, STATIC
        ARGFRAME DOVERLAY, 0, STATIC
        EXTERN HalUARTPoll
        FUNCTION HalUARTPoll,0202H
        ARGFRAME ISTACK, 2, STACK
        ARGFRAME PSTACK, 0, STACK
        ARGFRAME XSTACK, 0, STACK
        ARGFRAME IOVERLAY, 0, STATIC
        ARGFRAME DOVERLAY, 0, STATIC
        EXTERN ??HalAdcInit?relay
        FUNCTION ??HalAdcInit?relay,00H
        EXTERN ??HalAesInit?relay
        FUNCTION ??HalAesInit?relay,00H
        EXTERN ??HalDmaInit?relay
        FUNCTION ??HalDmaInit?relay,00H
        EXTERN ??HalFlashInit?relay
        FUNCTION ??HalFlashInit?relay,00H
        EXTERN ??HalKeyPoll?relay
        FUNCTION ??HalKeyPoll?relay,00H
        EXTERN ??HalLedUpdate?relay
        FUNCTION ??HalLedUpdate?relay,00H
        EXTERN ??HalUARTInit?relay
        FUNCTION ??HalUARTInit?relay,00H
        EXTERN ??HalUARTPoll?relay
        FUNCTION ??HalUARTPoll?relay,00H
        EXTERN ??OLED_Init?relay
        FUNCTION ??OLED_Init?relay,00H
        EXTERN ??RC522_Init?relay
        FUNCTION ??RC522_Init?relay,00H
        EXTERN ??SHT2x_Init?relay
        FUNCTION ??SHT2x_Init?relay,00H
        EXTERN ??bottom_led_init?relay
        FUNCTION ??bottom_led_init?relay,00H
        EXTERN ??osal_msg_deallocate?relay
        FUNCTION ??osal_msg_deallocate?relay,00H
        EXTERN ??osal_msg_receive?relay
        FUNCTION ??osal_msg_receive?relay,00H
        EXTERN ??osal_start_timerEx?relay
        FUNCTION ??osal_start_timerEx?relay,00H
        EXTERN Hal_KeyIntEnable

// D:\ZigBee\KJXY-ZigBee\useful_code\board\Components\hal\common\hal_drivers.c
//    1 /**************************************************************************************************
//    2   Filename:       hal_drivers.c
//    3   Revised:        $Date: 2007-07-06 10:42:24 -0700 (Fri, 06 Jul 2007) $
//    4   Revision:       $Revision: 13579 $
//    5 
//    6   Description:    This file contains the interface to the Drivers Service.
//    7 
//    8 
//    9   Copyright 2005-2009 Texas Instruments Incorporated. All rights reserved.
//   10 
//   11   IMPORTANT: Your use of this Software is limited to those specific rights
//   12   granted under the terms of a software license agreement between the user
//   13   who downloaded the software, his/her employer (which must be your employer)
//   14   and Texas Instruments Incorporated (the "License").  You may not use this
//   15   Software unless you agree to abide by the terms of the License. The License
//   16   limits your use, and you acknowledge, that the Software may not be modified,
//   17   copied or distributed unless embedded on a Texas Instruments microcontroller
//   18   or used solely and exclusively in conjunction with a Texas Instruments radio
//   19   frequency transceiver, which is integrated into your product.  Other than for
//   20   the foregoing purpose, you may not use, reproduce, copy, prepare derivative
//   21   works of, modify, distribute, perform, display or sell this Software and/or
//   22   its documentation for any purpose.
//   23 
//   24   YOU FURTHER ACKNOWLEDGE AND AGREE THAT THE SOFTWARE AND DOCUMENTATION ARE
//   25   PROVIDED AS IS?WITHOUT WARRANTY OF ANY KIND, EITHER EXPRESS OR IMPLIED,
//   26   INCLUDING WITHOUT LIMITATION, ANY WARRANTY OF MERCHANTABILITY, TITLE,
//   27   NON-INFRINGEMENT AND FITNESS FOR A PARTICULAR PURPOSE. IN NO EVENT SHALL
//   28   TEXAS INSTRUMENTS OR ITS LICENSORS BE LIABLE OR OBLIGATED UNDER CONTRACT,
//   29   NEGLIGENCE, STRICT LIABILITY, CONTRIBUTION, BREACH OF WARRANTY, OR OTHER
//   30   LEGAL EQUITABLE THEORY ANY DIRECT OR INDIRECT DAMAGES OR EXPENSES
//   31   INCLUDING BUT NOT LIMITED TO ANY INCIDENTAL, SPECIAL, INDIRECT, PUNITIVE
//   32   OR CONSEQUENTIAL DAMAGES, LOST PROFITS OR LOST DATA, COST OF PROCUREMENT
//   33   OF SUBSTITUTE GOODS, TECHNOLOGY, SERVICES, OR ANY CLAIMS BY THIRD PARTIES
//   34   (INCLUDING BUT NOT LIMITED TO ANY DEFENSE THEREOF), OR OTHER SIMILAR COSTS.
//   35 
//   36   Should you have any questions regarding your right to use this Software,
//   37   contact Texas Instruments Incorporated at www.TI.com.
//   38 **************************************************************************************************/
//   39 
//   40 
//   41 /**************************************************************************************************
//   42  *                                            INCLUDES
//   43  **************************************************************************************************/
//   44 #include "hal_types.h"
//   45 #include "OSAL.h"
//   46 #include "hal_drivers.h"
//   47 #include "hal_adc.h"
//   48 #if (defined HAL_DMA) && (HAL_DMA == TRUE)
//   49   #include "hal_dma.h"
//   50 #endif
//   51 #include "hal_flash.h"
//   52 #include "hal_key.h"
//   53 #include "hal_lcd.h"
//   54 #include "hal_led.h"
//   55 #include "hal_timer.h"
//   56 #include "hal_uart.h"
//   57 #include "hal_sleep.h"
//   58 
//   59 #include "OLED.h"
//   60 #include "bottom_led.h"
//   61 #include "SHT20.h"
//   62 #include "RC522.h"
//   63 
//   64 #if (defined HAL_AES) && (HAL_AES == TRUE)
//   65   #include "hal_aes.h"
//   66 #endif
//   67 
//   68 #if (defined HAL_SPI) && (HAL_SPI == TRUE)
//   69   #include "hal_spi.h"
//   70 #endif
//   71 #if (defined HAL_HID) && (HAL_HID == TRUE)
//   72   #include "usb_hid.h"
//   73 #endif
//   74 
//   75 /**************************************************************************************************
//   76  *                                            MACROS
//   77  **************************************************************************************************/
//   78 
//   79 
//   80 
//   81 /**************************************************************************************************
//   82  *                                          CONSTANTS
//   83  **************************************************************************************************/
//   84 
//   85 
//   86 /**************************************************************************************************
//   87  *                                          TYPEDEFS
//   88  **************************************************************************************************/
//   89 
//   90 
//   91 /**************************************************************************************************
//   92  *                                      GLOBAL VARIABLES
//   93  **************************************************************************************************/

        RSEG XDATA_Z:XDATA:NOROOT(0)
        DATA8
//   94 uint8 Hal_TaskID;
Hal_TaskID:
        DS 1
        REQUIRE __INIT_XDATA_Z
//   95 
//   96 extern void HalLedUpdate( void ); /* Notes: This for internal only so it shouldn't be in hal_led.h */
//   97 
//   98 /**************************************************************************************************
//   99  *                                      FUNCTIONS - API
//  100  **************************************************************************************************/
//  101 
//  102 /**************************************************************************************************
//  103  * @fn      Hal_Init
//  104  *
//  105  * @brief   Hal Initialization function.
//  106  *
//  107  * @param   task_id - Hal TaskId
//  108  *
//  109  * @return  None
//  110  **************************************************************************************************/

        RSEG BANKED_CODE:CODE:NOROOT(0)
//  111 void Hal_Init( uint8 task_id )
Hal_Init:
        CFI Block cfiBlock0 Using cfiCommon0
        CFI Function Hal_Init
        CODE
//  112 {
        PUSH    DPL
        CFI DPL0 Frame(CFA_SP, 4)
        CFI CFA_SP SP+-4
        PUSH    DPH
        CFI DPH0 Frame(CFA_SP, 5)
        CFI CFA_SP SP+-5
        ; Saved register size: 2
        ; Auto size: 0
//  113   /* Register task ID */
//  114   Hal_TaskID = task_id;
        MOV     A,R1
        MOV     DPTR,#Hal_TaskID
        MOVX    @DPTR,A
//  115 }
        POP     DPH
        CFI DPH0 SameValue
        CFI CFA_SP SP+-4
        POP     DPL
        CFI DPL0 SameValue
        CFI CFA_SP SP+-3
        LJMP    ?BRET
        CFI EndBlock cfiBlock0
//  116 
//  117 /**************************************************************************************************
//  118  * @fn      Hal_DriverInit
//  119  *
//  120  * @brief   Initialize HW - These need to be initialized before anyone.
//  121  *
//  122  * @param   task_id - Hal TaskId
//  123  *
//  124  * @return  None
//  125  **************************************************************************************************/

        RSEG BANKED_CODE:CODE:NOROOT(0)
//  126 void HalDriverInit (void)
HalDriverInit:
        CFI Block cfiBlock1 Using cfiCommon0
        CFI Function HalDriverInit
        CODE
//  127 {
        FUNCALL HalDriverInit, HalAdcInit
        LOCFRAME ISTACK, 2, STACK
        LOCFRAME PSTACK, 0, STACK
        LOCFRAME XSTACK, 0, STACK
        LOCFRAME IOVERLAY, 0, STATIC
        LOCFRAME DOVERLAY, 0, STATIC
        ARGFRAME ISTACK, 2, STACK
        ARGFRAME PSTACK, 0, STACK
        ARGFRAME XSTACK, 0, STACK
        ARGFRAME IOVERLAY, 0, STATIC
        ARGFRAME DOVERLAY, 0, STATIC
        FUNCALL HalDriverInit, HalDmaInit
        LOCFRAME ISTACK, 2, STACK
        LOCFRAME PSTACK, 0, STACK
        LOCFRAME XSTACK, 0, STACK
        LOCFRAME IOVERLAY, 0, STATIC
        LOCFRAME DOVERLAY, 0, STATIC
        ARGFRAME ISTACK, 2, STACK
        ARGFRAME PSTACK, 0, STACK
        ARGFRAME XSTACK, 0, STACK
        ARGFRAME IOVERLAY, 0, STATIC
        ARGFRAME DOVERLAY, 0, STATIC
        FUNCALL HalDriverInit, HalFlashInit
        LOCFRAME ISTACK, 2, STACK
        LOCFRAME PSTACK, 0, STACK
        LOCFRAME XSTACK, 0, STACK
        LOCFRAME IOVERLAY, 0, STATIC
        LOCFRAME DOVERLAY, 0, STATIC
        ARGFRAME ISTACK, 2, STACK
        ARGFRAME PSTACK, 0, STACK
        ARGFRAME XSTACK, 0, STACK
        ARGFRAME IOVERLAY, 0, STATIC
        ARGFRAME DOVERLAY, 0, STATIC
        FUNCALL HalDriverInit, HalAesInit
        LOCFRAME ISTACK, 2, STACK
        LOCFRAME PSTACK, 0, STACK
        LOCFRAME XSTACK, 0, STACK
        LOCFRAME IOVERLAY, 0, STATIC
        LOCFRAME DOVERLAY, 0, STATIC
        ARGFRAME ISTACK, 2, STACK
        ARGFRAME PSTACK, 0, STACK
        ARGFRAME XSTACK, 0, STACK
        ARGFRAME IOVERLAY, 0, STATIC
        ARGFRAME DOVERLAY, 0, STATIC
        FUNCALL HalDriverInit, HalUARTInit
        LOCFRAME ISTACK, 2, STACK
        LOCFRAME PSTACK, 0, STACK
        LOCFRAME XSTACK, 0, STACK
        LOCFRAME IOVERLAY, 0, STATIC
        LOCFRAME DOVERLAY, 0, STATIC
        ARGFRAME ISTACK, 2, STACK
        ARGFRAME PSTACK, 0, STACK
        ARGFRAME XSTACK, 0, STACK
        ARGFRAME IOVERLAY, 0, STATIC
        ARGFRAME DOVERLAY, 0, STATIC
        FUNCALL HalDriverInit, SHT2x_Init
        LOCFRAME ISTACK, 2, STACK
        LOCFRAME PSTACK, 0, STACK
        LOCFRAME XSTACK, 0, STACK
        LOCFRAME IOVERLAY, 0, STATIC
        LOCFRAME DOVERLAY, 0, STATIC
        ARGFRAME ISTACK, 2, STACK
        ARGFRAME PSTACK, 0, STACK
        ARGFRAME XSTACK, 0, STACK
        ARGFRAME IOVERLAY, 0, STATIC
        ARGFRAME DOVERLAY, 0, STATIC
        FUNCALL HalDriverInit, OLED_Init
        LOCFRAME ISTACK, 2, STACK
        LOCFRAME PSTACK, 0, STACK
        LOCFRAME XSTACK, 0, STACK
        LOCFRAME IOVERLAY, 0, STATIC
        LOCFRAME DOVERLAY, 0, STATIC
        ARGFRAME ISTACK, 2, STACK
        ARGFRAME PSTACK, 0, STACK
        ARGFRAME XSTACK, 0, STACK
        ARGFRAME IOVERLAY, 0, STATIC
        ARGFRAME DOVERLAY, 0, STATIC
        FUNCALL HalDriverInit, bottom_led_init
        LOCFRAME ISTACK, 2, STACK
        LOCFRAME PSTACK, 0, STACK
        LOCFRAME XSTACK, 0, STACK
        LOCFRAME IOVERLAY, 0, STATIC
        LOCFRAME DOVERLAY, 0, STATIC
        ARGFRAME ISTACK, 2, STACK
        ARGFRAME PSTACK, 0, STACK
        ARGFRAME XSTACK, 0, STACK
        ARGFRAME IOVERLAY, 0, STATIC
        ARGFRAME DOVERLAY, 0, STATIC
        FUNCALL HalDriverInit, RC522_Init
        LOCFRAME ISTACK, 2, STACK
        LOCFRAME PSTACK, 0, STACK
        LOCFRAME XSTACK, 0, STACK
        LOCFRAME IOVERLAY, 0, STATIC
        LOCFRAME DOVERLAY, 0, STATIC
        ARGFRAME ISTACK, 2, STACK
        ARGFRAME PSTACK, 0, STACK
        ARGFRAME XSTACK, 0, STACK
        ARGFRAME IOVERLAY, 0, STATIC
        ARGFRAME DOVERLAY, 0, STATIC
        PUSH    DPL
        CFI DPL0 Frame(CFA_SP, 4)
        CFI CFA_SP SP+-4
        PUSH    DPH
        CFI DPH0 Frame(CFA_SP, 5)
        CFI CFA_SP SP+-5
        ; Saved register size: 2
        ; Auto size: 0
//  128   /* TIMER */
//  129 #if (defined HAL_TIMER) && (HAL_TIMER == TRUE)
//  130   HalTimerInit();
//  131 #endif
//  132 
//  133   /* ADC */
//  134 #if (defined HAL_ADC) && (HAL_ADC == TRUE)
//  135   HalAdcInit();
        ; Setup parameters for call to function HalAdcInit
        LCALL   ??HalAdcInit?relay
//  136 #endif
//  137 
//  138   /* DMA */
//  139 #if (defined HAL_DMA) && (HAL_DMA == TRUE)
//  140   // Must be called before the init call to any module that uses DMA.
//  141   HalDmaInit();
        ; Setup parameters for call to function HalDmaInit
        LCALL   ??HalDmaInit?relay
//  142 #endif
//  143 
//  144   /* Flash */
//  145 #if (defined HAL_FLASH) && (HAL_FLASH == TRUE)
//  146   // Must be called before the init call to any module that uses Flash access or NV.
//  147   HalFlashInit();
        ; Setup parameters for call to function HalFlashInit
        LCALL   ??HalFlashInit?relay
//  148 #endif
//  149 
//  150   /* AES */
//  151 #if (defined HAL_AES) && (HAL_AES == TRUE)
//  152   HalAesInit();
        ; Setup parameters for call to function HalAesInit
        LCALL   ??HalAesInit?relay
//  153 #endif
//  154 
//  155 //  /* LCD */
//  156 //#if (defined HAL_LCD) && (HAL_LCD == TRUE)
//  157 //  HalLcdInit();
//  158 //#endif
//  159 
//  160   /* LED */
//  161 //#if (defined HAL_LED) && (HAL_LED == TRUE)
//  162 //  HalLedInit();
//  163 //#endif
//  164 
//  165   /* UART */
//  166 #if (defined HAL_UART) && (HAL_UART == TRUE)
//  167   HalUARTInit();
        ; Setup parameters for call to function HalUARTInit
        LCALL   ??HalUARTInit?relay
//  168 #endif
//  169 
//  170 //  /* KEY */
//  171 //#if (defined HAL_KEY) && (HAL_KEY == TRUE)
//  172 //  //HalKeyInit();  
//  173 //#endif
//  174 
//  175   /* SPI */
//  176 #if (defined HAL_SPI) && (HAL_SPI == TRUE)
//  177   HalSpiInit();
//  178 #endif
//  179 
//  180   /* HID */
//  181 #if (defined HAL_HID) && (HAL_HID == TRUE)
//  182   usbHidInit();
//  183 #endif
//  184    SHT2x_Init();//初始化温度传感器   
        ; Setup parameters for call to function SHT2x_Init
        LCALL   ??SHT2x_Init?relay
//  185    OLED_Init(); //OLED初始化   
        ; Setup parameters for call to function OLED_Init
        LCALL   ??OLED_Init?relay
//  186    bottom_led_init(); //初始化底部LED
        ; Setup parameters for call to function bottom_led_init
        LCALL   ??bottom_led_init?relay
//  187    RC522_Init();
        ; Setup parameters for call to function RC522_Init
        LCALL   ??RC522_Init?relay
//  188 }
        POP     DPH
        CFI DPH0 SameValue
        CFI CFA_SP SP+-4
        POP     DPL
        CFI DPL0 SameValue
        CFI CFA_SP SP+-3
        LJMP    ?BRET
        CFI EndBlock cfiBlock1
//  189 
//  190 
//  191 /**************************************************************************************************
//  192  * @fn      Hal_ProcessEvent
//  193  *
//  194  * @brief   Hal Process Event
//  195  *
//  196  * @param   task_id - Hal TaskId
//  197  *          events - events
//  198  *
//  199  * @return  None
//  200  **************************************************************************************************/

        RSEG BANKED_CODE:CODE:NOROOT(0)
//  201 uint16 Hal_ProcessEvent( uint8 task_id, uint16 events )
Hal_ProcessEvent:
        CFI Block cfiBlock2 Using cfiCommon0
        CFI Function Hal_ProcessEvent
        CODE
//  202 {
        FUNCALL Hal_ProcessEvent, osal_msg_receive
        LOCFRAME ISTACK, 0, STACK
        LOCFRAME PSTACK, 0, STACK
        LOCFRAME XSTACK, 10, STACK
        LOCFRAME IOVERLAY, 0, STATIC
        LOCFRAME DOVERLAY, 0, STATIC
        ARGFRAME ISTACK, 0, STACK
        ARGFRAME PSTACK, 0, STACK
        ARGFRAME XSTACK, 10, STACK
        ARGFRAME IOVERLAY, 0, STATIC
        ARGFRAME DOVERLAY, 0, STATIC
        FUNCALL Hal_ProcessEvent, osal_msg_deallocate
        LOCFRAME ISTACK, 0, STACK
        LOCFRAME PSTACK, 0, STACK
        LOCFRAME XSTACK, 10, STACK
        LOCFRAME IOVERLAY, 0, STATIC
        LOCFRAME DOVERLAY, 0, STATIC
        ARGFRAME ISTACK, 0, STACK
        ARGFRAME PSTACK, 0, STACK
        ARGFRAME XSTACK, 10, STACK
        ARGFRAME IOVERLAY, 0, STATIC
        ARGFRAME DOVERLAY, 0, STATIC
        FUNCALL Hal_ProcessEvent, osal_msg_receive
        LOCFRAME ISTACK, 0, STACK
        LOCFRAME PSTACK, 0, STACK
        LOCFRAME XSTACK, 10, STACK
        LOCFRAME IOVERLAY, 0, STATIC
        LOCFRAME DOVERLAY, 0, STATIC
        ARGFRAME ISTACK, 0, STACK
        ARGFRAME PSTACK, 0, STACK
        ARGFRAME XSTACK, 10, STACK
        ARGFRAME IOVERLAY, 0, STATIC
        ARGFRAME DOVERLAY, 0, STATIC
        FUNCALL Hal_ProcessEvent, HalLedUpdate
        LOCFRAME ISTACK, 0, STACK
        LOCFRAME PSTACK, 0, STACK
        LOCFRAME XSTACK, 10, STACK
        LOCFRAME IOVERLAY, 0, STATIC
        LOCFRAME DOVERLAY, 0, STATIC
        ARGFRAME ISTACK, 0, STACK
        ARGFRAME PSTACK, 0, STACK
        ARGFRAME XSTACK, 10, STACK
        ARGFRAME IOVERLAY, 0, STATIC
        ARGFRAME DOVERLAY, 0, STATIC
        FUNCALL Hal_ProcessEvent, HalKeyPoll
        LOCFRAME ISTACK, 0, STACK
        LOCFRAME PSTACK, 0, STACK
        LOCFRAME XSTACK, 10, STACK
        LOCFRAME IOVERLAY, 0, STATIC
        LOCFRAME DOVERLAY, 0, STATIC
        ARGFRAME ISTACK, 0, STACK
        ARGFRAME PSTACK, 0, STACK
        ARGFRAME XSTACK, 10, STACK
        ARGFRAME IOVERLAY, 0, STATIC
        ARGFRAME DOVERLAY, 0, STATIC
        FUNCALL Hal_ProcessEvent, osal_start_timerEx
        LOCFRAME ISTACK, 0, STACK
        LOCFRAME PSTACK, 0, STACK
        LOCFRAME XSTACK, 10, STACK
        LOCFRAME IOVERLAY, 0, STATIC
        LOCFRAME DOVERLAY, 0, STATIC
        ARGFRAME ISTACK, 0, STACK
        ARGFRAME PSTACK, 0, STACK
        ARGFRAME XSTACK, 10, STACK
        ARGFRAME IOVERLAY, 0, STATIC
        ARGFRAME DOVERLAY, 0, STATIC
        MOV     A,#-0xa
        LCALL   ?BANKED_ENTER_XDATA
        CFI DPH0 load(1, XDATA, add(CFA_XSP16, literal(-1)))
        CFI DPL0 load(1, XDATA, add(CFA_XSP16, literal(-2)))
        CFI ?BRET_EXT load(1, XDATA, add(CFA_XSP16, literal(-3)))
        CFI ?RET_HIGH load(1, XDATA, add(CFA_XSP16, literal(-4)))
        CFI ?RET_LOW load(1, XDATA, add(CFA_XSP16, literal(-5)))
        CFI R7 load(1, XDATA, add(CFA_XSP16, literal(-6)))
        CFI V1 load(1, XDATA, add(CFA_XSP16, literal(-7)))
        CFI V0 load(1, XDATA, add(CFA_XSP16, literal(-8)))
        CFI VB load(1, XDATA, add(CFA_XSP16, literal(-9)))
        CFI R6 load(1, XDATA, add(CFA_XSP16, literal(-10)))
        CFI CFA_SP SP+0
        CFI CFA_XSP16 add(XSP16, 10)
        ; Saved register size: 10
        ; Auto size: 0
        MOV     A,R2
        MOV     R6,A
        MOV     A,R3
        MOV     R7,A
//  203   uint8 *msgPtr;
//  204   
//  205   (void)task_id;  // Intentionally unreferenced parameter
//  206 
//  207   if ( events & SYS_EVENT_MSG )
        ANL     A,#0x80
        JZ      ??Hal_ProcessEvent_0
//  208   {
//  209     msgPtr = osal_msg_receive(Hal_TaskID);
        ; Setup parameters for call to function osal_msg_receive
        SJMP    ??Hal_ProcessEvent_1
//  210 
//  211     while (msgPtr)
//  212     {
//  213       /* Do something here - for now, just deallocate the msg and move on */
//  214 
//  215       /* De-allocate */
//  216       osal_msg_deallocate( msgPtr );
??Hal_ProcessEvent_2:
        ; Setup parameters for call to function osal_msg_deallocate
        LCALL   ??osal_msg_deallocate?relay
//  217       /* Next */
//  218       msgPtr = osal_msg_receive( Hal_TaskID );
        ; Setup parameters for call to function osal_msg_receive
??Hal_ProcessEvent_1:
        MOV     DPTR,#Hal_TaskID
        MOVX    A,@DPTR
        MOV     R1,A
        LCALL   ??osal_msg_receive?relay
//  219     }
        MOV     A,R2
        ORL     A,R3
        JNZ     ??Hal_ProcessEvent_2
//  220     return events ^ SYS_EVENT_MSG;
        MOV     A,R6
        MOV     R2,A
        MOV     A,R7
        XRL     A,#0x80
??Hal_ProcessEvent_3:
        MOV     R3,A
        SJMP    ??Hal_ProcessEvent_4
//  221   }
//  222 
//  223   if ( events & HAL_LED_BLINK_EVENT )
??Hal_ProcessEvent_0:
        MOV     A,R6
        ANL     A,#0x2
        JZ      ??Hal_ProcessEvent_5
//  224   {
//  225 #if (defined (BLINK_LEDS)) && (HAL_LED == TRUE)
//  226     HalLedUpdate();
        ; Setup parameters for call to function HalLedUpdate
        LCALL   ??HalLedUpdate?relay
//  227 #endif /* BLINK_LEDS && HAL_LED */
//  228     return events ^ HAL_LED_BLINK_EVENT;
        MOV     A,R6
        XRL     A,#0x2
??Hal_ProcessEvent_6:
        MOV     R2,A
        MOV     A,R7
        SJMP    ??Hal_ProcessEvent_3
//  229   }
//  230 
//  231   if (events & HAL_KEY_EVENT)
??Hal_ProcessEvent_5:
        MOV     A,R6
        MOV     C,0xE0 /* A   */.0
        JNC     ??Hal_ProcessEvent_7
//  232   {
//  233 
//  234 #if (defined HAL_KEY) && (HAL_KEY == TRUE)
//  235     /* Check for keys */
//  236     HalKeyPoll();
        ; Setup parameters for call to function HalKeyPoll
        LCALL   ??HalKeyPoll?relay
//  237 
//  238     /* if interrupt disabled, do next polling */
//  239     if (!Hal_KeyIntEnable)
        MOV     DPTR,#Hal_KeyIntEnable
        MOVX    A,@DPTR
        JNZ     ??Hal_ProcessEvent_8
//  240     {
//  241       osal_start_timerEx( Hal_TaskID, HAL_KEY_EVENT, 100);
        ; Setup parameters for call to function osal_start_timerEx
        MOV     R4,#0x64
        MOV     R5,#0x0
        MOV     R2,#0x1
        MOV     R3,#0x0
        MOV     DPTR,#Hal_TaskID
        MOVX    A,@DPTR
        MOV     R1,A
        LCALL   ??osal_start_timerEx?relay
//  242     }
//  243 #endif // HAL_KEY
//  244 
//  245     return events ^ HAL_KEY_EVENT;
??Hal_ProcessEvent_8:
        MOV     A,R6
        XRL     A,#0x1
        SJMP    ??Hal_ProcessEvent_6
//  246   }
//  247 
//  248 #ifdef POWER_SAVING
//  249   if ( events & HAL_SLEEP_TIMER_EVENT )
//  250   {
//  251     halRestoreSleepLevel();
//  252     return events ^ HAL_SLEEP_TIMER_EVENT;
//  253   }
//  254 #endif
//  255 
//  256   /* Nothing interested, discard the message */
//  257   return 0;
??Hal_ProcessEvent_7:
        MOV     R2,#0x0
        MOV     R3,#0x0
??Hal_ProcessEvent_4:
        MOV     R7,#0x2
        LJMP    ?BANKED_LEAVE_XDATA
        CFI EndBlock cfiBlock2
//  258 
//  259 }
//  260 
//  261 /**************************************************************************************************
//  262  * @fn      Hal_ProcessPoll
//  263  *
//  264  * @brief   This routine will be called by OSAL to poll UART, TIMER...
//  265  *
//  266  * @param   task_id - Hal TaskId
//  267  *
//  268  * @return  None
//  269  **************************************************************************************************/

        RSEG BANKED_CODE:CODE:NOROOT(0)
//  270 void Hal_ProcessPoll ()
Hal_ProcessPoll:
        CFI Block cfiBlock3 Using cfiCommon0
        CFI Function Hal_ProcessPoll
        CODE
//  271 {
        FUNCALL Hal_ProcessPoll, HalUARTPoll
        LOCFRAME ISTACK, 2, STACK
        LOCFRAME PSTACK, 0, STACK
        LOCFRAME XSTACK, 0, STACK
        LOCFRAME IOVERLAY, 0, STATIC
        LOCFRAME DOVERLAY, 0, STATIC
        ARGFRAME ISTACK, 2, STACK
        ARGFRAME PSTACK, 0, STACK
        ARGFRAME XSTACK, 0, STACK
        ARGFRAME IOVERLAY, 0, STATIC
        ARGFRAME DOVERLAY, 0, STATIC
        PUSH    DPL
        CFI DPL0 Frame(CFA_SP, 4)
        CFI CFA_SP SP+-4
        PUSH    DPH
        CFI DPH0 Frame(CFA_SP, 5)
        CFI CFA_SP SP+-5
        ; Saved register size: 2
        ; Auto size: 0
//  272 
//  273   /* Timer Poll */
//  274 #if (defined HAL_TIMER) && (HAL_TIMER == TRUE)
//  275   HalTimerTick();
//  276 #endif
//  277 
//  278   /* UART Poll */
//  279 #if (defined HAL_UART) && (HAL_UART == TRUE)
//  280   HalUARTPoll();
        ; Setup parameters for call to function HalUARTPoll
        LCALL   ??HalUARTPoll?relay
//  281 #endif  
//  282 
//  283   /* SPI Poll */
//  284 #if (defined HAL_SPI) && (HAL_SPI == TRUE)
//  285   HalSpiPoll();
//  286 #endif
//  287 
//  288   /* HID poll */
//  289 #if (defined HAL_HID) && (HAL_HID == TRUE)
//  290   usbHidProcessEvents();
//  291 #endif
//  292 
//  293 }
        POP     DPH
        CFI DPH0 SameValue
        CFI CFA_SP SP+-4
        POP     DPL
        CFI DPL0 SameValue
        CFI CFA_SP SP+-3
        LJMP    ?BRET
        CFI EndBlock cfiBlock3

        RSEG BANK_RELAYS:CODE:REORDER:NOROOT(0)
??Hal_Init?relay:
        LCALL   ?BDISPATCH
        DATA
        DC24    Hal_Init

        RSEG BANK_RELAYS:CODE:REORDER:NOROOT(0)
??HalDriverInit?relay:
        LCALL   ?BDISPATCH
        DATA
        DC24    HalDriverInit

        RSEG BANK_RELAYS:CODE:REORDER:NOROOT(0)
??Hal_ProcessEvent?relay:
        LCALL   ?BDISPATCH
        DATA
        DC24    Hal_ProcessEvent

        RSEG BANK_RELAYS:CODE:REORDER:NOROOT(0)
??Hal_ProcessPoll?relay:
        LCALL   ?BDISPATCH
        DATA
        DC24    Hal_ProcessPoll

        END
//  294 
//  295 
//  296 /**************************************************************************************************
//  297 **************************************************************************************************/
//  298 
// 
// 165 bytes in segment BANKED_CODE
//  24 bytes in segment BANK_RELAYS
//   1 byte  in segment XDATA_Z
// 
// 189 bytes of CODE  memory
//   1 byte  of XDATA memory
//
//Errors: none
//Warnings: none
