###############################################################################
#                                                                             #
# IAR C/C++ Compiler V8.10.3.10338/W32 for 8051         30/Dec/2019  11:05:49 #
# Copyright 2004-2011 IAR Systems AB.                                         #
#                                                                             #
#    Core               =  plain                                              #
#    Code model         =  banked                                             #
#    Data model         =  large                                              #
#    Calling convention =  xdata reentrant                                    #
#    Constant location  =  data_rom                                           #
#    Dptr setup         =  1,16                                               #
#    Source file        =  D:\OuYangDong\Project\สตั้ฯไฝจษ่\ถเอ๘ศฺบฯสตั้ืฐึร\ #
#                          ตฺศียกขป๙ำฺฮฯ฿ดซธะอ๘ย็ตฤสตั้\3.6                 #
#                          ZigBeeตใฒฅอจะลสตั้-ษฯฑจดซธะฦ๗สพ\Components\HARDW #
#                          ARE\IIC.c                                          #
#    Command line       =  -f "D:\OuYangDong\Project\สตั้ฯไฝจษ่\ถเอ๘ศฺบฯสตั้ื #
#                          ฐึร\ตฺศียกขป๙ำฺฮฯ฿ดซธะอ๘ย็ตฤสตั้\3.6             #
#                          ZigBeeตใฒฅอจะลสตั้-ษฯฑจดซธะฦ๗สพ\Projects\zstack\ #
#                          Samples\SampleApp\CC2530DB\..\..\..\Tools\CC2530DB #
#                          \f8wEndev.cfg" (-DCPU32MHZ -DROOT=__near_func      #
#                          -DBLINK_LEDS) -f "D:\OuYangDong\Project\สตั้ฯไฝจษ่ #
#                          \ถเอ๘ศฺบฯสตั้ืฐึร\ตฺศียกขป๙ำฺฮฯ฿ดซธะอ๘ย็ตฤสตั้\3 #
#                          .6 ZigBeeตใฒฅอจะลสตั้-ษฯฑจดซธะฦ๗สพ\Projects\zsta #
#                          ck\Samples\SampleApp\CC2530DB\..\..\..\Tools\CC253 #
#                          0DB\f8wConfig.cfg" (-DSECURE=0                     #
#                          -DZG_SECURE_DYNAMIC=0 -DREFLECTOR                  #
#                          -DDEFAULT_CHANLIST=0x00000800                      #
#                          -DZDAPP_CONFIG_PAN_ID=0xFF11                       #
#                          -DNWK_START_DELAY=100 -DEXTENDED_JOINING_RANDOM_MA #
#                          SK=0x007F -DBEACON_REQUEST_DELAY=100               #
#                          -DBEACON_REQ_DELAY_MASK=0x00FF                     #
#                          -DROUTE_EXPIRY_TIME=30 -DAPSC_ACK_WAIT_DURATION_PO #
#                          LLED=3000 -DNWK_INDIRECT_MSG_TIMEOUT=7             #
#                          -DMAX_RREQ_ENTRIES=8 -DAPSC_MAX_FRAME_RETRIES=3    #
#                          -DNWK_MAX_DATA_RETRIES=2                           #
#                          -DMAX_POLL_FAILURE_RETRIES=2 -DMAX_BCAST=9         #
#                          -DAPS_MAX_GROUPS=16 -DMAX_RTG_ENTRIES=40           #
#                          -DNWK_MAX_BINDING_ENTRIES=4                        #
#                          -DMAX_BINDING_CLUSTER_IDS=4 "-DDEFAULT_KEY={0x01,  #
#                          0x03, 0x05, 0x07, 0x09, 0x0B, 0x0D, 0x0F, 0x00,    #
#                          0x02, 0x04, 0x06, 0x08, 0x0A, 0x0C, 0x0D}"         #
#                          -DMAC_MAX_FRAME_SIZE=116 "-DCONST=const __code"    #
#                          -DGENERIC=__generic -DRFD_RCVC_ALWAYS_ON=FALSE     #
#                          -DPOLL_RATE=1000 -DQUEUED_POLL_RATE=100            #
#                          -DRESPONSE_POLL_RATE=100) -DREJOIN_POLL_RATE=440   #
#                          "D:\OuYangDong\Project\สตั้ฯไฝจษ่\ถเอ๘ศฺบฯสตั้ืฐึร #
#                          \ตฺศียกขป๙ำฺฮฯ฿ดซธะอ๘ย็ตฤสตั้\3.6                #
#                          ZigBeeตใฒฅอจะลสตั้-ษฯฑจดซธะฦ๗สพ\Components\HARDW #
#                          ARE\IIC.c" -D NWK_AUTO_POLL -D ZTOOL_P1 -D         #
#                          MT_SYS_FUNC -D MT_ZDO_FUNC -D LCD_SUPPORTED=DEBUG  #
#                          -lC "D:\OuYangDong\Project\สตั้ฯไฝจษ่\ถเอ๘ศฺบฯสตั้ #
#                          ืฐึร\ตฺศียกขป๙ำฺฮฯ฿ดซธะอ๘ย็ตฤสตั้\3.6            #
#                          ZigBeeตใฒฅอจะลสตั้-ษฯฑจดซธะฦ๗สพ\Projects\zstack\ #
#                          Samples\SampleApp\CC2530DB\EndDeviceEB\List\" -lA  #
#                          "D:\OuYangDong\Project\สตั้ฯไฝจษ่\ถเอ๘ศฺบฯสตั้ืฐึร #
#                          \ตฺศียกขป๙ำฺฮฯ฿ดซธะอ๘ย็ตฤสตั้\3.6                #
#                          ZigBeeตใฒฅอจะลสตั้-ษฯฑจดซธะฦ๗สพ\Projects\zstack\ #
#                          Samples\SampleApp\CC2530DB\EndDeviceEB\List\"      #
#                          --diag_suppress Pe001,Pa010 -o                     #
#                          "D:\OuYangDong\Project\สตั้ฯไฝจษ่\ถเอ๘ศฺบฯสตั้ืฐึร #
#                          \ตฺศียกขป๙ำฺฮฯ฿ดซธะอ๘ย็ตฤสตั้\3.6                #
#                          ZigBeeตใฒฅอจะลสตั้-ษฯฑจดซธะฦ๗สพ\Projects\zstack\ #
#                          Samples\SampleApp\CC2530DB\EndDeviceEB\Obj\" -e    #
#                          --no_unroll --no_inline --no_tbaa --debug          #
#                          --core=plain --dptr=16,1 --data_model=large        #
#                          --code_model=banked --calling_convention=xdata_ree #
#                          ntrant --place_constants=data_rom                  #
#                          --nr_virtual_regs 16 -I "D:\OuYangDong\Project\สตั #
#                          ้ฯไฝจษ่\ถเอ๘ศฺบฯสตั้ืฐึร\ตฺศียกขป๙ำฺฮฯ฿ดซธะอ๘ย็ต #
#                          ฤสตั้\3.6 ZigBeeตใฒฅอจะลสตั้-ษฯฑจดซธะฦ๗สพ\Projec #
#                          ts\zstack\Samples\SampleApp\CC2530DB\" -I          #
#                          "D:\OuYangDong\Project\สตั้ฯไฝจษ่\ถเอ๘ศฺบฯสตั้ืฐึร #
#                          \ตฺศียกขป๙ำฺฮฯ฿ดซธะอ๘ย็ตฤสตั้\3.6                #
#                          ZigBeeตใฒฅอจะลสตั้-ษฯฑจดซธะฦ๗สพ\Projects\zstack\ #
#                          Samples\SampleApp\CC2530DB\..\SOURCE\" -I          #
#                          "D:\OuYangDong\Project\สตั้ฯไฝจษ่\ถเอ๘ศฺบฯสตั้ืฐึร #
#                          \ตฺศียกขป๙ำฺฮฯ฿ดซธะอ๘ย็ตฤสตั้\3.6                #
#                          ZigBeeตใฒฅอจะลสตั้-ษฯฑจดซธะฦ๗สพ\Projects\zstack\ #
#                          Samples\SampleApp\CC2530DB\..\..\..\ZMAIN\TI2530DB #
#                          \" -I "D:\OuYangDong\Project\สตั้ฯไฝจษ่\ถเอ๘ศฺบฯสต #
#                          ั้ืฐึร\ตฺศียกขป๙ำฺฮฯ฿ดซธะอ๘ย็ตฤสตั้\3.6          #
#                          ZigBeeตใฒฅอจะลสตั้-ษฯฑจดซธะฦ๗สพ\Projects\zstack\ #
#                          Samples\SampleApp\CC2530DB\..\..\..\..\..\COMPONEN #
#                          TS\MT\" -I "D:\OuYangDong\Project\สตั้ฯไฝจษ่\ถเอ๘ศ #
#                          ฺบฯสตั้ืฐึร\ตฺศียกขป๙ำฺฮฯ฿ดซธะอ๘ย็ตฤสตั้\3.6     #
#                          ZigBeeตใฒฅอจะลสตั้-ษฯฑจดซธะฦ๗สพ\Projects\zstack\ #
#                          Samples\SampleApp\CC2530DB\..\..\..\..\..\COMPONEN #
#                          TS\HAL\INCLUDE\" -I "D:\OuYangDong\Project\สตั้ฯไฝ #
#                          จษ่\ถเอ๘ศฺบฯสตั้ืฐึร\ตฺศียกขป๙ำฺฮฯ฿ดซธะอ๘ย็ตฤสตั #
#                          ้\3.6 ZigBeeตใฒฅอจะลสตั้-ษฯฑจดซธะฦ๗สพ\Projects\z #
#                          stack\Samples\SampleApp\CC2530DB\..\..\..\..\..\CO #
#                          MPONENTS\HAL\TARGET\CC2530EB\" -I                  #
#                          "D:\OuYangDong\Project\สตั้ฯไฝจษ่\ถเอ๘ศฺบฯสตั้ืฐึร #
#                          \ตฺศียกขป๙ำฺฮฯ฿ดซธะอ๘ย็ตฤสตั้\3.6                #
#                          ZigBeeตใฒฅอจะลสตั้-ษฯฑจดซธะฦ๗สพ\Projects\zstack\ #
#                          Samples\SampleApp\CC2530DB\..\..\..\..\..\COMPONEN #
#                          TS\OSAL\MCU\CCSOC\" -I "D:\OuYangDong\Project\สตั้ #
#                          ฯไฝจษ่\ถเอ๘ศฺบฯสตั้ืฐึร\ตฺศียกขป๙ำฺฮฯ฿ดซธะอ๘ย็ตฤ #
#                          สตั้\3.6 ZigBeeตใฒฅอจะลสตั้-ษฯฑจดซธะฦ๗สพ\Project #
#                          s\zstack\Samples\SampleApp\CC2530DB\..\..\..\..\.. #
#                          \COMPONENTS\OSAL\INCLUDE\" -I                      #
#                          "D:\OuYangDong\Project\สตั้ฯไฝจษ่\ถเอ๘ศฺบฯสตั้ืฐึร #
#                          \ตฺศียกขป๙ำฺฮฯ฿ดซธะอ๘ย็ตฤสตั้\3.6                #
#                          ZigBeeตใฒฅอจะลสตั้-ษฯฑจดซธะฦ๗สพ\Projects\zstack\ #
#                          Samples\SampleApp\CC2530DB\..\..\..\..\..\COMPONEN #
#                          TS\STACK\AF\" -I "D:\OuYangDong\Project\สตั้ฯไฝจษ่ #
#                          \ถเอ๘ศฺบฯสตั้ืฐึร\ตฺศียกขป๙ำฺฮฯ฿ดซธะอ๘ย็ตฤสตั้\3 #
#                          .6 ZigBeeตใฒฅอจะลสตั้-ษฯฑจดซธะฦ๗สพ\Projects\zsta #
#                          ck\Samples\SampleApp\CC2530DB\..\..\..\..\..\COMPO #
#                          NENTS\STACK\NWK\" -I "D:\OuYangDong\Project\สตั้ฯไ #
#                          ฝจษ่\ถเอ๘ศฺบฯสตั้ืฐึร\ตฺศียกขป๙ำฺฮฯ฿ดซธะอ๘ย็ตฤสต #
#                          ั้\3.6 ZigBeeตใฒฅอจะลสตั้-ษฯฑจดซธะฦ๗สพ\Projects\ #
#                          zstack\Samples\SampleApp\CC2530DB\..\..\..\..\..\C #
#                          OMPONENTS\STACK\SEC\" -I                           #
#                          "D:\OuYangDong\Project\สตั้ฯไฝจษ่\ถเอ๘ศฺบฯสตั้ืฐึร #
#                          \ตฺศียกขป๙ำฺฮฯ฿ดซธะอ๘ย็ตฤสตั้\3.6                #
#                          ZigBeeตใฒฅอจะลสตั้-ษฯฑจดซธะฦ๗สพ\Projects\zstack\ #
#                          Samples\SampleApp\CC2530DB\..\..\..\..\..\COMPONEN #
#                          TS\STACK\SAPI\" -I "D:\OuYangDong\Project\สตั้ฯไฝจ #
#                          ษ่\ถเอ๘ศฺบฯสตั้ืฐึร\ตฺศียกขป๙ำฺฮฯ฿ดซธะอ๘ย็ตฤสตั้ #
#                          \3.6 ZigBeeตใฒฅอจะลสตั้-ษฯฑจดซธะฦ๗สพ\Projects\zs #
#                          tack\Samples\SampleApp\CC2530DB\..\..\..\..\..\COM #
#                          PONENTS\STACK\SYS\" -I "D:\OuYangDong\Project\สตั้ #
#                          ฯไฝจษ่\ถเอ๘ศฺบฯสตั้ืฐึร\ตฺศียกขป๙ำฺฮฯ฿ดซธะอ๘ย็ตฤ #
#                          สตั้\3.6 ZigBeeตใฒฅอจะลสตั้-ษฯฑจดซธะฦ๗สพ\Project #
#                          s\zstack\Samples\SampleApp\CC2530DB\..\..\..\..\.. #
#                          \COMPONENTS\STACK\ZDO\" -I                         #
#                          "D:\OuYangDong\Project\สตั้ฯไฝจษ่\ถเอ๘ศฺบฯสตั้ืฐึร #
#                          \ตฺศียกขป๙ำฺฮฯ฿ดซธะอ๘ย็ตฤสตั้\3.6                #
#                          ZigBeeตใฒฅอจะลสตั้-ษฯฑจดซธะฦ๗สพ\Projects\zstack\ #
#                          Samples\SampleApp\CC2530DB\..\..\..\..\..\COMPONEN #
#                          TS\ZMAC\F8W\" -I "D:\OuYangDong\Project\สตั้ฯไฝจษ่ #
#                          \ถเอ๘ศฺบฯสตั้ืฐึร\ตฺศียกขป๙ำฺฮฯ฿ดซธะอ๘ย็ตฤสตั้\3 #
#                          .6 ZigBeeตใฒฅอจะลสตั้-ษฯฑจดซธะฦ๗สพ\Projects\zsta #
#                          ck\Samples\SampleApp\CC2530DB\..\..\..\..\..\COMPO #
#                          NENTS\ZMAC\" -I "D:\OuYangDong\Project\สตั้ฯไฝจษ่\ #
#                          ถเอ๘ศฺบฯสตั้ืฐึร\ตฺศียกขป๙ำฺฮฯ฿ดซธะอ๘ย็ตฤสตั้\3. #
#                          6 ZigBeeตใฒฅอจะลสตั้-ษฯฑจดซธะฦ๗สพ\Projects\zstac #
#                          k\Samples\SampleApp\CC2530DB\..\..\..\..\..\COMPON #
#                          ENTS\SERVICES\SADDR\" -I                           #
#                          "D:\OuYangDong\Project\สตั้ฯไฝจษ่\ถเอ๘ศฺบฯสตั้ืฐึร #
#                          \ตฺศียกขป๙ำฺฮฯ฿ดซธะอ๘ย็ตฤสตั้\3.6                #
#                          ZigBeeตใฒฅอจะลสตั้-ษฯฑจดซธะฦ๗สพ\Projects\zstack\ #
#                          Samples\SampleApp\CC2530DB\..\..\..\..\..\COMPONEN #
#                          TS\SERVICES\SDATA\" -I "D:\OuYangDong\Project\สตั้ #
#                          ฯไฝจษ่\ถเอ๘ศฺบฯสตั้ืฐึร\ตฺศียกขป๙ำฺฮฯ฿ดซธะอ๘ย็ตฤ #
#                          สตั้\3.6 ZigBeeตใฒฅอจะลสตั้-ษฯฑจดซธะฦ๗สพ\Project #
#                          s\zstack\Samples\SampleApp\CC2530DB\..\..\..\..\.. #
#                          \COMPONENTS\MAC\INCLUDE\" -I                       #
#                          "D:\OuYangDong\Project\สตั้ฯไฝจษ่\ถเอ๘ศฺบฯสตั้ืฐึร #
#                          \ตฺศียกขป๙ำฺฮฯ฿ดซธะอ๘ย็ตฤสตั้\3.6                #
#                          ZigBeeตใฒฅอจะลสตั้-ษฯฑจดซธะฦ๗สพ\Projects\zstack\ #
#                          Samples\SampleApp\CC2530DB\..\..\..\..\..\COMPONEN #
#                          TS\MAC\HIGH_LEVEL\" -I "D:\OuYangDong\Project\สตั้ #
#                          ฯไฝจษ่\ถเอ๘ศฺบฯสตั้ืฐึร\ตฺศียกขป๙ำฺฮฯ฿ดซธะอ๘ย็ตฤ #
#                          สตั้\3.6 ZigBeeตใฒฅอจะลสตั้-ษฯฑจดซธะฦ๗สพ\Project #
#                          s\zstack\Samples\SampleApp\CC2530DB\..\..\..\..\.. #
#                          \COMPONENTS\MAC\LOW_LEVEL\srf04\" -I               #
#                          "D:\OuYangDong\Project\สตั้ฯไฝจษ่\ถเอ๘ศฺบฯสตั้ืฐึร #
#                          \ตฺศียกขป๙ำฺฮฯ฿ดซธะอ๘ย็ตฤสตั้\3.6                #
#                          ZigBeeตใฒฅอจะลสตั้-ษฯฑจดซธะฦ๗สพ\Projects\zstack\ #
#                          Samples\SampleApp\CC2530DB\..\..\..\..\..\COMPONEN #
#                          TS\MAC\LOW_LEVEL\srf04\SINGLE_CHIP\" -I            #
#                          "D:\OuYangDong\Project\สตั้ฯไฝจษ่\ถเอ๘ศฺบฯสตั้ืฐึร #
#                          \ตฺศียกขป๙ำฺฮฯ฿ดซธะอ๘ย็ตฤสตั้\3.6                #
#                          ZigBeeตใฒฅอจะลสตั้-ษฯฑจดซธะฦ๗สพ\Projects\zstack\ #
#                          Samples\SampleApp\CC2530DB\..\..\..\..\..\COMPONEN #
#                          TS\HARDWARE\" -Om                                  #
#    List file          =  D:\OuYangDong\Project\สตั้ฯไฝจษ่\ถเอ๘ศฺบฯสตั้ืฐึร\ #
#                          ตฺศียกขป๙ำฺฮฯ฿ดซธะอ๘ย็ตฤสตั้\3.6                 #
#                          ZigBeeตใฒฅอจะลสตั้-ษฯฑจดซธะฦ๗สพ\Projects\zstack\ #
#                          Samples\SampleApp\CC2530DB\EndDeviceEB\List\IIC.ls #
#                          t                                                  #
#    Object file        =  D:\OuYangDong\Project\สตั้ฯไฝจษ่\ถเอ๘ศฺบฯสตั้ืฐึร\ #
#                          ตฺศียกขป๙ำฺฮฯ฿ดซธะอ๘ย็ตฤสตั้\3.6                 #
#                          ZigBeeตใฒฅอจะลสตั้-ษฯฑจดซธะฦ๗สพ\Projects\zstack\ #
#                          Samples\SampleApp\CC2530DB\EndDeviceEB\Obj\IIC.r51 #
#                                                                             #
#                                                                             #
###############################################################################

D:\OuYangDong\Project\สตั้ฯไฝจษ่\ถเอ๘ศฺบฯสตั้ืฐึร\ตฺศียกขป๙ำฺฮฯ฿ดซธะอ๘ย็ตฤสตั้\3.6 ZigBeeตใฒฅอจะลสตั้-ษฯฑจดซธะฦ๗สพ\Components\HARDWARE\IIC.c
      1          #include "delay.h"
      2          #include "IIC.h"
      3          #include "ioCC2530.h"

   \                                 In  segment SFR_AN, at 0x80
   \   union <unnamed> volatile __sfr _A_P0
   \                     _A_P0:
   \   000000                DS 1

   \                                 In  segment SFR_AN, at 0x8f
   \   unsigned char volatile __sfr P0INP
   \                     P0INP:
   \   000000                DS 1

   \                                 In  segment SFR_AN, at 0xf3
   \   unsigned char volatile __sfr P0SEL
   \                     P0SEL:
   \   000000                DS 1

   \                                 In  segment SFR_AN, at 0xfd
   \   unsigned char volatile __sfr P0DIR
   \                     P0DIR:
   \   000000                DS 1
      4          //==========================================================
      5          //	บฏสร๛ณฦฃบ	IIC_Delay
      6          //
      7          //	บฏสนฆฤฃบ	IICัำสฑบฏส
      8          //
      9          //	ศ๋ฟฺฒฮสฃบ	สฑผไ
     10          //
     11          //	ทตปุฒฮสฃบ	ฮ
     12          //
     13          //	หตร๗ฃบ		
     14          //==========================================================
     15          

   \                                 In  segment BANKED_CODE, align 1, keep-with-next
     16          void IIC_Delay(uint32 n)
   \                     IIC_Delay:
     17          {
   \   000000                ; Saved register size: 0
   \   000000                ; Auto size: 0
     18            while(0);
     19          }
   \   000000   02....       LJMP    ?BRET
     20          
     21          //==========================================================
     22          //	บฏสร๛ณฦฃบ	IIC_Init
     23          //
     24          //	บฏสนฆฤฃบ	ณ๕สผปฏIIC
     25          //
     26          //	ศ๋ฟฺฒฮสฃบ	ฮ
     27          //
     28          //	ทตปุฒฮสฃบ	ฮ
     29          //
     30          //	หตร๗ฃบ		
     31          //==========================================================

   \                                 In  segment BANKED_CODE, align 1, keep-with-next
     32          void IIC_Init(void)
   \                     IIC_Init:
     33          {
   \   000000                ; Saved register size: 0
   \   000000                ; Auto size: 0
     34              P0SEL &= ~0xC0;     //ษ่ึรP0.6กขP0.7ฮชฦีอจIOฟฺ  
   \   000000   53F33F       ANL     0xf3,#0x3f
     35              P0DIR |= 0xC0;      //P0.6กขP0.7ถจาๅฮชสไณ๖
   \   000003   43FDC0       ORL     0xfd,#0xc0
     36          }
   \   000006   02....       LJMP    ?BRET
   \   000009                REQUIRE P0SEL
   \   000009                REQUIRE P0DIR
     37          
     38          //==========================================================
     39          //	บฏสร๛ณฦฃบ	IIC_SCL_OUTPUT
     40          //
     41          //	บฏสนฆฤฃบ	IICสฑึำฯ฿สไณ๖ฤฃสฝ
     42          //
     43          //	ศ๋ฟฺฒฮสฃบ	ฮ
     44          //
     45          //	ทตปุฒฮสฃบ	ฮ
     46          //
     47          //	หตร๗ฃบ		
     48          //==========================================================

   \                                 In  segment BANKED_CODE, align 1, keep-with-next
     49          void IIC_SCL_OUTPUT(void)
   \                     IIC_SCL_OUTPUT:
     50          {
   \   000000                ; Saved register size: 0
   \   000000                ; Auto size: 0
     51              P0SEL &= ~0x40;     //ษ่ึรP0.6ฮชฦีอจIOฟฺ  
   \   000000   53F3BF       ANL     0xf3,#0xbf
     52              P0DIR |= 0x40;      //P0.6ถจาๅฮชสไณ๖
   \   000003   43FD40       ORL     0xfd,#0x40
     53          }
   \   000006   02....       LJMP    ?BRET
   \   000009                REQUIRE P0SEL
   \   000009                REQUIRE P0DIR
     54          
     55          //==========================================================
     56          //	บฏสร๛ณฦฃบ	IIC_SCL_INPUT
     57          //
     58          //	บฏสนฆฤฃบ	IICสฑึำฯ฿สไศ๋ฤฃสฝ
     59          //
     60          //	ศ๋ฟฺฒฮสฃบ	ฮ
     61          //
     62          //	ทตปุฒฮสฃบ	ฮ
     63          //
     64          //	หตร๗ฃบ		
     65          //==========================================================

   \                                 In  segment BANKED_CODE, align 1, keep-with-next
     66          void IIC_SCL_INPUT(void)
   \                     IIC_SCL_INPUT:
     67          {
   \   000000                ; Saved register size: 0
   \   000000                ; Auto size: 0
     68              P0SEL &= ~0x40;     //ษ่ึรP0.6ฮชฦีอจIOฟฺ  
   \   000000   53F3BF       ANL     0xf3,#0xbf
     69              P0DIR &= ~0x40;     //ฐดผฝำิฺP0.6ฟฺษฯฃฌษ่P0.6ฮชสไศ๋ฤฃสฝ 
   \   000003   53FDBF       ANL     0xfd,#0xbf
     70              P0INP &= ~0x40;     //ด๒ฟชP0.6ษฯภญต็ื่
   \   000006   538FBF       ANL     0x8f,#0xbf
     71          }
   \   000009   02....       LJMP    ?BRET
   \   00000C                REQUIRE P0SEL
   \   00000C                REQUIRE P0DIR
   \   00000C                REQUIRE P0INP
     72          
     73          //==========================================================
     74          //	บฏสร๛ณฦฃบ	IIC_SDA_OUTPUT
     75          //
     76          //	บฏสนฆฤฃบ	IICสพฯ฿สไณ๖ฤฃสฝ 
     77          //
     78          //	ศ๋ฟฺฒฮสฃบ	ฮ
     79          //
     80          //	ทตปุฒฮสฃบ	ฮ
     81          //
     82          //	หตร๗ฃบ		
     83          //==========================================================

   \                                 In  segment BANKED_CODE, align 1, keep-with-next
     84          void IIC_SDA_OUTPUT(void)
   \                     IIC_SDA_OUTPUT:
     85          {
   \   000000                ; Saved register size: 0
   \   000000                ; Auto size: 0
     86              P0SEL &= ~0x80;     //ษ่ึรP0.7ฮชฦีอจIOฟฺ  
   \   000000   53F37F       ANL     0xf3,#0x7f
     87              P0DIR |= 0x80;      //P0.7ถจาๅฮชสไณ๖
   \   000003   43FD80       ORL     0xfd,#0x80
     88          }
   \   000006   02....       LJMP    ?BRET
   \   000009                REQUIRE P0SEL
   \   000009                REQUIRE P0DIR
     89          
     90          //==========================================================
     91          //	บฏสร๛ณฦฃบ	IIC_SDA_INPUT
     92          //
     93          //	บฏสนฆฤฃบ	IICสพฯ฿สไศ๋ฤฃสฝ
     94          //
     95          //	ศ๋ฟฺฒฮสฃบ	ฮ
     96          //
     97          //	ทตปุฒฮสฃบ	ฮ
     98          //
     99          //	หตร๗ฃบ		
    100          //==========================================================

   \                                 In  segment BANKED_CODE, align 1, keep-with-next
    101          void IIC_SDA_INPUT(void)
   \                     IIC_SDA_INPUT:
    102          {
   \   000000                ; Saved register size: 0
   \   000000                ; Auto size: 0
    103              P0SEL &= ~0x80;     //ษ่ึรP0.7ฮชฦีอจIOฟฺ  
   \   000000   53F37F       ANL     0xf3,#0x7f
    104              P0DIR &= ~0x80;     //ฐดผฝำิฺP0.7ฟฺษฯฃฌษ่P0.7ฮชสไศ๋ฤฃสฝ 
   \   000003   53FD7F       ANL     0xfd,#0x7f
    105              P0INP &= ~0x80;     //ด๒ฟชP0.7ษฯภญต็ื่
   \   000006   538F7F       ANL     0x8f,#0x7f
    106          }
   \   000009   02....       LJMP    ?BRET
   \   00000C                REQUIRE P0SEL
   \   00000C                REQUIRE P0DIR
   \   00000C                REQUIRE P0INP
    107          
    108          //==========================================================
    109          //	บฏสร๛ณฦฃบ	IIC_Start
    110          //
    111          //	บฏสนฆฤฃบ	IICฦ๔ถฏสฑะ๒
    112          //
    113          //	ศ๋ฟฺฒฮสฃบ	ฮ
    114          //
    115          //	ทตปุฒฮสฃบ	ฮ
    116          //
    117          //	หตร๗ฃบ		
    118          //==========================================================

   \                                 In  segment BANKED_CODE, align 1, keep-with-next
    119          void IIC_Start(void)
   \                     IIC_Start:
    120          {
   \   000000   C082         PUSH    DPL
   \   000002   C083         PUSH    DPH
   \   000004                ; Saved register size: 2
   \   000004                ; Auto size: 0
    121              IIC_SDA_OUTPUT();	//สฑึำฯ฿สไณ๖ฤฃสฝ
   \   000004                ; Setup parameters for call to function IIC_SDA_OUTPUT
   \   000004   12....       LCALL   ??IIC_SDA_OUTPUT?relay
    122              IIC_SCL_OUTPUT();	//สพฯ฿สไณ๖ฤฃสฝ
   \   000007                ; Setup parameters for call to function IIC_SCL_OUTPUT
   \   000007   12....       LCALL   ??IIC_SCL_OUTPUT?relay
    123              SDA_HIGH();		//ภญธ฿สพฯ฿
   \   00000A   D287         SETB    0x80.7
   \   00000C   D287         SETB    0x80.7
    124              SCL_HIGH();		//ภญธ฿สฑึำฯ฿
   \   00000E   D286         SETB    0x80.6
   \   000010   D286         SETB    0x80.6
    125              SDA_LOW();		//ภญตอสพฯ฿			
   \   000012   C287         CLR     0x80.7
   \   000014   C287         CLR     0x80.7
    126              SCL_LOW();		//ภญตอสฑึำฯ฿
   \   000016   C286         CLR     0x80.6
   \   000018   C286         CLR     0x80.6
    127          }
   \   00001A   D083         POP     DPH
   \   00001C   D082         POP     DPL
   \   00001E   02....       LJMP    ?BRET
   \   000021                REQUIRE _A_P0
    128          
    129          //==========================================================
    130          //	บฏสร๛ณฦฃบ	IIC_Stop
    131          //
    132          //	บฏสนฆฤฃบ	IICอฃึนสฑะ๒ 
    133          //
    134          //	ศ๋ฟฺฒฮสฃบ	ฮ
    135          //
    136          //	ทตปุฒฮสฃบ	ฮ
    137          //
    138          //	หตร๗ฃบ		
    139          //==========================================================

   \                                 In  segment BANKED_CODE, align 1, keep-with-next
    140          void IIC_Stop(void)
   \                     IIC_Stop:
    141          {
   \   000000   C082         PUSH    DPL
   \   000002   C083         PUSH    DPH
   \   000004                ; Saved register size: 2
   \   000004                ; Auto size: 0
    142              IIC_SDA_OUTPUT();
   \   000004                ; Setup parameters for call to function IIC_SDA_OUTPUT
   \   000004   12....       LCALL   ??IIC_SDA_OUTPUT?relay
    143              IIC_SCL_OUTPUT();
   \   000007                ; Setup parameters for call to function IIC_SCL_OUTPUT
   \   000007   12....       LCALL   ??IIC_SCL_OUTPUT?relay
    144              SCL_LOW();
   \   00000A   C286         CLR     0x80.6
   \   00000C   C286         CLR     0x80.6
    145              SDA_LOW();
   \   00000E   C287         CLR     0x80.7
   \   000010   C287         CLR     0x80.7
    146              SCL_HIGH();
   \   000012   D286         SETB    0x80.6
   \   000014   D286         SETB    0x80.6
    147              SDA_HIGH();
   \   000016   D287         SETB    0x80.7
   \   000018   D287         SETB    0x80.7
    148          }
   \   00001A   D083         POP     DPH
   \   00001C   D082         POP     DPL
   \   00001E   02....       LJMP    ?BRET
   \   000021                REQUIRE _A_P0
    149          
    150          //==========================================================
    151          //	บฏสร๛ณฦฃบ	IIC_Wait_Ack
    152          //
    153          //	บฏสนฆฤฃบ	ตศดำฆด๐ะลบลตฝภด
    154          //
    155          //	ศ๋ฟฺฒฮสฃบ	ฮ
    156          //
    157          //	ทตปุฒฮสฃบ	ทตปุึตฃบ1ฃฌฝำสีำฆด๐สงฐ
    158          //        							0ฃฌฝำสีำฆด๐ณษนฆ
    159          //
    160          //	หตร๗ฃบ		
    161          //==========================================================

   \                                 In  segment BANKED_CODE, align 1, keep-with-next
    162          uint8 IIC_Wait_Ack(void)
   \                     IIC_Wait_Ack:
    163          {
   \   000000   74F7         MOV     A,#-0x9
   \   000002   12....       LCALL   ?BANKED_ENTER_XDATA
   \   000005                ; Saved register size: 9
   \   000005                ; Auto size: 0
    164              uint8 Time=0;
   \   000005   7E00         MOV     R6,#0x0
    165              IIC_SCL_OUTPUT();
   \   000007                ; Setup parameters for call to function IIC_SCL_OUTPUT
   \   000007   12....       LCALL   ??IIC_SCL_OUTPUT?relay
    166              IIC_SDA_OUTPUT();
   \   00000A                ; Setup parameters for call to function IIC_SDA_OUTPUT
   \   00000A   12....       LCALL   ??IIC_SDA_OUTPUT?relay
    167              SDA_HIGH();
   \   00000D   D287         SETB    0x80.7
   \   00000F   D287         SETB    0x80.7
    168              SCL_HIGH();
   \   000011   D286         SETB    0x80.6
   \   000013   D286         SETB    0x80.6
    169              IIC_SDA_INPUT();
   \   000015                ; Setup parameters for call to function IIC_SDA_INPUT
   \   000015   12....       LCALL   ??IIC_SDA_INPUT?relay
    170              while(SDA_STATE())
   \                     ??IIC_Wait_Ack_0:
   \   000018   A287         MOV     C,0x80.7
   \   00001A   500E         JNC     ??IIC_Wait_Ack_1
    171              {
    172                Time++;
   \   00001C   0E           INC     R6
    173                if(Time>250)
   \   00001D   EE           MOV     A,R6
   \   00001E   C3           CLR     C
   \   00001F   94FB         SUBB    A,#-0x5
   \   000021   40F5         JC      ??IIC_Wait_Ack_0
    174                {
    175                  IIC_Stop();
   \   000023                ; Setup parameters for call to function IIC_Stop
   \   000023   12....       LCALL   ??IIC_Stop?relay
    176                  return 1;
   \   000026   7901         MOV     R1,#0x1
   \   000028   8006         SJMP    ??IIC_Wait_Ack_2
    177                }
    178              }
    179              SCL_LOW();
   \                     ??IIC_Wait_Ack_1:
   \   00002A   C286         CLR     0x80.6
   \   00002C   C286         CLR     0x80.6
    180              return 0;
   \   00002E   7900         MOV     R1,#0x0
   \                     ??IIC_Wait_Ack_2:
   \   000030   7F01         MOV     R7,#0x1
   \   000032   02....       LJMP    ?BANKED_LEAVE_XDATA
   \   000035                REQUIRE _A_P0
    181          }
    182          
    183          
    184          
    185          //==========================================================
    186          //	บฏสร๛ณฦฃบ	IIC_Ack
    187          //
    188          //	บฏสนฆฤฃบ	IIC ACKำฆด๐
    189          //
    190          //	ศ๋ฟฺฒฮสฃบ	ฮ
    191          //
    192          //	ทตปุฒฮสฃบ	ฮ
    193          //
    194          //	หตร๗ฃบ		
    195          //==========================================================

   \                                 In  segment BANKED_CODE, align 1, keep-with-next
    196          void IIC_Ack(void)
   \                     IIC_Ack:
    197          {
   \   000000   C082         PUSH    DPL
   \   000002   C083         PUSH    DPH
   \   000004                ; Saved register size: 2
   \   000004                ; Auto size: 0
    198              IIC_SCL_OUTPUT();
   \   000004                ; Setup parameters for call to function IIC_SCL_OUTPUT
   \   000004   12....       LCALL   ??IIC_SCL_OUTPUT?relay
    199              SCL_LOW();
   \   000007   C286         CLR     0x80.6
   \   000009   C286         CLR     0x80.6
    200              IIC_SDA_OUTPUT();
   \   00000B                ; Setup parameters for call to function IIC_SDA_OUTPUT
   \   00000B   12....       LCALL   ??IIC_SDA_OUTPUT?relay
    201              SDA_LOW();
   \   00000E   C287         CLR     0x80.7
   \   000010   C287         CLR     0x80.7
    202              SCL_HIGH();
   \   000012   D286         SETB    0x80.6
   \   000014   D286         SETB    0x80.6
    203              SCL_LOW();
   \   000016   C286         CLR     0x80.6
   \   000018   C286         CLR     0x80.6
    204          }
   \   00001A   D083         POP     DPH
   \   00001C   D082         POP     DPL
   \   00001E   02....       LJMP    ?BRET
   \   000021                REQUIRE _A_P0
    205          
    206          //==========================================================
    207          //	บฏสร๛ณฦฃบ	IIC_NAck
    208          //
    209          //	บฏสนฆฤฃบ	IIC ฮACKำฆด๐
    210          //
    211          //	ศ๋ฟฺฒฮสฃบ	ฮ
    212          //
    213          //	ทตปุฒฮสฃบ	ฮ
    214          //
    215          //	หตร๗ฃบ		
    216          //==========================================================

   \                                 In  segment BANKED_CODE, align 1, keep-with-next
    217          void IIC_NAck(void)
   \                     IIC_NAck:
    218          {
   \   000000   C082         PUSH    DPL
   \   000002   C083         PUSH    DPH
   \   000004                ; Saved register size: 2
   \   000004                ; Auto size: 0
    219              IIC_SCL_OUTPUT();
   \   000004                ; Setup parameters for call to function IIC_SCL_OUTPUT
   \   000004   12....       LCALL   ??IIC_SCL_OUTPUT?relay
    220              SCL_LOW();
   \   000007   C286         CLR     0x80.6
   \   000009   C286         CLR     0x80.6
    221              IIC_SDA_OUTPUT();
   \   00000B                ; Setup parameters for call to function IIC_SDA_OUTPUT
   \   00000B   12....       LCALL   ??IIC_SDA_OUTPUT?relay
    222              SDA_HIGH();
   \   00000E   D287         SETB    0x80.7
   \   000010   D287         SETB    0x80.7
    223              SCL_HIGH();
   \   000012   D286         SETB    0x80.6
   \   000014   D286         SETB    0x80.6
    224              SCL_LOW();
   \   000016   C286         CLR     0x80.6
   \   000018   C286         CLR     0x80.6
    225          }
   \   00001A   D083         POP     DPH
   \   00001C   D082         POP     DPL
   \   00001E   02....       LJMP    ?BRET
   \   000021                REQUIRE _A_P0
    226          //==========================================================
    227          //	บฏสร๛ณฦฃบ	IIC_Read_Byte
    228          //
    229          //	บฏสนฆฤฃบ	IIC ถมศกสพ
    230          //
    231          //	ศ๋ฟฺฒฮสฃบ	ack:สวท๑ทขหอACK
    232          //
    233          //	ทตปุฒฮสฃบ	ฮ
    234          //
    235          //	หตร๗ฃบ		
    236          //==========================================================

   \                                 In  segment BANKED_CODE, align 1, keep-with-next
    237          uint8 IIC_Read_Byte(uint8 ack)
   \                     IIC_Read_Byte:
    238          {
   \   000000   74F7         MOV     A,#-0x9
   \   000002   12....       LCALL   ?BANKED_ENTER_XDATA
   \   000005                ; Saved register size: 9
   \   000005                ; Auto size: 0
   \   000005   E9           MOV     A,R1
   \   000006   FF           MOV     R7,A
    239              uint8 i,receive=0;
   \   000007   7E00         MOV     R6,#0x0
    240              IIC_SDA_INPUT();
   \   000009                ; Setup parameters for call to function IIC_SDA_INPUT
   \   000009   12....       LCALL   ??IIC_SDA_INPUT?relay
    241              IIC_SCL_OUTPUT();
   \   00000C                ; Setup parameters for call to function IIC_SCL_OUTPUT
   \   00000C   12....       LCALL   ??IIC_SCL_OUTPUT?relay
    242              for(i=0;i<8;i++)
   \   00000F   7800         MOV     R0,#0x0
   \   000011   8012         SJMP    ??IIC_Read_Byte_0
    243              {
    244                  SCL_LOW();
   \                     ??IIC_Read_Byte_1:
   \   000013   C286         CLR     0x80.6
   \   000015   C286         CLR     0x80.6
    245                  SCL_HIGH();
   \   000017   D286         SETB    0x80.6
   \   000019   D286         SETB    0x80.6
    246                  receive<<=1;
   \   00001B   EE           MOV     A,R6
   \   00001C   C3           CLR     C
   \   00001D   33           RLC     A
   \   00001E   FE           MOV     R6,A
    247                  if(SDA_STATE())receive++;
   \   00001F   A287         MOV     C,0x80.7
   \   000021   5001         JNC     ??IIC_Read_Byte_2
   \   000023   0E           INC     R6
    248              }
   \                     ??IIC_Read_Byte_2:
   \   000024   08           INC     R0
   \                     ??IIC_Read_Byte_0:
   \   000025   E8           MOV     A,R0
   \   000026   C3           CLR     C
   \   000027   9408         SUBB    A,#0x8
   \   000029   40E8         JC      ??IIC_Read_Byte_1
    249              if(!ack) IIC_NAck();
   \   00002B   EF           MOV     A,R7
   \   00002C   7005         JNZ     ??IIC_Read_Byte_3
   \   00002E                ; Setup parameters for call to function IIC_NAck
   \   00002E   12....       LCALL   ??IIC_NAck?relay
   \   000031   8003         SJMP    ??IIC_Read_Byte_4
    250              else IIC_Ack();
   \                     ??IIC_Read_Byte_3:
   \   000033                ; Setup parameters for call to function IIC_Ack
   \   000033   12....       LCALL   ??IIC_Ack?relay
    251              return receive;
   \                     ??IIC_Read_Byte_4:
   \   000036   EE           MOV     A,R6
   \   000037   F9           MOV     R1,A
   \   000038   7F01         MOV     R7,#0x1
   \   00003A   02....       LJMP    ?BANKED_LEAVE_XDATA
   \   00003D                REQUIRE _A_P0
    252          }
    253          
    254          
    255          //==========================================================
    256          //	บฏสร๛ณฦฃบ	Write_IIC_Byte
    257          //
    258          //	บฏสนฆฤฃบ	IIC ะดศ๋สพ
    259          //
    260          //	ศ๋ฟฺฒฮสฃบ	ฮ
    261          //
    262          //	ทตปุฒฮสฃบ	ฮ
    263          //
    264          //	หตร๗ฃบ		
    265          //==========================================================

   \                                 In  segment BANKED_CODE, align 1, keep-with-next
    266          uint8 Write_IIC_Byte(uint8 byte)
   \                     Write_IIC_Byte:
    267          {
   \   000000   74F7         MOV     A,#-0x9
   \   000002   12....       LCALL   ?BANKED_ENTER_XDATA
   \   000005                ; Saved register size: 9
   \   000005                ; Auto size: 0
   \   000005   E9           MOV     A,R1
   \   000006   FF           MOV     R7,A
    268              uint8 i, ack;
    269          
    270              IIC_SCL_OUTPUT();
   \   000007                ; Setup parameters for call to function IIC_SCL_OUTPUT
   \   000007   12....       LCALL   ??IIC_SCL_OUTPUT?relay
    271              IIC_SDA_OUTPUT();		//ษ่ึรฮชสไณ๖ฤฃสฝ
   \   00000A                ; Setup parameters for call to function IIC_SDA_OUTPUT
   \   00000A   12....       LCALL   ??IIC_SDA_OUTPUT?relay
    272              
    273              for(i = 0; i < 8; i++)
   \   00000D   7800         MOV     R0,#0x0
   \   00000F   8010         SJMP    ??Write_IIC_Byte_0
    274              {
    275                  if(byte & 0x80)         //าปดฮถมศกื๎ธ฿ฮป ทขหอสพ
    276                  {
    277                      SDA_HIGH();
    278                  }
    279                  else 
    280                  {
    281                      SDA_LOW();
   \                     ??Write_IIC_Byte_1:
   \   000011   C287         CLR     0x80.7
   \   000013   C287         CLR     0x80.7
    282                  }
    283                  
    284                  SCL_HIGH();  		//สฑึำฯ฿ภญธ฿
   \                     ??Write_IIC_Byte_2:
   \   000015   D286         SETB    0x80.6
   \   000017   D286         SETB    0x80.6
    285                  SCL_LOW();   		//สฑึำฯ฿ภญตอ
   \   000019   C286         CLR     0x80.6
   \   00001B   C286         CLR     0x80.6
    286                  
    287                  byte <<= 1;
   \   00001D   C3           CLR     C
   \   00001E   33           RLC     A
   \   00001F   FF           MOV     R7,A
   \   000020   08           INC     R0
   \                     ??Write_IIC_Byte_0:
   \   000021   E8           MOV     A,R0
   \   000022   C3           CLR     C
   \   000023   9408         SUBB    A,#0x8
   \   000025   500B         JNC     ??Write_IIC_Byte_3
   \   000027   EF           MOV     A,R7
   \   000028   A2E7         MOV     C,0xE0 /* A   */.7
   \   00002A   50E5         JNC     ??Write_IIC_Byte_1
   \   00002C   D287         SETB    0x80.7
   \   00002E   D287         SETB    0x80.7
   \   000030   80E3         SJMP    ??Write_IIC_Byte_2
    288              }
    289          
    290              IIC_SDA_INPUT();  	        //สพฯ฿สไศ๋ฤฃสฝ
   \                     ??Write_IIC_Byte_3:
   \   000032                ; Setup parameters for call to function IIC_SDA_INPUT
   \   000032   12....       LCALL   ??IIC_SDA_INPUT?relay
    291              
    292              SCL_HIGH();			//สฑึำฯ฿ภญธ฿
   \   000035   D286         SETB    0x80.6
   \   000037   D286         SETB    0x80.6
    293              
    294              if(Bit_SET == SDA_STATE())  //ศ็น๛ฝำสตฝสพฯ฿ธ฿ะลบล  ACKดํฮ๓
    295              {
    296                  ack = ACK_ERROR;
    297              }
    298              else
    299              {
    300                  ack = ACK_OK;
   \   000039   A287         MOV     C,0x80.7
   \   00003B   E4           CLR     A
   \   00003C   33           RLC     A
   \   00003D   FE           MOV     R6,A
    301              }
    302              
    303              SCL_LOW();          //ภญตอสฑึำฯ฿
   \   00003E   C286         CLR     0x80.6
   \   000040   C286         CLR     0x80.6
    304          
    305              IIC_SDA_OUTPUT();	
   \   000042                ; Setup parameters for call to function IIC_SDA_OUTPUT
   \   000042   12....       LCALL   ??IIC_SDA_OUTPUT?relay
    306          
    307              SDA_HIGH();		//ภญธ฿สพฯ฿
   \   000045   D287         SETB    0x80.7
   \   000047   D287         SETB    0x80.7
    308              
    309              return (ack);
   \   000049   EE           MOV     A,R6
   \   00004A   F9           MOV     R1,A
   \   00004B   7F01         MOV     R7,#0x1
   \   00004D   02....       LJMP    ?BANKED_LEAVE_XDATA
   \   000050                REQUIRE _A_P0
    310          }
    311          
    312          
    313          
    314          //==========================================================
    315          //	บฏสร๛ณฦฃบ	IIC_Send_Byte
    316          //
    317          //	บฏสนฆฤฃบ	IIC ะดศ๋สพ
    318          //
    319          //	ศ๋ฟฺฒฮสฃบ	txd:ะดศ๋สพ
    320          //
    321          //	ทตปุฒฮสฃบ	ฮ
    322          //
    323          //	หตร๗ฃบ		
    324          //==========================================================

   \                                 In  segment BANKED_CODE, align 1, keep-with-next
    325          void IIC_Send_Byte(uint8 txd)
   \                     IIC_Send_Byte:
    326          {
   \   000000   74F7         MOV     A,#-0x9
   \   000002   12....       LCALL   ?BANKED_ENTER_XDATA
   \   000005                ; Saved register size: 9
   \   000005                ; Auto size: 0
   \   000005   E9           MOV     A,R1
   \   000006   FE           MOV     R6,A
    327              uint8 t;
    328              IIC_SCL_OUTPUT();
   \   000007                ; Setup parameters for call to function IIC_SCL_OUTPUT
   \   000007   12....       LCALL   ??IIC_SCL_OUTPUT?relay
    329              IIC_SDA_OUTPUT();
   \   00000A                ; Setup parameters for call to function IIC_SDA_OUTPUT
   \   00000A   12....       LCALL   ??IIC_SDA_OUTPUT?relay
    330              SCL_LOW();
   \   00000D   C286         CLR     0x80.6
   \   00000F   C286         CLR     0x80.6
    331              for(t=0;t<8;t++)
   \   000011   7800         MOV     R0,#0x0
   \   000013   8010         SJMP    ??IIC_Send_Byte_0
    332              {
    333                  if(txd & 0x80)
    334                  {
    335                      SDA_HIGH();
    336                  }
    337                  else 
    338                  {
    339                      SDA_LOW();
   \                     ??IIC_Send_Byte_1:
   \   000015   C287         CLR     0x80.7
   \   000017   C287         CLR     0x80.7
    340                  }
    341                  
    342                  SCL_HIGH();
   \                     ??IIC_Send_Byte_2:
   \   000019   D286         SETB    0x80.6
   \   00001B   D286         SETB    0x80.6
    343                  SCL_LOW();
   \   00001D   C286         CLR     0x80.6
   \   00001F   C286         CLR     0x80.6
    344                  txd<<=1;
   \   000021   C3           CLR     C
   \   000022   33           RLC     A
   \   000023   FE           MOV     R6,A
   \   000024   08           INC     R0
   \                     ??IIC_Send_Byte_0:
   \   000025   E8           MOV     A,R0
   \   000026   C3           CLR     C
   \   000027   9408         SUBB    A,#0x8
   \   000029   500B         JNC     ??IIC_Send_Byte_3
   \   00002B   EE           MOV     A,R6
   \   00002C   A2E7         MOV     C,0xE0 /* A   */.7
   \   00002E   50E5         JNC     ??IIC_Send_Byte_1
   \   000030   D287         SETB    0x80.7
   \   000032   D287         SETB    0x80.7
   \   000034   80E3         SJMP    ??IIC_Send_Byte_2
    345              }
    346          }
   \                     ??IIC_Send_Byte_3:
   \   000036   7F01         MOV     R7,#0x1
   \   000038   02....       LJMP    ?BANKED_LEAVE_XDATA
   \   00003B                REQUIRE _A_P0

   \                                 In  segment BANK_RELAYS, align 1
   \                     ??IIC_Delay?relay:
   \   000000   12....       LCALL   ?BDISPATCH
   \   000003   ......       DC24    IIC_Delay

   \                                 In  segment BANK_RELAYS, align 1
   \                     ??IIC_Init?relay:
   \   000000   12....       LCALL   ?BDISPATCH
   \   000003   ......       DC24    IIC_Init

   \                                 In  segment BANK_RELAYS, align 1
   \                     ??IIC_SCL_OUTPUT?relay:
   \   000000   12....       LCALL   ?BDISPATCH
   \   000003   ......       DC24    IIC_SCL_OUTPUT

   \                                 In  segment BANK_RELAYS, align 1
   \                     ??IIC_SCL_INPUT?relay:
   \   000000   12....       LCALL   ?BDISPATCH
   \   000003   ......       DC24    IIC_SCL_INPUT

   \                                 In  segment BANK_RELAYS, align 1
   \                     ??IIC_SDA_OUTPUT?relay:
   \   000000   12....       LCALL   ?BDISPATCH
   \   000003   ......       DC24    IIC_SDA_OUTPUT

   \                                 In  segment BANK_RELAYS, align 1
   \                     ??IIC_SDA_INPUT?relay:
   \   000000   12....       LCALL   ?BDISPATCH
   \   000003   ......       DC24    IIC_SDA_INPUT

   \                                 In  segment BANK_RELAYS, align 1
   \                     ??IIC_Start?relay:
   \   000000   12....       LCALL   ?BDISPATCH
   \   000003   ......       DC24    IIC_Start

   \                                 In  segment BANK_RELAYS, align 1
   \                     ??IIC_Stop?relay:
   \   000000   12....       LCALL   ?BDISPATCH
   \   000003   ......       DC24    IIC_Stop

   \                                 In  segment BANK_RELAYS, align 1
   \                     ??IIC_Wait_Ack?relay:
   \   000000   12....       LCALL   ?BDISPATCH
   \   000003   ......       DC24    IIC_Wait_Ack

   \                                 In  segment BANK_RELAYS, align 1
   \                     ??IIC_Ack?relay:
   \   000000   12....       LCALL   ?BDISPATCH
   \   000003   ......       DC24    IIC_Ack

   \                                 In  segment BANK_RELAYS, align 1
   \                     ??IIC_NAck?relay:
   \   000000   12....       LCALL   ?BDISPATCH
   \   000003   ......       DC24    IIC_NAck

   \                                 In  segment BANK_RELAYS, align 1
   \                     ??IIC_Read_Byte?relay:
   \   000000   12....       LCALL   ?BDISPATCH
   \   000003   ......       DC24    IIC_Read_Byte

   \                                 In  segment BANK_RELAYS, align 1
   \                     ??Write_IIC_Byte?relay:
   \   000000   12....       LCALL   ?BDISPATCH
   \   000003   ......       DC24    Write_IIC_Byte

   \                                 In  segment BANK_RELAYS, align 1
   \                     ??IIC_Send_Byte?relay:
   \   000000   12....       LCALL   ?BDISPATCH
   \   000003   ......       DC24    IIC_Send_Byte
    347          
    348          

   Maximum stack usage in bytes:

     Function            ISTACK PSTACK XSTACK
     --------            ------ ------ ------
     IIC_Ack                 2      0      9
       -> IIC_SCL_OUTPUT     4      0      0
       -> IIC_SDA_OUTPUT     4      0      0
     IIC_Delay               0      0      0
     IIC_Init                0      0      0
     IIC_NAck                2      0      9
       -> IIC_SCL_OUTPUT     4      0      0
       -> IIC_SDA_OUTPUT     4      0      0
     IIC_Read_Byte           0      0      9
       -> IIC_SDA_INPUT      0      0     18
       -> IIC_SCL_OUTPUT     0      0     18
       -> IIC_NAck           0      0     18
       -> IIC_Ack            0      0     18
     IIC_SCL_INPUT           0      0      0
     IIC_SCL_OUTPUT          0      0      9
     IIC_SDA_INPUT           0      0      9
     IIC_SDA_OUTPUT          0      0      9
     IIC_Send_Byte           0      0      9
       -> IIC_SCL_OUTPUT     0      0     18
       -> IIC_SDA_OUTPUT     0      0     18
     IIC_Start               2      0      0
       -> IIC_SDA_OUTPUT     4      0      0
       -> IIC_SCL_OUTPUT     4      0      0
     IIC_Stop                2      0      9
       -> IIC_SDA_OUTPUT     4      0      0
       -> IIC_SCL_OUTPUT     4      0      0
     IIC_Wait_Ack            0      0      9
       -> IIC_SCL_OUTPUT     0      0     18
       -> IIC_SDA_OUTPUT     0      0     18
       -> IIC_SDA_INPUT      0      0     18
       -> IIC_Stop           0      0     18
     Write_IIC_Byte          0      0      9
       -> IIC_SCL_OUTPUT     0      0     18
       -> IIC_SDA_OUTPUT     0      0     18
       -> IIC_SDA_INPUT      0      0     18
       -> IIC_SDA_OUTPUT     0      0     18


   Segment part sizes:

     Function/Label         Bytes
     --------------         -----
     _A_P0                     1
     P0INP                     1
     P0SEL                     1
     P0DIR                     1
     IIC_Delay                 3
     IIC_Init                  9
     IIC_SCL_OUTPUT            9
     IIC_SCL_INPUT            12
     IIC_SDA_OUTPUT            9
     IIC_SDA_INPUT            12
     IIC_Start                33
     IIC_Stop                 33
     IIC_Wait_Ack             53
     IIC_Ack                  33
     IIC_NAck                 33
     IIC_Read_Byte            61
     Write_IIC_Byte           80
     IIC_Send_Byte            59
     ??IIC_Delay?relay         6
     ??IIC_Init?relay          6
     ??IIC_SCL_OUTPUT?relay    6
     ??IIC_SCL_INPUT?relay     6
     ??IIC_SDA_OUTPUT?relay    6
     ??IIC_SDA_INPUT?relay     6
     ??IIC_Start?relay         6
     ??IIC_Stop?relay          6
     ??IIC_Wait_Ack?relay      6
     ??IIC_Ack?relay           6
     ??IIC_NAck?relay          6
     ??IIC_Read_Byte?relay     6
     ??Write_IIC_Byte?relay    6
     ??IIC_Send_Byte?relay     6

 
 439 bytes in segment BANKED_CODE
  84 bytes in segment BANK_RELAYS
   4 bytes in segment SFR_AN
 
 523 bytes of CODE memory
   0 bytes of DATA memory (+ 4 bytes shared)

Errors: none
Warnings: none
