///////////////////////////////////////////////////////////////////////////////
//                                                                            /
// IAR C/C++ Compiler V8.10.3.10338/W32 for 8051        01/Jan/2020  11:41:38 /
// Copyright 2004-2011 IAR Systems AB.                                        /
//                                                                            /
//    Core               =  plain                                             /
//    Code model         =  banked                                            /
//    Data model         =  large                                             /
//    Calling convention =  xdata reentrant                                   /
//    Constant location  =  data_rom                                          /
//    Dptr setup         =  1,16                                              /
//    Source file        =  D:\DWRH\mode-exp\stm32\ZHONG_HE\IPV4_ZB_2.4G_LORA /
//                          \ZigBee\Components\HARDWARE\UART2RS485.c          /
//    Command line       =  -f D:\DWRH\mode-exp\stm32\ZHONG_HE\IPV4_ZB_2.4G_L /
//                          ORA\ZigBee\Projects\zstack\Samples\SampleApp\CC25 /
//                          30DB\..\..\..\Tools\CC2530DB\f8wCoord.cfg         /
//                          (-DCPU32MHZ -DROOT=__near_func                    /
//                          -DMAC_CFG_APP_PENDING_QUEUE=TRUE                  /
//                          -DZDO_COORDINATOR -DRTR_NWK -DBLINK_LEDS) -f      /
//                          D:\DWRH\mode-exp\stm32\ZHONG_HE\IPV4_ZB_2.4G_LORA /
//                          \ZigBee\Projects\zstack\Samples\SampleApp\CC2530D /
//                          B\..\..\..\Tools\CC2530DB\f8wConfig.cfg           /
//                          (-DSECURE=0 -DZG_SECURE_DYNAMIC=0 -DREFLECTOR     /
//                          -DDEFAULT_CHANLIST=0x00000800                     /
//                          -DZDAPP_CONFIG_PAN_ID=0xFF11                      /
//                          -DNWK_START_DELAY=100 -DEXTENDED_JOINING_RANDOM_M /
//                          ASK=0x007F -DBEACON_REQUEST_DELAY=100             /
//                          -DBEACON_REQ_DELAY_MASK=0x00FF                    /
//                          -DROUTE_EXPIRY_TIME=30 -DAPSC_ACK_WAIT_DURATION_P /
//                          OLLED=3000 -DNWK_INDIRECT_MSG_TIMEOUT=7           /
//                          -DMAX_RREQ_ENTRIES=8 -DAPSC_MAX_FRAME_RETRIES=3   /
//                          -DNWK_MAX_DATA_RETRIES=2                          /
//                          -DMAX_POLL_FAILURE_RETRIES=2 -DMAX_BCAST=9        /
//                          -DAPS_MAX_GROUPS=16 -DMAX_RTG_ENTRIES=40          /
//                          -DNWK_MAX_BINDING_ENTRIES=4                       /
//                          -DMAX_BINDING_CLUSTER_IDS=4                       /
//                          "-DDEFAULT_KEY={0x01, 0x03, 0x05, 0x07, 0x09,     /
//                          0x0B, 0x0D, 0x0F, 0x00, 0x02, 0x04, 0x06, 0x08,   /
//                          0x0A, 0x0C, 0x0D}" -DMAC_MAX_FRAME_SIZE=116       /
//                          "-DCONST=const __code" -DGENERIC=__generic        /
//                          -DRFD_RCVC_ALWAYS_ON=FALSE -DPOLL_RATE=1000       /
//                          -DQUEUED_POLL_RATE=100 -DRESPONSE_POLL_RATE=100)  /
//                          -DREJOIN_POLL_RATE=440 D:\DWRH\mode-exp\stm32\ZHO /
//                          NG_HE\IPV4_ZB_2.4G_LORA\ZigBee\Components\HARDWAR /
//                          E\UART2RS485.c -D ZIGBEEPRO -D ZTOOL_P1 -D        /
//                          MT_SYS_FUNC -D xMT_ZDO_FUNC -D                    /
//                          LCD_SUPPORTED=DEBUG -D NV_RESTORE -lC             /
//                          D:\DWRH\mode-exp\stm32\ZHONG_HE\IPV4_ZB_2.4G_LORA /
//                          \ZigBee\Projects\zstack\Samples\SampleApp\CC2530D /
//                          B\CoordinatorEB\List\ -lA                         /
//                          D:\DWRH\mode-exp\stm32\ZHONG_HE\IPV4_ZB_2.4G_LORA /
//                          \ZigBee\Projects\zstack\Samples\SampleApp\CC2530D /
//                          B\CoordinatorEB\List\ --diag_suppress             /
//                          Pe001,Pa010 -o D:\DWRH\mode-exp\stm32\ZHONG_HE\IP /
//                          V4_ZB_2.4G_LORA\ZigBee\Projects\zstack\Samples\Sa /
//                          mpleApp\CC2530DB\CoordinatorEB\Obj\ -e --debug    /
//                          --core=plain --dptr=16,1 --data_model=large       /
//                          --code_model=banked --calling_convention=xdata_re /
//                          entrant --place_constants=data_rom                /
//                          --nr_virtual_regs 16 -I                           /
//                          D:\DWRH\mode-exp\stm32\ZHONG_HE\IPV4_ZB_2.4G_LORA /
//                          \ZigBee\Projects\zstack\Samples\SampleApp\CC2530D /
//                          B\ -I D:\DWRH\mode-exp\stm32\ZHONG_HE\IPV4_ZB_2.4 /
//                          G_LORA\ZigBee\Projects\zstack\Samples\SampleApp\C /
//                          C2530DB\..\SOURCE\ -I D:\DWRH\mode-exp\stm32\ZHON /
//                          G_HE\IPV4_ZB_2.4G_LORA\ZigBee\Projects\zstack\Sam /
//                          ples\SampleApp\CC2530DB\..\..\..\ZMAIN\TI2530DB\  /
//                          -I D:\DWRH\mode-exp\stm32\ZHONG_HE\IPV4_ZB_2.4G_L /
//                          ORA\ZigBee\Projects\zstack\Samples\SampleApp\CC25 /
//                          30DB\..\..\..\..\..\COMPONENTS\MT\ -I             /
//                          D:\DWRH\mode-exp\stm32\ZHONG_HE\IPV4_ZB_2.4G_LORA /
//                          \ZigBee\Projects\zstack\Samples\SampleApp\CC2530D /
//                          B\..\..\..\..\..\COMPONENTS\HAL\INCLUDE\ -I       /
//                          D:\DWRH\mode-exp\stm32\ZHONG_HE\IPV4_ZB_2.4G_LORA /
//                          \ZigBee\Projects\zstack\Samples\SampleApp\CC2530D /
//                          B\..\..\..\..\..\COMPONENTS\HAL\TARGET\CC2530EB\  /
//                          -I D:\DWRH\mode-exp\stm32\ZHONG_HE\IPV4_ZB_2.4G_L /
//                          ORA\ZigBee\Projects\zstack\Samples\SampleApp\CC25 /
//                          30DB\..\..\..\..\..\COMPONENTS\OSAL\MCU\CCSOC\    /
//                          -I D:\DWRH\mode-exp\stm32\ZHONG_HE\IPV4_ZB_2.4G_L /
//                          ORA\ZigBee\Projects\zstack\Samples\SampleApp\CC25 /
//                          30DB\..\..\..\..\..\COMPONENTS\OSAL\INCLUDE\ -I   /
//                          D:\DWRH\mode-exp\stm32\ZHONG_HE\IPV4_ZB_2.4G_LORA /
//                          \ZigBee\Projects\zstack\Samples\SampleApp\CC2530D /
//                          B\..\..\..\..\..\COMPONENTS\STACK\AF\ -I          /
//                          D:\DWRH\mode-exp\stm32\ZHONG_HE\IPV4_ZB_2.4G_LORA /
//                          \ZigBee\Projects\zstack\Samples\SampleApp\CC2530D /
//                          B\..\..\..\..\..\COMPONENTS\STACK\NWK\ -I         /
//                          D:\DWRH\mode-exp\stm32\ZHONG_HE\IPV4_ZB_2.4G_LORA /
//                          \ZigBee\Projects\zstack\Samples\SampleApp\CC2530D /
//                          B\..\..\..\..\..\COMPONENTS\STACK\SEC\ -I         /
//                          D:\DWRH\mode-exp\stm32\ZHONG_HE\IPV4_ZB_2.4G_LORA /
//                          \ZigBee\Projects\zstack\Samples\SampleApp\CC2530D /
//                          B\..\..\..\..\..\COMPONENTS\STACK\SAPI\ -I        /
//                          D:\DWRH\mode-exp\stm32\ZHONG_HE\IPV4_ZB_2.4G_LORA /
//                          \ZigBee\Projects\zstack\Samples\SampleApp\CC2530D /
//                          B\..\..\..\..\..\COMPONENTS\STACK\SYS\ -I         /
//                          D:\DWRH\mode-exp\stm32\ZHONG_HE\IPV4_ZB_2.4G_LORA /
//                          \ZigBee\Projects\zstack\Samples\SampleApp\CC2530D /
//                          B\..\..\..\..\..\COMPONENTS\STACK\ZDO\ -I         /
//                          D:\DWRH\mode-exp\stm32\ZHONG_HE\IPV4_ZB_2.4G_LORA /
//                          \ZigBee\Projects\zstack\Samples\SampleApp\CC2530D /
//                          B\..\..\..\..\..\COMPONENTS\ZMAC\F8W\ -I          /
//                          D:\DWRH\mode-exp\stm32\ZHONG_HE\IPV4_ZB_2.4G_LORA /
//                          \ZigBee\Projects\zstack\Samples\SampleApp\CC2530D /
//                          B\..\..\..\..\..\COMPONENTS\ZMAC\ -I              /
//                          D:\DWRH\mode-exp\stm32\ZHONG_HE\IPV4_ZB_2.4G_LORA /
//                          \ZigBee\Projects\zstack\Samples\SampleApp\CC2530D /
//                          B\..\..\..\..\..\COMPONENTS\SERVICES\SADDR\ -I    /
//                          D:\DWRH\mode-exp\stm32\ZHONG_HE\IPV4_ZB_2.4G_LORA /
//                          \ZigBee\Projects\zstack\Samples\SampleApp\CC2530D /
//                          B\..\..\..\..\..\COMPONENTS\SERVICES\SDATA\ -I    /
//                          D:\DWRH\mode-exp\stm32\ZHONG_HE\IPV4_ZB_2.4G_LORA /
//                          \ZigBee\Projects\zstack\Samples\SampleApp\CC2530D /
//                          B\..\..\..\..\..\COMPONENTS\MAC\INCLUDE\ -I       /
//                          D:\DWRH\mode-exp\stm32\ZHONG_HE\IPV4_ZB_2.4G_LORA /
//                          \ZigBee\Projects\zstack\Samples\SampleApp\CC2530D /
//                          B\..\..\..\..\..\COMPONENTS\MAC\HIGH_LEVEL\ -I    /
//                          D:\DWRH\mode-exp\stm32\ZHONG_HE\IPV4_ZB_2.4G_LORA /
//                          \ZigBee\Projects\zstack\Samples\SampleApp\CC2530D /
//                          B\..\..\..\..\..\COMPONENTS\MAC\LOW_LEVEL\srf04\  /
//                          -I D:\DWRH\mode-exp\stm32\ZHONG_HE\IPV4_ZB_2.4G_L /
//                          ORA\ZigBee\Projects\zstack\Samples\SampleApp\CC25 /
//                          30DB\..\..\..\..\..\COMPONENTS\MAC\LOW_LEVEL\srf0 /
//                          4\SINGLE_CHIP\ -I D:\DWRH\mode-exp\stm32\ZHONG_HE /
//                          \IPV4_ZB_2.4G_LORA\ZigBee\Projects\zstack\Samples /
//                          \SampleApp\CC2530DB\..\..\..\..\..\COMPONENTS\HAR /
//                          DWARE\ -Ohz                                       /
//    List file          =  D:\DWRH\mode-exp\stm32\ZHONG_HE\IPV4_ZB_2.4G_LORA /
//                          \ZigBee\Projects\zstack\Samples\SampleApp\CC2530D /
//                          B\CoordinatorEB\List\UART2RS485.s51               /
//                                                                            /
//                                                                            /
///////////////////////////////////////////////////////////////////////////////

        NAME UART2RS485

        RTMODEL "__SystemLibrary", "CLib"
        RTMODEL "__calling_convention", "xdata_reentrant"
        RTMODEL "__code_model", "banked"
        RTMODEL "__core", "plain"
        RTMODEL "__data_model", "large"
        RTMODEL "__dptr_size", "16"
        RTMODEL "__extended_stack", "disabled"
        RTMODEL "__location_for_constants", "data"
        RTMODEL "__number_of_dptrs", "1"
        RTMODEL "__rt_version", "1"

        RSEG DOVERLAY:DATA:NOROOT(0)
        RSEG IOVERLAY:IDATA:NOROOT(0)
        RSEG ISTACK:IDATA:NOROOT(0)
        RSEG PSTACK:XDATA:NOROOT(0)
        RSEG XSTACK:XDATA:NOROOT(0)

        EXTERN ?BANKED_ENTER_XDATA
        EXTERN ?BANKED_LEAVE_XDATA
        EXTERN ?BDISPATCH
        EXTERN ?BRET
        EXTERN ?DEALLOC_XSTACK8
        EXTERN ?PUSH_XSTACK_I_TWO
        EXTERN ?V0
        EXTERN ?XLOAD_R2345
        EXTERN ?XSTACK_DISP0_8
        EXTERN ?XSTORE_R2345
        EXTERN __INIT_XDATA_Z

        PUBLIC ??CRC_16?relay
        FUNCTION ??CRC_16?relay,0203H
        PUBLIC ??DataHandling_485?relay
        FUNCTION ??DataHandling_485?relay,0203H
        PUBLIC ??RS485Bus_Send?relay
        FUNCTION ??RS485Bus_Send?relay,0203H
        PUBLIC ??Rs485_ClearReceiveBuffer?relay
        FUNCTION ??Rs485_ClearReceiveBuffer?relay,0203H
        PUBLIC ??Rs485_Init?relay
        FUNCTION ??Rs485_Init?relay,0203H
        PUBLIC ??Rs485_Receive?relay
        FUNCTION ??Rs485_Receive?relay,0203H
        PUBLIC ??Rs485_Send?relay
        FUNCTION ??Rs485_Send?relay,0203H
        PUBLIC ??Rs485_delay_ms?relay
        FUNCTION ??Rs485_delay_ms?relay,0203H
        PUBLIC ??Rx_Stack_Init?relay
        FUNCTION ??Rx_Stack_Init?relay,0203H
        PUBLIC ??Tx_Stack_Init?relay
        FUNCTION ??Tx_Stack_Init?relay,0203H
        PUBLIC ??UART2RS485_Init?relay
        FUNCTION ??UART2RS485_Init?relay,0203H
        PUBLIC ??calcByte?relay
        FUNCTION ??calcByte?relay,0203H
        FUNCTION ??delay_us?relay,0203H
        PUBLIC CRC_16
        FUNCTION CRC_16,021203H
        ARGFRAME XSTACK, 12, STACK
        ARGFRAME IOVERLAY, 0, STATIC
        ARGFRAME DOVERLAY, 0, STATIC
        LOCFRAME XSTACK, 14, STACK
        PUBLIC DataHandling_485
        FUNCTION DataHandling_485,021203H
        ARGFRAME XSTACK, 0, STACK
        LOCFRAME ISTACK, 3, STACK
        PUBWEAK P1DIR
        PUBWEAK P1SEL
        PUBLIC RS485Bus_Send
        FUNCTION RS485Bus_Send,0203H
        ARGFRAME XSTACK, 0, STACK
        PUBLIC RS485_RX_STA
        PUBLIC Receive_Data
        PUBLIC Rs485_ClearReceiveBuffer
        FUNCTION Rs485_ClearReceiveBuffer,021203H
        ARGFRAME XSTACK, 12, STACK
        ARGFRAME IOVERLAY, 0, STATIC
        ARGFRAME DOVERLAY, 0, STATIC
        LOCFRAME XSTACK, 12, STACK
        PUBLIC Rs485_Init
        FUNCTION Rs485_Init,021203H
        ARGFRAME XSTACK, 0, STACK
        ARGFRAME IOVERLAY, 0, STATIC
        ARGFRAME DOVERLAY, 0, STATIC
        LOCFRAME ISTACK, 2, STACK
        PUBLIC Rs485_Receive
        FUNCTION Rs485_Receive,0203H
        ARGFRAME XSTACK, 0, STACK
        LOCFRAME ISTACK, 3, STACK
        PUBLIC Rs485_Send
        FUNCTION Rs485_Send,021203H
        ARGFRAME XSTACK, 4, STACK
        LOCFRAME ISTACK, 1, STACK
        LOCFRAME XSTACK, 12, STACK
        PUBLIC Rs485_delay_ms
        FUNCTION Rs485_delay_ms,0203H
        ARGFRAME XSTACK, 0, STACK
        PUBLIC Rx_Stack
        PUBLIC Rx_Stack_Init
        FUNCTION Rx_Stack_Init,021203H
        ARGFRAME XSTACK, 0, STACK
        ARGFRAME IOVERLAY, 0, STATIC
        ARGFRAME DOVERLAY, 0, STATIC
        LOCFRAME XSTACK, 12, STACK
        PUBLIC Send_Data
        PUBLIC Tx_Stack
        PUBLIC Tx_Stack_Init
        FUNCTION Tx_Stack_Init,021203H
        ARGFRAME XSTACK, 0, STACK
        ARGFRAME IOVERLAY, 0, STATIC
        ARGFRAME DOVERLAY, 0, STATIC
        LOCFRAME XSTACK, 12, STACK
        PUBWEAK U1DBUF
        PUBLIC UART2RS485_Init
        FUNCTION UART2RS485_Init,021203H
        ARGFRAME XSTACK, 0, STACK
        LOCFRAME ISTACK, 2, STACK
        PUBWEAK _A_IRCON2
        PUBWEAK _A_P1
        PUBWEAK __Constant_e1e2e3e4
        PUBWEAK __Constant_eaebeced
        PUBLIC calcByte
        FUNCTION calcByte,0203H
        ARGFRAME XSTACK, 14, STACK
        ARGFRAME IOVERLAY, 0, STATIC
        ARGFRAME DOVERLAY, 0, STATIC
        FUNCTION delay_us,0203H
        ARGFRAME XSTACK, 12, STACK
        ARGFRAME IOVERLAY, 0, STATIC
        ARGFRAME DOVERLAY, 0, STATIC
        
        CFI Names cfiNames0
        CFI StackFrame CFA_SP SP IDATA
        CFI StackFrame CFA_PSP16 PSP16 XDATA
        CFI StackFrame CFA_XSP16 XSP16 XDATA
        CFI StaticOverlayFrame CFA_IOVERLAY IOVERLAY
        CFI StaticOverlayFrame CFA_DOVERLAY DOVERLAY
        CFI Resource `PSW.CY`:1, `B.BR0`:1, `B.BR1`:1, `B.BR2`:1, `B.BR3`:1
        CFI Resource `B.BR4`:1, `B.BR5`:1, `B.BR6`:1, `B.BR7`:1, `VB.BR8`:1
        CFI Resource `VB.BR9`:1, `VB.BR10`:1, `VB.BR11`:1, `VB.BR12`:1
        CFI Resource `VB.BR13`:1, `VB.BR14`:1, `VB.BR15`:1, VB:8, B:8, A:8
        CFI Resource PSW:8, DPL0:8, DPH0:8, R0:8, R1:8, R2:8, R3:8, R4:8, R5:8
        CFI Resource R6:8, R7:8, V0:8, V1:8, V2:8, V3:8, V4:8, V5:8, V6:8, V7:8
        CFI Resource V8:8, V9:8, V10:8, V11:8, V12:8, V13:8, V14:8, V15:8, SP:8
        CFI Resource PSPH:8, PSPL:8, PSP16:16, XSPH:8, XSPL:8, XSP16:16
        CFI VirtualResource ?RET:24
        CFI Resource ?BRET_EXT:8
        CFI VirtualResource ?RET_HIGH:8, ?RET_LOW:8
        CFI ResourceParts PSP16 PSPH, PSPL
        CFI ResourceParts XSP16 XSPH, XSPL
        CFI ResourceParts ?RET ?BRET_EXT, ?RET_HIGH, ?RET_LOW
        CFI EndNames cfiNames0
        
        CFI Common cfiCommon0 Using cfiNames0
        CFI CodeAlign 1
        CFI DataAlign -1
        CFI ReturnAddress ?RET CODE
        CFI CFA_DOVERLAY Used
        CFI CFA_IOVERLAY Used
        CFI CFA_SP SP+-3
        CFI CFA_PSP16 PSP16+0
        CFI CFA_XSP16 XSP16+0
        CFI `PSW.CY` SameValue
        CFI `B.BR0` SameValue
        CFI `B.BR1` SameValue
        CFI `B.BR2` SameValue
        CFI `B.BR3` SameValue
        CFI `B.BR4` SameValue
        CFI `B.BR5` SameValue
        CFI `B.BR6` SameValue
        CFI `B.BR7` SameValue
        CFI `VB.BR8` SameValue
        CFI `VB.BR9` SameValue
        CFI `VB.BR10` SameValue
        CFI `VB.BR11` SameValue
        CFI `VB.BR12` SameValue
        CFI `VB.BR13` SameValue
        CFI `VB.BR14` SameValue
        CFI `VB.BR15` SameValue
        CFI VB SameValue
        CFI B Undefined
        CFI A Undefined
        CFI PSW SameValue
        CFI DPL0 SameValue
        CFI DPH0 SameValue
        CFI R0 Undefined
        CFI R1 Undefined
        CFI R2 Undefined
        CFI R3 Undefined
        CFI R4 Undefined
        CFI R5 Undefined
        CFI R6 SameValue
        CFI R7 SameValue
        CFI V0 SameValue
        CFI V1 SameValue
        CFI V2 SameValue
        CFI V3 SameValue
        CFI V4 SameValue
        CFI V5 SameValue
        CFI V6 SameValue
        CFI V7 SameValue
        CFI V8 SameValue
        CFI V9 SameValue
        CFI V10 SameValue
        CFI V11 SameValue
        CFI V12 SameValue
        CFI V13 SameValue
        CFI V14 SameValue
        CFI V15 SameValue
        CFI PSPH Undefined
        CFI PSPL Undefined
        CFI XSPH Undefined
        CFI XSPL Undefined
        CFI ?RET Concat
        CFI ?BRET_EXT Frame(CFA_SP, 3)
        CFI ?RET_HIGH Frame(CFA_SP, 2)
        CFI ?RET_LOW Frame(CFA_SP, 1)
        CFI EndCommon cfiCommon0
        
        
        CFI Common cfiCommon1 Using cfiNames0
        CFI CodeAlign 1
        CFI DataAlign -1
        CFI ReturnAddress ?RET CODE
        CFI CFA_DOVERLAY Used
        CFI CFA_IOVERLAY Used
        CFI CFA_SP SP+-2
        CFI CFA_PSP16 PSP16+0
        CFI CFA_XSP16 XSP16+0
        CFI `PSW.CY` SameValue
        CFI `B.BR0` SameValue
        CFI `B.BR1` SameValue
        CFI `B.BR2` SameValue
        CFI `B.BR3` SameValue
        CFI `B.BR4` SameValue
        CFI `B.BR5` SameValue
        CFI `B.BR6` SameValue
        CFI `B.BR7` SameValue
        CFI `VB.BR8` SameValue
        CFI `VB.BR9` SameValue
        CFI `VB.BR10` SameValue
        CFI `VB.BR11` SameValue
        CFI `VB.BR12` SameValue
        CFI `VB.BR13` SameValue
        CFI `VB.BR14` SameValue
        CFI `VB.BR15` SameValue
        CFI VB SameValue
        CFI B SameValue
        CFI A SameValue
        CFI PSW SameValue
        CFI DPL0 SameValue
        CFI DPH0 SameValue
        CFI R0 SameValue
        CFI R1 SameValue
        CFI R2 SameValue
        CFI R3 SameValue
        CFI R4 SameValue
        CFI R5 SameValue
        CFI R6 SameValue
        CFI R7 SameValue
        CFI V0 SameValue
        CFI V1 SameValue
        CFI V2 SameValue
        CFI V3 SameValue
        CFI V4 SameValue
        CFI V5 SameValue
        CFI V6 SameValue
        CFI V7 SameValue
        CFI V8 SameValue
        CFI V9 SameValue
        CFI V10 SameValue
        CFI V11 SameValue
        CFI V12 SameValue
        CFI V13 SameValue
        CFI V14 SameValue
        CFI V15 SameValue
        CFI PSPH Undefined
        CFI PSPL Undefined
        CFI XSPH Undefined
        CFI XSPL Undefined
        CFI ?RET Concat
        CFI ?BRET_EXT SameValue
        CFI ?RET_HIGH Frame(CFA_SP, 2)
        CFI ?RET_LOW Frame(CFA_SP, 1)
        CFI EndCommon cfiCommon1
        
UartInit            SYMBOL "UartInit"
memset              SYMBOL "memset"
??UartInit?relay    SYMBOL "?relay", UartInit
??memset?relay      SYMBOL "?relay", memset
CRC_16              SYMBOL "CRC_16"
??CRC_16?relay      SYMBOL "?relay", CRC_16
DataHandling_485    SYMBOL "DataHandling_485"
??DataHandling_485?relay SYMBOL "?relay", DataHandling_485
RS485Bus_Send       SYMBOL "RS485Bus_Send"
??RS485Bus_Send?relay SYMBOL "?relay", RS485Bus_Send
Rs485_ClearReceiveBuffer SYMBOL "Rs485_ClearReceiveBuffer"
??Rs485_ClearReceiveBuffer?relay SYMBOL "?relay", Rs485_ClearReceiveBuffer
Rs485_Init          SYMBOL "Rs485_Init"
??Rs485_Init?relay  SYMBOL "?relay", Rs485_Init
Rs485_Receive       SYMBOL "Rs485_Receive"
??Rs485_Receive?relay SYMBOL "?relay", Rs485_Receive
Rs485_Send          SYMBOL "Rs485_Send"
??Rs485_Send?relay  SYMBOL "?relay", Rs485_Send
Rs485_delay_ms      SYMBOL "Rs485_delay_ms"
??Rs485_delay_ms?relay SYMBOL "?relay", Rs485_delay_ms
Rx_Stack_Init       SYMBOL "Rx_Stack_Init"
??Rx_Stack_Init?relay SYMBOL "?relay", Rx_Stack_Init
Tx_Stack_Init       SYMBOL "Tx_Stack_Init"
??Tx_Stack_Init?relay SYMBOL "?relay", Tx_Stack_Init
UART2RS485_Init     SYMBOL "UART2RS485_Init"
??UART2RS485_Init?relay SYMBOL "?relay", UART2RS485_Init
calcByte            SYMBOL "calcByte"
??calcByte?relay    SYMBOL "?relay", calcByte

        EXTERN UartInit
        FUNCTION UartInit,0202H
        ARGFRAME ISTACK, 2, STACK
        ARGFRAME PSTACK, 0, STACK
        ARGFRAME XSTACK, 0, STACK
        ARGFRAME IOVERLAY, 0, STATIC
        ARGFRAME DOVERLAY, 0, STATIC
        EXTERN memset
        FUNCTION memset,010202H
        ARGFRAME ISTACK, 0, STACK
        ARGFRAME PSTACK, 0, STACK
        ARGFRAME XSTACK, 12, STACK
        ARGFRAME IOVERLAY, 0, STATIC
        ARGFRAME DOVERLAY, 0, STATIC
        EXTERN ??UartInit?relay
        FUNCTION ??UartInit?relay,00H
        EXTERN ??memset?relay
        FUNCTION ??memset?relay,00H

// D:\DWRH\mode-exp\stm32\ZHONG_HE\IPV4_ZB_2.4G_LORA\ZigBee\Components\HARDWARE\UART2RS485.c
//    1 #include "UART2RS485.h"
//    2 #include "MT_UART.h"

        ASEGN SFR_AN:DATA:NOROOT,090H
// union <unnamed> volatile __sfr _A_P1
_A_P1:
        DATA8
        DS 1

        ASEGN SFR_AN:DATA:NOROOT,0e8H
// union <unnamed> volatile __sfr _A_IRCON2
_A_IRCON2:
        DATA8
        DS 1

        ASEGN SFR_AN:DATA:NOROOT,0f4H
// unsigned char volatile __sfr P1SEL
P1SEL:
        DATA8
        DS 1

        ASEGN SFR_AN:DATA:NOROOT,0f9H
// unsigned char volatile __sfr U1DBUF
U1DBUF:
        DATA8
        DS 1

        ASEGN SFR_AN:DATA:NOROOT,0feH
// unsigned char volatile __sfr P1DIR
P1DIR:
        DATA8
        DS 1
//    3 #include "HAL_DEFS.h"
//    4 #include "string.h"
//    5 #include "stdio.h"
//    6 void Rs485_Init(void);
//    7 /*
//    8 初始化UART转485芯片收发控制引脚
//    9 */

        RSEG BANKED_CODE:CODE:NOROOT(0)
//   10 void UART2RS485_Init(void)
UART2RS485_Init:
        CFI Block cfiBlock0 Using cfiCommon0
        CFI Function UART2RS485_Init
        CODE
//   11 {  
        FUNCALL UART2RS485_Init, Rs485_Init
        LOCFRAME ISTACK, 2, STACK
        LOCFRAME PSTACK, 0, STACK
        LOCFRAME XSTACK, 0, STACK
        LOCFRAME IOVERLAY, 0, STATIC
        LOCFRAME DOVERLAY, 0, STATIC
        ARGFRAME ISTACK, 2, STACK
        ARGFRAME PSTACK, 0, STACK
        ARGFRAME XSTACK, 0, STACK
        ARGFRAME IOVERLAY, 0, STATIC
        ARGFRAME DOVERLAY, 0, STATIC
        PUSH    DPL
        CFI DPL0 Frame(CFA_SP, 4)
        CFI CFA_SP SP+-4
        PUSH    DPH
        CFI DPH0 Frame(CFA_SP, 5)
        CFI CFA_SP SP+-5
        ; Saved register size: 2
        ; Auto size: 0
//   12 	Rs485_Init();
        ; Setup parameters for call to function Rs485_Init
        LCALL   ??Rs485_Init?relay
//   13 }
        LJMP    ?Subroutine0 & 0xFFFF
        CFI EndBlock cfiBlock0
//   14 /*
//   15 通过RS485总线发送数据
//   16 */

        RSEG BANKED_CODE:CODE:NOROOT(0)
//   17 void RS485Bus_Send(void)
RS485Bus_Send:
        CFI Block cfiBlock1 Using cfiCommon0
        CFI Function RS485Bus_Send
        CODE
//   18 {
        ; Saved register size: 0
        ; Auto size: 0
//   19   
//   20 }
        LJMP    ?BRET
        CFI EndBlock cfiBlock1

        RSEG XDATA_Z:XDATA:NOROOT(0)
        DATA8
//   21 Send_Stack Tx_Stack;										//485发送数据结构体
Tx_Stack:
        DS 118
        REQUIRE __INIT_XDATA_Z

        RSEG XDATA_Z:XDATA:NOROOT(0)
        DATA8
//   22 Receive_Stack Rx_Stack;									//485接收数据结构体
Rx_Stack:
        DS 118
        REQUIRE __INIT_XDATA_Z

        RSEG XDATA_Z:XDATA:NOROOT(0)
        DATA16
//   23 unsigned int RS485_RX_STA = 0;
RS485_RX_STA:
        DS 2
        REQUIRE __INIT_XDATA_Z

        RSEG XDATA_Z:XDATA:NOROOT(0)
        DATA8
//   24 uint8_t  Send_Data[Send_REC_LEN]; 			//发送缓冲,最大Send_REC_LEN个字节
Send_Data:
        DS 100
        REQUIRE __INIT_XDATA_Z

        RSEG XDATA_Z:XDATA:NOROOT(0)
        DATA8
//   25 uint8_t  Receive_Data[Receive_REC_LEN]; //接收缓冲,最大Send_REC_LEN个字节
Receive_Data:
        DS 100
        REQUIRE __INIT_XDATA_Z
//   26 
//   27 //==========================================================
//   28 //	函数名称：	Rs485_Init()
//   29 //
//   30 //	函数功能：	初始化485
//   31 //
//   32 //	入口参数：	无
//   33 //
//   34 //	返回参数：	无
//   35 //
//   36 //	说明：			 
//   37 //==========================================================

        RSEG BANKED_CODE:CODE:NOROOT(0)
//   38 void Rs485_Init(void)
Rs485_Init:
        CFI Block cfiBlock2 Using cfiCommon0
        CFI Function Rs485_Init
        CODE
//   39 {
        FUNCALL Rs485_Init, UartInit
        LOCFRAME ISTACK, 2, STACK
        LOCFRAME PSTACK, 0, STACK
        LOCFRAME XSTACK, 0, STACK
        LOCFRAME IOVERLAY, 0, STATIC
        LOCFRAME DOVERLAY, 0, STATIC
        ARGFRAME ISTACK, 2, STACK
        ARGFRAME PSTACK, 0, STACK
        ARGFRAME XSTACK, 0, STACK
        ARGFRAME IOVERLAY, 0, STATIC
        ARGFRAME DOVERLAY, 0, STATIC
        FUNCALL Rs485_Init, Rx_Stack_Init
        LOCFRAME ISTACK, 2, STACK
        LOCFRAME PSTACK, 0, STACK
        LOCFRAME XSTACK, 0, STACK
        LOCFRAME IOVERLAY, 0, STATIC
        LOCFRAME DOVERLAY, 0, STATIC
        ARGFRAME ISTACK, 2, STACK
        ARGFRAME PSTACK, 0, STACK
        ARGFRAME XSTACK, 0, STACK
        ARGFRAME IOVERLAY, 0, STATIC
        ARGFRAME DOVERLAY, 0, STATIC
        FUNCALL Rs485_Init, Tx_Stack_Init
        LOCFRAME ISTACK, 2, STACK
        LOCFRAME PSTACK, 0, STACK
        LOCFRAME XSTACK, 0, STACK
        LOCFRAME IOVERLAY, 0, STATIC
        LOCFRAME DOVERLAY, 0, STATIC
        ARGFRAME ISTACK, 2, STACK
        ARGFRAME PSTACK, 0, STACK
        ARGFRAME XSTACK, 0, STACK
        ARGFRAME IOVERLAY, 0, STATIC
        ARGFRAME DOVERLAY, 0, STATIC
        PUSH    DPL
        CFI DPL0 Frame(CFA_SP, 4)
        CFI CFA_SP SP+-4
        PUSH    DPH
        CFI DPH0 Frame(CFA_SP, 5)
        CFI CFA_SP SP+-5
        ; Saved register size: 2
        ; Auto size: 0
//   40 	halUARTCfg_t uartConfig;
//   41 	
//   42 	P1SEL &= ~BV(3);     //设置P1.3为普通IO口  
        ANL     0xf4,#0xf7
//   43 	P1DIR |= BV(3);      //P1.3定义为输出 
        ORL     0xfe,#0x8
//   44 
//   45 	UartInit(HAL_UART_PORT_1,HAL_UART_BR_115200);
        ; Setup parameters for call to function UartInit
        MOV     R2,#0x4
        MOV     R1,#0x1
        LCALL   ??UartInit?relay
//   46 	
//   47 	RS485_RX_EN();   													//初始化为接收模式
        CLR     0x90.3
//   48 	
//   49 	Rx_Stack_Init();													//初始化接收结构体
        ; Setup parameters for call to function Rx_Stack_Init
        LCALL   ??Rx_Stack_Init?relay
//   50 	Tx_Stack_Init();													//初始化发送结构体
        ; Setup parameters for call to function Tx_Stack_Init
        LCALL   ??Tx_Stack_Init?relay
//   51 }
        LJMP    ?Subroutine0 & 0xFFFF
        CFI EndBlock cfiBlock2
        REQUIRE P1SEL
        REQUIRE P1DIR
        REQUIRE _A_P1
//   52 
//   53 //==========================================================
//   54 //	函数名称：	Tx_Stack_Init
//   55 //
//   56 //	函数功能：	RFID模块上发数据结构体初始化
//   57 //
//   58 //	入口参数：	无
//   59 //              
//   60 //	返回参数：	无
//   61 //
//   62 //	说明：			 
//   63 //==========================================================

        RSEG BANKED_CODE:CODE:NOROOT(0)
//   64 void Tx_Stack_Init(void)
Tx_Stack_Init:
        CFI Block cfiBlock3 Using cfiCommon0
        CFI Function Tx_Stack_Init
        CODE
//   65 {
        FUNCALL Tx_Stack_Init, memset
        LOCFRAME ISTACK, 0, STACK
        LOCFRAME PSTACK, 0, STACK
        LOCFRAME XSTACK, 12, STACK
        LOCFRAME IOVERLAY, 0, STATIC
        LOCFRAME DOVERLAY, 0, STATIC
        ARGFRAME ISTACK, 0, STACK
        ARGFRAME PSTACK, 0, STACK
        ARGFRAME XSTACK, 12, STACK
        ARGFRAME IOVERLAY, 0, STATIC
        ARGFRAME DOVERLAY, 0, STATIC
        MOV     A,#-0xa
        LCALL   ?BANKED_ENTER_XDATA
        CFI DPH0 load(1, XDATA, add(CFA_XSP16, literal(-1)))
        CFI DPL0 load(1, XDATA, add(CFA_XSP16, literal(-2)))
        CFI ?BRET_EXT load(1, XDATA, add(CFA_XSP16, literal(-3)))
        CFI ?RET_HIGH load(1, XDATA, add(CFA_XSP16, literal(-4)))
        CFI ?RET_LOW load(1, XDATA, add(CFA_XSP16, literal(-5)))
        CFI R7 load(1, XDATA, add(CFA_XSP16, literal(-6)))
        CFI V1 load(1, XDATA, add(CFA_XSP16, literal(-7)))
        CFI V0 load(1, XDATA, add(CFA_XSP16, literal(-8)))
        CFI VB load(1, XDATA, add(CFA_XSP16, literal(-9)))
        CFI R6 load(1, XDATA, add(CFA_XSP16, literal(-10)))
        CFI CFA_SP SP+0
        CFI CFA_XSP16 add(XSP16, 10)
        ; Saved register size: 10
        ; Auto size: 0
//   66 	Tx_Stack.Head = 0xE1E2E3E4;					//帧头
        MOV     DPTR,#__Constant_e1e2e3e4
        LCALL   ?XLOAD_R2345
        MOV     DPTR,#Tx_Stack
        LCALL   ?XSTORE_R2345
//   67 	Tx_Stack.Pack_Num = 0x00;						//包序号
        MOV     DPTR,#Tx_Stack + 4
        LCALL   ?Subroutine2 & 0xFFFF
//   68 	Tx_Stack.Src_Adr = 0x0000;					//源地址
//   69 	Tx_Stack.Dst_Adr = 0x0000;					//目的地址
//   70 	Tx_Stack.State = 0x0000;						//状态码
//   71 	Tx_Stack.Data_Len = 0x00;						//数据长度
//   72 	memset(Tx_Stack.Data, 0, sizeof(Tx_Stack.Data));//数据数组全部清空
??CrossCallReturnLabel_0:
        LCALL   ?PUSH_XSTACK_I_TWO
        CFI CFA_XSP16 add(XSP16, 12)
        MOV     R4,#0x0
        MOV     R5,#0x0
        MOV     R2,#(Tx_Stack + 12) & 0xff
        MOV     R3,#((Tx_Stack + 12) >> 8) & 0xff
        LCALL   ??memset?relay
        MOV     A,#0x2
        LCALL   ?DEALLOC_XSTACK8
        CFI CFA_XSP16 add(XSP16, 10)
//   73 	Tx_Stack.CrcCheck = 0x0000;					//CRC校验码
        MOV     DPTR,#Tx_Stack + 112
        CLR     A
        MOVX    @DPTR,A
        INC     DPTR
        MOVX    @DPTR,A
//   74 	Tx_Stack.Tail = 0xEAEBECED;					//帧尾
        MOV     DPTR,#__Constant_eaebeced
        LCALL   ?XLOAD_R2345
        MOV     DPTR,#Tx_Stack + 114
        CFI EndBlock cfiBlock3
        REQUIRE ?Subroutine1
        ; // Fall through to label ?Subroutine1
//   75 }

        RSEG BANKED_CODE:CODE:NOROOT(0)
?Subroutine1:
        CFI Block cfiBlock4 Using cfiCommon0
        CFI NoFunction
        CFI CFA_SP SP+0
        CFI CFA_XSP16 add(XSP16, 10)
        CFI VB load(1, XDATA, add(CFA_XSP16, literal(-9)))
        CFI DPL0 load(1, XDATA, add(CFA_XSP16, literal(-2)))
        CFI DPH0 load(1, XDATA, add(CFA_XSP16, literal(-1)))
        CFI R6 load(1, XDATA, add(CFA_XSP16, literal(-10)))
        CFI R7 load(1, XDATA, add(CFA_XSP16, literal(-6)))
        CFI V0 load(1, XDATA, add(CFA_XSP16, literal(-8)))
        CFI V1 load(1, XDATA, add(CFA_XSP16, literal(-7)))
        CFI ?BRET_EXT load(1, XDATA, add(CFA_XSP16, literal(-3)))
        CFI ?RET_HIGH load(1, XDATA, add(CFA_XSP16, literal(-4)))
        CFI ?RET_LOW load(1, XDATA, add(CFA_XSP16, literal(-5)))
        LCALL   ?XSTORE_R2345
        CFI EndBlock cfiBlock4
        REQUIRE ??Subroutine10_0
        ; // Fall through to label ??Subroutine10_0

        RSEG BANKED_CODE:CODE:NOROOT(0)
??Subroutine10_0:
        CFI Block cfiBlock5 Using cfiCommon0
        CFI NoFunction
        CFI CFA_SP SP+0
        CFI CFA_XSP16 add(XSP16, 10)
        CFI VB load(1, XDATA, add(CFA_XSP16, literal(-9)))
        CFI DPL0 load(1, XDATA, add(CFA_XSP16, literal(-2)))
        CFI DPH0 load(1, XDATA, add(CFA_XSP16, literal(-1)))
        CFI R6 load(1, XDATA, add(CFA_XSP16, literal(-10)))
        CFI R7 load(1, XDATA, add(CFA_XSP16, literal(-6)))
        CFI V0 load(1, XDATA, add(CFA_XSP16, literal(-8)))
        CFI V1 load(1, XDATA, add(CFA_XSP16, literal(-7)))
        CFI ?BRET_EXT load(1, XDATA, add(CFA_XSP16, literal(-3)))
        CFI ?RET_HIGH load(1, XDATA, add(CFA_XSP16, literal(-4)))
        CFI ?RET_LOW load(1, XDATA, add(CFA_XSP16, literal(-5)))
        MOV     R7,#0x2
        LJMP    ?BANKED_LEAVE_XDATA
        CFI EndBlock cfiBlock5
//   76 
//   77 //==========================================================
//   78 //	函数名称：	Rx_Stack_Init
//   79 //
//   80 //	函数功能：	上位机下发数据结构体初始化
//   81 //
//   82 //	入口参数：	无
//   83 //              
//   84 //	返回参数：	无
//   85 //
//   86 //	说明：		
//   87 //==========================================================

        RSEG BANKED_CODE:CODE:NOROOT(0)
//   88 void Rx_Stack_Init(void)
Rx_Stack_Init:
        CFI Block cfiBlock6 Using cfiCommon0
        CFI Function Rx_Stack_Init
        CODE
//   89 {
        FUNCALL Rx_Stack_Init, memset
        LOCFRAME ISTACK, 0, STACK
        LOCFRAME PSTACK, 0, STACK
        LOCFRAME XSTACK, 12, STACK
        LOCFRAME IOVERLAY, 0, STATIC
        LOCFRAME DOVERLAY, 0, STATIC
        ARGFRAME ISTACK, 0, STACK
        ARGFRAME PSTACK, 0, STACK
        ARGFRAME XSTACK, 12, STACK
        ARGFRAME IOVERLAY, 0, STATIC
        ARGFRAME DOVERLAY, 0, STATIC
        MOV     A,#-0xa
        LCALL   ?BANKED_ENTER_XDATA
        CFI DPH0 load(1, XDATA, add(CFA_XSP16, literal(-1)))
        CFI DPL0 load(1, XDATA, add(CFA_XSP16, literal(-2)))
        CFI ?BRET_EXT load(1, XDATA, add(CFA_XSP16, literal(-3)))
        CFI ?RET_HIGH load(1, XDATA, add(CFA_XSP16, literal(-4)))
        CFI ?RET_LOW load(1, XDATA, add(CFA_XSP16, literal(-5)))
        CFI R7 load(1, XDATA, add(CFA_XSP16, literal(-6)))
        CFI V1 load(1, XDATA, add(CFA_XSP16, literal(-7)))
        CFI V0 load(1, XDATA, add(CFA_XSP16, literal(-8)))
        CFI VB load(1, XDATA, add(CFA_XSP16, literal(-9)))
        CFI R6 load(1, XDATA, add(CFA_XSP16, literal(-10)))
        CFI CFA_SP SP+0
        CFI CFA_XSP16 add(XSP16, 10)
        ; Saved register size: 10
        ; Auto size: 0
//   90 	Rx_Stack.Head = 0xE1E2E3E4;					//帧头
        MOV     DPTR,#__Constant_e1e2e3e4
        LCALL   ?XLOAD_R2345
        MOV     DPTR,#Rx_Stack
        LCALL   ?XSTORE_R2345
//   91 	Rx_Stack.Pack_Num = 0x00;						//包序号
        MOV     DPTR,#Rx_Stack + 4
        LCALL   ?Subroutine2 & 0xFFFF
//   92 	Rx_Stack.Src_Adr = 0x0000;					//源地址
//   93 	Rx_Stack.Dst_Adr = 0x0000;					//目的地址
//   94 	Rx_Stack.Command = 0x0000;					//命令码
//   95 	Rx_Stack.Data_Len = 0x00;						//数据长度						
//   96 	memset(Rx_Stack.Data, 0, sizeof(Rx_Stack.Data));//数据数组全部清空
??CrossCallReturnLabel_1:
        LCALL   ?PUSH_XSTACK_I_TWO
        CFI CFA_XSP16 add(XSP16, 12)
        MOV     R4,#0x0
        MOV     R5,#0x0
        MOV     R2,#(Rx_Stack + 12) & 0xff
        MOV     R3,#((Rx_Stack + 12) >> 8) & 0xff
        LCALL   ??memset?relay
        MOV     A,#0x2
        LCALL   ?DEALLOC_XSTACK8
        CFI CFA_XSP16 add(XSP16, 10)
//   97 	Rx_Stack.CrcCheck = 0x0000;					//CRC校验码
        MOV     DPTR,#Rx_Stack + 112
        CLR     A
        MOVX    @DPTR,A
        INC     DPTR
        MOVX    @DPTR,A
//   98 	Rx_Stack.Tail = 0xEAEBECED;					//帧尾
        MOV     DPTR,#__Constant_eaebeced
        LCALL   ?XLOAD_R2345
        MOV     DPTR,#Rx_Stack + 114
        SJMP    ?Subroutine1
        CFI EndBlock cfiBlock6
//   99 }

        RSEG BANKED_CODE:CODE:NOROOT(0)
?Subroutine2:
        CFI Block cfiCond7 Using cfiCommon0
        CFI NoFunction
        CFI Conditional ??CrossCallReturnLabel_0
        CFI R6 load(1, XDATA, add(CFA_XSP16, literal(-10)))
        CFI VB load(1, XDATA, add(CFA_XSP16, literal(-9)))
        CFI V0 load(1, XDATA, add(CFA_XSP16, literal(-8)))
        CFI V1 load(1, XDATA, add(CFA_XSP16, literal(-7)))
        CFI R7 load(1, XDATA, add(CFA_XSP16, literal(-6)))
        CFI ?RET_LOW load(1, XDATA, add(CFA_XSP16, literal(-5)))
        CFI ?RET_HIGH load(1, XDATA, add(CFA_XSP16, literal(-4)))
        CFI ?BRET_EXT load(1, XDATA, add(CFA_XSP16, literal(-3)))
        CFI DPL0 load(1, XDATA, add(CFA_XSP16, literal(-2)))
        CFI DPH0 load(1, XDATA, add(CFA_XSP16, literal(-1)))
        CFI CFA_SP SP+0
        CFI CFA_XSP16 add(XSP16, 10)
        CFI Block cfiCond8 Using cfiCommon0
        CFI (cfiCond8) NoFunction
        CFI (cfiCond8) Conditional ??CrossCallReturnLabel_1
        CFI (cfiCond8) R6 load(1, XDATA, add(CFA_XSP16, literal(-10)))
        CFI (cfiCond8) VB load(1, XDATA, add(CFA_XSP16, literal(-9)))
        CFI (cfiCond8) V0 load(1, XDATA, add(CFA_XSP16, literal(-8)))
        CFI (cfiCond8) V1 load(1, XDATA, add(CFA_XSP16, literal(-7)))
        CFI (cfiCond8) R7 load(1, XDATA, add(CFA_XSP16, literal(-6)))
        CFI (cfiCond8) ?RET_LOW load(1, XDATA, add(CFA_XSP16, literal(-5)))
        CFI (cfiCond8) ?RET_HIGH load(1, XDATA, add(CFA_XSP16, literal(-4)))
        CFI (cfiCond8) ?BRET_EXT load(1, XDATA, add(CFA_XSP16, literal(-3)))
        CFI (cfiCond8) DPL0 load(1, XDATA, add(CFA_XSP16, literal(-2)))
        CFI (cfiCond8) DPH0 load(1, XDATA, add(CFA_XSP16, literal(-1)))
        CFI (cfiCond8) CFA_SP SP+0
        CFI (cfiCond8) CFA_XSP16 add(XSP16, 10)
        CFI Block cfiPicker9 Using cfiCommon1
        CFI (cfiPicker9) NoFunction
        CFI (cfiPicker9) Picker
        CLR     A
        MOVX    @DPTR,A
        INC     DPTR
        MOVX    @DPTR,A
        INC     DPTR
        MOVX    @DPTR,A
        INC     DPTR
        MOVX    @DPTR,A
        INC     DPTR
        MOVX    @DPTR,A
        INC     DPTR
        MOVX    @DPTR,A
        INC     DPTR
        LCALL   ?Subroutine8 & 0xFFFF
??CrossCallReturnLabel_14:
        RET
        CFI EndBlock cfiCond7
        CFI EndBlock cfiCond8
        CFI EndBlock cfiPicker9

        RSEG BANKED_CODE:CODE:NOROOT(0)
?Subroutine8:
        CFI Block cfiCond10 Using cfiCommon0
        CFI NoFunction
        CFI Conditional ??CrossCallReturnLabel_14, ??CrossCallReturnLabel_0
        CFI R6 load(1, XDATA, add(CFA_XSP16, literal(-10)))
        CFI VB load(1, XDATA, add(CFA_XSP16, literal(-9)))
        CFI V0 load(1, XDATA, add(CFA_XSP16, literal(-8)))
        CFI V1 load(1, XDATA, add(CFA_XSP16, literal(-7)))
        CFI R7 load(1, XDATA, add(CFA_XSP16, literal(-6)))
        CFI ?RET_LOW load(1, XDATA, add(CFA_XSP16, literal(-5)))
        CFI ?RET_HIGH load(1, XDATA, add(CFA_XSP16, literal(-4)))
        CFI ?BRET_EXT load(1, XDATA, add(CFA_XSP16, literal(-3)))
        CFI DPL0 load(1, XDATA, add(CFA_XSP16, literal(-2)))
        CFI DPH0 load(1, XDATA, add(CFA_XSP16, literal(-1)))
        CFI CFA_SP SP+0
        CFI CFA_XSP16 add(XSP16, 10)
        CFI Block cfiCond11 Using cfiCommon0
        CFI (cfiCond11) NoFunction
        CFI (cfiCond11) Conditional ??CrossCallReturnLabel_14, ??CrossCallReturnLabel_1
        CFI (cfiCond11) R6 load(1, XDATA, add(CFA_XSP16, literal(-10)))
        CFI (cfiCond11) VB load(1, XDATA, add(CFA_XSP16, literal(-9)))
        CFI (cfiCond11) V0 load(1, XDATA, add(CFA_XSP16, literal(-8)))
        CFI (cfiCond11) V1 load(1, XDATA, add(CFA_XSP16, literal(-7)))
        CFI (cfiCond11) R7 load(1, XDATA, add(CFA_XSP16, literal(-6)))
        CFI (cfiCond11) ?RET_LOW load(1, XDATA, add(CFA_XSP16, literal(-5)))
        CFI (cfiCond11) ?RET_HIGH load(1, XDATA, add(CFA_XSP16, literal(-4)))
        CFI (cfiCond11) ?BRET_EXT load(1, XDATA, add(CFA_XSP16, literal(-3)))
        CFI (cfiCond11) DPL0 load(1, XDATA, add(CFA_XSP16, literal(-2)))
        CFI (cfiCond11) DPH0 load(1, XDATA, add(CFA_XSP16, literal(-1)))
        CFI (cfiCond11) CFA_SP SP+0
        CFI (cfiCond11) CFA_XSP16 add(XSP16, 10)
        CFI Block cfiCond12 Using cfiCommon0
        CFI (cfiCond12) NoFunction
        CFI (cfiCond12) Conditional ??CrossCallReturnLabel_15
        CFI (cfiCond12) R6 load(1, XDATA, add(CFA_XSP16, literal(-10)))
        CFI (cfiCond12) VB load(1, XDATA, add(CFA_XSP16, literal(-9)))
        CFI (cfiCond12) V0 load(1, XDATA, add(CFA_XSP16, literal(-8)))
        CFI (cfiCond12) V1 load(1, XDATA, add(CFA_XSP16, literal(-7)))
        CFI (cfiCond12) R7 load(1, XDATA, add(CFA_XSP16, literal(-6)))
        CFI (cfiCond12) ?RET_LOW load(1, XDATA, add(CFA_XSP16, literal(-5)))
        CFI (cfiCond12) ?RET_HIGH load(1, XDATA, add(CFA_XSP16, literal(-4)))
        CFI (cfiCond12) ?BRET_EXT load(1, XDATA, add(CFA_XSP16, literal(-3)))
        CFI (cfiCond12) DPL0 load(1, XDATA, add(CFA_XSP16, literal(-2)))
        CFI (cfiCond12) DPH0 load(1, XDATA, add(CFA_XSP16, literal(-1)))
        CFI (cfiCond12) CFA_SP SP+0
        CFI (cfiCond12) CFA_XSP16 add(XSP16, 10)
        CFI Block cfiPicker13 Using cfiCommon1
        CFI (cfiPicker13) NoFunction
        CFI (cfiPicker13) Picker
        MOVX    @DPTR,A
        INC     DPTR
        MOVX    @DPTR,A
        ; Setup parameters for call to function memset
        ; Setup parameters for call to function memset
        ; Setup parameters for call to function memset
        MOV     ?V0 + 0,#0x64
        MOV     ?V0 + 1,A
        MOV     R0,#?V0 + 0
        RET
        CFI EndBlock cfiCond10
        CFI EndBlock cfiCond11
        CFI EndBlock cfiCond12
        CFI EndBlock cfiPicker13
//  100 
//  101 //==========================================================
//  102 //	函数名称：	delay_us
//  103 //
//  104 //	函数功能：	发送数据到485总线上
//  105 //
//  106 //	入口参数：	延时的毫秒数
//  107 //
//  108 //	返回参数：	无
//  109 //
//  110 //	说明：		
//  111 //==========================================================

        RSEG BANKED_CODE:CODE:NOROOT(0)
//  112 static void delay_us(unsigned int nus)
delay_us:
        CFI Block cfiBlock14 Using cfiCommon0
        CFI Function delay_us
        CODE
//  113 {		
        ; Saved register size: 0
        ; Auto size: 0
//  114 	unsigned int j = 0;
//  115 	while(nus--)
??delay_us_0:
        MOV     A,R2
        MOV     R0,A
        MOV     A,R3
        MOV     R1,A
        MOV     A,R0
        ADD     A,#-0x1
        DEC     R2
        MOV     A,R1
        ADDC    A,#-0x1
        MOV     R3,A
        MOV     A,R0
        ORL     A,R1
        JZ      ??delay_us_1
//  116 	{
//  117         j = 2;
        MOV     R0,#0x2
        MOV     R1,#0x0
//  118 		while(j--)
??delay_us_2:
        MOV     A,R0
        MOV     R4,A
        MOV     A,R1
        MOV     R5,A
        MOV     A,R4
        ADD     A,#-0x1
        DEC     R0
        MOV     A,R5
        ADDC    A,#-0x1
        MOV     R1,A
        MOV     A,R4
        ORL     A,R5
        JNZ     ??delay_us_2
        SJMP    ??delay_us_0
//  119 		{;}
//  120 	}
//  121 }
??delay_us_1:
        LJMP    ?BRET
        CFI EndBlock cfiBlock14
//  122 //==========================================================
//  123 //	函数名称：	Rs485_Send()
//  124 //
//  125 //	函数功能：	发送数据到485总线上
//  126 //
//  127 //	入口参数：	SrcAdr:源地址
//  128 //							DstAdr:目的地址
//  129 //							Cmd		:命令码
//  130 //							Len		:数据长度
//  131 //							*pData:数据
//  132 //
//  133 //	返回参数：	无
//  134 //
//  135 //	说明：		
//  136 //==========================================================

        RSEG BANKED_CODE:CODE:NOROOT(0)
//  137 void Rs485_Send(uint16_t SrcAdr,uint16_t DstAdr,uint16_t Cmd,uint8_t Len,uint8_t *pData)
Rs485_Send:
        CFI Block cfiBlock15 Using cfiCommon0
        CFI Function Rs485_Send
        CODE
//  138 {
        FUNCALL Rs485_Send, CRC_16
        LOCFRAME ISTACK, 0, STACK
        LOCFRAME PSTACK, 0, STACK
        LOCFRAME XSTACK, 12, STACK
        LOCFRAME IOVERLAY, 0, STATIC
        LOCFRAME DOVERLAY, 0, STATIC
        ARGFRAME ISTACK, 0, STACK
        ARGFRAME PSTACK, 0, STACK
        ARGFRAME XSTACK, 12, STACK
        ARGFRAME IOVERLAY, 0, STATIC
        ARGFRAME DOVERLAY, 0, STATIC
        FUNCALL Rs485_Send, Rs485_ClearReceiveBuffer
        LOCFRAME ISTACK, 0, STACK
        LOCFRAME PSTACK, 0, STACK
        LOCFRAME XSTACK, 12, STACK
        LOCFRAME IOVERLAY, 0, STATIC
        LOCFRAME DOVERLAY, 0, STATIC
        ARGFRAME ISTACK, 0, STACK
        ARGFRAME PSTACK, 0, STACK
        ARGFRAME XSTACK, 12, STACK
        ARGFRAME IOVERLAY, 0, STATIC
        ARGFRAME DOVERLAY, 0, STATIC
        FUNCALL Rs485_Send, delay_us
        LOCFRAME ISTACK, 0, STACK
        LOCFRAME PSTACK, 0, STACK
        LOCFRAME XSTACK, 12, STACK
        LOCFRAME IOVERLAY, 0, STATIC
        LOCFRAME DOVERLAY, 0, STATIC
        ARGFRAME ISTACK, 0, STACK
        ARGFRAME PSTACK, 0, STACK
        ARGFRAME XSTACK, 12, STACK
        ARGFRAME IOVERLAY, 0, STATIC
        ARGFRAME DOVERLAY, 0, STATIC
        FUNCALL Rs485_Send, delay_us
        LOCFRAME ISTACK, 0, STACK
        LOCFRAME PSTACK, 0, STACK
        LOCFRAME XSTACK, 12, STACK
        LOCFRAME IOVERLAY, 0, STATIC
        LOCFRAME DOVERLAY, 0, STATIC
        ARGFRAME ISTACK, 0, STACK
        ARGFRAME PSTACK, 0, STACK
        ARGFRAME XSTACK, 12, STACK
        ARGFRAME IOVERLAY, 0, STATIC
        ARGFRAME DOVERLAY, 0, STATIC
        MOV     A,#-0xc
        LCALL   ?BANKED_ENTER_XDATA
        CFI DPH0 load(1, XDATA, add(CFA_XSP16, literal(-1)))
        CFI DPL0 load(1, XDATA, add(CFA_XSP16, literal(-2)))
        CFI ?BRET_EXT load(1, XDATA, add(CFA_XSP16, literal(-3)))
        CFI ?RET_HIGH load(1, XDATA, add(CFA_XSP16, literal(-4)))
        CFI ?RET_LOW load(1, XDATA, add(CFA_XSP16, literal(-5)))
        CFI R7 load(1, XDATA, add(CFA_XSP16, literal(-6)))
        CFI V3 load(1, XDATA, add(CFA_XSP16, literal(-7)))
        CFI V2 load(1, XDATA, add(CFA_XSP16, literal(-8)))
        CFI V1 load(1, XDATA, add(CFA_XSP16, literal(-9)))
        CFI V0 load(1, XDATA, add(CFA_XSP16, literal(-10)))
        CFI VB load(1, XDATA, add(CFA_XSP16, literal(-11)))
        CFI R6 load(1, XDATA, add(CFA_XSP16, literal(-12)))
        CFI CFA_SP SP+0
        CFI CFA_XSP16 add(XSP16, 12)
        ; Saved register size: 12
        ; Auto size: 0
        MOV     ?V0 + 0,R1
        MOV     A,#0xc
        LCALL   ?XSTACK_DISP0_8
        MOVX    A,@DPTR
        MOV     R6,A
        INC     DPTR
        MOVX    A,@DPTR
        MOV     R7,A
        MOV     A,#0xe
        LCALL   ?XSTACK_DISP0_8
        MOVX    A,@DPTR
        MOV     R0,A
        INC     DPTR
        MOVX    A,@DPTR
        MOV     R1,A
        MOV     ?V0 + 2,R0
        MOV     ?V0 + 3,R1
//  139 	uint16_t i = 0;																			//For循环使用	
//  140 	
//  141 	for(i=0;i<4;i++)
        MOV     R0,#0x0
        MOV     R1,#0x0
//  142 	{
//  143 		Send_Data[i] = (0xE1+i);													//帧头
??Rs485_Send_0:
        MOV     A,R0
        ADD     A,#-0x1f
        PUSH    A
        CFI CFA_SP SP+-1
        LCALL   ?Subroutine4 & 0xFFFF
//  144 	}
??CrossCallReturnLabel_4:
        POP     A
        CFI CFA_SP SP+0
        LCALL   ?Subroutine3 & 0xFFFF
??CrossCallReturnLabel_2:
        CLR     C
        MOV     A,R0
        SUBB    A,#0x4
        MOV     A,R1
        SUBB    A,#0x0
        JC      ??Rs485_Send_0
//  145 
//  146 	if(Tx_Stack.Pack_Num>=255)
        MOV     DPTR,#Tx_Stack + 4
        MOVX    A,@DPTR
        CPL     A
        JNZ     ??Rs485_Send_1
//  147 	{
//  148 		Tx_Stack.Pack_Num = 0;	
        CLR     A
        MOVX    @DPTR,A
//  149 	}
//  150 	Send_Data[4] = Tx_Stack.Pack_Num;										//包序号	
??Rs485_Send_1:
        MOVX    A,@DPTR
        MOV     DPTR,#Send_Data + 4
        MOVX    @DPTR,A
//  151 	Tx_Stack.Pack_Num++;
        MOV     DPTR,#Tx_Stack + 4
        INC     A
        MOVX    @DPTR,A
//  152 	Send_Data[5] = SrcAdr>>8;
        MOV     A,R3
        MOV     DPTR,#Send_Data + 5
        MOVX    @DPTR,A
//  153 	Send_Data[6] = SrcAdr;															//源地址
        MOV     A,R2
        INC     DPTR
        MOVX    @DPTR,A
//  154 	Send_Data[7] = DstAdr>>8;
        MOV     A,R5
        INC     DPTR
        MOVX    @DPTR,A
//  155 	Send_Data[8] = DstAdr;															//目的地址
        MOV     A,R4
        INC     DPTR
        MOVX    @DPTR,A
//  156 	Send_Data[9] = Cmd>>8;
        MOV     A,R7
        INC     DPTR
        MOVX    @DPTR,A
//  157 	Send_Data[10] = Cmd;																//命令码
        MOV     A,R6
        INC     DPTR
        MOVX    @DPTR,A
//  158 	Send_Data[11] = Len;																//数据长度
        MOV     A,?V0 + 0
        INC     DPTR
        MOVX    @DPTR,A
//  159 	for(i=12;i<(Len+12);i++)
        MOV     R0,#0xc
        MOV     R1,#0x0
        MOV     DPL,A
        MOV     R6,DPL
        ADD     A,#0xc
        MOV     R4,A
        CLR     A
        ADDC    A,#0x0
        MOV     R5,A
        SJMP    ??CrossCallReturnLabel_3
//  160 	{
//  161 		Send_Data[i] = pData[i-12];												//数据
??Rs485_Send_2:
        MOV     A,?V0 + 2
        ADD     A,R0
        MOV     R2,A
        MOV     A,?V0 + 3
        ADDC    A,R1
        MOV     R3,A
        MOV     A,R2
        ADD     A,#-0xc
        MOV     DPL,A
        MOV     A,R3
        ADDC    A,#-0x1
        MOV     DPH,A
        MOVX    A,@DPTR
        PUSH    A
        CFI CFA_SP SP+-1
        LCALL   ?Subroutine4 & 0xFFFF
//  162 	}
??CrossCallReturnLabel_5:
        POP     A
        CFI CFA_SP SP+0
        LCALL   ?Subroutine3 & 0xFFFF
??CrossCallReturnLabel_3:
        CLR     C
        MOV     A,R0
        SUBB    A,R4
        MOV     A,R1
        SUBB    A,R5
        JC      ??Rs485_Send_2
//  163 	Tx_Stack.CrcCheck = CRC_16(Send_Data,(12+Len));			//CRC校验码
        ; Setup parameters for call to function CRC_16
        MOV     R2,#Send_Data & 0xff
        MOV     R3,#(Send_Data >> 8) & 0xff
        LCALL   ??CRC_16?relay
        MOV     DPTR,#Tx_Stack + 112
        MOV     A,R2
        MOVX    @DPTR,A
        INC     DPTR
        MOV     A,R3
        MOVX    @DPTR,A
//  164 	Send_Data[12+Len] = Tx_Stack.CrcCheck>>8;
        MOV     A,#Send_Data & 0xff
        ADD     A,R6
        MOV     R0,A
        MOV     A,#(Send_Data >> 8) & 0xff
        LCALL   ?Subroutine5 & 0xFFFF
??CrossCallReturnLabel_8:
        MOV     A,R3
        MOVX    @DPTR,A
//  165 	Send_Data[13+Len] = Tx_Stack.CrcCheck;							//CRC校验码
        MOV     DPTR,#Tx_Stack + 112
        MOVX    A,@DPTR
        PUSH    A
        CFI CFA_SP SP+-1
        LCALL   ?Subroutine7 & 0xFFFF
??CrossCallReturnLabel_12:
        POP     A
        CFI CFA_SP SP+0
        MOVX    @DPTR,A
//  166 	for(i=(14+Len);i<(18+Len);i++)
        MOV     A,R6
        ADD     A,#0xe
        MOV     R0,A
        CLR     A
        SJMP    ??Rs485_Send_3
//  167 	{
//  168 		Send_Data[i] = (0xEA+(i-14-Len));									//帧尾
??Rs485_Send_4:
        MOV     A,R0
        ADD     A,#-0xe
        CLR     C
        SUBB    A,?V0 + 0
        ADD     A,#-0x16
        PUSH    A
        CFI CFA_SP SP+-1
        LCALL   ?Subroutine4 & 0xFFFF
//  169 	}
??CrossCallReturnLabel_6:
        POP     A
        CFI CFA_SP SP+0
        MOVX    @DPTR,A
        MOV     A,R0
        ADD     A,#0x1
        INC     R0
        MOV     A,R1
??Rs485_Send_3:
        ADDC    A,#0x0
        MOV     R1,A
        MOV     A,R6
        ADD     A,#0x12
        MOV     R2,A
        CLR     A
        ADDC    A,#0x0
        MOV     R3,A
        MOV     A,R0
        SUBB    A,R2
        MOV     A,R1
        SUBB    A,R3
        JC      ??Rs485_Send_4
//  170 
//  171     Rs485_ClearReceiveBuffer();
        ; Setup parameters for call to function Rs485_ClearReceiveBuffer
        LCALL   ??Rs485_ClearReceiveBuffer?relay
//  172     
//  173 	RS485_TX_EN();		//开启485发送
        SETB    0x90.3
//  174 	delay_us(5);
        ; Setup parameters for call to function delay_us
        MOV     R2,#0x5
        MOV     R3,#0x0
        LCALL   ??delay_us?relay
//  175 	Len = Len+18;
        MOV     A,#0x12
        ADD     A,?V0 + 0
        MOV     ?V0 + 0,A
//  176 	i = 0;
        MOV     R0,#0x0
        MOV     R1,#0x0
        SJMP    ??CrossCallReturnLabel_16
//  177 	while(i < Len)
//  178 	{
//  179 		UTX1IF = 0;
??Rs485_Send_5:
        CLR     0xe8.2
//  180 		U1DBUF = (char)Send_Data[i];
        LCALL   ?Subroutine4 & 0xFFFF
??CrossCallReturnLabel_7:
        MOVX    A,@DPTR
        MOV     0xf9,A
//  181 		while(UTX1IF == 0);
??Rs485_Send_6:
        MOV     C,0xe8.2
        JNC     ??Rs485_Send_6
//  182 		i++;
        LCALL   ?Subroutine9 & 0xFFFF
//  183 	}
??CrossCallReturnLabel_16:
        MOV     ?V0 + 2,?V0 + 0
        CLR     C
        MOV     A,R0
        SUBB    A,?V0 + 2
        MOV     A,R1
        SUBB    A,#0x0
        JC      ??Rs485_Send_5
//  184 	delay_us(20);
        ; Setup parameters for call to function delay_us
        MOV     R2,#0x14
        MOV     R3,#0x0
        LCALL   ??delay_us?relay
//  185 	RS485_RX_EN();		//开启485接收
        CLR     0x90.3
//  186 }
        MOV     R7,#0x4
        LJMP    ?BANKED_LEAVE_XDATA
        CFI EndBlock cfiBlock15
        REQUIRE _A_P1
        REQUIRE _A_IRCON2
        REQUIRE U1DBUF

        RSEG BANKED_CODE:CODE:NOROOT(0)
?Subroutine4:
        CFI Block cfiCond16 Using cfiCommon0
        CFI NoFunction
        CFI Conditional ??CrossCallReturnLabel_4
        CFI R6 load(1, XDATA, add(CFA_XSP16, literal(-12)))
        CFI VB load(1, XDATA, add(CFA_XSP16, literal(-11)))
        CFI V0 load(1, XDATA, add(CFA_XSP16, literal(-10)))
        CFI V1 load(1, XDATA, add(CFA_XSP16, literal(-9)))
        CFI V2 load(1, XDATA, add(CFA_XSP16, literal(-8)))
        CFI V3 load(1, XDATA, add(CFA_XSP16, literal(-7)))
        CFI R7 load(1, XDATA, add(CFA_XSP16, literal(-6)))
        CFI ?RET_LOW load(1, XDATA, add(CFA_XSP16, literal(-5)))
        CFI ?RET_HIGH load(1, XDATA, add(CFA_XSP16, literal(-4)))
        CFI ?BRET_EXT load(1, XDATA, add(CFA_XSP16, literal(-3)))
        CFI DPL0 load(1, XDATA, add(CFA_XSP16, literal(-2)))
        CFI DPH0 load(1, XDATA, add(CFA_XSP16, literal(-1)))
        CFI CFA_SP SP+-1
        CFI CFA_XSP16 add(XSP16, 12)
        CFI Block cfiCond17 Using cfiCommon0
        CFI (cfiCond17) NoFunction
        CFI (cfiCond17) Conditional ??CrossCallReturnLabel_5
        CFI (cfiCond17) R6 load(1, XDATA, add(CFA_XSP16, literal(-12)))
        CFI (cfiCond17) VB load(1, XDATA, add(CFA_XSP16, literal(-11)))
        CFI (cfiCond17) V0 load(1, XDATA, add(CFA_XSP16, literal(-10)))
        CFI (cfiCond17) V1 load(1, XDATA, add(CFA_XSP16, literal(-9)))
        CFI (cfiCond17) V2 load(1, XDATA, add(CFA_XSP16, literal(-8)))
        CFI (cfiCond17) V3 load(1, XDATA, add(CFA_XSP16, literal(-7)))
        CFI (cfiCond17) R7 load(1, XDATA, add(CFA_XSP16, literal(-6)))
        CFI (cfiCond17) ?RET_LOW load(1, XDATA, add(CFA_XSP16, literal(-5)))
        CFI (cfiCond17) ?RET_HIGH load(1, XDATA, add(CFA_XSP16, literal(-4)))
        CFI (cfiCond17) ?BRET_EXT load(1, XDATA, add(CFA_XSP16, literal(-3)))
        CFI (cfiCond17) DPL0 load(1, XDATA, add(CFA_XSP16, literal(-2)))
        CFI (cfiCond17) DPH0 load(1, XDATA, add(CFA_XSP16, literal(-1)))
        CFI (cfiCond17) CFA_SP SP+-1
        CFI (cfiCond17) CFA_XSP16 add(XSP16, 12)
        CFI Block cfiCond18 Using cfiCommon0
        CFI (cfiCond18) NoFunction
        CFI (cfiCond18) Conditional ??CrossCallReturnLabel_6
        CFI (cfiCond18) R6 load(1, XDATA, add(CFA_XSP16, literal(-12)))
        CFI (cfiCond18) VB load(1, XDATA, add(CFA_XSP16, literal(-11)))
        CFI (cfiCond18) V0 load(1, XDATA, add(CFA_XSP16, literal(-10)))
        CFI (cfiCond18) V1 load(1, XDATA, add(CFA_XSP16, literal(-9)))
        CFI (cfiCond18) V2 load(1, XDATA, add(CFA_XSP16, literal(-8)))
        CFI (cfiCond18) V3 load(1, XDATA, add(CFA_XSP16, literal(-7)))
        CFI (cfiCond18) R7 load(1, XDATA, add(CFA_XSP16, literal(-6)))
        CFI (cfiCond18) ?RET_LOW load(1, XDATA, add(CFA_XSP16, literal(-5)))
        CFI (cfiCond18) ?RET_HIGH load(1, XDATA, add(CFA_XSP16, literal(-4)))
        CFI (cfiCond18) ?BRET_EXT load(1, XDATA, add(CFA_XSP16, literal(-3)))
        CFI (cfiCond18) DPL0 load(1, XDATA, add(CFA_XSP16, literal(-2)))
        CFI (cfiCond18) DPH0 load(1, XDATA, add(CFA_XSP16, literal(-1)))
        CFI (cfiCond18) CFA_SP SP+-1
        CFI (cfiCond18) CFA_XSP16 add(XSP16, 12)
        CFI Block cfiCond19 Using cfiCommon0
        CFI (cfiCond19) NoFunction
        CFI (cfiCond19) Conditional ??CrossCallReturnLabel_7
        CFI (cfiCond19) R6 load(1, XDATA, add(CFA_XSP16, literal(-12)))
        CFI (cfiCond19) VB load(1, XDATA, add(CFA_XSP16, literal(-11)))
        CFI (cfiCond19) V0 load(1, XDATA, add(CFA_XSP16, literal(-10)))
        CFI (cfiCond19) V1 load(1, XDATA, add(CFA_XSP16, literal(-9)))
        CFI (cfiCond19) V2 load(1, XDATA, add(CFA_XSP16, literal(-8)))
        CFI (cfiCond19) V3 load(1, XDATA, add(CFA_XSP16, literal(-7)))
        CFI (cfiCond19) R7 load(1, XDATA, add(CFA_XSP16, literal(-6)))
        CFI (cfiCond19) ?RET_LOW load(1, XDATA, add(CFA_XSP16, literal(-5)))
        CFI (cfiCond19) ?RET_HIGH load(1, XDATA, add(CFA_XSP16, literal(-4)))
        CFI (cfiCond19) ?BRET_EXT load(1, XDATA, add(CFA_XSP16, literal(-3)))
        CFI (cfiCond19) DPL0 load(1, XDATA, add(CFA_XSP16, literal(-2)))
        CFI (cfiCond19) DPH0 load(1, XDATA, add(CFA_XSP16, literal(-1)))
        CFI (cfiCond19) CFA_SP SP+0
        CFI (cfiCond19) CFA_XSP16 add(XSP16, 12)
        CFI Block cfiPicker20 Using cfiCommon1
        CFI (cfiPicker20) NoFunction
        CFI (cfiPicker20) Picker
        MOV     A,#Send_Data & 0xff
        ADD     A,R0
        MOV     DPL,A
        MOV     A,#(Send_Data >> 8) & 0xff
        ADDC    A,R1
        MOV     DPH,A
        RET
        CFI EndBlock cfiCond16
        CFI EndBlock cfiCond17
        CFI EndBlock cfiCond18
        CFI EndBlock cfiCond19
        CFI EndBlock cfiPicker20

        RSEG BANKED_CODE:CODE:NOROOT(0)
?Subroutine3:
        CFI Block cfiCond21 Using cfiCommon0
        CFI NoFunction
        CFI Conditional ??CrossCallReturnLabel_2
        CFI R6 load(1, XDATA, add(CFA_XSP16, literal(-12)))
        CFI VB load(1, XDATA, add(CFA_XSP16, literal(-11)))
        CFI V0 load(1, XDATA, add(CFA_XSP16, literal(-10)))
        CFI V1 load(1, XDATA, add(CFA_XSP16, literal(-9)))
        CFI V2 load(1, XDATA, add(CFA_XSP16, literal(-8)))
        CFI V3 load(1, XDATA, add(CFA_XSP16, literal(-7)))
        CFI R7 load(1, XDATA, add(CFA_XSP16, literal(-6)))
        CFI ?RET_LOW load(1, XDATA, add(CFA_XSP16, literal(-5)))
        CFI ?RET_HIGH load(1, XDATA, add(CFA_XSP16, literal(-4)))
        CFI ?BRET_EXT load(1, XDATA, add(CFA_XSP16, literal(-3)))
        CFI DPL0 load(1, XDATA, add(CFA_XSP16, literal(-2)))
        CFI DPH0 load(1, XDATA, add(CFA_XSP16, literal(-1)))
        CFI CFA_SP SP+0
        CFI CFA_XSP16 add(XSP16, 12)
        CFI Block cfiCond22 Using cfiCommon0
        CFI (cfiCond22) NoFunction
        CFI (cfiCond22) Conditional ??CrossCallReturnLabel_3
        CFI (cfiCond22) R6 load(1, XDATA, add(CFA_XSP16, literal(-12)))
        CFI (cfiCond22) VB load(1, XDATA, add(CFA_XSP16, literal(-11)))
        CFI (cfiCond22) V0 load(1, XDATA, add(CFA_XSP16, literal(-10)))
        CFI (cfiCond22) V1 load(1, XDATA, add(CFA_XSP16, literal(-9)))
        CFI (cfiCond22) V2 load(1, XDATA, add(CFA_XSP16, literal(-8)))
        CFI (cfiCond22) V3 load(1, XDATA, add(CFA_XSP16, literal(-7)))
        CFI (cfiCond22) R7 load(1, XDATA, add(CFA_XSP16, literal(-6)))
        CFI (cfiCond22) ?RET_LOW load(1, XDATA, add(CFA_XSP16, literal(-5)))
        CFI (cfiCond22) ?RET_HIGH load(1, XDATA, add(CFA_XSP16, literal(-4)))
        CFI (cfiCond22) ?BRET_EXT load(1, XDATA, add(CFA_XSP16, literal(-3)))
        CFI (cfiCond22) DPL0 load(1, XDATA, add(CFA_XSP16, literal(-2)))
        CFI (cfiCond22) DPH0 load(1, XDATA, add(CFA_XSP16, literal(-1)))
        CFI (cfiCond22) CFA_SP SP+0
        CFI (cfiCond22) CFA_XSP16 add(XSP16, 12)
        CFI Block cfiPicker23 Using cfiCommon1
        CFI (cfiPicker23) NoFunction
        CFI (cfiPicker23) Picker
        MOVX    @DPTR,A
        LCALL   ?Subroutine9 & 0xFFFF
??CrossCallReturnLabel_18:
        RET
        CFI EndBlock cfiCond21
        CFI EndBlock cfiCond22
        CFI EndBlock cfiPicker23

        RSEG BANKED_CODE:CODE:NOROOT(0)
?Subroutine9:
        CFI Block cfiCond24 Using cfiCommon0
        CFI NoFunction
        CFI Conditional ??CrossCallReturnLabel_16
        CFI R6 load(1, XDATA, add(CFA_XSP16, literal(-12)))
        CFI VB load(1, XDATA, add(CFA_XSP16, literal(-11)))
        CFI V0 load(1, XDATA, add(CFA_XSP16, literal(-10)))
        CFI V1 load(1, XDATA, add(CFA_XSP16, literal(-9)))
        CFI V2 load(1, XDATA, add(CFA_XSP16, literal(-8)))
        CFI V3 load(1, XDATA, add(CFA_XSP16, literal(-7)))
        CFI R7 load(1, XDATA, add(CFA_XSP16, literal(-6)))
        CFI ?RET_LOW load(1, XDATA, add(CFA_XSP16, literal(-5)))
        CFI ?RET_HIGH load(1, XDATA, add(CFA_XSP16, literal(-4)))
        CFI ?BRET_EXT load(1, XDATA, add(CFA_XSP16, literal(-3)))
        CFI DPL0 load(1, XDATA, add(CFA_XSP16, literal(-2)))
        CFI DPH0 load(1, XDATA, add(CFA_XSP16, literal(-1)))
        CFI CFA_SP SP+0
        CFI CFA_XSP16 add(XSP16, 12)
        CFI Block cfiCond25 Using cfiCommon0
        CFI (cfiCond25) NoFunction
        CFI (cfiCond25) Conditional ??CrossCallReturnLabel_18, ??CrossCallReturnLabel_2
        CFI (cfiCond25) R6 load(1, XDATA, add(CFA_XSP16, literal(-12)))
        CFI (cfiCond25) VB load(1, XDATA, add(CFA_XSP16, literal(-11)))
        CFI (cfiCond25) V0 load(1, XDATA, add(CFA_XSP16, literal(-10)))
        CFI (cfiCond25) V1 load(1, XDATA, add(CFA_XSP16, literal(-9)))
        CFI (cfiCond25) V2 load(1, XDATA, add(CFA_XSP16, literal(-8)))
        CFI (cfiCond25) V3 load(1, XDATA, add(CFA_XSP16, literal(-7)))
        CFI (cfiCond25) R7 load(1, XDATA, add(CFA_XSP16, literal(-6)))
        CFI (cfiCond25) ?RET_LOW load(1, XDATA, add(CFA_XSP16, literal(-5)))
        CFI (cfiCond25) ?RET_HIGH load(1, XDATA, add(CFA_XSP16, literal(-4)))
        CFI (cfiCond25) ?BRET_EXT load(1, XDATA, add(CFA_XSP16, literal(-3)))
        CFI (cfiCond25) DPL0 load(1, XDATA, add(CFA_XSP16, literal(-2)))
        CFI (cfiCond25) DPH0 load(1, XDATA, add(CFA_XSP16, literal(-1)))
        CFI (cfiCond25) CFA_SP SP+0
        CFI (cfiCond25) CFA_XSP16 add(XSP16, 12)
        CFI Block cfiCond26 Using cfiCommon0
        CFI (cfiCond26) NoFunction
        CFI (cfiCond26) Conditional ??CrossCallReturnLabel_18, ??CrossCallReturnLabel_3
        CFI (cfiCond26) R6 load(1, XDATA, add(CFA_XSP16, literal(-12)))
        CFI (cfiCond26) VB load(1, XDATA, add(CFA_XSP16, literal(-11)))
        CFI (cfiCond26) V0 load(1, XDATA, add(CFA_XSP16, literal(-10)))
        CFI (cfiCond26) V1 load(1, XDATA, add(CFA_XSP16, literal(-9)))
        CFI (cfiCond26) V2 load(1, XDATA, add(CFA_XSP16, literal(-8)))
        CFI (cfiCond26) V3 load(1, XDATA, add(CFA_XSP16, literal(-7)))
        CFI (cfiCond26) R7 load(1, XDATA, add(CFA_XSP16, literal(-6)))
        CFI (cfiCond26) ?RET_LOW load(1, XDATA, add(CFA_XSP16, literal(-5)))
        CFI (cfiCond26) ?RET_HIGH load(1, XDATA, add(CFA_XSP16, literal(-4)))
        CFI (cfiCond26) ?BRET_EXT load(1, XDATA, add(CFA_XSP16, literal(-3)))
        CFI (cfiCond26) DPL0 load(1, XDATA, add(CFA_XSP16, literal(-2)))
        CFI (cfiCond26) DPH0 load(1, XDATA, add(CFA_XSP16, literal(-1)))
        CFI (cfiCond26) CFA_SP SP+0
        CFI (cfiCond26) CFA_XSP16 add(XSP16, 12)
        CFI Block cfiCond27 Using cfiCommon0
        CFI (cfiCond27) NoFunction
        CFI (cfiCond27) Conditional ??CrossCallReturnLabel_17
        CFI Block cfiPicker28 Using cfiCommon1
        CFI (cfiPicker28) NoFunction
        CFI (cfiPicker28) Picker
        MOV     A,R0
        ADD     A,#0x1
        INC     R0
        MOV     A,R1
        ADDC    A,#0x0
        MOV     R1,A
        RET
        CFI EndBlock cfiCond24
        CFI EndBlock cfiCond25
        CFI EndBlock cfiCond26
        CFI EndBlock cfiCond27
        CFI EndBlock cfiPicker28
//  187 //==========================================================
//  188 //	函数名称：	Rs485_Receive()
//  189 //
//  190 //	函数功能：	485接收
//  191 //
//  192 //	入口参数：	data		:485数据
//  193 //
//  194 //	返回参数：	无
//  195 //
//  196 //	说明：		
//  197 //==========================================================

        RSEG BANKED_CODE:CODE:NOROOT(0)
//  198 void Rs485_Receive(uint8_t data)
Rs485_Receive:
        CFI Block cfiBlock29 Using cfiCommon0
        CFI Function Rs485_Receive
        CODE
//  199 {	
        PUSH    DPL
        CFI DPL0 Frame(CFA_SP, 4)
        CFI CFA_SP SP+-4
        PUSH    DPH
        CFI DPH0 Frame(CFA_SP, 5)
        CFI CFA_SP SP+-5
        ; Saved register size: 2
        ; Auto size: 0
//  200 	static uint8_t End_Flag 		= 0;	//帧尾标志位
//  201 	static uint8_t Header_Flag 	= 0;	//帧头标志位
//  202 	static uint8_t Receive_Flag = 0;	//接收标志位
//  203 
//  204 /*
//  205 *
//  206 *				帧头接收
//  207 *
//  208 */
//  209 	/*帧头1 数据帧头中第一个字节*/
//  210 	if(data == 0xE1 && Header_Flag < 4)	Header_Flag = 1;
        MOV     A,#-0x1f
        XRL     A,R1
        JNZ     ??Rs485_Receive_0
        MOV     DPTR,#??Header_Flag
        MOVX    A,@DPTR
        CLR     C
        SUBB    A,#0x4
        JNC     ??Rs485_Receive_0
        MOV     A,#0x1
        SJMP    ??Rs485_Receive_1
//  211 
//  212 	/*帧头2 数据帧头中第二个字节*/
//  213 	else if(Header_Flag == 1 && data == 0xE2)	Header_Flag = 2;
??Rs485_Receive_0:
        MOV     DPTR,#??Header_Flag
        MOVX    A,@DPTR
        XRL     A,#0x1
        JNZ     ??Rs485_Receive_2
        MOV     A,#-0x1e
        XRL     A,R1
        JNZ     ??Rs485_Receive_3
        MOV     A,#0x2
        SJMP    ??Rs485_Receive_1
//  214 
//  215 	/*帧头3 数据帧头中第三个字节*/
//  216 	else if(Header_Flag == 2 && data == 0xE3)	Header_Flag = 3;
??Rs485_Receive_2:
        MOVX    A,@DPTR
        XRL     A,#0x2
        JNZ     ??Rs485_Receive_4
        MOV     A,#-0x1d
        XRL     A,R1
        JNZ     ??Rs485_Receive_3
        MOV     A,#0x3
        SJMP    ??Rs485_Receive_1
//  217 
//  218 	/*帧头4 数据帧头中第四个字节*/
//  219 	else if(Header_Flag == 3 && data == 0xE4)
??Rs485_Receive_4:
        MOVX    A,@DPTR
        XRL     A,#0x3
        JNZ     ??Rs485_Receive_3
        MOV     A,#-0x1c
        XRL     A,R1
        JNZ     ??Rs485_Receive_3
//  220 	{
//  221 		Receive_Data[0] = 0xE1;
        MOV     DPTR,#Receive_Data
        MOV     A,#-0x1f
        MOVX    @DPTR,A
//  222 		Receive_Data[1] = 0xE2;
        INC     DPTR
        INC     A
        MOVX    @DPTR,A
//  223 		Receive_Data[2] = 0xE3; //帧头接收完成，存入帧头数据
        INC     DPTR
        INC     A
        MOVX    @DPTR,A
//  224 		RS485_RX_STA = 3;			//存放数据数组下标清零
        MOV     DPTR,#RS485_RX_STA
        MOV     A,#0x3
        MOVX    @DPTR,A
        INC     DPTR
        CLR     A
        MOVX    @DPTR,A
//  225 		Receive_Flag = 1;				//开始接收数据标志位
        MOV     DPTR,#??Receive_Flag
        INC     A
        SJMP    ??Rs485_Receive_5
//  226 	}
//  227 
//  228 	else Header_Flag = 0;
??Rs485_Receive_3:
        CLR     A
??Rs485_Receive_1:
        MOVX    @DPTR,A
//  229 
//  230 /*
//  231 *
//  232 *				数据+帧尾接收
//  233 *
//  234 */
//  235 	if(Receive_Flag)	//帧头接收完成
        MOV     DPTR,#??Receive_Flag
        MOVX    A,@DPTR
        JZ      ??Rs485_Receive_6
//  236 	{
//  237 		if(RS485_RX_STA>(Receive_REC_LEN-1))
        MOV     DPTR,#RS485_RX_STA
        CLR     C
        MOVX    A,@DPTR
        SUBB    A,#0x64
        INC     DPTR
        MOVX    A,@DPTR
        SUBB    A,#0x0
        JC      ??Rs485_Receive_7
//  238 		{
//  239 			End_Flag = 0;
        MOV     DPTR,#??End_Flag
        CLR     A
        MOVX    @DPTR,A
//  240 			Receive_Flag = 0;
        MOV     DPTR,#??Receive_Flag
        MOVX    @DPTR,A
//  241 			RS485_RX_STA = 0;
        MOV     DPTR,#RS485_RX_STA
        MOVX    @DPTR,A
        INC     DPTR
??Rs485_Receive_5:
        MOVX    @DPTR,A
//  242 		}
//  243 
//  244 		Receive_Data[RS485_RX_STA++] = data;	//数据接收
??Rs485_Receive_7:
        MOV     DPTR,#RS485_RX_STA
        MOVX    A,@DPTR
        ADD     A,#Receive_Data & 0xff
        MOV     R2,A
        INC     DPTR
        MOVX    A,@DPTR
        ADDC    A,#(Receive_Data >> 8) & 0xff
        MOV     R3,A
        MOV     DPL,R2
        MOV     DPH,R3
        MOV     A,R1
        MOVX    @DPTR,A
        MOV     DPTR,#RS485_RX_STA
        LCALL   ?Subroutine6 & 0xFFFF
??CrossCallReturnLabel_10:
        MOVX    @DPTR,A
//  245 
//  246 		/*帧尾1 数据帧尾中第一个字节*/
//  247 		if(data == 0xEA)	End_Flag = 1;
        MOV     A,#-0x16
        XRL     A,R1
        MOV     DPTR,#??End_Flag
        JNZ     ??Rs485_Receive_8
        MOV     A,#0x1
        SJMP    ??Rs485_Receive_9
//  248 
//  249 		/*帧尾2  数据帧尾中第二个字节*/
//  250 		else if(End_Flag == 1 && data == 0xEB)	End_Flag = 2;
??Rs485_Receive_8:
        MOVX    A,@DPTR
        XRL     A,#0x1
        JNZ     ??Rs485_Receive_10
        MOV     A,#-0x15
        XRL     A,R1
        JNZ     ??Rs485_Receive_11
        MOV     A,#0x2
        SJMP    ??Rs485_Receive_9
//  251 
//  252 		/*帧尾3  数据帧尾中第三个字节*/
//  253 		else if(End_Flag == 2 && data == 0xEC)	End_Flag = 3;
??Rs485_Receive_10:
        MOVX    A,@DPTR
        XRL     A,#0x2
        JNZ     ??Rs485_Receive_12
        MOV     A,#-0x14
        XRL     A,R1
        JNZ     ??Rs485_Receive_11
        MOV     A,#0x3
        SJMP    ??Rs485_Receive_9
//  254 
//  255 		/*帧尾4  数据帧尾中第四个字节*/
//  256 		else if(End_Flag == 3 && data == 0xED)
??Rs485_Receive_12:
        MOVX    A,@DPTR
        XRL     A,#0x3
        JNZ     ??Rs485_Receive_11
        MOV     A,#-0x13
        XRL     A,R1
        JNZ     ??Rs485_Receive_11
//  257 		{
//  258 			RS485_RX_STA = Receiving_Completion;		//接收完成
        MOV     DPTR,#RS485_RX_STA
        CLR     A
        MOVX    @DPTR,A
        INC     DPTR
        MOV     A,#-0x80
        MOVX    @DPTR,A
//  259 			Receive_Flag = 0;
        MOV     DPTR,#??Receive_Flag
        CLR     A
        MOVX    @DPTR,A
//  260 			End_Flag = 0;
        MOV     DPTR,#??End_Flag
        SJMP    ??Rs485_Receive_9
//  261 		}
//  262 
//  263 		/*接收错误 重新接收*/
//  264 		else End_Flag = 0;
??Rs485_Receive_11:
        CLR     A
??Rs485_Receive_9:
        MOVX    @DPTR,A
        CFI EndBlock cfiBlock29
//  265 	}
//  266 }
??Rs485_Receive_6:
        REQUIRE ?Subroutine0
        ; // Fall through to label ?Subroutine0

        RSEG BANKED_CODE:CODE:NOROOT(0)
?Subroutine0:
        CFI Block cfiBlock30 Using cfiCommon0
        CFI NoFunction
        CFI CFA_SP SP+-5
        CFI DPL0 Frame(CFA_SP, 4)
        CFI DPH0 Frame(CFA_SP, 5)
        POP     DPH
        CFI CFA_SP SP+-4
        CFI DPH0 SameValue
        POP     DPL
        CFI CFA_SP SP+-3
        CFI DPL0 SameValue
        LJMP    ?BRET
        CFI EndBlock cfiBlock30

        RSEG XDATA_Z:XDATA:NOROOT(0)
        DATA8
??End_Flag:
        DS 1
        REQUIRE __INIT_XDATA_Z

        RSEG XDATA_Z:XDATA:NOROOT(0)
        DATA8
??Header_Flag:
        DS 1
        REQUIRE __INIT_XDATA_Z

        RSEG XDATA_Z:XDATA:NOROOT(0)
        DATA8
??Receive_Flag:
        DS 1
        REQUIRE __INIT_XDATA_Z
//  267 
//  268 //==========================================================
//  269 //	函数名称：	DataHandling_485()
//  270 //
//  271 //	函数功能：	485数据处理函数
//  272 //
//  273 //	入口参数：	DesAddr	:目的地址
//  274 //              
//  275 //	返回参数：	0:数据接收完成
//  276 //							1:数据接收错误
//  277 //
//  278 //	说明：		
//  279 //==========================================================

        RSEG BANKED_CODE:CODE:NOROOT(0)
//  280 uint8_t DataHandling_485(uint16_t DesAddr)
DataHandling_485:
        CFI Block cfiBlock31 Using cfiCommon0
        CFI Function DataHandling_485
        CODE
//  281 {
        FUNCALL DataHandling_485, CRC_16
        LOCFRAME ISTACK, 2, STACK
        LOCFRAME PSTACK, 0, STACK
        LOCFRAME XSTACK, 0, STACK
        LOCFRAME IOVERLAY, 0, STATIC
        LOCFRAME DOVERLAY, 0, STATIC
        ARGFRAME ISTACK, 2, STACK
        ARGFRAME PSTACK, 0, STACK
        ARGFRAME XSTACK, 0, STACK
        ARGFRAME IOVERLAY, 0, STATIC
        ARGFRAME DOVERLAY, 0, STATIC
        PUSH    DPL
        CFI DPL0 Frame(CFA_SP, 4)
        CFI CFA_SP SP+-4
        PUSH    DPH
        CFI DPH0 Frame(CFA_SP, 5)
        CFI CFA_SP SP+-5
        ; Saved register size: 2
        ; Auto size: 0
//  282 	static uint16_t i = 0;
//  283 	static uint8_t Return_Value = 0;
//  284 	static uint16_t Crc16Check = 0;			//存放CRC校验数据
//  285 
//  286   	if(RS485_RX_STA == Receiving_Completion)
        MOV     DPTR,#RS485_RX_STA
        MOVX    A,@DPTR
        JNZ     ??DataHandling_485_0
        INC     DPTR
        MOVX    A,@DPTR
        XRL     A,#0x80
??DataHandling_485_0:
        MOV     DPTR,#??Return_Value
        JZ      $+5
        LJMP    ??DataHandling_485_1 & 0xFFFF
//  287 	{
//  288 			Return_Value = 0;
        CLR     A
        MOVX    @DPTR,A
//  289 			if((Receive_Data[7]*256+Receive_Data[8]) == DesAddr)	//对比源地址是想要的数据，全部接收下来
        MOV     DPTR,#Receive_Data + 7
        MOVX    A,@DPTR
        MOV     R1,A
        INC     DPTR
        MOVX    A,@DPTR
        MOV     R0,A
        MOV     A,R2
        XRL     A,R0
        JNZ     ??DataHandling_485_2
        MOV     A,R3
        XRL     A,R1
??DataHandling_485_2:
        JZ      $+5
        LJMP    ??DataHandling_485_3 & 0xFFFF
//  290 			{
//  291 				/*包序号*/
//  292 				Rx_Stack.Pack_Num = Receive_Data[4];
        MOV     DPTR,#Receive_Data + 4
        MOVX    A,@DPTR
        MOV     DPTR,#Rx_Stack + 4
        MOVX    @DPTR,A
//  293 
//  294 				/*源地址*/
//  295 				Rx_Stack.Src_Adr = Receive_Data[5]*256+Receive_Data[6];
        MOV     DPTR,#Receive_Data + 5
        MOVX    A,@DPTR
        MOV     R3,A
        INC     DPTR
        MOVX    A,@DPTR
        MOV     DPTR,#Rx_Stack + 5
        MOVX    @DPTR,A
        INC     DPTR
        MOV     A,R3
        MOVX    @DPTR,A
//  296 
//  297 				/*目的地址*/
//  298 				Rx_Stack.Dst_Adr = Receive_Data[7]*256+Receive_Data[8];
        INC     DPTR
        MOV     A,R0
        MOVX    @DPTR,A
        INC     DPTR
        MOV     A,R1
        MOVX    @DPTR,A
//  299 
//  300 				/*命令码*/
//  301 				Rx_Stack.Command = Receive_Data[9]*256+Receive_Data[10];
        MOV     DPTR,#Receive_Data + 9
        MOVX    A,@DPTR
        MOV     R1,A
        INC     DPTR
        MOVX    A,@DPTR
        MOV     DPTR,#Rx_Stack + 9
        MOVX    @DPTR,A
        INC     DPTR
        MOV     A,R1
        MOVX    @DPTR,A
//  302 
//  303 				/*数据长度*/
//  304 				Rx_Stack.Data_Len = Receive_Data[11];
        MOV     DPTR,#Receive_Data + 11
        MOVX    A,@DPTR
        MOV     DPTR,#Rx_Stack + 11
        MOVX    @DPTR,A
//  305 
//  306 				/*数据*/
//  307 				for(i=12;i<(Rx_Stack.Data_Len+12);i++)
        MOV     DPTR,#??i
        MOV     A,#0xc
        MOVX    @DPTR,A
        INC     DPTR
        CLR     A
        SJMP    ??CrossCallReturnLabel_11
//  308 				{
//  309 					Rx_Stack.Data[(i-12)] = Receive_Data[i];
??DataHandling_485_4:
        MOV     DPTR,#??i
        MOVX    A,@DPTR
        ADD     A,#Receive_Data & 0xff
        MOV     R0,A
        INC     DPTR
        MOVX    A,@DPTR
        ADDC    A,#(Receive_Data >> 8) & 0xff
        MOV     R1,A
        MOV     DPL,R0
        MOV     DPH,R1
        MOVX    A,@DPTR
        PUSH    A
        CFI CFA_SP SP+-6
        MOV     DPTR,#??i
        MOVX    A,@DPTR
        ADD     A,#Rx_Stack & 0xff
        MOV     R0,A
        INC     DPTR
        MOVX    A,@DPTR
        ADDC    A,#(Rx_Stack >> 8) & 0xff
        MOV     R1,A
        MOV     DPL,R0
        MOV     DPH,R1
        POP     A
        CFI CFA_SP SP+-5
        MOVX    @DPTR,A
//  310 				}
        MOV     DPTR,#??i
        LCALL   ?Subroutine6 & 0xFFFF
??CrossCallReturnLabel_11:
        MOVX    @DPTR,A
        MOV     DPTR,#Rx_Stack + 11
        MOVX    A,@DPTR
        MOV     R0,A
        ADD     A,#0xc
        MOV     R4,A
        CLR     A
        ADDC    A,#0x0
        MOV     R5,A
        MOV     DPTR,#??i
        MOVX    A,@DPTR
        SUBB    A,R4
        INC     DPTR
        MOVX    A,@DPTR
        SUBB    A,R5
        JC      ??DataHandling_485_4
//  311 
//  312 				/*CRC校验码高八位*/
//  313 				Rx_Stack.CrcCheck = Receive_Data[(12+Rx_Stack.Data_Len)]*256;
        MOV     A,#Receive_Data & 0xff
        ADD     A,R0
        MOV     R0,A
        MOV     A,#(Receive_Data >> 8) & 0xff
        LCALL   ?Subroutine5 & 0xFFFF
??CrossCallReturnLabel_9:
        MOVX    A,@DPTR
        MOV     R3,A
        MOV     DPTR,#Rx_Stack + 112
        CLR     A
        MOVX    @DPTR,A
        INC     DPTR
        MOV     A,R3
        MOVX    @DPTR,A
//  314 
//  315 				/*CRC校验码低八位*/
//  316 				Rx_Stack.CrcCheck += Receive_Data[(13+Rx_Stack.Data_Len)];
        LCALL   ?Subroutine7 & 0xFFFF
??CrossCallReturnLabel_13:
        MOVX    A,@DPTR
        MOV     DPTR,#Rx_Stack + 112
        MOVX    @DPTR,A
//  317 				
//  318 				Crc16Check = CRC_16(Receive_Data,(12+Rx_Stack.Data_Len));
        ; Setup parameters for call to function CRC_16
        MOV     R2,#Receive_Data & 0xff
        MOV     R3,#(Receive_Data >> 8) & 0xff
        LCALL   ??CRC_16?relay
        MOV     DPTR,#??Crc16Check
        MOV     A,R2
        MOVX    @DPTR,A
        INC     DPTR
        MOV     A,R3
        MOVX    @DPTR,A
//  319 				if(Crc16Check != Rx_Stack.CrcCheck)
        MOV     DPTR,#??Crc16Check
        MOVX    A,@DPTR
        MOV     R0,A
        INC     DPTR
        MOVX    A,@DPTR
        MOV     R1,A
        MOV     DPTR,#Rx_Stack + 112
        MOVX    A,@DPTR
        XRL     A,R0
        JNZ     ??DataHandling_485_5
        INC     DPTR
        MOVX    A,@DPTR
        XRL     A,R1
??DataHandling_485_5:
        JZ      ??DataHandling_485_6
//  320 				{
//  321 					Return_Value = 1;
??DataHandling_485_3:
        MOV     DPTR,#??Return_Value
        MOV     A,#0x1
        MOVX    @DPTR,A
//  322 				}
//  323 			}
//  324 			else
//  325             {
//  326                 Return_Value = 1;
//  327 			}						
//  328 			RS485_RX_STA = 0;
??DataHandling_485_6:
        MOV     DPTR,#RS485_RX_STA
        CLR     A
        MOVX    @DPTR,A
        INC     DPTR
        SJMP    ??DataHandling_485_7
//  329 	}
//  330 	else
//  331     {
//  332         Return_Value = 1;
??DataHandling_485_1:
        MOV     A,#0x1
??DataHandling_485_7:
        MOVX    @DPTR,A
//  333     }
//  334 	return Return_Value;	//返回接收情况
        MOV     DPTR,#??Return_Value
        MOVX    A,@DPTR
        MOV     R1,A
        LJMP    ?Subroutine0 & 0xFFFF
        CFI EndBlock cfiBlock31
//  335 }

        RSEG BANKED_CODE:CODE:NOROOT(0)
?Subroutine7:
        CFI Block cfiCond32 Using cfiCommon0
        CFI NoFunction
        CFI Conditional ??CrossCallReturnLabel_12
        CFI R6 load(1, XDATA, add(CFA_XSP16, literal(-12)))
        CFI VB load(1, XDATA, add(CFA_XSP16, literal(-11)))
        CFI V0 load(1, XDATA, add(CFA_XSP16, literal(-10)))
        CFI V1 load(1, XDATA, add(CFA_XSP16, literal(-9)))
        CFI V2 load(1, XDATA, add(CFA_XSP16, literal(-8)))
        CFI V3 load(1, XDATA, add(CFA_XSP16, literal(-7)))
        CFI R7 load(1, XDATA, add(CFA_XSP16, literal(-6)))
        CFI ?RET_LOW load(1, XDATA, add(CFA_XSP16, literal(-5)))
        CFI ?RET_HIGH load(1, XDATA, add(CFA_XSP16, literal(-4)))
        CFI ?BRET_EXT load(1, XDATA, add(CFA_XSP16, literal(-3)))
        CFI DPL0 load(1, XDATA, add(CFA_XSP16, literal(-2)))
        CFI DPH0 load(1, XDATA, add(CFA_XSP16, literal(-1)))
        CFI CFA_SP SP+-1
        CFI CFA_XSP16 add(XSP16, 12)
        CFI Block cfiCond33 Using cfiCommon0
        CFI (cfiCond33) NoFunction
        CFI (cfiCond33) Conditional ??CrossCallReturnLabel_13
        CFI (cfiCond33) DPL0 Frame(CFA_SP, 4)
        CFI (cfiCond33) DPH0 Frame(CFA_SP, 5)
        CFI (cfiCond33) CFA_SP SP+-5
        CFI Block cfiPicker34 Using cfiCommon1
        CFI (cfiPicker34) NoFunction
        CFI (cfiPicker34) Picker
        MOV     A,R0
        ADD     A,#0xd
        MOV     DPL,A
        MOV     A,R1
        ADDC    A,#0x0
        MOV     DPH,A
        RET
        CFI EndBlock cfiCond32
        CFI EndBlock cfiCond33
        CFI EndBlock cfiPicker34

        RSEG BANKED_CODE:CODE:NOROOT(0)
?Subroutine6:
        CFI Block cfiCond35 Using cfiCommon0
        CFI NoFunction
        CFI Conditional ??CrossCallReturnLabel_10
        CFI DPL0 Frame(CFA_SP, 4)
        CFI DPH0 Frame(CFA_SP, 5)
        CFI CFA_SP SP+-5
        CFI Block cfiCond36 Using cfiCommon0
        CFI (cfiCond36) NoFunction
        CFI (cfiCond36) Conditional ??CrossCallReturnLabel_11
        CFI (cfiCond36) DPL0 Frame(CFA_SP, 4)
        CFI (cfiCond36) DPH0 Frame(CFA_SP, 5)
        CFI (cfiCond36) CFA_SP SP+-5
        CFI Block cfiPicker37 Using cfiCommon1
        CFI (cfiPicker37) NoFunction
        CFI (cfiPicker37) Picker
        MOVX    A,@DPTR
        ADD     A,#0x1
        MOVX    @DPTR,A
        INC     DPTR
        MOVX    A,@DPTR
        ADDC    A,#0x0
        RET
        CFI EndBlock cfiCond35
        CFI EndBlock cfiCond36
        CFI EndBlock cfiPicker37

        RSEG BANKED_CODE:CODE:NOROOT(0)
?Subroutine5:
        CFI Block cfiCond38 Using cfiCommon0
        CFI NoFunction
        CFI Conditional ??CrossCallReturnLabel_8
        CFI R6 load(1, XDATA, add(CFA_XSP16, literal(-12)))
        CFI VB load(1, XDATA, add(CFA_XSP16, literal(-11)))
        CFI V0 load(1, XDATA, add(CFA_XSP16, literal(-10)))
        CFI V1 load(1, XDATA, add(CFA_XSP16, literal(-9)))
        CFI V2 load(1, XDATA, add(CFA_XSP16, literal(-8)))
        CFI V3 load(1, XDATA, add(CFA_XSP16, literal(-7)))
        CFI R7 load(1, XDATA, add(CFA_XSP16, literal(-6)))
        CFI ?RET_LOW load(1, XDATA, add(CFA_XSP16, literal(-5)))
        CFI ?RET_HIGH load(1, XDATA, add(CFA_XSP16, literal(-4)))
        CFI ?BRET_EXT load(1, XDATA, add(CFA_XSP16, literal(-3)))
        CFI DPL0 load(1, XDATA, add(CFA_XSP16, literal(-2)))
        CFI DPH0 load(1, XDATA, add(CFA_XSP16, literal(-1)))
        CFI CFA_SP SP+0
        CFI CFA_XSP16 add(XSP16, 12)
        CFI Block cfiCond39 Using cfiCommon0
        CFI (cfiCond39) NoFunction
        CFI (cfiCond39) Conditional ??CrossCallReturnLabel_9
        CFI (cfiCond39) DPL0 Frame(CFA_SP, 4)
        CFI (cfiCond39) DPH0 Frame(CFA_SP, 5)
        CFI (cfiCond39) CFA_SP SP+-5
        CFI Block cfiPicker40 Using cfiCommon1
        CFI (cfiPicker40) NoFunction
        CFI (cfiPicker40) Picker
        ADDC    A,#0x0
        MOV     R1,A
        MOV     A,R0
        ADD     A,#0xc
        MOV     DPL,A
        MOV     A,R1
        ADDC    A,#0x0
        MOV     DPH,A
        RET
        CFI EndBlock cfiCond38
        CFI EndBlock cfiCond39
        CFI EndBlock cfiPicker40

        RSEG XDATA_Z:XDATA:NOROOT(0)
        DATA16
??i:
        DS 2
        REQUIRE __INIT_XDATA_Z

        RSEG XDATA_Z:XDATA:NOROOT(0)
        DATA8
??Return_Value:
        DS 1
        REQUIRE __INIT_XDATA_Z

        RSEG XDATA_Z:XDATA:NOROOT(0)
        DATA16
??Crc16Check:
        DS 2
        REQUIRE __INIT_XDATA_Z
//  336 //==========================================================
//  337 //	函数名称：	void Rs485_ClearReceiveBuffer(void)
//  338 //
//  339 //	函数功能：	清除接收缓冲
//  340 //
//  341 //	入口参数：	无
//  342 //							
//  343 //              
//  344 //	返回参数：	无
//  345 //
//  346 //	说明：		
//  347 //==========================================================

        RSEG BANKED_CODE:CODE:NOROOT(0)
//  348 void Rs485_ClearReceiveBuffer(void)
Rs485_ClearReceiveBuffer:
        CFI Block cfiBlock41 Using cfiCommon0
        CFI Function Rs485_ClearReceiveBuffer
        CODE
//  349 {
        FUNCALL Rs485_ClearReceiveBuffer, memset
        LOCFRAME ISTACK, 0, STACK
        LOCFRAME PSTACK, 0, STACK
        LOCFRAME XSTACK, 12, STACK
        LOCFRAME IOVERLAY, 0, STATIC
        LOCFRAME DOVERLAY, 0, STATIC
        ARGFRAME ISTACK, 0, STACK
        ARGFRAME PSTACK, 0, STACK
        ARGFRAME XSTACK, 12, STACK
        ARGFRAME IOVERLAY, 0, STATIC
        ARGFRAME DOVERLAY, 0, STATIC
        MOV     A,#-0xa
        LCALL   ?BANKED_ENTER_XDATA
        CFI DPH0 load(1, XDATA, add(CFA_XSP16, literal(-1)))
        CFI DPL0 load(1, XDATA, add(CFA_XSP16, literal(-2)))
        CFI ?BRET_EXT load(1, XDATA, add(CFA_XSP16, literal(-3)))
        CFI ?RET_HIGH load(1, XDATA, add(CFA_XSP16, literal(-4)))
        CFI ?RET_LOW load(1, XDATA, add(CFA_XSP16, literal(-5)))
        CFI R7 load(1, XDATA, add(CFA_XSP16, literal(-6)))
        CFI V1 load(1, XDATA, add(CFA_XSP16, literal(-7)))
        CFI V0 load(1, XDATA, add(CFA_XSP16, literal(-8)))
        CFI VB load(1, XDATA, add(CFA_XSP16, literal(-9)))
        CFI R6 load(1, XDATA, add(CFA_XSP16, literal(-10)))
        CFI CFA_SP SP+0
        CFI CFA_XSP16 add(XSP16, 10)
        ; Saved register size: 10
        ; Auto size: 0
//  350     RS485_RX_STA = 0;
        MOV     DPTR,#RS485_RX_STA
        CLR     A
        LCALL   ?Subroutine8 & 0xFFFF
//  351     memset(Receive_Data,0,Receive_REC_LEN);//清空接收数组
??CrossCallReturnLabel_15:
        LCALL   ?PUSH_XSTACK_I_TWO
        CFI CFA_XSP16 add(XSP16, 12)
        MOV     R4,#0x0
        MOV     R5,#0x0
        MOV     R2,#Receive_Data & 0xff
        MOV     R3,#(Receive_Data >> 8) & 0xff
        LCALL   ??memset?relay
        MOV     A,#0x2
        LCALL   ?DEALLOC_XSTACK8
        CFI CFA_XSP16 add(XSP16, 10)
//  352 }
        LJMP    ??Subroutine10_0 & 0xFFFF
        CFI EndBlock cfiBlock41
//  353 //==========================================================
//  354 //	函数名称：	calcByte()
//  355 //
//  356 //	函数功能：	CRC_16字节计算函数
//  357 //
//  358 //	入口参数：	crc:CRC校验码
//  359 //							b:
//  360 //              
//  361 //	返回参数：	无
//  362 //
//  363 //	说明：		
//  364 //==========================================================

        RSEG BANKED_CODE:CODE:NOROOT(0)
//  365 uint16_t calcByte(uint16_t crc, uint8_t b)
calcByte:
        CFI Block cfiBlock42 Using cfiCommon0
        CFI Function calcByte
        CODE
//  366 {
        ; Saved register size: 0
        ; Auto size: 0
//  367 		uint16_t i = 0;			//清空数组时For循环使用	
//  368 
//  369     crc = crc ^ (int)b << 8;
        MOV     A,R1
        XRL     A,R3
        MOV     R3,A
//  370     for (i = 0; i < 8; i++)
        MOV     R0,#0x8
//  371     {
//  372         if ((crc & 0x8000) == 0x8000)
??calcByte_0:
        MOV     A,R2
        MOV     R4,A
        MOV     A,R3
        MOV     R5,A
        MOV     A,R4
        CLR     C
        RLC     A
        MOV     R4,A
        MOV     A,R5
        RLC     A
        MOV     R5,A
        MOV     A,R3
        ANL     A,#0x80
        JZ      ??calcByte_1
//  373         {
//  374             crc = crc << 1 ^ 0x1021;
        MOV     A,R4
        XRL     A,#0x21
        MOV     R2,A
        MOV     A,R5
        XRL     A,#0x10
        SJMP    ??calcByte_2
//  375         }
//  376         else
//  377         {
//  378             crc = crc << 1;
??calcByte_1:
        MOV     A,R4
        MOV     R2,A
        MOV     A,R5
??calcByte_2:
        MOV     R3,A
//  379         }
//  380     }
        DEC     R0
        MOV     A,R0
        JNZ     ??calcByte_0
//  381     return crc & 0xffff;
        LJMP    ?BRET
        CFI EndBlock cfiBlock42
//  382 }
//  383 
//  384 //==========================================================
//  385 //	函数名称：	CRC_16()
//  386 //
//  387 //	函数功能：	CRC_16计算函数
//  388 //
//  389 //	入口参数：	*p:	需要校验的数据
//  390 //							length: 校验数据长度
//  391 //              
//  392 //	返回参数：	wCRC16:16位CRC校验码
//  393 //
//  394 //	说明：			
//  395 //==========================================================

        RSEG BANKED_CODE:CODE:NOROOT(0)
//  396 uint16_t CRC_16(void *p, int length)
CRC_16:
        CFI Block cfiBlock43 Using cfiCommon0
        CFI Function CRC_16
        CODE
//  397 {
        FUNCALL CRC_16, calcByte
        LOCFRAME ISTACK, 0, STACK
        LOCFRAME PSTACK, 0, STACK
        LOCFRAME XSTACK, 14, STACK
        LOCFRAME IOVERLAY, 0, STATIC
        LOCFRAME DOVERLAY, 0, STATIC
        ARGFRAME ISTACK, 0, STACK
        ARGFRAME PSTACK, 0, STACK
        ARGFRAME XSTACK, 14, STACK
        ARGFRAME IOVERLAY, 0, STATIC
        ARGFRAME DOVERLAY, 0, STATIC
        MOV     A,#-0xe
        LCALL   ?BANKED_ENTER_XDATA
        CFI DPH0 load(1, XDATA, add(CFA_XSP16, literal(-1)))
        CFI DPL0 load(1, XDATA, add(CFA_XSP16, literal(-2)))
        CFI ?BRET_EXT load(1, XDATA, add(CFA_XSP16, literal(-3)))
        CFI ?RET_HIGH load(1, XDATA, add(CFA_XSP16, literal(-4)))
        CFI ?RET_LOW load(1, XDATA, add(CFA_XSP16, literal(-5)))
        CFI R7 load(1, XDATA, add(CFA_XSP16, literal(-6)))
        CFI V5 load(1, XDATA, add(CFA_XSP16, literal(-7)))
        CFI V4 load(1, XDATA, add(CFA_XSP16, literal(-8)))
        CFI V3 load(1, XDATA, add(CFA_XSP16, literal(-9)))
        CFI V2 load(1, XDATA, add(CFA_XSP16, literal(-10)))
        CFI V1 load(1, XDATA, add(CFA_XSP16, literal(-11)))
        CFI V0 load(1, XDATA, add(CFA_XSP16, literal(-12)))
        CFI VB load(1, XDATA, add(CFA_XSP16, literal(-13)))
        CFI R6 load(1, XDATA, add(CFA_XSP16, literal(-14)))
        CFI CFA_SP SP+0
        CFI CFA_XSP16 add(XSP16, 14)
        ; Saved register size: 14
        ; Auto size: 0
        MOV     A,R2
        MOV     R6,A
        MOV     A,R3
        MOV     R7,A
        MOV     ?V0 + 0,R4
        MOV     ?V0 + 1,R5
//  398 		short wCRC16=0;
        MOV     R2,#0x0
        MOV     R3,#0x0
//  399     uint8_t *pBuffer;
//  400 		uint16_t i = 0;			//清空数组时For循环使用	
//  401 
//  402     if (( p==0 )||( length==0 ))
        MOV     A,R6
        ORL     A,R7
        JZ      ??CRC_16_0
        MOV     A,R4
        ORL     A,?V0 + 1
        JNZ     ??CRC_16_1
//  403     {
//  404         return 0xFFFF;
??CRC_16_0:
        DEC     R2
        DEC     R3
        SJMP    ??CRC_16_2
//  405     }
//  406 
//  407     pBuffer=(uint8_t *)p;
//  408     for ( i = 0; i < length; i++)
??CRC_16_1:
        MOV     ?V0 + 2,R2
        MOV     ?V0 + 3,R2
        SJMP    ??CRC_16_3
//  409     {
//  410         wCRC16 = calcByte(wCRC16, pBuffer[i]);
??CRC_16_4:
        ; Setup parameters for call to function calcByte
        MOV     A,R6
        ADD     A,?V0 + 2
        MOV     DPL,A
        MOV     A,R7
        ADDC    A,?V0 + 3
        MOV     DPH,A
        MOVX    A,@DPTR
        MOV     R1,A
        LCALL   ??calcByte?relay
//  411     }
        MOV     A,?V0 + 2
        ADD     A,#0x1
        MOV     ?V0 + 2,A
        MOV     A,?V0 + 3
        ADDC    A,#0x0
        MOV     ?V0 + 3,A
??CRC_16_3:
        CLR     C
        MOV     A,?V0 + 2
        SUBB    A,?V0 + 0
        MOV     A,?V0 + 3
        SUBB    A,?V0 + 1
        JC      ??CRC_16_4
//  412 
//  413     return wCRC16;
??CRC_16_2:
        MOV     R7,#0x6
        LJMP    ?BANKED_LEAVE_XDATA
        CFI EndBlock cfiBlock43
//  414 }
//  415 
//  416 //==========================================================
//  417 //	函数名称：	Rs485_delay_ms()
//  418 //
//  419 //	函数功能：	毫秒延时函数
//  420 //
//  421 //	入口参数：	无
//  422 //
//  423 //	返回参数：	无
//  424 //
//  425 //	说明：		
//  426 //==========================================================

        RSEG BANKED_CODE:CODE:NOROOT(0)
//  427 void Rs485_delay_ms(unsigned int nms)
Rs485_delay_ms:
        CFI Block cfiBlock44 Using cfiCommon0
        CFI Function Rs485_delay_ms
        CODE
//  428 {		
        ; Saved register size: 0
        ; Auto size: 0
//  429 	unsigned int i = 0,j = 0;
//  430 	
//  431 	for(i = 0;i<nms;i++)
        MOV     R0,#0x0
        MOV     R1,#0x0
        SJMP    ??CrossCallReturnLabel_17
//  432 	{
//  433 		for(j = 0;j<9600;j++)
??Rs485_delay_ms_0:
        LCALL   ?Subroutine9 & 0xFFFF
??CrossCallReturnLabel_17:
        CLR     C
        MOV     A,R0
        SUBB    A,R2
        MOV     A,R1
        SUBB    A,R3
        JC      ??Rs485_delay_ms_0
//  434 		{;}
//  435 	}
//  436 }
        LJMP    ?BRET
        CFI EndBlock cfiBlock44

        RSEG XDATA_ROM_C:CONST:REORDER:NOROOT(0)
        DATA32
__Constant_e1e2e3e4:
        DD 3789743076

        RSEG XDATA_ROM_C:CONST:REORDER:NOROOT(0)
        DATA32
__Constant_eaebeced:
        DD 3941330157

        RSEG BANK_RELAYS:CODE:REORDER:NOROOT(0)
??UART2RS485_Init?relay:
        LCALL   ?BDISPATCH
        DATA
        DC24    UART2RS485_Init

        RSEG BANK_RELAYS:CODE:REORDER:NOROOT(0)
??RS485Bus_Send?relay:
        LCALL   ?BDISPATCH
        DATA
        DC24    RS485Bus_Send

        RSEG BANK_RELAYS:CODE:REORDER:NOROOT(0)
??Rs485_Init?relay:
        LCALL   ?BDISPATCH
        DATA
        DC24    Rs485_Init

        RSEG BANK_RELAYS:CODE:REORDER:NOROOT(0)
??Tx_Stack_Init?relay:
        LCALL   ?BDISPATCH
        DATA
        DC24    Tx_Stack_Init

        RSEG BANK_RELAYS:CODE:REORDER:NOROOT(0)
??Rx_Stack_Init?relay:
        LCALL   ?BDISPATCH
        DATA
        DC24    Rx_Stack_Init

        RSEG BANK_RELAYS:CODE:REORDER:NOROOT(0)
??delay_us?relay:
        LCALL   ?BDISPATCH
        DATA
        DC24    delay_us

        RSEG BANK_RELAYS:CODE:REORDER:NOROOT(0)
??Rs485_Send?relay:
        LCALL   ?BDISPATCH
        DATA
        DC24    Rs485_Send

        RSEG BANK_RELAYS:CODE:REORDER:NOROOT(0)
??Rs485_Receive?relay:
        LCALL   ?BDISPATCH
        DATA
        DC24    Rs485_Receive

        RSEG BANK_RELAYS:CODE:REORDER:NOROOT(0)
??DataHandling_485?relay:
        LCALL   ?BDISPATCH
        DATA
        DC24    DataHandling_485

        RSEG BANK_RELAYS:CODE:REORDER:NOROOT(0)
??Rs485_ClearReceiveBuffer?relay:
        LCALL   ?BDISPATCH
        DATA
        DC24    Rs485_ClearReceiveBuffer

        RSEG BANK_RELAYS:CODE:REORDER:NOROOT(0)
??calcByte?relay:
        LCALL   ?BDISPATCH
        DATA
        DC24    calcByte

        RSEG BANK_RELAYS:CODE:REORDER:NOROOT(0)
??CRC_16?relay:
        LCALL   ?BDISPATCH
        DATA
        DC24    CRC_16

        RSEG BANK_RELAYS:CODE:REORDER:NOROOT(0)
??Rs485_delay_ms?relay:
        LCALL   ?BDISPATCH
        DATA
        DC24    Rs485_delay_ms

        END
// 
// 1 255 bytes in segment BANKED_CODE
//    78 bytes in segment BANK_RELAYS
//     5 bytes in segment SFR_AN
//     8 bytes in segment XDATA_ROM_C
//   446 bytes in segment XDATA_Z
// 
// 1 333 bytes of CODE  memory
//     0 bytes of CONST memory (+ 8 bytes shared)
//     0 bytes of DATA  memory (+ 5 bytes shared)
//   446 bytes of XDATA memory
//
//Errors: none
//Warnings: none
