///////////////////////////////////////////////////////////////////////////////
//                                                                            /
// IAR C/C++ Compiler V8.10.3.10338/W32 for 8051        29/Nov/2018  12:17:08 /
// Copyright 2004-2011 IAR Systems AB.                                        /
//                                                                            /
//    Core               =  plain                                             /
//    Code model         =  banked                                            /
//    Data model         =  large                                             /
//    Calling convention =  xdata reentrant                                   /
//    Constant location  =  data_rom                                          /
//    Dptr setup         =  1,16                                              /
//    Source file        =  D:\ZigBee\KJXY-ZigBee\useful_code\board\Component /
//                          s\hal\target\CC2530EB\hal_uart.c                  /
//    Command line       =  -f D:\ZigBee\KJXY-ZigBee\useful_code\board\Projec /
//                          ts\zstack\Samples\SampleApp\CC2530DB\..\..\..\Too /
//                          ls\CC2530DB\f8wEndev.cfg (-DCPU32MHZ              /
//                          -DROOT=__near_func -DBLINK_LEDS) -f               /
//                          D:\ZigBee\KJXY-ZigBee\useful_code\board\Projects\ /
//                          zstack\Samples\SampleApp\CC2530DB\..\..\..\Tools\ /
//                          CC2530DB\f8wConfig.cfg (-DSECURE=0                /
//                          -DZG_SECURE_DYNAMIC=0 -DREFLECTOR                 /
//                          -DDEFAULT_CHANLIST=0x00000800                     /
//                          -DZDAPP_CONFIG_PAN_ID=0xFF11                      /
//                          -DNWK_START_DELAY=100 -DEXTENDED_JOINING_RANDOM_M /
//                          ASK=0x007F -DBEACON_REQUEST_DELAY=100             /
//                          -DBEACON_REQ_DELAY_MASK=0x00FF                    /
//                          -DROUTE_EXPIRY_TIME=30 -DAPSC_ACK_WAIT_DURATION_P /
//                          OLLED=3000 -DNWK_INDIRECT_MSG_TIMEOUT=7           /
//                          -DMAX_RREQ_ENTRIES=8 -DAPSC_MAX_FRAME_RETRIES=3   /
//                          -DNWK_MAX_DATA_RETRIES=2                          /
//                          -DMAX_POLL_FAILURE_RETRIES=2 -DMAX_BCAST=9        /
//                          -DAPS_MAX_GROUPS=16 -DMAX_RTG_ENTRIES=40          /
//                          -DNWK_MAX_BINDING_ENTRIES=4                       /
//                          -DMAX_BINDING_CLUSTER_IDS=4                       /
//                          "-DDEFAULT_KEY={0x01, 0x03, 0x05, 0x07, 0x09,     /
//                          0x0B, 0x0D, 0x0F, 0x00, 0x02, 0x04, 0x06, 0x08,   /
//                          0x0A, 0x0C, 0x0D}" -DMAC_MAX_FRAME_SIZE=116       /
//                          "-DCONST=const __code" -DGENERIC=__generic        /
//                          -DRFD_RCVC_ALWAYS_ON=TRUE -DPOLL_RATE=1000        /
//                          -DQUEUED_POLL_RATE=100 -DRESPONSE_POLL_RATE=100)  /
//                          -DREJOIN_POLL_RATE=440 D:\ZigBee\KJXY-ZigBee\usef /
//                          ul_code\board\Components\hal\target\CC2530EB\hal_ /
//                          uart.c -D NWK_AUTO_POLL -D ZTOOL_P1 -D            /
//                          MT_SYS_FUNC -D MT_ZDO_FUNC -D                     /
//                          LCD_SUPPORTED=DEBUG -lC                           /
//                          D:\ZigBee\KJXY-ZigBee\useful_code\board\Projects\ /
//                          zstack\Samples\SampleApp\CC2530DB\EndDeviceEB-RFI /
//                          D\List\ -lA D:\ZigBee\KJXY-ZigBee\useful_code\boa /
//                          rd\Projects\zstack\Samples\SampleApp\CC2530DB\End /
//                          DeviceEB-RFID\List\ --diag_suppress Pe001,Pa010   /
//                          -o D:\ZigBee\KJXY-ZigBee\useful_code\board\Projec /
//                          ts\zstack\Samples\SampleApp\CC2530DB\EndDeviceEB- /
//                          RFID\Obj\ -e --no_unroll --no_inline --no_tbaa    /
//                          --debug --core=plain --dptr=16,1                  /
//                          --data_model=large --code_model=banked            /
//                          --calling_convention=xdata_reentrant              /
//                          --place_constants=data_rom --nr_virtual_regs 16   /
//                          -I D:\ZigBee\KJXY-ZigBee\useful_code\board\Projec /
//                          ts\zstack\Samples\SampleApp\CC2530DB\ -I          /
//                          D:\ZigBee\KJXY-ZigBee\useful_code\board\Projects\ /
//                          zstack\Samples\SampleApp\CC2530DB\..\SOURCE\ -I   /
//                          D:\ZigBee\KJXY-ZigBee\useful_code\board\Projects\ /
//                          zstack\Samples\SampleApp\CC2530DB\..\..\..\ZMAIN\ /
//                          TI2530DB\ -I D:\ZigBee\KJXY-ZigBee\useful_code\bo /
//                          ard\Projects\zstack\Samples\SampleApp\CC2530DB\.. /
//                          \..\..\..\..\COMPONENTS\MT\ -I                    /
//                          D:\ZigBee\KJXY-ZigBee\useful_code\board\Projects\ /
//                          zstack\Samples\SampleApp\CC2530DB\..\..\..\..\..\ /
//                          COMPONENTS\HAL\INCLUDE\ -I                        /
//                          D:\ZigBee\KJXY-ZigBee\useful_code\board\Projects\ /
//                          zstack\Samples\SampleApp\CC2530DB\..\..\..\..\..\ /
//                          COMPONENTS\HAL\TARGET\CC2530EB\ -I                /
//                          D:\ZigBee\KJXY-ZigBee\useful_code\board\Projects\ /
//                          zstack\Samples\SampleApp\CC2530DB\..\..\..\..\..\ /
//                          COMPONENTS\OSAL\MCU\CCSOC\ -I                     /
//                          D:\ZigBee\KJXY-ZigBee\useful_code\board\Projects\ /
//                          zstack\Samples\SampleApp\CC2530DB\..\..\..\..\..\ /
//                          COMPONENTS\OSAL\INCLUDE\ -I                       /
//                          D:\ZigBee\KJXY-ZigBee\useful_code\board\Projects\ /
//                          zstack\Samples\SampleApp\CC2530DB\..\..\..\..\..\ /
//                          COMPONENTS\STACK\AF\ -I                           /
//                          D:\ZigBee\KJXY-ZigBee\useful_code\board\Projects\ /
//                          zstack\Samples\SampleApp\CC2530DB\..\..\..\..\..\ /
//                          COMPONENTS\STACK\NWK\ -I                          /
//                          D:\ZigBee\KJXY-ZigBee\useful_code\board\Projects\ /
//                          zstack\Samples\SampleApp\CC2530DB\..\..\..\..\..\ /
//                          COMPONENTS\STACK\SEC\ -I                          /
//                          D:\ZigBee\KJXY-ZigBee\useful_code\board\Projects\ /
//                          zstack\Samples\SampleApp\CC2530DB\..\..\..\..\..\ /
//                          COMPONENTS\STACK\SAPI\ -I                         /
//                          D:\ZigBee\KJXY-ZigBee\useful_code\board\Projects\ /
//                          zstack\Samples\SampleApp\CC2530DB\..\..\..\..\..\ /
//                          COMPONENTS\STACK\SYS\ -I                          /
//                          D:\ZigBee\KJXY-ZigBee\useful_code\board\Projects\ /
//                          zstack\Samples\SampleApp\CC2530DB\..\..\..\..\..\ /
//                          COMPONENTS\STACK\ZDO\ -I                          /
//                          D:\ZigBee\KJXY-ZigBee\useful_code\board\Projects\ /
//                          zstack\Samples\SampleApp\CC2530DB\..\..\..\..\..\ /
//                          COMPONENTS\ZMAC\F8W\ -I                           /
//                          D:\ZigBee\KJXY-ZigBee\useful_code\board\Projects\ /
//                          zstack\Samples\SampleApp\CC2530DB\..\..\..\..\..\ /
//                          COMPONENTS\ZMAC\ -I D:\ZigBee\KJXY-ZigBee\useful_ /
//                          code\board\Projects\zstack\Samples\SampleApp\CC25 /
//                          30DB\..\..\..\..\..\COMPONENTS\SERVICES\SADDR\    /
//                          -I D:\ZigBee\KJXY-ZigBee\useful_code\board\Projec /
//                          ts\zstack\Samples\SampleApp\CC2530DB\..\..\..\..\ /
//                          ..\COMPONENTS\SERVICES\SDATA\ -I                  /
//                          D:\ZigBee\KJXY-ZigBee\useful_code\board\Projects\ /
//                          zstack\Samples\SampleApp\CC2530DB\..\..\..\..\..\ /
//                          COMPONENTS\MAC\INCLUDE\ -I                        /
//                          D:\ZigBee\KJXY-ZigBee\useful_code\board\Projects\ /
//                          zstack\Samples\SampleApp\CC2530DB\..\..\..\..\..\ /
//                          COMPONENTS\MAC\HIGH_LEVEL\ -I                     /
//                          D:\ZigBee\KJXY-ZigBee\useful_code\board\Projects\ /
//                          zstack\Samples\SampleApp\CC2530DB\..\..\..\..\..\ /
//                          COMPONENTS\MAC\LOW_LEVEL\srf04\ -I                /
//                          D:\ZigBee\KJXY-ZigBee\useful_code\board\Projects\ /
//                          zstack\Samples\SampleApp\CC2530DB\..\..\..\..\..\ /
//                          COMPONENTS\MAC\LOW_LEVEL\srf04\SINGLE_CHIP\ -I    /
//                          D:\ZigBee\KJXY-ZigBee\useful_code\board\Projects\ /
//                          zstack\Samples\SampleApp\CC2530DB\..\..\..\..\..\ /
//                          COMPONENTS\HARDWARE\ -Om                          /
//    List file          =  D:\ZigBee\KJXY-ZigBee\useful_code\board\Projects\ /
//                          zstack\Samples\SampleApp\CC2530DB\EndDeviceEB-RFI /
//                          D\List\hal_uart.s51                               /
//                                                                            /
//                                                                            /
///////////////////////////////////////////////////////////////////////////////

        NAME hal_uart

        RTMODEL "__SystemLibrary", "CLib"
        RTMODEL "__calling_convention", "xdata_reentrant"
        RTMODEL "__code_model", "banked"
        RTMODEL "__core", "plain"
        RTMODEL "__data_model", "large"
        RTMODEL "__dptr_size", "16"
        RTMODEL "__extended_stack", "disabled"
        RTMODEL "__location_for_constants", "data"
        RTMODEL "__number_of_dptrs", "1"
        RTMODEL "__rt_version", "1"

        RSEG DOVERLAY:DATA:NOROOT(0)
        RSEG IOVERLAY:IDATA:NOROOT(0)
        RSEG ISTACK:IDATA:NOROOT(0)
        RSEG PSTACK:XDATA:NOROOT(0)
        RSEG XSTACK:XDATA:NOROOT(0)

        EXTERN ?ALLOC_XSTACK8
        EXTERN ?BANKED_ENTER_XDATA
        EXTERN ?BANKED_LEAVE_XDATA
        EXTERN ?BDISPATCH
        EXTERN ?BRET
        EXTERN ?CALL_IND
        EXTERN ?DEALLOC_XSTACK8
        EXTERN ?L_MOV_X
        EXTERN ?MOVE_LONG8_XDATA_XDATA
        EXTERN ?S_SHL
        EXTERN ?UL_SHR
        EXTERN ?V0
        EXTERN ?XSP
        EXTERN ?XSTACK_DISP0_8
        EXTERN __INIT_XDATA_Z

        PUBLIC ??HalUARTInit?relay
        FUNCTION ??HalUARTInit?relay,0203H
        FUNCTION ??HalUARTInitDMA?relay,0203H
        PUBLIC ??HalUARTIsrDMA?relay
        FUNCTION ??HalUARTIsrDMA?relay,0203H
        PUBLIC ??HalUARTOpen?relay
        FUNCTION ??HalUARTOpen?relay,0203H
        FUNCTION ??HalUARTOpenDMA?relay,0203H
        PUBLIC ??HalUARTPoll?relay
        FUNCTION ??HalUARTPoll?relay,0203H
        FUNCTION ??HalUARTPollDMA?relay,0203H
        PUBLIC ??HalUARTRead?relay
        FUNCTION ??HalUARTRead?relay,0203H
        FUNCTION ??HalUARTReadDMA?relay,0203H
        PUBLIC ??HalUARTResume?relay
        FUNCTION ??HalUARTResume?relay,0203H
        FUNCTION ??HalUARTResumeDMA?relay,0203H
        FUNCTION ??HalUARTRxAvailDMA?relay,0203H
        PUBLIC ??HalUARTSuspend?relay
        FUNCTION ??HalUARTSuspend?relay,0203H
        FUNCTION ??HalUARTSuspendDMA?relay,0203H
        PUBLIC ??HalUARTWrite?relay
        FUNCTION ??HalUARTWrite?relay,0203H
        FUNCTION ??HalUARTWriteDMA?relay,0203H
        PUBLIC ??Hal_UART_RxBufLen?relay
        FUNCTION ??Hal_UART_RxBufLen?relay,0203H
        PUBLIC ??UART_PrintData?relay
        FUNCTION ??UART_PrintData?relay,0203H
        PUBLIC ??_bytetoa_Hex?relay
        FUNCTION ??_bytetoa_Hex?relay,0203H
        FUNCTION ??findTail?relay,0203H
        PUBWEAK ADCCFG
        PUBWEAK DMAARM
        PUBWEAK DMAIRQ
        PUBWEAK DMAREQ
        PUBLIC HalUARTInit
        FUNCTION HalUARTInit,021203H
        ARGFRAME XSTACK, 0, STACK
        LOCFRAME ISTACK, 2, STACK
        FUNCTION HalUARTInitDMA,0203H
        ARGFRAME XSTACK, 0, STACK
        ARGFRAME IOVERLAY, 0, STATIC
        ARGFRAME DOVERLAY, 0, STATIC
        LOCFRAME ISTACK, 2, STACK
        PUBLIC HalUARTIsrDMA
        FUNCTION HalUARTIsrDMA,0203H
        ARGFRAME XSTACK, 10, STACK
        ARGFRAME IOVERLAY, 0, STATIC
        ARGFRAME DOVERLAY, 0, STATIC
        LOCFRAME ISTACK, 2, STACK
        PUBLIC HalUARTOpen
        FUNCTION HalUARTOpen,021203H
        ARGFRAME XSTACK, 0, STACK
        LOCFRAME XSTACK, 9, STACK
        FUNCTION HalUARTOpenDMA,021203H
        ARGFRAME XSTACK, 9, STACK
        ARGFRAME IOVERLAY, 0, STATIC
        ARGFRAME DOVERLAY, 0, STATIC
        LOCFRAME ISTACK, 2, STACK
        PUBLIC HalUARTPoll
        FUNCTION HalUARTPoll,021203H
        ARGFRAME XSTACK, 0, STACK
        LOCFRAME ISTACK, 2, STACK
        FUNCTION HalUARTPollDMA,0a1203H
        ARGFRAME XSTACK, 0, STACK
        ARGFRAME IOVERLAY, 0, STATIC
        ARGFRAME DOVERLAY, 0, STATIC
        LOCFRAME XSTACK, 10, STACK
        PUBLIC HalUARTRead
        FUNCTION HalUARTRead,021203H
        ARGFRAME XSTACK, 0, STACK
        LOCFRAME XSTACK, 9, STACK
        FUNCTION HalUARTReadDMA,0203H
        ARGFRAME XSTACK, 9, STACK
        ARGFRAME IOVERLAY, 0, STATIC
        ARGFRAME DOVERLAY, 0, STATIC
        LOCFRAME ISTACK, 1, STACK
        LOCFRAME XSTACK, 10, STACK
        PUBLIC HalUARTResume
        FUNCTION HalUARTResume,021203H
        ARGFRAME XSTACK, 0, STACK
        LOCFRAME ISTACK, 2, STACK
        FUNCTION HalUARTResumeDMA,0203H
        ARGFRAME XSTACK, 0, STACK
        ARGFRAME IOVERLAY, 0, STATIC
        ARGFRAME DOVERLAY, 0, STATIC
        FUNCTION HalUARTRxAvailDMA,0203H
        ARGFRAME XSTACK, 10, STACK
        ARGFRAME IOVERLAY, 0, STATIC
        ARGFRAME DOVERLAY, 0, STATIC
        LOCFRAME ISTACK, 2, STACK
        PUBLIC HalUARTSuspend
        FUNCTION HalUARTSuspend,021203H
        ARGFRAME XSTACK, 0, STACK
        LOCFRAME ISTACK, 2, STACK
        FUNCTION HalUARTSuspendDMA,0203H
        ARGFRAME XSTACK, 0, STACK
        ARGFRAME IOVERLAY, 0, STATIC
        ARGFRAME DOVERLAY, 0, STATIC
        PUBLIC HalUARTWrite
        FUNCTION HalUARTWrite,021203H
        ARGFRAME XSTACK, 24, STACK
        ARGFRAME IOVERLAY, 0, STATIC
        ARGFRAME DOVERLAY, 0, STATIC
        LOCFRAME XSTACK, 9, STACK
        FUNCTION HalUARTWriteDMA,0203H
        ARGFRAME XSTACK, 9, STACK
        ARGFRAME IOVERLAY, 0, STATIC
        ARGFRAME DOVERLAY, 0, STATIC
        LOCFRAME ISTACK, 1, STACK
        LOCFRAME XSTACK, 16, STACK
        PUBLIC Hal_UART_RxBufLen
        FUNCTION Hal_UART_RxBufLen,021203H
        ARGFRAME XSTACK, 0, STACK
        LOCFRAME XSTACK, 9, STACK
        PUBWEAK P0DIR
        PUBWEAK P0SEL
        PUBWEAK P2DIR
        PUBWEAK PERCFG
        PUBWEAK ST0
        PUBWEAK U0BAUD
        PUBWEAK U0CSR
        PUBWEAK U0DBUF
        PUBWEAK U0GCR
        PUBWEAK U0UCR
        PUBLIC UART_PrintData
        FUNCTION UART_PrintData,021203H
        ARGFRAME XSTACK, 4, STACK
        LOCFRAME ISTACK, 2, STACK
        LOCFRAME XSTACK, 24, STACK
        PUBWEAK _A_IEN0
        PUBWEAK _A_IRCON2
        PUBWEAK _A_P0
        PUBLIC _bytetoa_Hex
        FUNCTION _bytetoa_Hex,0203H
        ARGFRAME XSTACK, 2, STACK
        LOCFRAME ISTACK, 1, STACK
        LOCFRAME XSTACK, 13, STACK
        FUNCTION findTail,0203H
        ARGFRAME XSTACK, 10, STACK
        ARGFRAME IOVERLAY, 0, STATIC
        ARGFRAME DOVERLAY, 0, STATIC
        LOCFRAME ISTACK, 2, STACK
        PUBLIC putchar
        FUNCTION putchar,0203H
        ARGFRAME XSTACK, 0, STACK
        
        CFI Names cfiNames0
        CFI StackFrame CFA_SP SP IDATA
        CFI StackFrame CFA_PSP16 PSP16 XDATA
        CFI StackFrame CFA_XSP16 XSP16 XDATA
        CFI StaticOverlayFrame CFA_IOVERLAY IOVERLAY
        CFI StaticOverlayFrame CFA_DOVERLAY DOVERLAY
        CFI Resource `PSW.CY`:1, `B.BR0`:1, `B.BR1`:1, `B.BR2`:1, `B.BR3`:1
        CFI Resource `B.BR4`:1, `B.BR5`:1, `B.BR6`:1, `B.BR7`:1, `VB.BR8`:1
        CFI Resource `VB.BR9`:1, `VB.BR10`:1, `VB.BR11`:1, `VB.BR12`:1
        CFI Resource `VB.BR13`:1, `VB.BR14`:1, `VB.BR15`:1, VB:8, B:8, A:8
        CFI Resource PSW:8, DPL0:8, DPH0:8, R0:8, R1:8, R2:8, R3:8, R4:8, R5:8
        CFI Resource R6:8, R7:8, V0:8, V1:8, V2:8, V3:8, V4:8, V5:8, V6:8, V7:8
        CFI Resource V8:8, V9:8, V10:8, V11:8, V12:8, V13:8, V14:8, V15:8, SP:8
        CFI Resource PSPH:8, PSPL:8, PSP16:16, XSPH:8, XSPL:8, XSP16:16
        CFI VirtualResource ?RET:24
        CFI Resource ?BRET_EXT:8
        CFI VirtualResource ?RET_HIGH:8, ?RET_LOW:8
        CFI ResourceParts PSP16 PSPH, PSPL
        CFI ResourceParts XSP16 XSPH, XSPL
        CFI ResourceParts ?RET ?BRET_EXT, ?RET_HIGH, ?RET_LOW
        CFI EndNames cfiNames0
        
        CFI Common cfiCommon0 Using cfiNames0
        CFI CodeAlign 1
        CFI DataAlign -1
        CFI ReturnAddress ?RET CODE
        CFI CFA_DOVERLAY Used
        CFI CFA_IOVERLAY Used
        CFI CFA_SP SP+-3
        CFI CFA_PSP16 PSP16+0
        CFI CFA_XSP16 XSP16+0
        CFI `PSW.CY` SameValue
        CFI `B.BR0` SameValue
        CFI `B.BR1` SameValue
        CFI `B.BR2` SameValue
        CFI `B.BR3` SameValue
        CFI `B.BR4` SameValue
        CFI `B.BR5` SameValue
        CFI `B.BR6` SameValue
        CFI `B.BR7` SameValue
        CFI `VB.BR8` SameValue
        CFI `VB.BR9` SameValue
        CFI `VB.BR10` SameValue
        CFI `VB.BR11` SameValue
        CFI `VB.BR12` SameValue
        CFI `VB.BR13` SameValue
        CFI `VB.BR14` SameValue
        CFI `VB.BR15` SameValue
        CFI VB SameValue
        CFI B Undefined
        CFI A Undefined
        CFI PSW SameValue
        CFI DPL0 SameValue
        CFI DPH0 SameValue
        CFI R0 Undefined
        CFI R1 Undefined
        CFI R2 Undefined
        CFI R3 Undefined
        CFI R4 Undefined
        CFI R5 Undefined
        CFI R6 SameValue
        CFI R7 SameValue
        CFI V0 SameValue
        CFI V1 SameValue
        CFI V2 SameValue
        CFI V3 SameValue
        CFI V4 SameValue
        CFI V5 SameValue
        CFI V6 SameValue
        CFI V7 SameValue
        CFI V8 SameValue
        CFI V9 SameValue
        CFI V10 SameValue
        CFI V11 SameValue
        CFI V12 SameValue
        CFI V13 SameValue
        CFI V14 SameValue
        CFI V15 SameValue
        CFI PSPH Undefined
        CFI PSPL Undefined
        CFI XSPH Undefined
        CFI XSPL Undefined
        CFI ?RET Concat
        CFI ?BRET_EXT Frame(CFA_SP, 3)
        CFI ?RET_HIGH Frame(CFA_SP, 2)
        CFI ?RET_LOW Frame(CFA_SP, 1)
        CFI EndCommon cfiCommon0
        
        
        CFI Common cfiCommon1 Using cfiNames0
        CFI CodeAlign 1
        CFI DataAlign -1
        CFI ReturnAddress ?RET CODE
        CFI CFA_DOVERLAY Used
        CFI CFA_IOVERLAY Used
        CFI CFA_SP SP+-2
        CFI CFA_PSP16 PSP16+0
        CFI CFA_XSP16 XSP16+0
        CFI `PSW.CY` SameValue
        CFI `B.BR0` SameValue
        CFI `B.BR1` SameValue
        CFI `B.BR2` SameValue
        CFI `B.BR3` SameValue
        CFI `B.BR4` SameValue
        CFI `B.BR5` SameValue
        CFI `B.BR6` SameValue
        CFI `B.BR7` SameValue
        CFI `VB.BR8` SameValue
        CFI `VB.BR9` SameValue
        CFI `VB.BR10` SameValue
        CFI `VB.BR11` SameValue
        CFI `VB.BR12` SameValue
        CFI `VB.BR13` SameValue
        CFI `VB.BR14` SameValue
        CFI `VB.BR15` SameValue
        CFI VB SameValue
        CFI B Undefined
        CFI A Undefined
        CFI PSW SameValue
        CFI DPL0 SameValue
        CFI DPH0 SameValue
        CFI R0 Undefined
        CFI R1 Undefined
        CFI R2 Undefined
        CFI R3 Undefined
        CFI R4 Undefined
        CFI R5 Undefined
        CFI R6 SameValue
        CFI R7 SameValue
        CFI V0 SameValue
        CFI V1 SameValue
        CFI V2 SameValue
        CFI V3 SameValue
        CFI V4 SameValue
        CFI V5 SameValue
        CFI V6 SameValue
        CFI V7 SameValue
        CFI V8 SameValue
        CFI V9 SameValue
        CFI V10 SameValue
        CFI V11 SameValue
        CFI V12 SameValue
        CFI V13 SameValue
        CFI V14 SameValue
        CFI V15 SameValue
        CFI PSPH Undefined
        CFI PSPL Undefined
        CFI XSPH Undefined
        CFI XSPL Undefined
        CFI ?RET Concat
        CFI ?BRET_EXT SameValue
        CFI ?RET_HIGH Frame(CFA_SP, 2)
        CFI ?RET_LOW Frame(CFA_SP, 1)
        CFI EndCommon cfiCommon1
        
osal_memset         SYMBOL "osal_memset"
strlen              SYMBOL "strlen"
??osal_memset?relay SYMBOL "?relay", osal_memset
??strlen?relay      SYMBOL "?relay", strlen
HalUARTInit         SYMBOL "HalUARTInit"
??HalUARTInit?relay SYMBOL "?relay", HalUARTInit
HalUARTIsrDMA       SYMBOL "HalUARTIsrDMA"
??HalUARTIsrDMA?relay SYMBOL "?relay", HalUARTIsrDMA
HalUARTOpen         SYMBOL "HalUARTOpen"
??HalUARTOpen?relay SYMBOL "?relay", HalUARTOpen
HalUARTPoll         SYMBOL "HalUARTPoll"
??HalUARTPoll?relay SYMBOL "?relay", HalUARTPoll
HalUARTRead         SYMBOL "HalUARTRead"
??HalUARTRead?relay SYMBOL "?relay", HalUARTRead
HalUARTResume       SYMBOL "HalUARTResume"
??HalUARTResume?relay SYMBOL "?relay", HalUARTResume
HalUARTSuspend      SYMBOL "HalUARTSuspend"
??HalUARTSuspend?relay SYMBOL "?relay", HalUARTSuspend
HalUARTWrite        SYMBOL "HalUARTWrite"
??HalUARTWrite?relay SYMBOL "?relay", HalUARTWrite
Hal_UART_RxBufLen   SYMBOL "Hal_UART_RxBufLen"
??Hal_UART_RxBufLen?relay SYMBOL "?relay", Hal_UART_RxBufLen
UART_PrintData      SYMBOL "UART_PrintData"
??UART_PrintData?relay SYMBOL "?relay", UART_PrintData
_bytetoa_Hex        SYMBOL "_bytetoa_Hex"
??_bytetoa_Hex?relay SYMBOL "?relay", _bytetoa_Hex

        EXTERN osal_memset
        FUNCTION osal_memset,0202H
        ARGFRAME ISTACK, 2, STACK
        ARGFRAME PSTACK, 0, STACK
        ARGFRAME XSTACK, 0, STACK
        ARGFRAME IOVERLAY, 0, STATIC
        ARGFRAME DOVERLAY, 0, STATIC
        EXTERN strlen
        FUNCTION strlen,010202H
        ARGFRAME ISTACK, 0, STACK
        ARGFRAME PSTACK, 0, STACK
        ARGFRAME XSTACK, 24, STACK
        ARGFRAME IOVERLAY, 0, STATIC
        ARGFRAME DOVERLAY, 0, STATIC
        EXTERN ??osal_memset?relay
        FUNCTION ??osal_memset?relay,00H
        EXTERN ??strlen?relay
        FUNCTION ??strlen?relay,00H
        EXTERN dmaCh1234

// D:\ZigBee\KJXY-ZigBee\useful_code\board\Components\hal\target\CC2530EB\hal_uart.c
//    1 /**************************************************************************************************
//    2   Filename:       _hal_uart.c
//    3   Revised:        $Date: 2009-06-12 09:16:43 -0700 (Fri, 12 Jun 2009) $
//    4   Revision:       $Revision: 20142 $
//    5 
//    6   Description: This file contains the interface to the H/W UART driver.
//    7 
//    8 
//    9   Copyright 2006-2009 Texas Instruments Incorporated. All rights reserved.
//   10 
//   11   IMPORTANT: Your use of this Software is limited to those specific rights
//   12   granted under the terms of a software license agreement between the user
//   13   who downloaded the software, his/her employer (which must be your employer)
//   14   and Texas Instruments Incorporated (the "License").  You may not use this
//   15   Software unless you agree to abide by the terms of the License. The License
//   16   limits your use, and you acknowledge, that the Software may not be modified,
//   17   copied or distributed unless embedded on a Texas Instruments microcontroller
//   18   or used solely and exclusively in conjunction with a Texas Instruments radio
//   19   frequency transceiver, which is integrated into your product.  Other than for
//   20   the foregoing purpose, you may not use, reproduce, copy, prepare derivative
//   21   works of, modify, distribute, perform, display or sell this Software and/or
//   22   its documentation for any purpose.
//   23 
//   24   YOU FURTHER ACKNOWLEDGE AND AGREE THAT THE SOFTWARE AND DOCUMENTATION ARE
//   25   PROVIDED “AS IS?WITHOUT WARRANTY OF ANY KIND, EITHER EXPRESS OR IMPLIED,
//   26   INCLUDING WITHOUT LIMITATION, ANY WARRANTY OF MERCHANTABILITY, TITLE,
//   27   NON-INFRINGEMENT AND FITNESS FOR A PARTICULAR PURPOSE. IN NO EVENT SHALL
//   28   TEXAS INSTRUMENTS OR ITS LICENSORS BE LIABLE OR OBLIGATED UNDER CONTRACT,
//   29   NEGLIGENCE, STRICT LIABILITY, CONTRIBUTION, BREACH OF WARRANTY, OR OTHER
//   30   LEGAL EQUITABLE THEORY ANY DIRECT OR INDIRECT DAMAGES OR EXPENSES
//   31   INCLUDING BUT NOT LIMITED TO ANY INCIDENTAL, SPECIAL, INDIRECT, PUNITIVE
//   32   OR CONSEQUENTIAL DAMAGES, LOST PROFITS OR LOST DATA, COST OF PROCUREMENT
//   33   OF SUBSTITUTE GOODS, TECHNOLOGY, SERVICES, OR ANY CLAIMS BY THIRD PARTIES
//   34   (INCLUDING BUT NOT LIMITED TO ANY DEFENSE THEREOF), OR OTHER SIMILAR COSTS.
//   35 
//   36   Should you have any questions regarding your right to use this Software,
//   37   contact Texas Instruments Incorporated at www.TI.com.
//   38 **************************************************************************************************/
//   39 
//   40 /*********************************************************************
//   41  * INCLUDES
//   42  */
//   43 
//   44 #include "hal_board_cfg.h"

        ASEGN SFR_AN:DATA:NOROOT,080H
// union <unnamed> volatile __sfr _A_P0
_A_P0:
        DATA8
        DS 1

        ASEGN SFR_AN:DATA:NOROOT,086H
// unsigned char volatile __sfr U0CSR
U0CSR:
        DATA8
        DS 1

        ASEGN SFR_AN:DATA:NOROOT,095H
// unsigned char volatile __sfr ST0
ST0:
        DATA8
        DS 1

        ASEGN SFR_AN:DATA:NOROOT,0a8H
// union <unnamed> volatile __sfr _A_IEN0
_A_IEN0:
        DATA8
        DS 1

        ASEGN SFR_AN:DATA:NOROOT,0c1H
// unsigned char volatile __sfr U0DBUF
U0DBUF:
        DATA8
        DS 1

        ASEGN SFR_AN:DATA:NOROOT,0c2H
// unsigned char volatile __sfr U0BAUD
U0BAUD:
        DATA8
        DS 1

        ASEGN SFR_AN:DATA:NOROOT,0c4H
// unsigned char volatile __sfr U0UCR
U0UCR:
        DATA8
        DS 1

        ASEGN SFR_AN:DATA:NOROOT,0c5H
// unsigned char volatile __sfr U0GCR
U0GCR:
        DATA8
        DS 1

        ASEGN SFR_AN:DATA:NOROOT,0d1H
// unsigned char volatile __sfr DMAIRQ
DMAIRQ:
        DATA8
        DS 1

        ASEGN SFR_AN:DATA:NOROOT,0d6H
// unsigned char volatile __sfr DMAARM
DMAARM:
        DATA8
        DS 1

        ASEGN SFR_AN:DATA:NOROOT,0d7H
// unsigned char volatile __sfr DMAREQ
DMAREQ:
        DATA8
        DS 1

        ASEGN SFR_AN:DATA:NOROOT,0e8H
// union <unnamed> volatile __sfr _A_IRCON2
_A_IRCON2:
        DATA8
        DS 1

        ASEGN SFR_AN:DATA:NOROOT,0f1H
// unsigned char volatile __sfr PERCFG
PERCFG:
        DATA8
        DS 1

        ASEGN SFR_AN:DATA:NOROOT,0f2H
// unsigned char volatile __sfr ADCCFG
ADCCFG:
        DATA8
        DS 1

        ASEGN SFR_AN:DATA:NOROOT,0f3H
// unsigned char volatile __sfr P0SEL
P0SEL:
        DATA8
        DS 1

        ASEGN SFR_AN:DATA:NOROOT,0fdH
// unsigned char volatile __sfr P0DIR
P0DIR:
        DATA8
        DS 1

        ASEGN SFR_AN:DATA:NOROOT,0ffH
// unsigned char volatile __sfr P2DIR
P2DIR:
        DATA8
        DS 1
//   45 #include "hal_defs.h"
//   46 #include "hal_types.h"
//   47 #include "hal_uart.h"
//   48 #include "string.h"
//   49 /*********************************************************************
//   50  * MACROS
//   51  */
//   52 
//   53 /*********************************************************************
//   54  * TYPEDEFS
//   55  */
//   56 
//   57 /*********************************************************************
//   58  * CONSTANTS
//   59  */
//   60 
//   61 /*********************************************************************
//   62  * GLOBAL VARIABLES
//   63  */
//   64 
//   65 /*********************************************************************
//   66  * GLOBAL FUNCTIONS
//   67  */
//   68 
//   69 /*********************************************************************
//   70  * LOCAL VARIABLES
//   71  */
//   72 
//   73 /*********************************************************************
//   74  * LOCAL FUNCTIONS
//   75  */
//   76 
//   77 #if HAL_UART_DMA
//   78 #include "_hal_uart_dma.c"

        RSEG XDATA_Z:XDATA:NOROOT(0)
        DATA8
// static uartDMACfg_t dmaCfg
dmaCfg:
        DS 526
        REQUIRE __INIT_XDATA_Z

        RSEG BANKED_CODE:CODE:NOROOT(0)
// static __banked_func __xdata_reentrant uint16 findTail(void)
findTail:
        CFI Block cfiBlock0 Using cfiCommon0
        CFI Function findTail
        CODE
        PUSH    DPL
        CFI DPL0 Frame(CFA_SP, 4)
        CFI CFA_SP SP+-4
        PUSH    DPH
        CFI DPH0 Frame(CFA_SP, 5)
        CFI CFA_SP SP+-5
        ; Saved register size: 2
        ; Auto size: 0
        MOV     DPTR,#dmaCfg + 256
        MOVX    A,@DPTR
        MOV     R4,A
        MOV     R2,A
        MOV     R3,#0x0
??findTail_0:
        MOV     A,R2
        MOV     R0,A
        MOV     A,R3
        MOV     R1,A
        MOV     A,R0
        CLR     C
        RLC     A
        MOV     R0,A
        MOV     A,R1
        RLC     A
        MOV     R1,A
        MOV     A,#dmaCfg & 0xff
        ADD     A,R0
        MOV     DPL,A
        MOV     A,#(dmaCfg >> 8) & 0xff
        ADDC    A,R1
        MOV     DPH,A
        INC     DPTR
        MOVX    A,@DPTR
        XRL     A,0xc2
        JNZ     ??findTail_1
        MOV     A,R2
        ADD     A,#0x1
        INC     R2
        MOV     A,R3
        ADDC    A,#0x0
        MOV     R3,A
        CLR     C
        MOV     A,R2
        SUBB    A,#-0x80
        MOV     A,R3
        SUBB    A,#0x0
        JC      ??findTail_2
        MOV     R2,#0x0
        MOV     R3,#0x0
??findTail_2:
        MOV     A,R4
        XRL     A,R2
        JNZ     ??findTail_3
        MOV     A,R3
??findTail_3:
        JNZ     ??findTail_0
??findTail_1:
        POP     DPH
        CFI DPH0 SameValue
        CFI CFA_SP SP+-4
        POP     DPL
        CFI DPL0 SameValue
        CFI CFA_SP SP+-3
        LJMP    ?BRET
        CFI EndBlock cfiBlock0
        REQUIRE U0BAUD

        RSEG BANKED_CODE:CODE:NOROOT(0)
// static __banked_func __xdata_reentrant void HalUARTInitDMA(void)
HalUARTInitDMA:
        CFI Block cfiBlock1 Using cfiCommon0
        CFI Function HalUARTInitDMA
        CODE
        PUSH    DPL
        CFI DPL0 Frame(CFA_SP, 4)
        CFI CFA_SP SP+-4
        PUSH    DPH
        CFI DPH0 Frame(CFA_SP, 5)
        CFI CFA_SP SP+-5
        ; Saved register size: 2
        ; Auto size: 0
        ANL     0xff,#0x3f
        MOV     0xff,0xff
        ANL     0xf1,#0xfe
        ORL     0xf3,#0xc
        ANL     0xf2,#0xf3
        MOV     0x86,#-0x80
        MOV     0xc4,#-0x80
        MOV     DPTR,#dmaCh1234 + 26
        MOV     A,#0x70
        MOVX    @DPTR,A
        INC     DPTR
        MOV     A,#-0x3f
        MOVX    @DPTR,A
        INC     DPTR
        MOVX    A,@DPTR
        ANL     A,#0x1f
        MOVX    @DPTR,A
        MOV     DPTR,#dmaCh1234 + 30
        MOV     A,#0xf
        MOVX    @DPTR,A
        INC     DPTR
        MOV     A,#0x4a
        MOVX    @DPTR,A
        MOV     DPTR,#dmaCh1234 + 16
        MOV     A,#0x70
        MOVX    @DPTR,A
        INC     DPTR
        MOV     A,#-0x3f
        MOVX    @DPTR,A
        MOV     DPTR,#dmaCh1234 + 20
        MOVX    A,@DPTR
        ANL     A,#0x1f
        MOVX    @DPTR,A
        MOV     DPTR,#dmaCh1234 + 22
        MOV     A,#-0x32
        MOVX    @DPTR,A
        INC     DPTR
        MOVX    A,@DPTR
        ANL     A,#0xf
        ORL     A,#0x10
        MOVX    @DPTR,A
        MOV     A,#(dmaCfg >> 8) & 0xff
        MOV     DPTR,#dmaCh1234 + 18
        MOVX    @DPTR,A
        INC     DPTR
        MOV     A,#dmaCfg & 0xff
        MOVX    @DPTR,A
        MOV     DPTR,#dmaCh1234 + 21
        MOV     A,#-0x80
        MOVX    @DPTR,A
        MOV     DPTR,#dmaCh1234 + 20
        CLR     A
        MOVX    @DPTR,A
        MOV     DPTR,#dmaCh1234 + 23
        MOV     A,#0x12
        MOVX    @DPTR,A
        POP     DPH
        CFI DPH0 SameValue
        CFI CFA_SP SP+-4
        POP     DPL
        CFI DPL0 SameValue
        CFI CFA_SP SP+-3
        LJMP    ?BRET
        CFI EndBlock cfiBlock1
        REQUIRE P2DIR
        REQUIRE PERCFG
        REQUIRE P0SEL
        REQUIRE ADCCFG
        REQUIRE U0CSR
        REQUIRE U0UCR

        RSEG BANKED_CODE:CODE:NOROOT(0)
// static __banked_func __xdata_reentrant void HalUARTOpenDMA(halUARTCfg_t *)
HalUARTOpenDMA:
        CFI Block cfiBlock2 Using cfiCommon0
        CFI Function HalUARTOpenDMA
        CODE
        FUNCALL HalUARTOpenDMA, osal_memset
        LOCFRAME ISTACK, 2, STACK
        LOCFRAME PSTACK, 0, STACK
        LOCFRAME XSTACK, 0, STACK
        LOCFRAME IOVERLAY, 0, STATIC
        LOCFRAME DOVERLAY, 0, STATIC
        ARGFRAME ISTACK, 2, STACK
        ARGFRAME PSTACK, 0, STACK
        ARGFRAME XSTACK, 0, STACK
        ARGFRAME IOVERLAY, 0, STATIC
        ARGFRAME DOVERLAY, 0, STATIC
        PUSH    DPL
        CFI DPL0 Frame(CFA_SP, 4)
        CFI CFA_SP SP+-4
        PUSH    DPH
        CFI DPH0 Frame(CFA_SP, 5)
        CFI CFA_SP SP+-5
        ; Saved register size: 2
        ; Auto size: 0
        MOV     A,R2
        ADD     A,#0x1b
        MOV     DPL,A
        MOV     A,R3
        ADDC    A,#0x0
        MOV     DPH,A
        MOVX    A,@DPTR
        MOV     R0,A
        INC     DPTR
        MOVX    A,@DPTR
        MOV     R1,A
        MOV     DPTR,#dmaCfg + 524
        MOV     A,R0
        MOVX    @DPTR,A
        INC     DPTR
        MOV     A,R1
        MOVX    @DPTR,A
        MOV     DPL,R2
        MOV     DPH,R3
        INC     DPTR
        MOVX    A,@DPTR
        XRL     A,#0x3
        JZ      ??HalUARTOpenDMA_0
        MOVX    A,@DPTR
        XRL     A,#0x4
        JNZ     ??HalUARTOpenDMA_1
??HalUARTOpenDMA_0:
        MOV     0xc2,#-0x28
        SJMP    ??HalUARTOpenDMA_2
??HalUARTOpenDMA_1:
        MOV     0xc2,#0x3b
??HalUARTOpenDMA_2:
        MOVX    A,@DPTR
        JZ      ??HalUARTOpenDMA_3
        DEC     A
        JZ      ??HalUARTOpenDMA_4
        DEC     A
        JZ      ??HalUARTOpenDMA_5
        DEC     A
        JZ      ??HalUARTOpenDMA_6
        SJMP    ??HalUARTOpenDMA_7
??HalUARTOpenDMA_3:
        MOV     0xc5,#0x8
        MOV     DPTR,#dmaCfg + 520
        MOV     A,#0x23
        SJMP    ??HalUARTOpenDMA_8
??HalUARTOpenDMA_4:
        MOV     0xc5,#0x9
        MOV     DPTR,#dmaCfg + 520
        MOV     A,#0x12
        SJMP    ??HalUARTOpenDMA_8
??HalUARTOpenDMA_5:
        MOV     0xc5,#0xa
        MOV     DPTR,#dmaCfg + 520
        MOV     A,#0x9
        SJMP    ??HalUARTOpenDMA_8
??HalUARTOpenDMA_6:
        MOV     0xc5,#0xa
        MOV     DPTR,#dmaCfg + 520
        MOV     A,#0x6
        SJMP    ??HalUARTOpenDMA_8
??HalUARTOpenDMA_7:
        MOV     0xc5,#0xb
        MOV     DPTR,#dmaCfg + 520
        MOV     A,#0x3
??HalUARTOpenDMA_8:
        MOVX    @DPTR,A
        MOV     DPL,R2
        MOV     DPH,R3
        INC     DPTR
        INC     DPTR
        MOVX    A,@DPTR
        JZ      ??HalUARTOpenDMA_9
        MOV     0xc4,#0x42
        ORL     0xf3,#0x10
        CLR     0x80.5
        ORL     0xfd,#0x20
        SJMP    ??HalUARTOpenDMA_10
??HalUARTOpenDMA_9:
        MOV     0xc4,#0x2
??HalUARTOpenDMA_10:
        MOV     DPTR,#0x70c1
        MOVX    A,@DPTR
        MOV     DPTR,#dmaCfg
        MOVX    @DPTR,A
        INC     DPTR
        CLR     A
        MOVX    @DPTR,A
        ANL     0xd1,#0xf7
        MOV     0xd6,#0x8
        ; Setup parameters for call to function osal_memset
        MOV     R4,A
        MOV     R5,#0x1
        MOV     A,0xc2
        CPL     A
        MOV     R1,A
        MOV     R2,#dmaCfg & 0xff
        MOV     R3,#(dmaCfg >> 8) & 0xff
        LCALL   ??osal_memset?relay
        ORL     0x86,#0x40
        MOV     DPTR,#dmaCfg + 523
        CLR     A
        MOVX    @DPTR,A
        MOV     DPTR,#dmaCfg + 522
        MOVX    @DPTR,A
        POP     DPH
        CFI DPH0 SameValue
        CFI CFA_SP SP+-4
        POP     DPL
        CFI DPL0 SameValue
        CFI CFA_SP SP+-3
        LJMP    ?BRET
        CFI EndBlock cfiBlock2
        REQUIRE U0BAUD
        REQUIRE U0GCR
        REQUIRE U0UCR
        REQUIRE P0SEL
        REQUIRE _A_P0
        REQUIRE P0DIR
        REQUIRE DMAIRQ
        REQUIRE DMAARM
        REQUIRE U0CSR

        RSEG BANKED_CODE:CODE:NOROOT(0)
// static __banked_func __xdata_reentrant uint16 HalUARTReadDMA(unsigned char *, uint16)
HalUARTReadDMA:
        CFI Block cfiBlock3 Using cfiCommon0
        CFI Function HalUARTReadDMA
        CODE
        MOV     A,#-0xa
        LCALL   ?BANKED_ENTER_XDATA
        CFI DPH0 load(1, XDATA, add(CFA_XSP16, literal(-1)))
        CFI DPL0 load(1, XDATA, add(CFA_XSP16, literal(-2)))
        CFI ?BRET_EXT load(1, XDATA, add(CFA_XSP16, literal(-3)))
        CFI ?RET_HIGH load(1, XDATA, add(CFA_XSP16, literal(-4)))
        CFI ?RET_LOW load(1, XDATA, add(CFA_XSP16, literal(-5)))
        CFI R7 load(1, XDATA, add(CFA_XSP16, literal(-6)))
        CFI V1 load(1, XDATA, add(CFA_XSP16, literal(-7)))
        CFI V0 load(1, XDATA, add(CFA_XSP16, literal(-8)))
        CFI VB load(1, XDATA, add(CFA_XSP16, literal(-9)))
        CFI R6 load(1, XDATA, add(CFA_XSP16, literal(-10)))
        CFI CFA_SP SP+0
        CFI CFA_XSP16 add(XSP16, 10)
        ; Saved register size: 10
        ; Auto size: 0
        MOV     R0,#0x0
        MOV     R1,#0x0
        SJMP    ??HalUARTReadDMA_0
??HalUARTReadDMA_1:
        MOV     DPL,R2
        MOV     DPH,R3
        MOV     A,?V0 + 0
        MOVX    @DPTR,A
        INC     DPTR
        MOV     R2,DPL
        MOV     R3,DPH
        MOV     A,0xc2
        CPL     A
        MOV     ?V0 + 1,A
        MOV     DPTR,#dmaCfg + 256
        MOVX    A,@DPTR
        CLR     C
        RLC     A
        MOV     R6,A
        CLR     A
        RLC     A
        MOV     R7,A
        MOV     A,#dmaCfg & 0xff
        ADD     A,R6
        MOV     DPL,A
        MOV     A,#(dmaCfg >> 8) & 0xff
        ADDC    A,R7
        MOV     DPH,A
        CLR     A
        MOVX    @DPTR,A
        INC     DPTR
        MOV     A,?V0 + 1
        MOVX    @DPTR,A
        MOV     DPTR,#dmaCfg + 256
        MOVX    A,@DPTR
        INC     A
        MOVX    @DPTR,A
        MOVX    A,@DPTR
        CLR     C
        SUBB    A,#-0x80
        JC      ??HalUARTReadDMA_2
        CLR     A
        MOVX    @DPTR,A
??HalUARTReadDMA_2:
        MOV     A,R0
        ADD     A,#0x1
        INC     R0
        MOV     A,R1
        ADDC    A,#0x0
        MOV     R1,A
??HalUARTReadDMA_0:
        CLR     C
        MOV     A,R0
        SUBB    A,R4
        MOV     A,R1
        SUBB    A,R5
        JNC     ??HalUARTReadDMA_3
        MOV     DPTR,#dmaCfg + 256
        MOVX    A,@DPTR
        CLR     C
        RLC     A
        MOV     R6,A
        CLR     A
        RLC     A
        MOV     R7,A
        MOV     A,#dmaCfg & 0xff
        ADD     A,R6
        MOV     DPL,A
        MOV     A,#(dmaCfg >> 8) & 0xff
        ADDC    A,R7
        MOV     DPH,A
        MOVX    A,@DPTR
        MOV     ?V0 + 0,A
        INC     DPTR
        MOVX    A,@DPTR
        XRL     A,0xc2
        JZ      ??HalUARTReadDMA_1
??HalUARTReadDMA_3:
        CLR     0x80.5
        MOV     A,R0
        MOV     R2,A
        MOV     A,R1
        MOV     R3,A
        MOV     R7,#0x2
        LJMP    ?BANKED_LEAVE_XDATA
        CFI EndBlock cfiBlock3
        REQUIRE U0BAUD
        REQUIRE _A_P0

        RSEG BANKED_CODE:CODE:NOROOT(0)
// static __banked_func __xdata_reentrant uint16 HalUARTWriteDMA(unsigned char *, uint16)
HalUARTWriteDMA:
        CFI Block cfiBlock4 Using cfiCommon0
        CFI Function HalUARTWriteDMA
        CODE
        MOV     A,#-0x10
        LCALL   ?BANKED_ENTER_XDATA
        CFI DPH0 load(1, XDATA, add(CFA_XSP16, literal(-1)))
        CFI DPL0 load(1, XDATA, add(CFA_XSP16, literal(-2)))
        CFI ?BRET_EXT load(1, XDATA, add(CFA_XSP16, literal(-3)))
        CFI ?RET_HIGH load(1, XDATA, add(CFA_XSP16, literal(-4)))
        CFI ?RET_LOW load(1, XDATA, add(CFA_XSP16, literal(-5)))
        CFI R7 load(1, XDATA, add(CFA_XSP16, literal(-6)))
        CFI V7 load(1, XDATA, add(CFA_XSP16, literal(-7)))
        CFI V6 load(1, XDATA, add(CFA_XSP16, literal(-8)))
        CFI V5 load(1, XDATA, add(CFA_XSP16, literal(-9)))
        CFI V4 load(1, XDATA, add(CFA_XSP16, literal(-10)))
        CFI V3 load(1, XDATA, add(CFA_XSP16, literal(-11)))
        CFI V2 load(1, XDATA, add(CFA_XSP16, literal(-12)))
        CFI V1 load(1, XDATA, add(CFA_XSP16, literal(-13)))
        CFI V0 load(1, XDATA, add(CFA_XSP16, literal(-14)))
        CFI VB load(1, XDATA, add(CFA_XSP16, literal(-15)))
        CFI R6 load(1, XDATA, add(CFA_XSP16, literal(-16)))
        CFI CFA_SP SP+0
        CFI CFA_XSP16 add(XSP16, 16)
        ; Saved register size: 16
        ; Auto size: 0
        MOV     A,R2
        MOV     R6,A
        MOV     A,R3
        MOV     R7,A
        MOV     DPTR,#dmaCfg + 518
        MOVX    A,@DPTR
        MOV     R0,A
        MOV     A,#(dmaCfg + 4) & 0xff
        ADD     A,R0
        MOV     DPL,A
        MOV     A,#((dmaCfg + 516) >> 8) & 0xff
        ADDC    A,#0x0
        MOV     DPH,A
        MOVX    A,@DPTR
        MOV     R0,A
        MOV     A,R4
        ADD     A,R0
        MOV     R0,A
        MOV     A,R5
        ADDC    A,#0x0
        MOV     R1,A
        CLR     C
        MOV     A,R0
        SUBB    A,#-0x7f
        MOV     A,R1
        SUBB    A,#0x0
        JC      ??HalUARTWriteDMA_0
        MOV     R2,#0x0
        MOV     R3,#0x0
        LJMP    ??HalUARTWriteDMA_1 & 0xFFFF
??HalUARTWriteDMA_0:
        MOV     C,0xa8.7
        CLR     A
        RLC     A
        MOV     ?V0 + 2,A
        CLR     0xa8.7
        MOV     DPTR,#dmaCfg + 518
        MOVX    A,@DPTR
        MOV     ?V0 + 7,A
        MOV     DPL,A
        MOV     ?V0 + 0,DPL
        MOV     ?V0 + 1,#0x0
        MOV     A,#(dmaCfg + 4) & 0xff
        ADD     A,?V0 + 0
        MOV     DPL,A
        MOV     A,#((dmaCfg + 516) >> 8) & 0xff
        ADDC    A,#0x0
        MOV     DPH,A
        MOVX    A,@DPTR
        MOV     ?V0 + 6,A
        MOV     A,?V0 + 2
        MOV     C,0xE0 /* A   */.0
        MOV     0xa8.7,C
        MOV     R2,#0x0
        MOV     R3,#0x0
        SJMP    ??HalUARTWriteDMA_2
??HalUARTWriteDMA_3:
        MOV     A,R6
        ADD     A,R2
        MOV     DPL,A
        MOV     A,R7
        ADDC    A,R3
        MOV     DPH,A
        MOVX    A,@DPTR
        PUSH    A
        CFI CFA_SP SP+-1
        MOV     ?V0 + 2,?V0 + 0
        MOV     ?V0 + 3,?V0 + 1
        MOV     A,#0x7
        MOV     R0,#?V0 + 2
        LCALL   ?S_SHL
        MOV     ?V0 + 4,?V0 + 6
        MOV     A,#(dmaCfg + 4) & 0xff
        ADD     A,?V0 + 4
        MOV     R0,A
        MOV     A,#((dmaCfg + 260) >> 8) & 0xff
        ADDC    A,#0x0
        MOV     R1,A
        MOV     A,R0
        ADD     A,?V0 + 2
        MOV     DPL,A
        MOV     A,R1
        ADDC    A,?V0 + 3
        MOV     DPH,A
        POP     A
        CFI CFA_SP SP+0
        MOVX    @DPTR,A
        INC     ?V0 + 6
        MOV     A,R2
        ADD     A,#0x1
        INC     R2
        MOV     A,R3
        ADDC    A,#0x0
        MOV     R3,A
??HalUARTWriteDMA_2:
        CLR     C
        MOV     A,R2
        SUBB    A,R4
        MOV     A,R3
        SUBB    A,R5
        JC      ??HalUARTWriteDMA_3
        MOV     C,0xa8.7
        CLR     A
        RLC     A
        MOV     ?V0 + 2,A
        CLR     0xa8.7
        MOV     DPTR,#dmaCfg + 518
        MOVX    A,@DPTR
        XRL     A,?V0 + 7
        JZ      ??HalUARTWriteDMA_4
        MOV     A,?V0 + 2
        MOV     C,0xE0 /* A   */.0
        MOV     0xa8.7,C
        MOVX    A,@DPTR
        MOV     ?V0 + 7,A
        MOV     DPL,A
        MOV     ?V0 + 0,DPL
        MOV     A,#(dmaCfg + 4) & 0xff
        ADD     A,?V0 + 0
        MOV     DPL,A
        MOV     A,#((dmaCfg + 516) >> 8) & 0xff
        ADDC    A,#0x0
        MOV     DPH,A
        MOVX    A,@DPTR
        MOV     ?V0 + 6,A
        MOV     R2,#0x0
        MOV     R3,#0x0
        SJMP    ??HalUARTWriteDMA_5
??HalUARTWriteDMA_6:
        MOV     A,R6
        ADD     A,R2
        MOV     DPL,A
        MOV     A,R7
        ADDC    A,R3
        MOV     DPH,A
        MOVX    A,@DPTR
        PUSH    A
        CFI CFA_SP SP+-1
        MOV     ?V0 + 2,?V0 + 0
        MOV     ?V0 + 3,?V0 + 1
        MOV     A,#0x7
        MOV     R0,#?V0 + 2
        LCALL   ?S_SHL
        MOV     ?V0 + 4,?V0 + 6
        MOV     A,#(dmaCfg + 4) & 0xff
        ADD     A,?V0 + 4
        MOV     R0,A
        MOV     A,#((dmaCfg + 260) >> 8) & 0xff
        ADDC    A,#0x0
        MOV     R1,A
        MOV     A,R0
        ADD     A,?V0 + 2
        MOV     DPL,A
        MOV     A,R1
        ADDC    A,?V0 + 3
        MOV     DPH,A
        POP     A
        CFI CFA_SP SP+0
        MOVX    @DPTR,A
        INC     ?V0 + 6
        MOV     A,R2
        ADD     A,#0x1
        INC     R2
        MOV     A,R3
        ADDC    A,#0x0
        MOV     R3,A
??HalUARTWriteDMA_5:
        CLR     C
        MOV     A,R2
        SUBB    A,R4
        MOV     A,R3
        SUBB    A,R5
        JC      ??HalUARTWriteDMA_6
        MOV     C,0xa8.7
        CLR     A
        RLC     A
        MOV     ?V0 + 2,A
        CLR     0xa8.7
??HalUARTWriteDMA_4:
        MOV     DPL,?V0 + 7
        MOV     R0,DPL
        MOV     A,#(dmaCfg + 4) & 0xff
        ADD     A,R0
        MOV     DPL,A
        MOV     A,#((dmaCfg + 516) >> 8) & 0xff
        ADDC    A,#0x0
        MOV     DPH,A
        MOV     A,?V0 + 6
        MOVX    @DPTR,A
        MOV     A,R0
        XRL     A,#0x1
        MOV     R0,A
        MOV     A,#(dmaCfg + 4) & 0xff
        ADD     A,R0
        MOV     DPL,A
        MOV     A,#((dmaCfg + 516) >> 8) & 0xff
        ADDC    A,#0x0
        MOV     DPH,A
        MOVX    A,@DPTR
        JNZ     ??HalUARTWriteDMA_7
        MOV     DPTR,#dmaCfg + 523
        MOV     A,#0x1
        MOVX    @DPTR,A
??HalUARTWriteDMA_7:
        MOV     A,?V0 + 2
        MOV     C,0xE0 /* A   */.0
        MOV     0xa8.7,C
??HalUARTWriteDMA_1:
        MOV     R7,#0x8
        LJMP    ?BANKED_LEAVE_XDATA
        CFI EndBlock cfiBlock4
        REQUIRE _A_IEN0

        RSEG BANKED_CODE:CODE:NOROOT(0)
// static __banked_func __xdata_reentrant void HalUARTPollDMA(void)
HalUARTPollDMA:
        CFI Block cfiBlock5 Using cfiCommon0
        CFI Function HalUARTPollDMA
        CODE
        FUNCALL HalUARTPollDMA, findTail
        LOCFRAME ISTACK, 0, STACK
        LOCFRAME PSTACK, 0, STACK
        LOCFRAME XSTACK, 10, STACK
        LOCFRAME IOVERLAY, 0, STATIC
        LOCFRAME DOVERLAY, 0, STATIC
        ARGFRAME ISTACK, 0, STACK
        ARGFRAME PSTACK, 0, STACK
        ARGFRAME XSTACK, 10, STACK
        ARGFRAME IOVERLAY, 0, STATIC
        ARGFRAME DOVERLAY, 0, STATIC
        FUNCALL HalUARTPollDMA, HalUARTRxAvailDMA
        LOCFRAME ISTACK, 0, STACK
        LOCFRAME PSTACK, 0, STACK
        LOCFRAME XSTACK, 10, STACK
        LOCFRAME IOVERLAY, 0, STATIC
        LOCFRAME DOVERLAY, 0, STATIC
        ARGFRAME ISTACK, 0, STACK
        ARGFRAME PSTACK, 0, STACK
        ARGFRAME XSTACK, 10, STACK
        ARGFRAME IOVERLAY, 0, STATIC
        ARGFRAME DOVERLAY, 0, STATIC
        FUNCALL HalUARTPollDMA, HalUARTIsrDMA
        LOCFRAME ISTACK, 0, STACK
        LOCFRAME PSTACK, 0, STACK
        LOCFRAME XSTACK, 10, STACK
        LOCFRAME IOVERLAY, 0, STATIC
        LOCFRAME DOVERLAY, 0, STATIC
        ARGFRAME ISTACK, 0, STACK
        ARGFRAME PSTACK, 0, STACK
        ARGFRAME XSTACK, 10, STACK
        ARGFRAME IOVERLAY, 0, STATIC
        ARGFRAME DOVERLAY, 0, STATIC
        MOV     A,#-0xa
        LCALL   ?BANKED_ENTER_XDATA
        CFI DPH0 load(1, XDATA, add(CFA_XSP16, literal(-1)))
        CFI DPL0 load(1, XDATA, add(CFA_XSP16, literal(-2)))
        CFI ?BRET_EXT load(1, XDATA, add(CFA_XSP16, literal(-3)))
        CFI ?RET_HIGH load(1, XDATA, add(CFA_XSP16, literal(-4)))
        CFI ?RET_LOW load(1, XDATA, add(CFA_XSP16, literal(-5)))
        CFI R7 load(1, XDATA, add(CFA_XSP16, literal(-6)))
        CFI V1 load(1, XDATA, add(CFA_XSP16, literal(-7)))
        CFI V0 load(1, XDATA, add(CFA_XSP16, literal(-8)))
        CFI VB load(1, XDATA, add(CFA_XSP16, literal(-9)))
        CFI R6 load(1, XDATA, add(CFA_XSP16, literal(-10)))
        CFI CFA_SP SP+0
        CFI CFA_XSP16 add(XSP16, 10)
        ; Saved register size: 10
        ; Auto size: 0
        MOV     R0,#0x0
        MOV     R1,#0x0
        MOV     R6,#0x0
        MOV     DPTR,#dmaCfg + 256
        MOVX    A,@DPTR
        CLR     C
        RLC     A
        MOV     R2,A
        CLR     A
        RLC     A
        MOV     R3,A
        MOV     A,#dmaCfg & 0xff
        ADD     A,R2
        MOV     DPL,A
        MOV     A,#(dmaCfg >> 8) & 0xff
        ADDC    A,R3
        MOV     DPH,A
        INC     DPTR
        MOVX    A,@DPTR
        XRL     A,0xc2
        JNZ     ??HalUARTPollDMA_0
        ; Setup parameters for call to function findTail
        LCALL   ??findTail?relay
        MOV     ?V0 + 0,R2
        MOV     R0,?V0 + 0
        MOV     DPTR,#dmaCfg + 257
        MOVX    A,@DPTR
        MOV     R2,A
        MOV     A,R0
        XRL     A,R2
        JNZ     ??HalUARTPollDMA_1
        MOV     A,R3
??HalUARTPollDMA_1:
        JZ      ??HalUARTPollDMA_2
        MOV     A,R0
        MOVX    @DPTR,A
        INC     DPTR
        MOVX    A,@DPTR
        JNZ     ??HalUARTPollDMA_3
        MOV     A,0x95
        INC     DPTR
        MOVX    @DPTR,A
??HalUARTPollDMA_3:
        MOV     DPTR,#dmaCfg + 258
        MOV     A,#-0x3a
        SJMP    ??HalUARTPollDMA_4
??HalUARTPollDMA_2:
        INC     DPTR
        MOVX    A,@DPTR
        MOV     R1,A
        JZ      ??HalUARTPollDMA_5
        INC     DPTR
        MOVX    A,@DPTR
        MOV     R0,A
        MOV     A,0x95
        CLR     C
        SUBB    A,R0
        MOV     R0,A
        CLR     C
        SUBB    A,R1
        MOV     DPTR,#dmaCfg + 258
        JNC     ??HalUARTPollDMA_6
        MOVX    A,@DPTR
        CLR     C
        SUBB    A,R0
        MOVX    @DPTR,A
        MOV     A,0x95
        INC     DPTR
        SJMP    ??HalUARTPollDMA_4
??HalUARTPollDMA_6:
        CLR     A
??HalUARTPollDMA_4:
        MOVX    @DPTR,A
??HalUARTPollDMA_5:
        ; Setup parameters for call to function HalUARTRxAvailDMA
        LCALL   ??HalUARTRxAvailDMA?relay
        MOV     ?V0 + 0,R2
        MOV     ?V0 + 1,R3
        MOV     R0,?V0 + 0
        MOV     R1,?V0 + 1
        SJMP    ??HalUARTPollDMA_7
??HalUARTPollDMA_0:
        MOV     DPTR,#dmaCfg + 258
        CLR     A
        MOVX    @DPTR,A
??HalUARTPollDMA_7:
        CLR     C
        MOV     A,R0
        SUBB    A,#0x70
        MOV     A,R1
        SUBB    A,#0x0
        JC      ??HalUARTPollDMA_8
        INC     R6
        SJMP    ??HalUARTPollDMA_9
??HalUARTPollDMA_8:
        CLR     C
        MOV     A,R0
        SUBB    A,#0x30
        MOV     A,R1
        SUBB    A,#0x0
        JC      ??HalUARTPollDMA_10
        INC     R6
        INC     R6
        SETB    0x80.5
        SJMP    ??HalUARTPollDMA_9
??HalUARTPollDMA_10:
        MOV     A,R0
        ORL     A,R1
        JZ      ??HalUARTPollDMA_9
        MOV     DPTR,#dmaCfg + 258
        MOVX    A,@DPTR
        JNZ     ??HalUARTPollDMA_9
        MOV     R6,#0x4
??HalUARTPollDMA_9:
        MOV     DPTR,#dmaCfg + 519
        MOVX    A,@DPTR
        JZ      ??HalUARTPollDMA_11
        CLR     A
        MOVX    @DPTR,A
        MOV     A,R6
        SETB    0xE0 /* A   */.4
        MOV     R6,A
??HalUARTPollDMA_11:
        MOV     DPTR,#dmaCfg + 522
        MOVX    A,@DPTR
        JZ      ??HalUARTPollDMA_12
        MOV     A,0x95
        MOV     R0,A
        MOV     DPTR,#dmaCfg + 521
        MOVX    A,@DPTR
        XCH     A,R0
        CLR     C
        SUBB    A,R0
        MOV     R0,A
        MOV     DPTR,#dmaCfg + 520
        MOVX    A,@DPTR
        CLR     C
        SUBB    A,R0
        JNC     ??HalUARTPollDMA_12
        MOV     DPTR,#dmaCfg + 522
        CLR     A
        MOVX    @DPTR,A
??HalUARTPollDMA_12:
        MOV     DPTR,#dmaCfg + 523
        MOVX    A,@DPTR
        JZ      ??HalUARTPollDMA_13
        MOV     DPTR,#dmaCfg + 522
        MOVX    A,@DPTR
        JNZ     ??HalUARTPollDMA_13
        INC     DPTR
        CLR     A
        MOVX    @DPTR,A
        MOV     DPTR,#dmaCfg + 518
        MOVX    A,@DPTR
        MOV     ?V0 + 0,A
        MOV     ?V0 + 1,#0x0
        MOV     A,#0x7
        MOV     R0,#?V0 + 0
        LCALL   ?S_SHL
        MOV     A,#(dmaCfg + 4) & 0xff
        ADD     A,?V0 + 0
        MOV     A,#((dmaCfg + 260) >> 8) & 0xff
        ADDC    A,?V0 + 1
        MOV     DPTR,#dmaCh1234 + 24
        MOVX    @DPTR,A
        MOV     DPTR,#dmaCfg + 518
        MOVX    A,@DPTR
        MOV     ?V0 + 0,A
        MOV     ?V0 + 1,#0x0
        MOV     A,#0x7
        MOV     R0,#?V0 + 0
        LCALL   ?S_SHL
        MOV     A,#(dmaCfg + 4) & 0xff
        ADD     A,?V0 + 0
        MOV     DPTR,#dmaCh1234 + 25
        MOVX    @DPTR,A
        MOV     DPTR,#dmaCfg + 518
        MOVX    A,@DPTR
        MOV     R0,A
        MOV     A,#(dmaCfg + 4) & 0xff
        ADD     A,R0
        MOV     DPL,A
        MOV     A,#((dmaCfg + 516) >> 8) & 0xff
        ADDC    A,#0x0
        MOV     DPH,A
        MOVX    A,@DPTR
        MOV     DPTR,#dmaCh1234 + 29
        MOVX    @DPTR,A
        MOV     DPTR,#dmaCh1234 + 28
        MOVX    A,@DPTR
        ANL     A,#0xe0
        MOVX    @DPTR,A
        MOV     DPTR,#dmaCfg + 518
        MOVX    A,@DPTR
        MOVX    A,@DPTR
        XRL     A,#0x1
        MOVX    @DPTR,A
        MOV     C,0xa8.7
        CLR     A
        RLC     A
        MOV     R0,A
        CLR     0xa8.7
        MOV     0xd6,#0x10
??HalUARTPollDMA_14:
        NOP
        MOV     A,0xd6
        MOV     C,0xE0 /* A   */.4
        JNC     ??HalUARTPollDMA_14
        ANL     0xd1,#0xef
        MOV     0xd7,#0x10
        MOV     A,R0
        SJMP    ??HalUARTPollDMA_15
??HalUARTPollDMA_13:
        MOV     C,0xa8.7
        CLR     A
        RLC     A
        MOV     R2,A
        CLR     0xa8.7
        MOV     DPTR,#dmaCfg + 518
        MOVX    A,@DPTR
        MOV     R0,A
        MOV     A,#(dmaCfg + 4) & 0xff
        ADD     A,R0
        MOV     DPL,A
        MOV     A,#((dmaCfg + 516) >> 8) & 0xff
        ADDC    A,#0x0
        MOV     DPH,A
        MOVX    A,@DPTR
        JZ      ??HalUARTPollDMA_16
        MOV     A,0xd6
        MOV     C,0xE0 /* A   */.4
        JC      ??HalUARTPollDMA_16
        MOV     A,0xd1
        MOV     C,0xE0 /* A   */.4
        JC      ??HalUARTPollDMA_16
        MOV     A,R2
        MOV     C,0xE0 /* A   */.0
        MOV     0xa8.7,C
        ; Setup parameters for call to function HalUARTIsrDMA
        LCALL   ??HalUARTIsrDMA?relay
        SJMP    ??HalUARTPollDMA_17
??HalUARTPollDMA_16:
        MOV     A,R2
??HalUARTPollDMA_15:
        MOV     C,0xE0 /* A   */.0
        MOV     0xa8.7,C
??HalUARTPollDMA_17:
        MOV     A,R6
        JZ      ??HalUARTPollDMA_18
        MOV     DPTR,#dmaCfg + 524
        MOVX    A,@DPTR
        MOV     R0,A
        INC     DPTR
        MOVX    A,@DPTR
        MOV     R1,A
        MOV     DPL,R0
        MOV     DPH,R1
        MOV     A,DPL
        ORL     A,DPH
        JZ      ??HalUARTPollDMA_18
        ; Setup parameters for indirect call
        MOV     A,R6
        MOV     R2,A
        MOV     R1,#0x0
        LCALL   ?CALL_IND
??HalUARTPollDMA_18:
        MOV     R7,#0x2
        LJMP    ?BANKED_LEAVE_XDATA
        CFI EndBlock cfiBlock5
        REQUIRE U0BAUD
        REQUIRE ST0
        REQUIRE _A_P0
        REQUIRE _A_IEN0
        REQUIRE DMAARM
        REQUIRE DMAIRQ
        REQUIRE DMAREQ

        RSEG BANKED_CODE:CODE:NOROOT(0)
// static __banked_func __xdata_reentrant uint16 HalUARTRxAvailDMA(void)
HalUARTRxAvailDMA:
        CFI Block cfiBlock6 Using cfiCommon0
        CFI Function HalUARTRxAvailDMA
        CODE
        PUSH    DPL
        CFI DPL0 Frame(CFA_SP, 4)
        CFI CFA_SP SP+-4
        PUSH    DPH
        CFI DPH0 Frame(CFA_SP, 5)
        CFI CFA_SP SP+-5
        ; Saved register size: 2
        ; Auto size: 0
        MOV     R2,#0x0
        MOV     R3,#0x0
        MOV     DPTR,#dmaCfg + 256
        MOVX    A,@DPTR
        CLR     C
        RLC     A
        MOV     R0,A
        CLR     A
        RLC     A
        MOV     R1,A
        MOV     A,#dmaCfg & 0xff
        ADD     A,R0
        MOV     DPL,A
        MOV     A,#(dmaCfg >> 8) & 0xff
        ADDC    A,R1
        MOV     DPH,A
        INC     DPTR
        MOVX    A,@DPTR
        XRL     A,0xc2
        JNZ     ??HalUARTRxAvailDMA_0
        MOV     R0,#0x0
        MOV     R1,#0x0
        SJMP    ??HalUARTRxAvailDMA_1
??HalUARTRxAvailDMA_2:
        MOV     A,R0
        MOV     R4,A
        MOV     A,R1
        MOV     R5,A
        MOV     A,R4
        CLR     C
        RLC     A
        MOV     R4,A
        MOV     A,R5
        RLC     A
        MOV     R5,A
        MOV     A,#dmaCfg & 0xff
        ADD     A,R4
        MOV     DPL,A
        MOV     A,#(dmaCfg >> 8) & 0xff
        ADDC    A,R5
        MOV     DPH,A
        INC     DPTR
        MOVX    A,@DPTR
        XRL     A,0xc2
        JNZ     ??HalUARTRxAvailDMA_3
        MOV     A,R2
        ADD     A,#0x1
        INC     R2
        MOV     A,R3
        ADDC    A,#0x0
        MOV     R3,A
??HalUARTRxAvailDMA_3:
        MOV     A,R0
        ADD     A,#0x1
        INC     R0
        MOV     A,R1
        ADDC    A,#0x0
        MOV     R1,A
??HalUARTRxAvailDMA_1:
        CLR     C
        MOV     A,R0
        SUBB    A,#-0x80
        MOV     A,R1
        SUBB    A,#0x0
        JC      ??HalUARTRxAvailDMA_2
??HalUARTRxAvailDMA_0:
        POP     DPH
        CFI DPH0 SameValue
        CFI CFA_SP SP+-4
        POP     DPL
        CFI DPL0 SameValue
        CFI CFA_SP SP+-3
        LJMP    ?BRET
        CFI EndBlock cfiBlock6
        REQUIRE U0BAUD

        RSEG BANKED_CODE:CODE:NOROOT(0)
// static __banked_func __xdata_reentrant void HalUARTSuspendDMA(void)
HalUARTSuspendDMA:
        CFI Block cfiBlock7 Using cfiCommon0
        CFI Function HalUARTSuspendDMA
        CODE
        ; Saved register size: 0
        ; Auto size: 0
        ANL     0x86,#0xbf
        LJMP    ?BRET
        CFI EndBlock cfiBlock7
        REQUIRE U0CSR

        RSEG BANKED_CODE:CODE:NOROOT(0)
// static __banked_func __xdata_reentrant void HalUARTResumeDMA(void)
HalUARTResumeDMA:
        CFI Block cfiBlock8 Using cfiCommon0
        CFI Function HalUARTResumeDMA
        CODE
        ; Saved register size: 0
        ; Auto size: 0
        ORL     0xc4,#0x80
        ORL     0x86,#0x40
        LJMP    ?BRET
        CFI EndBlock cfiBlock8
        REQUIRE U0UCR
        REQUIRE U0CSR

        RSEG BANKED_CODE:CODE:NOROOT(0)
// __banked_func __xdata_reentrant void HalUARTIsrDMA(void)
HalUARTIsrDMA:
        CFI Block cfiBlock9 Using cfiCommon0
        CFI Function HalUARTIsrDMA
        CODE
        PUSH    DPL
        CFI DPL0 Frame(CFA_SP, 4)
        CFI CFA_SP SP+-4
        PUSH    DPH
        CFI DPH0 Frame(CFA_SP, 5)
        CFI CFA_SP SP+-5
        ; Saved register size: 2
        ; Auto size: 0
        ANL     0xd1,#0xef
        MOV     DPTR,#dmaCfg + 518
        MOVX    A,@DPTR
        XRL     A,#0x1
        MOV     R0,A
        MOV     A,#(dmaCfg + 4) & 0xff
        ADD     A,R0
        MOV     DPL,A
        MOV     A,#((dmaCfg + 516) >> 8) & 0xff
        ADDC    A,#0x0
        MOV     DPH,A
        CLR     A
        MOVX    @DPTR,A
        MOV     DPTR,#dmaCfg + 519
        INC     A
        MOVX    @DPTR,A
        MOV     A,0x95
        MOV     DPTR,#dmaCfg + 521
        MOVX    @DPTR,A
        INC     DPTR
        MOV     A,#0x1
        MOVX    @DPTR,A
        MOV     DPTR,#dmaCfg + 518
        MOVX    A,@DPTR
        MOV     R0,A
        MOV     A,#(dmaCfg + 4) & 0xff
        ADD     A,R0
        MOV     DPL,A
        MOV     A,#((dmaCfg + 516) >> 8) & 0xff
        ADDC    A,#0x0
        MOV     DPH,A
        MOVX    A,@DPTR
        JZ      ??HalUARTIsrDMA_0
        MOV     DPTR,#dmaCfg + 523
        MOV     A,#0x1
        MOVX    @DPTR,A
??HalUARTIsrDMA_0:
        POP     DPH
        CFI DPH0 SameValue
        CFI CFA_SP SP+-4
        POP     DPL
        CFI DPL0 SameValue
        CFI CFA_SP SP+-3
        LJMP    ?BRET
        CFI EndBlock cfiBlock9
        REQUIRE DMAIRQ
        REQUIRE ST0
//   79 #endif
//   80 #if HAL_UART_ISR
//   81 #include "_hal_uart_isr.c"
//   82 #endif
//   83 #if HAL_UART_USB
//   84 #include "_hal_uart_usb.c"
//   85 #endif
//   86 
//   87 /******************************************************************************
//   88  * @fn      HalUARTInit
//   89  *
//   90  * @brief   Initialize the UART
//   91  *
//   92  * @param   none
//   93  *
//   94  * @return  none
//   95  *****************************************************************************/

        RSEG BANKED_CODE:CODE:NOROOT(0)
//   96 void HalUARTInit(void)
HalUARTInit:
        CFI Block cfiBlock10 Using cfiCommon0
        CFI Function HalUARTInit
        CODE
//   97 {
        FUNCALL HalUARTInit, HalUARTInitDMA
        LOCFRAME ISTACK, 2, STACK
        LOCFRAME PSTACK, 0, STACK
        LOCFRAME XSTACK, 0, STACK
        LOCFRAME IOVERLAY, 0, STATIC
        LOCFRAME DOVERLAY, 0, STATIC
        ARGFRAME ISTACK, 2, STACK
        ARGFRAME PSTACK, 0, STACK
        ARGFRAME XSTACK, 0, STACK
        ARGFRAME IOVERLAY, 0, STATIC
        ARGFRAME DOVERLAY, 0, STATIC
        PUSH    DPL
        CFI DPL0 Frame(CFA_SP, 4)
        CFI CFA_SP SP+-4
        PUSH    DPH
        CFI DPH0 Frame(CFA_SP, 5)
        CFI CFA_SP SP+-5
        ; Saved register size: 2
        ; Auto size: 0
//   98 #if HAL_UART_DMA
//   99   HalUARTInitDMA();
        ; Setup parameters for call to function HalUARTInitDMA
        LCALL   ??HalUARTInitDMA?relay
//  100 #endif
//  101 #if HAL_UART_ISR
//  102   HalUARTInitISR();
//  103 #endif
//  104 #if HAL_UART_USB
//  105   HalUARTInitUSB();
//  106 #endif
//  107 }
        POP     DPH
        CFI DPH0 SameValue
        CFI CFA_SP SP+-4
        POP     DPL
        CFI DPL0 SameValue
        CFI CFA_SP SP+-3
        LJMP    ?BRET
        CFI EndBlock cfiBlock10
//  108 
//  109 /******************************************************************************
//  110  * @fn      HalUARTOpen
//  111  *
//  112  * @brief   Open a port according tp the configuration specified by parameter.
//  113  *
//  114  * @param   port   - UART port
//  115  *          config - contains configuration information
//  116  *
//  117  * @return  Status of the function call
//  118  *****************************************************************************/

        RSEG BANKED_CODE:CODE:NOROOT(0)
//  119 uint8 HalUARTOpen(uint8 port, halUARTCfg_t *config)
HalUARTOpen:
        CFI Block cfiBlock11 Using cfiCommon0
        CFI Function HalUARTOpen
        CODE
//  120 {
        FUNCALL HalUARTOpen, HalUARTOpenDMA
        LOCFRAME ISTACK, 0, STACK
        LOCFRAME PSTACK, 0, STACK
        LOCFRAME XSTACK, 9, STACK
        LOCFRAME IOVERLAY, 0, STATIC
        LOCFRAME DOVERLAY, 0, STATIC
        ARGFRAME ISTACK, 0, STACK
        ARGFRAME PSTACK, 0, STACK
        ARGFRAME XSTACK, 9, STACK
        ARGFRAME IOVERLAY, 0, STATIC
        ARGFRAME DOVERLAY, 0, STATIC
        MOV     A,#-0x9
        LCALL   ?BANKED_ENTER_XDATA
        CFI DPH0 load(1, XDATA, add(CFA_XSP16, literal(-1)))
        CFI DPL0 load(1, XDATA, add(CFA_XSP16, literal(-2)))
        CFI ?BRET_EXT load(1, XDATA, add(CFA_XSP16, literal(-3)))
        CFI ?RET_HIGH load(1, XDATA, add(CFA_XSP16, literal(-4)))
        CFI ?RET_LOW load(1, XDATA, add(CFA_XSP16, literal(-5)))
        CFI R7 load(1, XDATA, add(CFA_XSP16, literal(-6)))
        CFI V0 load(1, XDATA, add(CFA_XSP16, literal(-7)))
        CFI VB load(1, XDATA, add(CFA_XSP16, literal(-8)))
        CFI R6 load(1, XDATA, add(CFA_XSP16, literal(-9)))
        CFI CFA_SP SP+0
        CFI CFA_XSP16 add(XSP16, 9)
        ; Saved register size: 9
        ; Auto size: 0
        MOV     A,R1
//  121   (void)port;
//  122   (void)config;
//  123 
//  124 #if (HAL_UART_DMA == 1)
//  125   if (port == HAL_UART_PORT_0)  HalUARTOpenDMA(config);
        JNZ     ??HalUARTOpen_0
        ; Setup parameters for call to function HalUARTOpenDMA
        LCALL   ??HalUARTOpenDMA?relay
//  126 #endif
//  127 #if (HAL_UART_DMA == 2)
//  128   if (port == HAL_UART_PORT_1)  HalUARTOpenDMA(config);
//  129 #endif
//  130 #if (HAL_UART_ISR == 1)
//  131   if (port == HAL_UART_PORT_0)  HalUARTOpenISR(config);
//  132 #endif
//  133 #if (HAL_UART_ISR == 2)
//  134   if (port == HAL_UART_PORT_1)  HalUARTOpenISR(config);
//  135 #endif
//  136 #if (HAL_UART_USB)
//  137   HalUARTOpenUSB(config);
//  138 #endif
//  139   
//  140   return HAL_UART_SUCCESS;
??HalUARTOpen_0:
        MOV     R1,#0x0
        MOV     R7,#0x1
        LJMP    ?BANKED_LEAVE_XDATA
        CFI EndBlock cfiBlock11
//  141 }
//  142 
//  143 /*****************************************************************************
//  144  * @fn      HalUARTRead
//  145  *
//  146  * @brief   Read a buffer from the UART
//  147  *
//  148  * @param   port - USART module designation
//  149  *          buf  - valid data buffer at least 'len' bytes in size
//  150  *          len  - max length number of bytes to copy to 'buf'
//  151  *
//  152  * @return  length of buffer that was read
//  153  *****************************************************************************/

        RSEG BANKED_CODE:CODE:NOROOT(0)
//  154 uint16 HalUARTRead(uint8 port, uint8 *buf, uint16 len)
HalUARTRead:
        CFI Block cfiBlock12 Using cfiCommon0
        CFI Function HalUARTRead
        CODE
//  155 {
        FUNCALL HalUARTRead, HalUARTReadDMA
        LOCFRAME ISTACK, 0, STACK
        LOCFRAME PSTACK, 0, STACK
        LOCFRAME XSTACK, 9, STACK
        LOCFRAME IOVERLAY, 0, STATIC
        LOCFRAME DOVERLAY, 0, STATIC
        ARGFRAME ISTACK, 0, STACK
        ARGFRAME PSTACK, 0, STACK
        ARGFRAME XSTACK, 9, STACK
        ARGFRAME IOVERLAY, 0, STATIC
        ARGFRAME DOVERLAY, 0, STATIC
        MOV     A,#-0x9
        LCALL   ?BANKED_ENTER_XDATA
        CFI DPH0 load(1, XDATA, add(CFA_XSP16, literal(-1)))
        CFI DPL0 load(1, XDATA, add(CFA_XSP16, literal(-2)))
        CFI ?BRET_EXT load(1, XDATA, add(CFA_XSP16, literal(-3)))
        CFI ?RET_HIGH load(1, XDATA, add(CFA_XSP16, literal(-4)))
        CFI ?RET_LOW load(1, XDATA, add(CFA_XSP16, literal(-5)))
        CFI R7 load(1, XDATA, add(CFA_XSP16, literal(-6)))
        CFI V0 load(1, XDATA, add(CFA_XSP16, literal(-7)))
        CFI VB load(1, XDATA, add(CFA_XSP16, literal(-8)))
        CFI R6 load(1, XDATA, add(CFA_XSP16, literal(-9)))
        CFI CFA_SP SP+0
        CFI CFA_XSP16 add(XSP16, 9)
        ; Saved register size: 9
        ; Auto size: 0
        MOV     A,R1
//  156   (void)port;
//  157   (void)buf;
//  158   (void)len;
//  159 
//  160 #if (HAL_UART_DMA == 1)
//  161   if (port == HAL_UART_PORT_0)  return HalUARTReadDMA(buf, len);
        JNZ     ??HalUARTRead_0
        ; Setup parameters for call to function HalUARTReadDMA
        LCALL   ??HalUARTReadDMA?relay
        SJMP    ??HalUARTRead_1
//  162 #endif
//  163 #if (HAL_UART_DMA == 2)
//  164   if (port == HAL_UART_PORT_1)  return HalUARTReadDMA(buf, len);
//  165 #endif
//  166 #if (HAL_UART_ISR == 1)
//  167   if (port == HAL_UART_PORT_0)  return HalUARTReadISR(buf, len);
//  168 #endif
//  169 #if (HAL_UART_ISR == 2)
//  170   if (port == HAL_UART_PORT_1)  return HalUARTReadISR(buf, len);
//  171 #endif
//  172 
//  173 #if HAL_UART_USB
//  174   return HalUARTRx(buf, len);
//  175 #else
//  176   return 0;
??HalUARTRead_0:
        MOV     R2,#0x0
        MOV     R3,#0x0
??HalUARTRead_1:
        MOV     R7,#0x1
        LJMP    ?BANKED_LEAVE_XDATA
        CFI EndBlock cfiBlock12
//  177 #endif
//  178 }
//  179 
//  180 /******************************************************************************
//  181  * @fn      HalUARTWrite
//  182  *
//  183  * @brief   Write a buffer to the UART.
//  184  *
//  185  * @param   port - UART port
//  186  *          buf  - pointer to the buffer that will be written, not freed
//  187  *          len  - length of
//  188  *
//  189  * @return  length of the buffer that was sent
//  190  *****************************************************************************/

        RSEG BANKED_CODE:CODE:NOROOT(0)
//  191 uint16 HalUARTWrite(uint8 port, uint8 *buf, uint16 len)
HalUARTWrite:
        CFI Block cfiBlock13 Using cfiCommon0
        CFI Function HalUARTWrite
        CODE
//  192 {
        FUNCALL HalUARTWrite, HalUARTWriteDMA
        LOCFRAME ISTACK, 0, STACK
        LOCFRAME PSTACK, 0, STACK
        LOCFRAME XSTACK, 9, STACK
        LOCFRAME IOVERLAY, 0, STATIC
        LOCFRAME DOVERLAY, 0, STATIC
        ARGFRAME ISTACK, 0, STACK
        ARGFRAME PSTACK, 0, STACK
        ARGFRAME XSTACK, 9, STACK
        ARGFRAME IOVERLAY, 0, STATIC
        ARGFRAME DOVERLAY, 0, STATIC
        MOV     A,#-0x9
        LCALL   ?BANKED_ENTER_XDATA
        CFI DPH0 load(1, XDATA, add(CFA_XSP16, literal(-1)))
        CFI DPL0 load(1, XDATA, add(CFA_XSP16, literal(-2)))
        CFI ?BRET_EXT load(1, XDATA, add(CFA_XSP16, literal(-3)))
        CFI ?RET_HIGH load(1, XDATA, add(CFA_XSP16, literal(-4)))
        CFI ?RET_LOW load(1, XDATA, add(CFA_XSP16, literal(-5)))
        CFI R7 load(1, XDATA, add(CFA_XSP16, literal(-6)))
        CFI V0 load(1, XDATA, add(CFA_XSP16, literal(-7)))
        CFI VB load(1, XDATA, add(CFA_XSP16, literal(-8)))
        CFI R6 load(1, XDATA, add(CFA_XSP16, literal(-9)))
        CFI CFA_SP SP+0
        CFI CFA_XSP16 add(XSP16, 9)
        ; Saved register size: 9
        ; Auto size: 0
        MOV     A,R1
//  193   (void)port;
//  194   (void)buf;
//  195   (void)len;
//  196 
//  197 #if (HAL_UART_DMA == 1)
//  198   if (port == HAL_UART_PORT_0)  return HalUARTWriteDMA(buf, len);
        JNZ     ??HalUARTWrite_0
        ; Setup parameters for call to function HalUARTWriteDMA
        LCALL   ??HalUARTWriteDMA?relay
        SJMP    ??HalUARTWrite_1
//  199 #endif
//  200 #if (HAL_UART_DMA == 2)
//  201   if (port == HAL_UART_PORT_1)  return HalUARTWriteDMA(buf, len);
//  202 #endif
//  203 #if (HAL_UART_ISR == 1)
//  204   if (port == HAL_UART_PORT_0)  return HalUARTWriteISR(buf, len);
//  205 #endif
//  206 #if (HAL_UART_ISR == 2)
//  207   if (port == HAL_UART_PORT_1)  return HalUARTWriteISR(buf, len);
//  208 #endif
//  209 
//  210 #if HAL_UART_USB
//  211   HalUARTTx(buf, len);
//  212   return len;
//  213 #else
//  214   return 0;
??HalUARTWrite_0:
        MOV     R2,#0x0
        MOV     R3,#0x0
??HalUARTWrite_1:
        MOV     R7,#0x1
        LJMP    ?BANKED_LEAVE_XDATA
        CFI EndBlock cfiBlock13
//  215 #endif
//  216 }
//  217 
//  218 /******************************************************************************
//  219  * @fn      HalUARTSuspend
//  220  *
//  221  * @brief   Suspend UART hardware before entering PM mode 1, 2 or 3.
//  222  *
//  223  * @param   None
//  224  *
//  225  * @return  None
//  226  *****************************************************************************/

        RSEG BANKED_CODE:CODE:NOROOT(0)
//  227 void HalUARTSuspend( void )
HalUARTSuspend:
        CFI Block cfiBlock14 Using cfiCommon0
        CFI Function HalUARTSuspend
        CODE
//  228 {
        FUNCALL HalUARTSuspend, HalUARTSuspendDMA
        LOCFRAME ISTACK, 2, STACK
        LOCFRAME PSTACK, 0, STACK
        LOCFRAME XSTACK, 0, STACK
        LOCFRAME IOVERLAY, 0, STATIC
        LOCFRAME DOVERLAY, 0, STATIC
        ARGFRAME ISTACK, 2, STACK
        ARGFRAME PSTACK, 0, STACK
        ARGFRAME XSTACK, 0, STACK
        ARGFRAME IOVERLAY, 0, STATIC
        ARGFRAME DOVERLAY, 0, STATIC
        PUSH    DPL
        CFI DPL0 Frame(CFA_SP, 4)
        CFI CFA_SP SP+-4
        PUSH    DPH
        CFI DPH0 Frame(CFA_SP, 5)
        CFI CFA_SP SP+-5
        ; Saved register size: 2
        ; Auto size: 0
//  229 #if HAL_UART_DMA
//  230   HalUARTSuspendDMA();
        ; Setup parameters for call to function HalUARTSuspendDMA
        LCALL   ??HalUARTSuspendDMA?relay
//  231 #endif
//  232 #if HAL_UART_ISR
//  233   HalUARTSuspendISR();
//  234 #endif
//  235 }
        POP     DPH
        CFI DPH0 SameValue
        CFI CFA_SP SP+-4
        POP     DPL
        CFI DPL0 SameValue
        CFI CFA_SP SP+-3
        LJMP    ?BRET
        CFI EndBlock cfiBlock14
//  236 
//  237 /******************************************************************************
//  238  * @fn      HalUARTResume
//  239  *
//  240  * @brief   Resume UART hardware after exiting PM mode 1, 2 or 3.
//  241  *
//  242  * @param   None
//  243  *
//  244  * @return  None
//  245  *****************************************************************************/

        RSEG BANKED_CODE:CODE:NOROOT(0)
//  246 void HalUARTResume( void )
HalUARTResume:
        CFI Block cfiBlock15 Using cfiCommon0
        CFI Function HalUARTResume
        CODE
//  247 {
        FUNCALL HalUARTResume, HalUARTResumeDMA
        LOCFRAME ISTACK, 2, STACK
        LOCFRAME PSTACK, 0, STACK
        LOCFRAME XSTACK, 0, STACK
        LOCFRAME IOVERLAY, 0, STATIC
        LOCFRAME DOVERLAY, 0, STATIC
        ARGFRAME ISTACK, 2, STACK
        ARGFRAME PSTACK, 0, STACK
        ARGFRAME XSTACK, 0, STACK
        ARGFRAME IOVERLAY, 0, STATIC
        ARGFRAME DOVERLAY, 0, STATIC
        PUSH    DPL
        CFI DPL0 Frame(CFA_SP, 4)
        CFI CFA_SP SP+-4
        PUSH    DPH
        CFI DPH0 Frame(CFA_SP, 5)
        CFI CFA_SP SP+-5
        ; Saved register size: 2
        ; Auto size: 0
//  248 #if HAL_UART_DMA
//  249   HalUARTResumeDMA();
        ; Setup parameters for call to function HalUARTResumeDMA
        LCALL   ??HalUARTResumeDMA?relay
//  250 #endif
//  251 #if HAL_UART_ISR
//  252   HalUARTResumeISR();
//  253 #endif
//  254 }
        POP     DPH
        CFI DPH0 SameValue
        CFI CFA_SP SP+-4
        POP     DPL
        CFI DPL0 SameValue
        CFI CFA_SP SP+-3
        LJMP    ?BRET
        CFI EndBlock cfiBlock15
//  255 
//  256 /***************************************************************************************************
//  257  * @fn      HalUARTPoll
//  258  *
//  259  * @brief   Poll the UART.
//  260  *
//  261  * @param   none
//  262  *
//  263  * @return  none
//  264  *****************************************************************************/

        RSEG BANKED_CODE:CODE:NOROOT(0)
//  265 void HalUARTPoll(void)
HalUARTPoll:
        CFI Block cfiBlock16 Using cfiCommon0
        CFI Function HalUARTPoll
        CODE
//  266 {
        FUNCALL HalUARTPoll, HalUARTPollDMA
        LOCFRAME ISTACK, 2, STACK
        LOCFRAME PSTACK, 0, STACK
        LOCFRAME XSTACK, 0, STACK
        LOCFRAME IOVERLAY, 0, STATIC
        LOCFRAME DOVERLAY, 0, STATIC
        ARGFRAME ISTACK, 2, STACK
        ARGFRAME PSTACK, 0, STACK
        ARGFRAME XSTACK, 0, STACK
        ARGFRAME IOVERLAY, 0, STATIC
        ARGFRAME DOVERLAY, 0, STATIC
        PUSH    DPL
        CFI DPL0 Frame(CFA_SP, 4)
        CFI CFA_SP SP+-4
        PUSH    DPH
        CFI DPH0 Frame(CFA_SP, 5)
        CFI CFA_SP SP+-5
        ; Saved register size: 2
        ; Auto size: 0
//  267 #if HAL_UART_DMA
//  268   HalUARTPollDMA();
        ; Setup parameters for call to function HalUARTPollDMA
        LCALL   ??HalUARTPollDMA?relay
//  269 #endif
//  270 #if HAL_UART_ISR
//  271   HalUARTPollISR();
//  272 #endif
//  273 #if HAL_UART_USB
//  274   HalUARTPollUSB();
//  275 #endif
//  276 }
        POP     DPH
        CFI DPH0 SameValue
        CFI CFA_SP SP+-4
        POP     DPL
        CFI DPL0 SameValue
        CFI CFA_SP SP+-3
        LJMP    ?BRET
        CFI EndBlock cfiBlock16
//  277 
//  278 /**************************************************************************************************
//  279  * @fn      Hal_UART_RxBufLen()
//  280  *
//  281  * @brief   Calculate Rx Buffer length - the number of bytes in the buffer.
//  282  *
//  283  * @param   port - UART port
//  284  *
//  285  * @return  length of current Rx Buffer
//  286  **************************************************************************************************/

        RSEG BANKED_CODE:CODE:NOROOT(0)
//  287 uint16 Hal_UART_RxBufLen( uint8 port )
Hal_UART_RxBufLen:
        CFI Block cfiBlock17 Using cfiCommon0
        CFI Function Hal_UART_RxBufLen
        CODE
//  288 {
        FUNCALL Hal_UART_RxBufLen, HalUARTRxAvailDMA
        LOCFRAME ISTACK, 0, STACK
        LOCFRAME PSTACK, 0, STACK
        LOCFRAME XSTACK, 9, STACK
        LOCFRAME IOVERLAY, 0, STATIC
        LOCFRAME DOVERLAY, 0, STATIC
        ARGFRAME ISTACK, 0, STACK
        ARGFRAME PSTACK, 0, STACK
        ARGFRAME XSTACK, 9, STACK
        ARGFRAME IOVERLAY, 0, STATIC
        ARGFRAME DOVERLAY, 0, STATIC
        MOV     A,#-0x9
        LCALL   ?BANKED_ENTER_XDATA
        CFI DPH0 load(1, XDATA, add(CFA_XSP16, literal(-1)))
        CFI DPL0 load(1, XDATA, add(CFA_XSP16, literal(-2)))
        CFI ?BRET_EXT load(1, XDATA, add(CFA_XSP16, literal(-3)))
        CFI ?RET_HIGH load(1, XDATA, add(CFA_XSP16, literal(-4)))
        CFI ?RET_LOW load(1, XDATA, add(CFA_XSP16, literal(-5)))
        CFI R7 load(1, XDATA, add(CFA_XSP16, literal(-6)))
        CFI V0 load(1, XDATA, add(CFA_XSP16, literal(-7)))
        CFI VB load(1, XDATA, add(CFA_XSP16, literal(-8)))
        CFI R6 load(1, XDATA, add(CFA_XSP16, literal(-9)))
        CFI CFA_SP SP+0
        CFI CFA_XSP16 add(XSP16, 9)
        ; Saved register size: 9
        ; Auto size: 0
        MOV     A,R1
//  289   (void)port;
//  290 
//  291 #if (HAL_UART_DMA == 1)
//  292   if (port == HAL_UART_PORT_0)  return HalUARTRxAvailDMA();
        JNZ     ??Hal_UART_RxBufLen_0
        ; Setup parameters for call to function HalUARTRxAvailDMA
        LCALL   ??HalUARTRxAvailDMA?relay
        SJMP    ??Hal_UART_RxBufLen_1
//  293 #endif
//  294 #if (HAL_UART_DMA == 2)
//  295   if (port == HAL_UART_PORT_1)  return HalUARTRxAvailDMA();
//  296 #endif
//  297 #if (HAL_UART_ISR == 1)
//  298   if (port == HAL_UART_PORT_0)  return HalUARTRxAvailISR();
//  299 #endif
//  300 #if (HAL_UART_ISR == 2)
//  301   if (port == HAL_UART_PORT_1)  return HalUARTRxAvailISR();
//  302 #endif
//  303 #if HAL_UART_USB
//  304   return HalUARTRxAvailUSB();
//  305 #else
//  306   return 0;
??Hal_UART_RxBufLen_0:
        MOV     R2,#0x0
        MOV     R3,#0x0
??Hal_UART_RxBufLen_1:
        MOV     R7,#0x1
        LJMP    ?BANKED_LEAVE_XDATA
        CFI EndBlock cfiBlock17
//  307 #endif
//  308 }
//  309 /*
//  310 */

        RSEG BANKED_CODE:CODE:NOROOT(0)
//  311 void UART_PrintData(uint8 *pprompt,uint32 data)
UART_PrintData:
        CFI Block cfiBlock18 Using cfiCommon0
        CFI Function UART_PrintData
        CODE
//  312 {
        FUNCALL UART_PrintData, strlen
        LOCFRAME ISTACK, 0, STACK
        LOCFRAME PSTACK, 0, STACK
        LOCFRAME XSTACK, 24, STACK
        LOCFRAME IOVERLAY, 0, STATIC
        LOCFRAME DOVERLAY, 0, STATIC
        ARGFRAME ISTACK, 0, STACK
        ARGFRAME PSTACK, 0, STACK
        ARGFRAME XSTACK, 24, STACK
        ARGFRAME IOVERLAY, 0, STATIC
        ARGFRAME DOVERLAY, 0, STATIC
        FUNCALL UART_PrintData, HalUARTWrite
        LOCFRAME ISTACK, 0, STACK
        LOCFRAME PSTACK, 0, STACK
        LOCFRAME XSTACK, 24, STACK
        LOCFRAME IOVERLAY, 0, STATIC
        LOCFRAME DOVERLAY, 0, STATIC
        ARGFRAME ISTACK, 0, STACK
        ARGFRAME PSTACK, 0, STACK
        ARGFRAME XSTACK, 24, STACK
        ARGFRAME IOVERLAY, 0, STATIC
        ARGFRAME DOVERLAY, 0, STATIC
        FUNCALL UART_PrintData, HalUARTWrite
        LOCFRAME ISTACK, 0, STACK
        LOCFRAME PSTACK, 0, STACK
        LOCFRAME XSTACK, 24, STACK
        LOCFRAME IOVERLAY, 0, STATIC
        LOCFRAME DOVERLAY, 0, STATIC
        ARGFRAME ISTACK, 0, STACK
        ARGFRAME PSTACK, 0, STACK
        ARGFRAME XSTACK, 24, STACK
        ARGFRAME IOVERLAY, 0, STATIC
        ARGFRAME DOVERLAY, 0, STATIC
        FUNCALL UART_PrintData, HalUARTWrite
        LOCFRAME ISTACK, 0, STACK
        LOCFRAME PSTACK, 0, STACK
        LOCFRAME XSTACK, 24, STACK
        LOCFRAME IOVERLAY, 0, STATIC
        LOCFRAME DOVERLAY, 0, STATIC
        ARGFRAME ISTACK, 0, STACK
        ARGFRAME PSTACK, 0, STACK
        ARGFRAME XSTACK, 24, STACK
        ARGFRAME IOVERLAY, 0, STATIC
        ARGFRAME DOVERLAY, 0, STATIC
        MOV     A,#-0x10
        LCALL   ?BANKED_ENTER_XDATA
        CFI DPH0 load(1, XDATA, add(CFA_XSP16, literal(-1)))
        CFI DPL0 load(1, XDATA, add(CFA_XSP16, literal(-2)))
        CFI ?BRET_EXT load(1, XDATA, add(CFA_XSP16, literal(-3)))
        CFI ?RET_HIGH load(1, XDATA, add(CFA_XSP16, literal(-4)))
        CFI ?RET_LOW load(1, XDATA, add(CFA_XSP16, literal(-5)))
        CFI R7 load(1, XDATA, add(CFA_XSP16, literal(-6)))
        CFI V7 load(1, XDATA, add(CFA_XSP16, literal(-7)))
        CFI V6 load(1, XDATA, add(CFA_XSP16, literal(-8)))
        CFI V5 load(1, XDATA, add(CFA_XSP16, literal(-9)))
        CFI V4 load(1, XDATA, add(CFA_XSP16, literal(-10)))
        CFI V3 load(1, XDATA, add(CFA_XSP16, literal(-11)))
        CFI V2 load(1, XDATA, add(CFA_XSP16, literal(-12)))
        CFI V1 load(1, XDATA, add(CFA_XSP16, literal(-13)))
        CFI V0 load(1, XDATA, add(CFA_XSP16, literal(-14)))
        CFI VB load(1, XDATA, add(CFA_XSP16, literal(-15)))
        CFI R6 load(1, XDATA, add(CFA_XSP16, literal(-16)))
        CFI CFA_SP SP+0
        CFI CFA_XSP16 add(XSP16, 16)
        ; Saved register size: 16
        ; Auto size: 8
        MOV     A,#-0x8
        LCALL   ?ALLOC_XSTACK8
        CFI CFA_XSP16 add(XSP16, 24)
        MOV     A,R2
        MOV     R6,A
        MOV     A,R3
        MOV     R7,A
        MOV     A,#0x18
        LCALL   ?XSTACK_DISP0_8
        MOV     R0,#?V0 + 4
        LCALL   ?L_MOV_X
//  313   uint8 temp[4]={0},temp1[4]={0},index=0,i = 0;
        MOV     DPTR,#`?<Constant {0}>`
        PUSH    DPL
        CFI CFA_SP SP+-1
        PUSH    DPH
        CFI CFA_SP SP+-2
        MOV     DPL,?XSP + 0
        MOV     DPH,?XSP + 1
        MOV     R4,DPL
        MOV     R5,DPH
        POP     DPH
        CFI CFA_SP SP+-1
        POP     DPL
        CFI CFA_SP SP+0
        MOV     A,#0x4
        LCALL   ?MOVE_LONG8_XDATA_XDATA
        MOV     DPTR,#`?<Constant {0}>_1`
        PUSH    DPL
        CFI CFA_SP SP+-1
        PUSH    DPH
        CFI CFA_SP SP+-2
        MOV     A,#0x4
        LCALL   ?XSTACK_DISP0_8
        MOV     R4,DPL
        MOV     R5,DPH
        POP     DPH
        CFI CFA_SP SP+-1
        POP     DPL
        CFI CFA_SP SP+0
        MOV     A,#0x4
        LCALL   ?MOVE_LONG8_XDATA_XDATA
        MOV     ?V0 + 2,A
//  314   HalUARTWrite(0,pprompt,strlen((char const *)pprompt));
        ; Setup parameters for call to function HalUARTWrite
        ; Setup parameters for call to function strlen
        LCALL   ??strlen?relay
        MOV     A,R2
        MOV     R4,A
        MOV     A,R3
        MOV     R5,A
        MOV     A,R6
        MOV     R2,A
        MOV     A,R7
        MOV     R3,A
        MOV     R1,#0x0
        LCALL   ??HalUARTWrite?relay
//  315   
//  316   temp[index++] = (data&0x0F) + 0x30;
        MOV     A,?V0 + 4
        ANL     A,#0xf
        ADD     A,#0x30
        MOV     DPL,?XSP + 0
        MOV     DPH,?XSP + 1
        MOVX    @DPTR,A
//  317   data          = data >> 4;
        MOV     A,#0x4
        MOV     R0,#?V0 + 4
        LCALL   ?UL_SHR
//  318   temp[index++] = (data&0x0F) + 0x30; 
        MOV     ?V0 + 0,?V0 + 4
        MOV     A,?V0 + 0
        ANL     A,#0xf
        ADD     A,#0x30
        PUSH    A
        CFI CFA_SP SP+-1
        MOV     A,#0x1
        LCALL   ?XSTACK_DISP0_8
        POP     A
        CFI CFA_SP SP+0
        MOVX    @DPTR,A
//  319   data          = data >> 4;
        MOV     A,#0x4
        MOV     R0,#?V0 + 4
        LCALL   ?UL_SHR
//  320   temp[index++] = (data&0x0F) + 0x30;
        MOV     ?V0 + 0,?V0 + 4
        MOV     A,?V0 + 0
        ANL     A,#0xf
        ADD     A,#0x30
        PUSH    A
        CFI CFA_SP SP+-1
        MOV     A,#0x2
        LCALL   ?XSTACK_DISP0_8
        POP     A
        CFI CFA_SP SP+0
        MOVX    @DPTR,A
//  321   data          = data >> 4;
//  322   temp[index++] = (data&0x0F) + 0x30; 
        MOV     A,?V0 + 4
        SWAP    A
        ANL     A,#0xf
        ADD     A,#0x30
        PUSH    A
        CFI CFA_SP SP+-1
        MOV     A,#0x3
        LCALL   ?XSTACK_DISP0_8
        POP     A
        CFI CFA_SP SP+0
        MOVX    @DPTR,A
        SJMP    ??UART_PrintData_0
//  323   
//  324   while(i<index)
//  325   {
//  326     if(temp[i]>0x39)
??UART_PrintData_1:
        MOV     DPL,?V0 + 2
        MOV     R2,DPL
        MOV     DPL,?XSP + 0
        MOV     DPH,?XSP + 1
        MOV     A,DPL
        ADD     A,R2
        MOV     DPL,A
        MOV     A,DPH
        ADDC    A,#0x0
        MOV     DPH,A
        MOVX    A,@DPTR
        CLR     C
        SUBB    A,#0x3a
        JC      ??UART_PrintData_2
//  327     {
//  328       temp[i] = 0x41+temp[i]-0x39-1;
        MOVX    A,@DPTR
        ADD     A,#0x7
        MOVX    @DPTR,A
//  329     }
//  330     temp1[3-i] = temp[i];
??UART_PrintData_2:
        MOVX    A,@DPTR
        PUSH    A
        CFI CFA_SP SP+-1
        CLR     C
        CLR     A
        SUBB    A,R2
        MOV     R0,A
        SUBB    A,0xE0 /* A   */
        MOV     R1,A
        MOV     A,#0x4
        LCALL   ?XSTACK_DISP0_8
        MOV     A,DPL
        ADD     A,R0
        MOV     DPL,A
        MOV     A,DPH
        ADDC    A,R1
        MOV     DPH,A
        INC     DPTR
        INC     DPTR
        INC     DPTR
        POP     A
        CFI CFA_SP SP+0
        MOVX    @DPTR,A
//  331     i++;
        INC     ?V0 + 2
//  332   }
??UART_PrintData_0:
        MOV     A,?V0 + 2
        CLR     C
        SUBB    A,#0x4
        JC      ??UART_PrintData_1
//  333   HalUARTWrite(0,temp1,index);
        ; Setup parameters for call to function HalUARTWrite
        MOV     R4,#0x4
        MOV     R5,#0x0
        MOV     A,R4
        LCALL   ?XSTACK_DISP0_8
        MOV     R2,DPL
        MOV     R3,DPH
        MOV     R1,#0x0
        LCALL   ??HalUARTWrite?relay
//  334   HalUARTWrite(0,"\r\n",2);
        ; Setup parameters for call to function HalUARTWrite
        MOV     R4,#0x2
        MOV     R5,#0x0
        MOV     R2,#`?<Constant "\\r\\n">` & 0xff
        MOV     R3,#(`?<Constant "\\r\\n">` >> 8) & 0xff
        MOV     R1,#0x0
        LCALL   ??HalUARTWrite?relay
//  335 }
        MOV     A,#0x8
        LCALL   ?DEALLOC_XSTACK8
        CFI CFA_XSP16 add(XSP16, 16)
        MOV     R7,#0x8
        LJMP    ?BANKED_LEAVE_XDATA
        CFI EndBlock cfiBlock18
//  336 /*
//  337 */

        RSEG BANKED_CODE:CODE:NOROOT(0)
//  338 void _bytetoa_Hex(uint8 *pSrc,uint16 len,uint8 *pDest)
_bytetoa_Hex:
        CFI Block cfiBlock19 Using cfiCommon0
        CFI Function _bytetoa_Hex
        CODE
//  339 {
        MOV     A,#-0xd
        LCALL   ?BANKED_ENTER_XDATA
        CFI DPH0 load(1, XDATA, add(CFA_XSP16, literal(-1)))
        CFI DPL0 load(1, XDATA, add(CFA_XSP16, literal(-2)))
        CFI ?BRET_EXT load(1, XDATA, add(CFA_XSP16, literal(-3)))
        CFI ?RET_HIGH load(1, XDATA, add(CFA_XSP16, literal(-4)))
        CFI ?RET_LOW load(1, XDATA, add(CFA_XSP16, literal(-5)))
        CFI R7 load(1, XDATA, add(CFA_XSP16, literal(-6)))
        CFI V4 load(1, XDATA, add(CFA_XSP16, literal(-7)))
        CFI V3 load(1, XDATA, add(CFA_XSP16, literal(-8)))
        CFI V2 load(1, XDATA, add(CFA_XSP16, literal(-9)))
        CFI V1 load(1, XDATA, add(CFA_XSP16, literal(-10)))
        CFI V0 load(1, XDATA, add(CFA_XSP16, literal(-11)))
        CFI VB load(1, XDATA, add(CFA_XSP16, literal(-12)))
        CFI R6 load(1, XDATA, add(CFA_XSP16, literal(-13)))
        CFI CFA_SP SP+0
        CFI CFA_XSP16 add(XSP16, 13)
        ; Saved register size: 13
        ; Auto size: 0
        MOV     A,#0xd
        LCALL   ?XSTACK_DISP0_8
        MOVX    A,@DPTR
        MOV     R0,A
        INC     DPTR
        MOVX    A,@DPTR
        MOV     R1,A
//  340   uint8 temp,i = 0,c=0;
        MOV     ?V0 + 2,#0x0
        SJMP    ??_bytetoa_Hex_0
//  341   while(len--)
//  342   {
//  343     temp = *(pSrc++);
//  344     c = ((temp>>4)&0x0F);
//  345     pDest[i++] = c + (( c < 10 ) ? '0' : '7'); //·¢¸ßµÄËÄ×Ö½Ú
//  346     c = (temp&0x0F);
//  347     pDest[i++] = c + (( c < 10 ) ? '0' : '7');//·¢µÍµÄËÄ×Ö½Ú
??_bytetoa_Hex_1:
        MOV     R6,#0x37
??_bytetoa_Hex_2:
        MOV     A,R6
        ADD     A,?V0 + 1
        PUSH    A
        CFI CFA_SP SP+-1
        MOV     A,R0
        ADD     A,?V0 + 0
        MOV     DPL,A
        MOV     A,R1
        ADDC    A,#0x0
        MOV     DPH,A
        POP     A
        CFI CFA_SP SP+0
        MOVX    @DPTR,A
??_bytetoa_Hex_0:
        MOV     A,R4
        MOV     R6,A
        MOV     A,R5
        MOV     R7,A
        MOV     A,R6
        ADD     A,#-0x1
        DEC     R4
        MOV     A,R7
        ADDC    A,#-0x1
        MOV     R5,A
        MOV     A,R6
        ORL     A,R7
        JZ      ??_bytetoa_Hex_3
        MOV     DPL,R2
        MOV     DPH,R3
        MOVX    A,@DPTR
        MOV     ?V0 + 3,A
        INC     DPTR
        MOV     R2,DPL
        MOV     R3,DPH
        SWAP    A
        ANL     A,#0xf
        MOV     ?V0 + 1,A
        MOV     ?V0 + 4,?V0 + 2
        MOV     A,#0x1
        ADD     A,?V0 + 4
        MOV     ?V0 + 2,A
        MOV     A,?V0 + 1
        CLR     C
        SUBB    A,#0xa
        JNC     ??_bytetoa_Hex_4
        MOV     R6,#0x30
        SJMP    ??_bytetoa_Hex_5
??_bytetoa_Hex_4:
        MOV     R6,#0x37
??_bytetoa_Hex_5:
        MOV     A,R6
        ADD     A,?V0 + 1
        PUSH    A
        CFI CFA_SP SP+-1
        MOV     ?V0 + 0,?V0 + 4
        MOV     A,R0
        ADD     A,?V0 + 0
        MOV     DPL,A
        MOV     A,R1
        ADDC    A,#0x0
        MOV     DPH,A
        POP     A
        CFI CFA_SP SP+0
        MOVX    @DPTR,A
        MOV     A,#0xf
        ANL     A,?V0 + 3
        MOV     ?V0 + 1,A
        MOV     ?V0 + 0,?V0 + 2
        MOV     A,#0x1
        ADD     A,?V0 + 0
        MOV     ?V0 + 2,A
        MOV     A,?V0 + 1
        CLR     C
        SUBB    A,#0xa
        JNC     ??_bytetoa_Hex_1
        MOV     R6,#0x30
        SJMP    ??_bytetoa_Hex_2
//  348   }
//  349 }
??_bytetoa_Hex_3:
        MOV     R7,#0x5
        LJMP    ?BANKED_LEAVE_XDATA
        CFI EndBlock cfiBlock19

        RSEG NEAR_CODE:CODE:NOROOT(0)
//  350 __near_func int putchar(int c)
putchar:
        CFI Block cfiBlock20 Using cfiCommon1
        CFI Function putchar
        CODE
//  351 {
        ; Saved register size: 0
        ; Auto size: 0
//  352     UTX0IF = 0;
        CLR     0xe8.1
//  353     U0DBUF = (char)c;
        MOV     A,R2
        MOV     0xc1,A
//  354     while(UTX0IF == 0);
??putchar_0:
        MOV     C,0xe8.1
        JNC     ??putchar_0
//  355     return(c);
        RET
        CFI EndBlock cfiBlock20
        REQUIRE _A_IRCON2
        REQUIRE U0DBUF
//  356 }

        RSEG BANK_RELAYS:CODE:REORDER:NOROOT(0)
??findTail?relay:
        LCALL   ?BDISPATCH
        DATA
        DC24    findTail

        RSEG BANK_RELAYS:CODE:REORDER:NOROOT(0)
??HalUARTInitDMA?relay:
        LCALL   ?BDISPATCH
        DATA
        DC24    HalUARTInitDMA

        RSEG BANK_RELAYS:CODE:REORDER:NOROOT(0)
??HalUARTOpenDMA?relay:
        LCALL   ?BDISPATCH
        DATA
        DC24    HalUARTOpenDMA

        RSEG BANK_RELAYS:CODE:REORDER:NOROOT(0)
??HalUARTReadDMA?relay:
        LCALL   ?BDISPATCH
        DATA
        DC24    HalUARTReadDMA

        RSEG BANK_RELAYS:CODE:REORDER:NOROOT(0)
??HalUARTWriteDMA?relay:
        LCALL   ?BDISPATCH
        DATA
        DC24    HalUARTWriteDMA

        RSEG BANK_RELAYS:CODE:REORDER:NOROOT(0)
??HalUARTPollDMA?relay:
        LCALL   ?BDISPATCH
        DATA
        DC24    HalUARTPollDMA

        RSEG BANK_RELAYS:CODE:REORDER:NOROOT(0)
??HalUARTRxAvailDMA?relay:
        LCALL   ?BDISPATCH
        DATA
        DC24    HalUARTRxAvailDMA

        RSEG BANK_RELAYS:CODE:REORDER:NOROOT(0)
??HalUARTSuspendDMA?relay:
        LCALL   ?BDISPATCH
        DATA
        DC24    HalUARTSuspendDMA

        RSEG BANK_RELAYS:CODE:REORDER:NOROOT(0)
??HalUARTResumeDMA?relay:
        LCALL   ?BDISPATCH
        DATA
        DC24    HalUARTResumeDMA

        RSEG BANK_RELAYS:CODE:REORDER:NOROOT(0)
??HalUARTIsrDMA?relay:
        LCALL   ?BDISPATCH
        DATA
        DC24    HalUARTIsrDMA

        RSEG BANK_RELAYS:CODE:REORDER:NOROOT(0)
??HalUARTInit?relay:
        LCALL   ?BDISPATCH
        DATA
        DC24    HalUARTInit

        RSEG BANK_RELAYS:CODE:REORDER:NOROOT(0)
??HalUARTOpen?relay:
        LCALL   ?BDISPATCH
        DATA
        DC24    HalUARTOpen

        RSEG BANK_RELAYS:CODE:REORDER:NOROOT(0)
??HalUARTRead?relay:
        LCALL   ?BDISPATCH
        DATA
        DC24    HalUARTRead

        RSEG BANK_RELAYS:CODE:REORDER:NOROOT(0)
??HalUARTWrite?relay:
        LCALL   ?BDISPATCH
        DATA
        DC24    HalUARTWrite

        RSEG BANK_RELAYS:CODE:REORDER:NOROOT(0)
??HalUARTSuspend?relay:
        LCALL   ?BDISPATCH
        DATA
        DC24    HalUARTSuspend

        RSEG BANK_RELAYS:CODE:REORDER:NOROOT(0)
??HalUARTResume?relay:
        LCALL   ?BDISPATCH
        DATA
        DC24    HalUARTResume

        RSEG BANK_RELAYS:CODE:REORDER:NOROOT(0)
??HalUARTPoll?relay:
        LCALL   ?BDISPATCH
        DATA
        DC24    HalUARTPoll

        RSEG BANK_RELAYS:CODE:REORDER:NOROOT(0)
??Hal_UART_RxBufLen?relay:
        LCALL   ?BDISPATCH
        DATA
        DC24    Hal_UART_RxBufLen

        RSEG BANK_RELAYS:CODE:REORDER:NOROOT(0)
??UART_PrintData?relay:
        LCALL   ?BDISPATCH
        DATA
        DC24    UART_PrintData

        RSEG BANK_RELAYS:CODE:REORDER:NOROOT(0)
??_bytetoa_Hex?relay:
        LCALL   ?BDISPATCH
        DATA
        DC24    _bytetoa_Hex

        RSEG XDATA_ROM_C:CONST:REORDER:NOROOT(0)
        DATA32
`?<Constant {0}>`:
        DATA8
        DB 0
        DB 0, 0, 0

        RSEG XDATA_ROM_C:CONST:REORDER:NOROOT(0)
        DATA32
`?<Constant {0}>_1`:
        DATA8
        DB 0
        DB 0, 0, 0

        RSEG XDATA_ROM_C:CONST:REORDER:NOROOT(0)
        DATA8
`?<Constant "\\r\\n">`:
        DB "\015\012"

        END
//  357 /******************************************************************************
//  358 ******************************************************************************/
// 
// 2 027 bytes in segment BANKED_CODE
//   120 bytes in segment BANK_RELAYS
//    10 bytes in segment NEAR_CODE
//    17 bytes in segment SFR_AN
//    11 bytes in segment XDATA_ROM_C
//   526 bytes in segment XDATA_Z
// 
// 2 157 bytes of CODE  memory
//    11 bytes of CONST memory
//     0 bytes of DATA  memory (+ 17 bytes shared)
//   526 bytes of XDATA memory
//
//Errors: none
//Warnings: 1
