###############################################################################
#                                                                             #
# IAR C/C++ Compiler V8.10.3.10338/W32 for 8051         23/Nov/2018  16:47:56 #
# Copyright 2004-2011 IAR Systems AB.                                         #
#                                                                             #
#    Core               =  plain                                              #
#    Code model         =  banked                                             #
#    Data model         =  large                                              #
#    Calling convention =  xdata reentrant                                    #
#    Constant location  =  data_rom                                           #
#    Dptr setup         =  1,16                                               #
#    Source file        =  D:\ZigBee\KJXY-ZigBee\useful_code\groupcast\Compon #
#                          ents\hal\target\CC2530EB\hal_uart.c                #
#    Command line       =  -f D:\ZigBee\KJXY-ZigBee\useful_code\groupcast\Pro #
#                          jects\zstack\Samples\SampleApp\CC2530DB\..\..\..\T #
#                          ools\CC2530DB\f8wRouter.cfg (-DCPU32MHZ            #
#                          -DROOT=__near_func -DMAC_CFG_APP_PENDING_QUEUE=TRU #
#                          E -DRTR_NWK -DBLINK_LEDS) -f                       #
#                          D:\ZigBee\KJXY-ZigBee\useful_code\groupcast\Projec #
#                          ts\zstack\Samples\SampleApp\CC2530DB\..\..\..\Tool #
#                          s\CC2530DB\f8wConfig.cfg (-DSECURE=0               #
#                          -DZG_SECURE_DYNAMIC=0 -DREFLECTOR                  #
#                          -DDEFAULT_CHANLIST=0x00000800                      #
#                          -DZDAPP_CONFIG_PAN_ID=0xFF11                       #
#                          -DNWK_START_DELAY=100 -DEXTENDED_JOINING_RANDOM_MA #
#                          SK=0x007F -DBEACON_REQUEST_DELAY=100               #
#                          -DBEACON_REQ_DELAY_MASK=0x00FF                     #
#                          -DROUTE_EXPIRY_TIME=30 -DAPSC_ACK_WAIT_DURATION_PO #
#                          LLED=3000 -DNWK_INDIRECT_MSG_TIMEOUT=7             #
#                          -DMAX_RREQ_ENTRIES=8 -DAPSC_MAX_FRAME_RETRIES=3    #
#                          -DNWK_MAX_DATA_RETRIES=2                           #
#                          -DMAX_POLL_FAILURE_RETRIES=2 -DMAX_BCAST=9         #
#                          -DAPS_MAX_GROUPS=16 -DMAX_RTG_ENTRIES=40           #
#                          -DNWK_MAX_BINDING_ENTRIES=4                        #
#                          -DMAX_BINDING_CLUSTER_IDS=4 "-DDEFAULT_KEY={0x01,  #
#                          0x03, 0x05, 0x07, 0x09, 0x0B, 0x0D, 0x0F, 0x00,    #
#                          0x02, 0x04, 0x06, 0x08, 0x0A, 0x0C, 0x0D}"         #
#                          -DMAC_MAX_FRAME_SIZE=116 "-DCONST=const __code"    #
#                          -DGENERIC=__generic -DRFD_RCVC_ALWAYS_ON=FALSE     #
#                          -DPOLL_RATE=1000 -DQUEUED_POLL_RATE=100            #
#                          -DRESPONSE_POLL_RATE=100) -DREJOIN_POLL_RATE=440   #
#                          D:\ZigBee\KJXY-ZigBee\useful_code\groupcast\Compon #
#                          ents\hal\target\CC2530EB\hal_uart.c -D ZTOOL_P1    #
#                          -D MT_TASK -D MT_SYS_FUNC -D MT_ZDO_FUNC -D        #
#                          LCD_SUPPORTED=DEBUG -lC D:\ZigBee\KJXY-ZigBee\usef #
#                          ul_code\groupcast\Projects\zstack\Samples\SampleAp #
#                          p\CC2530DB\RouterEB\List\ -lA                      #
#                          D:\ZigBee\KJXY-ZigBee\useful_code\groupcast\Projec #
#                          ts\zstack\Samples\SampleApp\CC2530DB\RouterEB\List #
#                          \ --diag_suppress Pe001,Pa010 -o                   #
#                          D:\ZigBee\KJXY-ZigBee\useful_code\groupcast\Projec #
#                          ts\zstack\Samples\SampleApp\CC2530DB\RouterEB\Obj\ #
#                           -e --debug --core=plain --dptr=16,1               #
#                          --data_model=large --code_model=banked             #
#                          --calling_convention=xdata_reentrant               #
#                          --place_constants=data_rom --nr_virtual_regs 16    #
#                          -I D:\ZigBee\KJXY-ZigBee\useful_code\groupcast\Pro #
#                          jects\zstack\Samples\SampleApp\CC2530DB\ -I        #
#                          D:\ZigBee\KJXY-ZigBee\useful_code\groupcast\Projec #
#                          ts\zstack\Samples\SampleApp\CC2530DB\..\SOURCE\    #
#                          -I D:\ZigBee\KJXY-ZigBee\useful_code\groupcast\Pro #
#                          jects\zstack\Samples\SampleApp\CC2530DB\..\..\..\Z #
#                          MAIN\TI2530DB\ -I D:\ZigBee\KJXY-ZigBee\useful_cod #
#                          e\groupcast\Projects\zstack\Samples\SampleApp\CC25 #
#                          30DB\..\..\..\..\..\COMPONENTS\MT\ -I              #
#                          D:\ZigBee\KJXY-ZigBee\useful_code\groupcast\Projec #
#                          ts\zstack\Samples\SampleApp\CC2530DB\..\..\..\..\. #
#                          .\COMPONENTS\HAL\INCLUDE\ -I                       #
#                          D:\ZigBee\KJXY-ZigBee\useful_code\groupcast\Projec #
#                          ts\zstack\Samples\SampleApp\CC2530DB\..\..\..\..\. #
#                          .\COMPONENTS\HAL\TARGET\CC2530EB\ -I               #
#                          D:\ZigBee\KJXY-ZigBee\useful_code\groupcast\Projec #
#                          ts\zstack\Samples\SampleApp\CC2530DB\..\..\..\..\. #
#                          .\COMPONENTS\OSAL\MCU\CCSOC\ -I                    #
#                          D:\ZigBee\KJXY-ZigBee\useful_code\groupcast\Projec #
#                          ts\zstack\Samples\SampleApp\CC2530DB\..\..\..\..\. #
#                          .\COMPONENTS\OSAL\INCLUDE\ -I                      #
#                          D:\ZigBee\KJXY-ZigBee\useful_code\groupcast\Projec #
#                          ts\zstack\Samples\SampleApp\CC2530DB\..\..\..\..\. #
#                          .\COMPONENTS\STACK\AF\ -I                          #
#                          D:\ZigBee\KJXY-ZigBee\useful_code\groupcast\Projec #
#                          ts\zstack\Samples\SampleApp\CC2530DB\..\..\..\..\. #
#                          .\COMPONENTS\STACK\NWK\ -I                         #
#                          D:\ZigBee\KJXY-ZigBee\useful_code\groupcast\Projec #
#                          ts\zstack\Samples\SampleApp\CC2530DB\..\..\..\..\. #
#                          .\COMPONENTS\STACK\SEC\ -I                         #
#                          D:\ZigBee\KJXY-ZigBee\useful_code\groupcast\Projec #
#                          ts\zstack\Samples\SampleApp\CC2530DB\..\..\..\..\. #
#                          .\COMPONENTS\STACK\SAPI\ -I                        #
#                          D:\ZigBee\KJXY-ZigBee\useful_code\groupcast\Projec #
#                          ts\zstack\Samples\SampleApp\CC2530DB\..\..\..\..\. #
#                          .\COMPONENTS\STACK\SYS\ -I                         #
#                          D:\ZigBee\KJXY-ZigBee\useful_code\groupcast\Projec #
#                          ts\zstack\Samples\SampleApp\CC2530DB\..\..\..\..\. #
#                          .\COMPONENTS\STACK\ZDO\ -I                         #
#                          D:\ZigBee\KJXY-ZigBee\useful_code\groupcast\Projec #
#                          ts\zstack\Samples\SampleApp\CC2530DB\..\..\..\..\. #
#                          .\COMPONENTS\ZMAC\F8W\ -I                          #
#                          D:\ZigBee\KJXY-ZigBee\useful_code\groupcast\Projec #
#                          ts\zstack\Samples\SampleApp\CC2530DB\..\..\..\..\. #
#                          .\COMPONENTS\ZMAC\ -I D:\ZigBee\KJXY-ZigBee\useful #
#                          _code\groupcast\Projects\zstack\Samples\SampleApp\ #
#                          CC2530DB\..\..\..\..\..\COMPONENTS\SERVICES\SADDR\ #
#                           -I D:\ZigBee\KJXY-ZigBee\useful_code\groupcast\Pr #
#                          ojects\zstack\Samples\SampleApp\CC2530DB\..\..\..\ #
#                          ..\..\COMPONENTS\SERVICES\SDATA\ -I                #
#                          D:\ZigBee\KJXY-ZigBee\useful_code\groupcast\Projec #
#                          ts\zstack\Samples\SampleApp\CC2530DB\..\..\..\..\. #
#                          .\COMPONENTS\MAC\INCLUDE\ -I                       #
#                          D:\ZigBee\KJXY-ZigBee\useful_code\groupcast\Projec #
#                          ts\zstack\Samples\SampleApp\CC2530DB\..\..\..\..\. #
#                          .\COMPONENTS\MAC\HIGH_LEVEL\ -I                    #
#                          D:\ZigBee\KJXY-ZigBee\useful_code\groupcast\Projec #
#                          ts\zstack\Samples\SampleApp\CC2530DB\..\..\..\..\. #
#                          .\COMPONENTS\MAC\LOW_LEVEL\srf04\ -I               #
#                          D:\ZigBee\KJXY-ZigBee\useful_code\groupcast\Projec #
#                          ts\zstack\Samples\SampleApp\CC2530DB\..\..\..\..\. #
#                          .\COMPONENTS\MAC\LOW_LEVEL\srf04\SINGLE_CHIP\ -I   #
#                          D:\ZigBee\KJXY-ZigBee\useful_code\groupcast\Projec #
#                          ts\zstack\Samples\SampleApp\CC2530DB\..\..\..\..\. #
#                          .\COMPONENTS\HARDWARE\ -Ohz                        #
#    List file          =  D:\ZigBee\KJXY-ZigBee\useful_code\groupcast\Projec #
#                          ts\zstack\Samples\SampleApp\CC2530DB\RouterEB\List #
#                          \hal_uart.lst                                      #
#    Object file        =  D:\ZigBee\KJXY-ZigBee\useful_code\groupcast\Projec #
#                          ts\zstack\Samples\SampleApp\CC2530DB\RouterEB\Obj\ #
#                          hal_uart.r51                                       #
#                                                                             #
#                                                                             #
###############################################################################

D:\ZigBee\KJXY-ZigBee\useful_code\groupcast\Components\hal\target\CC2530EB\hal_uart.c
      1          /**************************************************************************************************
      2            Filename:       _hal_uart.c
      3            Revised:        $Date: 2009-06-12 09:16:43 -0700 (Fri, 12 Jun 2009) $
      4            Revision:       $Revision: 20142 $
      5          
      6            Description: This file contains the interface to the H/W UART driver.
      7          
      8          
      9            Copyright 2006-2009 Texas Instruments Incorporated. All rights reserved.
     10          
     11            IMPORTANT: Your use of this Software is limited to those specific rights
     12            granted under the terms of a software license agreement between the user
     13            who downloaded the software, his/her employer (which must be your employer)
     14            and Texas Instruments Incorporated (the "License").  You may not use this
     15            Software unless you agree to abide by the terms of the License. The License
     16            limits your use, and you acknowledge, that the Software may not be modified,
     17            copied or distributed unless embedded on a Texas Instruments microcontroller
     18            or used solely and exclusively in conjunction with a Texas Instruments radio
     19            frequency transceiver, which is integrated into your product.  Other than for
     20            the foregoing purpose, you may not use, reproduce, copy, prepare derivative
     21            works of, modify, distribute, perform, display or sell this Software and/or
     22            its documentation for any purpose.
     23          
     24            YOU FURTHER ACKNOWLEDGE AND AGREE THAT THE SOFTWARE AND DOCUMENTATION ARE
     25            PROVIDED “AS IS?WITHOUT WARRANTY OF ANY KIND, EITHER EXPRESS OR IMPLIED,
     26            INCLUDING WITHOUT LIMITATION, ANY WARRANTY OF MERCHANTABILITY, TITLE,
     27            NON-INFRINGEMENT AND FITNESS FOR A PARTICULAR PURPOSE. IN NO EVENT SHALL
     28            TEXAS INSTRUMENTS OR ITS LICENSORS BE LIABLE OR OBLIGATED UNDER CONTRACT,
     29            NEGLIGENCE, STRICT LIABILITY, CONTRIBUTION, BREACH OF WARRANTY, OR OTHER
     30            LEGAL EQUITABLE THEORY ANY DIRECT OR INDIRECT DAMAGES OR EXPENSES
     31            INCLUDING BUT NOT LIMITED TO ANY INCIDENTAL, SPECIAL, INDIRECT, PUNITIVE
     32            OR CONSEQUENTIAL DAMAGES, LOST PROFITS OR LOST DATA, COST OF PROCUREMENT
     33            OF SUBSTITUTE GOODS, TECHNOLOGY, SERVICES, OR ANY CLAIMS BY THIRD PARTIES
     34            (INCLUDING BUT NOT LIMITED TO ANY DEFENSE THEREOF), OR OTHER SIMILAR COSTS.
     35          
     36            Should you have any questions regarding your right to use this Software,
     37            contact Texas Instruments Incorporated at www.TI.com.
     38          **************************************************************************************************/
     39          
     40          /*********************************************************************
     41           * INCLUDES
     42           */
     43          
     44          #include "hal_board_cfg.h"

   \                                 In  segment SFR_AN, at 0x80
   \   union <unnamed> volatile __sfr _A_P0
   \                     _A_P0:
   \   000000                DS 1

   \                                 In  segment SFR_AN, at 0x86
   \   unsigned char volatile __sfr U0CSR
   \                     U0CSR:
   \   000000                DS 1

   \                                 In  segment SFR_AN, at 0x95
   \   unsigned char volatile __sfr ST0
   \                     ST0:
   \   000000                DS 1

   \                                 In  segment SFR_AN, at 0xa8
   \   union <unnamed> volatile __sfr _A_IEN0
   \                     _A_IEN0:
   \   000000                DS 1

   \                                 In  segment SFR_AN, at 0xc1
   \   unsigned char volatile __sfr U0DBUF
   \                     U0DBUF:
   \   000000                DS 1

   \                                 In  segment SFR_AN, at 0xc2
   \   unsigned char volatile __sfr U0BAUD
   \                     U0BAUD:
   \   000000                DS 1

   \                                 In  segment SFR_AN, at 0xc4
   \   unsigned char volatile __sfr U0UCR
   \                     U0UCR:
   \   000000                DS 1

   \                                 In  segment SFR_AN, at 0xc5
   \   unsigned char volatile __sfr U0GCR
   \                     U0GCR:
   \   000000                DS 1

   \                                 In  segment SFR_AN, at 0xd1
   \   unsigned char volatile __sfr DMAIRQ
   \                     DMAIRQ:
   \   000000                DS 1

   \                                 In  segment SFR_AN, at 0xd6
   \   unsigned char volatile __sfr DMAARM
   \                     DMAARM:
   \   000000                DS 1

   \                                 In  segment SFR_AN, at 0xd7
   \   unsigned char volatile __sfr DMAREQ
   \                     DMAREQ:
   \   000000                DS 1

   \                                 In  segment SFR_AN, at 0xe8
   \   union <unnamed> volatile __sfr _A_IRCON2
   \                     _A_IRCON2:
   \   000000                DS 1

   \                                 In  segment SFR_AN, at 0xf1
   \   unsigned char volatile __sfr PERCFG
   \                     PERCFG:
   \   000000                DS 1

   \                                 In  segment SFR_AN, at 0xf2
   \   unsigned char volatile __sfr ADCCFG
   \                     ADCCFG:
   \   000000                DS 1

   \                                 In  segment SFR_AN, at 0xf3
   \   unsigned char volatile __sfr P0SEL
   \                     P0SEL:
   \   000000                DS 1

   \                                 In  segment SFR_AN, at 0xfd
   \   unsigned char volatile __sfr P0DIR
   \                     P0DIR:
   \   000000                DS 1

   \                                 In  segment SFR_AN, at 0xff
   \   unsigned char volatile __sfr P2DIR
   \                     P2DIR:
   \   000000                DS 1
     45          #include "hal_defs.h"
     46          #include "hal_types.h"
     47          #include "hal_uart.h"
     48          #include "string.h"
     49          /*********************************************************************
     50           * MACROS
     51           */
     52          
     53          /*********************************************************************
     54           * TYPEDEFS
     55           */
     56          
     57          /*********************************************************************
     58           * CONSTANTS
     59           */
     60          
     61          /*********************************************************************
     62           * GLOBAL VARIABLES
     63           */
     64          
     65          /*********************************************************************
     66           * GLOBAL FUNCTIONS
     67           */
     68          
     69          /*********************************************************************
     70           * LOCAL VARIABLES
     71           */
     72          
     73          /*********************************************************************
     74           * LOCAL FUNCTIONS
     75           */
     76          
     77          #if HAL_UART_DMA
     78          #include "_hal_uart_dma.c"

   \                                 In  segment XDATA_Z, align 1, keep-with-next
   \   static uartDMACfg_t dmaCfg
   \                     dmaCfg:
   \   000000                DS 526
   \   00020E                REQUIRE __INIT_XDATA_Z

   \                                 In  segment BANKED_CODE, align 1, keep-with-next
   \   static __banked_func __xdata_reentrant void HalUARTInitDMA(void)
   \                     HalUARTInitDMA:
   \   000000   C082         PUSH    DPL
   \   000002   C083         PUSH    DPH
   \   000004                ; Saved register size: 2
   \   000004                ; Auto size: 0
   \   000004   53FF3F       ANL     0xff,#0x3f
   \   000007   85FFFF       MOV     0xff,0xff
   \   00000A   53F1FE       ANL     0xf1,#0xfe
   \   00000D   43F30C       ORL     0xf3,#0xc
   \   000010   53F2F3       ANL     0xf2,#0xf3
   \   000013   758680       MOV     0x86,#-0x80
   \   000016   75C480       MOV     0xc4,#-0x80
   \   000019   90....       MOV     DPTR,#dmaCh1234 + 26
   \   00001C   7470         MOV     A,#0x70
   \   00001E   F0           MOVX    @DPTR,A
   \   00001F   A3           INC     DPTR
   \   000020   74C1         MOV     A,#-0x3f
   \   000022   F0           MOVX    @DPTR,A
   \   000023   A3           INC     DPTR
   \   000024   E0           MOVX    A,@DPTR
   \   000025   541F         ANL     A,#0x1f
   \   000027   F0           MOVX    @DPTR,A
   \   000028   90....       MOV     DPTR,#dmaCh1234 + 30
   \   00002B   740F         MOV     A,#0xf
   \   00002D   F0           MOVX    @DPTR,A
   \   00002E   A3           INC     DPTR
   \   00002F   744A         MOV     A,#0x4a
   \   000031   F0           MOVX    @DPTR,A
   \   000032   90....       MOV     DPTR,#dmaCh1234 + 16
   \   000035   7470         MOV     A,#0x70
   \   000037   F0           MOVX    @DPTR,A
   \   000038   A3           INC     DPTR
   \   000039   74C1         MOV     A,#-0x3f
   \   00003B   F0           MOVX    @DPTR,A
   \   00003C   90....       MOV     DPTR,#dmaCh1234 + 20
   \   00003F   E0           MOVX    A,@DPTR
   \   000040   541F         ANL     A,#0x1f
   \   000042   F0           MOVX    @DPTR,A
   \   000043   90....       MOV     DPTR,#dmaCh1234 + 22
   \   000046   74CE         MOV     A,#-0x32
   \   000048   F0           MOVX    @DPTR,A
   \   000049   A3           INC     DPTR
   \   00004A   E0           MOVX    A,@DPTR
   \   00004B   540F         ANL     A,#0xf
   \   00004D   4410         ORL     A,#0x10
   \   00004F   F0           MOVX    @DPTR,A

    HAL_DMA_SET_DEST( ch, dmaCfg.rxBuf );
    ^
"D:\ZigBee\KJXY-ZigBee\useful_code\groupcast\Components\hal\target\CC2530EB\_hal_uart_dma.c",378  Warning[Pe069]: 
          integer conversion resulted in truncation
   \   000050   74..         MOV     A,#(dmaCfg >> 8) & 0xff
   \   000052   90....       MOV     DPTR,#dmaCh1234 + 18
   \   000055   F0           MOVX    @DPTR,A
   \   000056   A3           INC     DPTR
   \   000057   74..         MOV     A,#dmaCfg & 0xff
   \   000059   F0           MOVX    @DPTR,A
   \   00005A   90....       MOV     DPTR,#dmaCh1234 + 21
   \   00005D   7480         MOV     A,#-0x80
   \   00005F   F0           MOVX    @DPTR,A
   \   000060   90....       MOV     DPTR,#dmaCh1234 + 20
   \   000063   E4           CLR     A
   \   000064   F0           MOVX    @DPTR,A
   \   000065   90....       MOV     DPTR,#dmaCh1234 + 23
   \   000068   7412         MOV     A,#0x12
   \   00006A   02....       LJMP    ?Subroutine0 & 0xFFFF
   \   00006D                REQUIRE P2DIR
   \   00006D                REQUIRE PERCFG
   \   00006D                REQUIRE P0SEL
   \   00006D                REQUIRE ADCCFG
   \   00006D                REQUIRE U0CSR
   \   00006D                REQUIRE U0UCR

   \                                 In  segment BANKED_CODE, align 1, keep-with-next
   \                     ?Subroutine0:
   \   000000   F0           MOVX    @DPTR,A
   \   000001                REQUIRE ??Subroutine24_0
   \   000001                ; // Fall through to label ??Subroutine24_0

   \                                 In  segment BANKED_CODE, align 1, keep-with-next
   \                     ??Subroutine24_0:
   \   000000   D083         POP     DPH
   \   000002   D082         POP     DPL
   \   000004   02....       LJMP    ?BRET

   \                                 In  segment BANKED_CODE, align 1, keep-with-next
   \   static __banked_func __xdata_reentrant void HalUARTOpenDMA(halUARTCfg_t *)
   \                     HalUARTOpenDMA:
   \   000000   C082         PUSH    DPL
   \   000002   C083         PUSH    DPH
   \   000004                ; Saved register size: 2
   \   000004                ; Auto size: 0
   \   000004   EA           MOV     A,R2
   \   000005   241B         ADD     A,#0x1b
   \   000007   F582         MOV     DPL,A
   \   000009   EB           MOV     A,R3
   \   00000A   12....       LCALL   ??Subroutine25_0 & 0xFFFF
   \                     ??CrossCallReturnLabel_39:
   \   00000D   E0           MOVX    A,@DPTR
   \   00000E   F8           MOV     R0,A
   \   00000F   A3           INC     DPTR
   \   000010   E0           MOVX    A,@DPTR
   \   000011   F9           MOV     R1,A
   \   000012   90....       MOV     DPTR,#dmaCfg + 524
   \   000015   E8           MOV     A,R0
   \   000016   F0           MOVX    @DPTR,A
   \   000017   A3           INC     DPTR
   \   000018   E9           MOV     A,R1
   \   000019   F0           MOVX    @DPTR,A
   \   00001A   8A82         MOV     DPL,R2
   \   00001C   8B83         MOV     DPH,R3
   \   00001E   A3           INC     DPTR
   \   00001F   E0           MOVX    A,@DPTR
   \   000020   F8           MOV     R0,A
   \   000021   7403         MOV     A,#0x3
   \   000023   68           XRL     A,R0
   \   000024   6005         JZ      ??HalUARTOpenDMA_0
   \   000026   7404         MOV     A,#0x4
   \   000028   68           XRL     A,R0
   \   000029   7005         JNZ     ??HalUARTOpenDMA_1
   \                     ??HalUARTOpenDMA_0:
   \   00002B   75C2D8       MOV     0xc2,#-0x28
   \   00002E   8003         SJMP    ??HalUARTOpenDMA_2
   \                     ??HalUARTOpenDMA_1:
   \   000030   75C23B       MOV     0xc2,#0x3b
   \                     ??HalUARTOpenDMA_2:
   \   000033   E0           MOVX    A,@DPTR
   \   000034   600B         JZ      ??HalUARTOpenDMA_3
   \   000036   14           DEC     A
   \   000037   6012         JZ      ??HalUARTOpenDMA_4
   \   000039   14           DEC     A
   \   00003A   6019         JZ      ??HalUARTOpenDMA_5
   \   00003C   14           DEC     A
   \   00003D   6020         JZ      ??HalUARTOpenDMA_6
   \   00003F   8028         SJMP    ??HalUARTOpenDMA_7
   \                     ??HalUARTOpenDMA_3:
   \   000041   75C508       MOV     0xc5,#0x8
   \   000044   90....       MOV     DPTR,#dmaCfg + 520
   \   000047   7423         MOV     A,#0x23
   \   000049   8026         SJMP    ??HalUARTOpenDMA_8
   \                     ??HalUARTOpenDMA_4:
   \   00004B   75C509       MOV     0xc5,#0x9
   \   00004E   90....       MOV     DPTR,#dmaCfg + 520
   \   000051   7412         MOV     A,#0x12
   \   000053   801C         SJMP    ??HalUARTOpenDMA_8
   \                     ??HalUARTOpenDMA_5:
   \   000055   75C50A       MOV     0xc5,#0xa
   \   000058   90....       MOV     DPTR,#dmaCfg + 520
   \   00005B   7409         MOV     A,#0x9
   \   00005D   8012         SJMP    ??HalUARTOpenDMA_8
   \                     ??HalUARTOpenDMA_6:
   \   00005F   75C50A       MOV     0xc5,#0xa
   \   000062   90....       MOV     DPTR,#dmaCfg + 520
   \   000065   7406         MOV     A,#0x6
   \   000067   8008         SJMP    ??HalUARTOpenDMA_8
   \                     ??HalUARTOpenDMA_7:
   \   000069   75C50B       MOV     0xc5,#0xb
   \   00006C   90....       MOV     DPTR,#dmaCfg + 520
   \   00006F   7403         MOV     A,#0x3
   \                     ??HalUARTOpenDMA_8:
   \   000071   F0           MOVX    @DPTR,A
   \   000072   8A82         MOV     DPL,R2
   \   000074   8B83         MOV     DPH,R3
   \   000076   A3           INC     DPTR
   \   000077   A3           INC     DPTR
   \   000078   E0           MOVX    A,@DPTR
   \   000079   600D         JZ      ??HalUARTOpenDMA_9
   \   00007B   75C442       MOV     0xc4,#0x42
   \   00007E   43F310       ORL     0xf3,#0x10
   \   000081   C285         CLR     0x80.5
   \   000083   43FD20       ORL     0xfd,#0x20
   \   000086   8003         SJMP    ??HalUARTOpenDMA_10
   \                     ??HalUARTOpenDMA_9:
   \   000088   75C402       MOV     0xc4,#0x2
   \                     ??HalUARTOpenDMA_10:
   \   00008B   9070C1       MOV     DPTR,#0x70c1
   \   00008E   E0           MOVX    A,@DPTR
   \   00008F   90....       MOV     DPTR,#dmaCfg
   \   000092   F0           MOVX    @DPTR,A
   \   000093   A3           INC     DPTR
   \   000094   E4           CLR     A
   \   000095   F0           MOVX    @DPTR,A
   \   000096   53D1F7       ANL     0xd1,#0xf7
   \   000099   75D608       MOV     0xd6,#0x8
   \   00009C                ; Setup parameters for call to function osal_memset
   \   00009C   FC           MOV     R4,A
   \   00009D   7D01         MOV     R5,#0x1
   \   00009F   E5C2         MOV     A,0xc2
   \   0000A1   F4           CPL     A
   \   0000A2   F9           MOV     R1,A
   \   0000A3   7A..         MOV     R2,#dmaCfg & 0xff
   \   0000A5   7B..         MOV     R3,#(dmaCfg >> 8) & 0xff
   \   0000A7   12....       LCALL   ??osal_memset?relay
   \   0000AA   438640       ORL     0x86,#0x40
   \   0000AD   90....       MOV     DPTR,#dmaCfg + 523
   \   0000B0   E4           CLR     A
   \   0000B1   F0           MOVX    @DPTR,A
   \   0000B2   90....       MOV     DPTR,#dmaCfg + 522
   \   0000B5   02....       LJMP    ?Subroutine0 & 0xFFFF
   \   0000B8                REQUIRE U0BAUD
   \   0000B8                REQUIRE U0GCR
   \   0000B8                REQUIRE U0UCR
   \   0000B8                REQUIRE P0SEL
   \   0000B8                REQUIRE _A_P0
   \   0000B8                REQUIRE P0DIR
   \   0000B8                REQUIRE DMAIRQ
   \   0000B8                REQUIRE DMAARM
   \   0000B8                REQUIRE U0CSR

   \                                 In  segment BANKED_CODE, align 1, keep-with-next
   \                     ??Subroutine25_0:
   \   000000   3400         ADDC    A,#0x0
   \   000002   F583         MOV     DPH,A
   \   000004   22           RET

   \                                 In  segment BANKED_CODE, align 1, keep-with-next
   \   static __banked_func __xdata_reentrant uint16 HalUARTReadDMA(unsigned char *, uint16)
   \                     HalUARTReadDMA:
   \   000000   74F6         MOV     A,#-0xa
   \   000002   12....       LCALL   ?BANKED_ENTER_XDATA
   \   000005                ; Saved register size: 10
   \   000005                ; Auto size: 0
   \   000005   7800         MOV     R0,#0x0
   \   000007   7900         MOV     R1,#0x0
   \   000009   802F         SJMP    ??HalUARTReadDMA_0
   \                     ??HalUARTReadDMA_1:
   \   00000B   8A82         MOV     DPL,R2
   \   00000D   8B83         MOV     DPH,R3
   \   00000F   E5..         MOV     A,?V0 + 0
   \   000011   F0           MOVX    @DPTR,A
   \   000012   A3           INC     DPTR
   \   000013   AA82         MOV     R2,DPL
   \   000015   AB83         MOV     R3,DPH
   \   000017   E5C2         MOV     A,0xc2
   \   000019   F4           CPL     A
   \   00001A   F5..         MOV     ?V0 + 1,A
   \   00001C   12....       LCALL   ?Subroutine8 & 0xFFFF
   \                     ??CrossCallReturnLabel_9:
   \   00001F   E4           CLR     A
   \   000020   F0           MOVX    @DPTR,A
   \   000021   A3           INC     DPTR
   \   000022   E5..         MOV     A,?V0 + 1
   \   000024   F0           MOVX    @DPTR,A
   \   000025   90....       MOV     DPTR,#dmaCfg + 256
   \   000028   E0           MOVX    A,@DPTR
   \   000029   04           INC     A
   \   00002A   F0           MOVX    @DPTR,A
   \   00002B   C3           CLR     C
   \   00002C   9480         SUBB    A,#-0x80
   \   00002E   4002         JC      ??HalUARTReadDMA_2
   \   000030   E4           CLR     A
   \   000031   F0           MOVX    @DPTR,A
   \                     ??HalUARTReadDMA_2:
   \   000032   E8           MOV     A,R0
   \   000033   2401         ADD     A,#0x1
   \   000035   08           INC     R0
   \   000036   E9           MOV     A,R1
   \   000037   3400         ADDC    A,#0x0
   \   000039   F9           MOV     R1,A
   \                     ??HalUARTReadDMA_0:
   \   00003A   C3           CLR     C
   \   00003B   E8           MOV     A,R0
   \   00003C   9C           SUBB    A,R4
   \   00003D   E9           MOV     A,R1
   \   00003E   9D           SUBB    A,R5
   \   00003F   500C         JNC     ??HalUARTReadDMA_3
   \   000041   12....       LCALL   ?Subroutine8 & 0xFFFF
   \                     ??CrossCallReturnLabel_10:
   \   000044   E0           MOVX    A,@DPTR
   \   000045   F5..         MOV     ?V0 + 0,A
   \   000047   A3           INC     DPTR
   \   000048   E0           MOVX    A,@DPTR
   \   000049   65C2         XRL     A,0xc2
   \   00004B   60BE         JZ      ??HalUARTReadDMA_1
   \                     ??HalUARTReadDMA_3:
   \   00004D   C285         CLR     0x80.5
   \   00004F   E8           MOV     A,R0
   \   000050   FA           MOV     R2,A
   \   000051   E9           MOV     A,R1
   \   000052   FB           MOV     R3,A
   \   000053                REQUIRE ?Subroutine1
   \   000053                REQUIRE U0BAUD
   \   000053                REQUIRE _A_P0
   \   000053                ; // Fall through to label ?Subroutine1

   \                                 In  segment BANKED_CODE, align 1, keep-with-next
   \                     ?Subroutine1:
   \   000000   7F02         MOV     R7,#0x2
   \   000002   02....       LJMP    ?BANKED_LEAVE_XDATA

   \                                 In  segment BANKED_CODE, align 1, keep-with-next
   \                     ?Subroutine8:
   \   000000   90....       MOV     DPTR,#dmaCfg + 256
   \   000003   E0           MOVX    A,@DPTR
   \   000004   C3           CLR     C
   \   000005   33           RLC     A
   \   000006   FE           MOV     R6,A
   \   000007   E4           CLR     A
   \   000008   33           RLC     A
   \   000009   FF           MOV     R7,A
   \   00000A   74..         MOV     A,#dmaCfg & 0xff
   \   00000C   2E           ADD     A,R6
   \   00000D   F582         MOV     DPL,A
   \   00000F   74..         MOV     A,#(dmaCfg >> 8) & 0xff
   \   000011   3F           ADDC    A,R7
   \   000012   F583         MOV     DPH,A
   \   000014   22           RET

   \                                 In  segment BANKED_CODE, align 1, keep-with-next
   \   static __banked_func __xdata_reentrant uint16 HalUARTWriteDMA(unsigned char *, uint16)
   \                     HalUARTWriteDMA:
   \   000000   74F0         MOV     A,#-0x10
   \   000002   12....       LCALL   ?BANKED_ENTER_XDATA
   \   000005                ; Saved register size: 16
   \   000005                ; Auto size: 0
   \   000005   EA           MOV     A,R2
   \   000006   FE           MOV     R6,A
   \   000007   EB           MOV     A,R3
   \   000008   FF           MOV     R7,A
   \   000009   12....       LCALL   ?Subroutine9 & 0xFFFF
   \                     ??CrossCallReturnLabel_11:
   \   00000C   F8           MOV     R0,A
   \   00000D   EC           MOV     A,R4
   \   00000E   28           ADD     A,R0
   \   00000F   F8           MOV     R0,A
   \   000010   ED           MOV     A,R5
   \   000011   3400         ADDC    A,#0x0
   \   000013   F9           MOV     R1,A
   \   000014   C3           CLR     C
   \   000015   E8           MOV     A,R0
   \   000016   9481         SUBB    A,#-0x7f
   \   000018   E9           MOV     A,R1
   \   000019   9400         SUBB    A,#0x0
   \   00001B   4007         JC      ??HalUARTWriteDMA_0
   \   00001D   7A00         MOV     R2,#0x0
   \   00001F   7B00         MOV     R3,#0x0
   \   000021   02....       LJMP    ??HalUARTWriteDMA_1 & 0xFFFF
   \                     ??HalUARTWriteDMA_0:
   \   000024   E5A8         MOV     A,0xa8
   \   000026   F8           MOV     R0,A
   \   000027   C2AF         CLR     0xa8.7
   \   000029   90....       MOV     DPTR,#dmaCfg + 518
   \   00002C   12....       LCALL   ?Subroutine11 & 0xFFFF
   \                     ??CrossCallReturnLabel_15:
   \   00002F   75..00       MOV     ?V0 + 1,#0x0
   \   000032   12....       LCALL   ?Subroutine15 & 0xFFFF
   \                     ??CrossCallReturnLabel_21:
   \   000035   E8           MOV     A,R0
   \   000036   A2E7         MOV     C,0xE0 /* A   */.7
   \   000038   92AF         MOV     0xa8.7,C
   \   00003A   7A00         MOV     R2,#0x0
   \   00003C   7B00         MOV     R3,#0x0
   \   00003E   801A         SJMP    ??CrossCallReturnLabel_4
   \                     ??HalUARTWriteDMA_2:
   \   000040   12....       LCALL   ?Subroutine18 & 0xFFFF
   \                     ??CrossCallReturnLabel_27:
   \   000043   C0E0         PUSH    A
   \   000045   85....       MOV     ?V0 + 2,?V0 + 0
   \   000048   85....       MOV     ?V0 + 3,?V0 + 1
   \   00004B   7407         MOV     A,#0x7
   \   00004D   78..         MOV     R0,#?V0 + 2
   \   00004F   12....       LCALL   ?S_SHL
   \   000052   12....       LCALL   ?Subroutine12 & 0xFFFF
   \                     ??CrossCallReturnLabel_17:
   \   000055   D0E0         POP     A
   \   000057   12....       LCALL   ?Subroutine6 & 0xFFFF
   \                     ??CrossCallReturnLabel_4:
   \   00005A   C3           CLR     C
   \   00005B   EA           MOV     A,R2
   \   00005C   9C           SUBB    A,R4
   \   00005D   EB           MOV     A,R3
   \   00005E   9D           SUBB    A,R5
   \   00005F   40DF         JC      ??HalUARTWriteDMA_2
   \   000061   A2AF         MOV     C,0xa8.7
   \   000063   E4           CLR     A
   \   000064   33           RLC     A
   \   000065   F5..         MOV     ?V0 + 0,A
   \   000067   C2AF         CLR     0xa8.7
   \   000069   90....       MOV     DPTR,#dmaCfg + 518
   \   00006C   E0           MOVX    A,@DPTR
   \   00006D   65..         XRL     A,?V0 + 7
   \   00006F   603B         JZ      ??HalUARTWriteDMA_3
   \   000071   E5..         MOV     A,?V0 + 0
   \   000073   A2E0         MOV     C,0xE0 /* A   */.0
   \   000075   92AF         MOV     0xa8.7,C
   \   000077   12....       LCALL   ?Subroutine11 & 0xFFFF
   \                     ??CrossCallReturnLabel_16:
   \   00007A   12....       LCALL   ?Subroutine15 & 0xFFFF
   \                     ??CrossCallReturnLabel_22:
   \   00007D   7A00         MOV     R2,#0x0
   \   00007F   7B00         MOV     R3,#0x0
   \   000081   801A         SJMP    ??CrossCallReturnLabel_5
   \                     ??HalUARTWriteDMA_4:
   \   000083   12....       LCALL   ?Subroutine18 & 0xFFFF
   \                     ??CrossCallReturnLabel_28:
   \   000086   C0E0         PUSH    A
   \   000088   85....       MOV     ?V0 + 2,?V0 + 0
   \   00008B   85....       MOV     ?V0 + 3,?V0 + 1
   \   00008E   7407         MOV     A,#0x7
   \   000090   78..         MOV     R0,#?V0 + 2
   \   000092   12....       LCALL   ?S_SHL
   \   000095   12....       LCALL   ?Subroutine12 & 0xFFFF
   \                     ??CrossCallReturnLabel_18:
   \   000098   D0E0         POP     A
   \   00009A   12....       LCALL   ?Subroutine6 & 0xFFFF
   \                     ??CrossCallReturnLabel_5:
   \   00009D   C3           CLR     C
   \   00009E   EA           MOV     A,R2
   \   00009F   9C           SUBB    A,R4
   \   0000A0   EB           MOV     A,R3
   \   0000A1   9D           SUBB    A,R5
   \   0000A2   40DF         JC      ??HalUARTWriteDMA_4
   \   0000A4   A2AF         MOV     C,0xa8.7
   \   0000A6   E4           CLR     A
   \   0000A7   33           RLC     A
   \   0000A8   F5..         MOV     ?V0 + 0,A
   \   0000AA   C2AF         CLR     0xa8.7
   \                     ??HalUARTWriteDMA_3:
   \   0000AC   85..82       MOV     DPL,?V0 + 7
   \   0000AF   A882         MOV     R0,DPL
   \   0000B1   12....       LCALL   ??Subroutine23_0 & 0xFFFF
   \                     ??CrossCallReturnLabel_36:
   \   0000B4   E5..         MOV     A,?V0 + 6
   \   0000B6   F0           MOVX    @DPTR,A
   \   0000B7   E8           MOV     A,R0
   \   0000B8   12....       LCALL   ?Subroutine13 & 0xFFFF
   \                     ??CrossCallReturnLabel_37:
   \   0000BB   E0           MOVX    A,@DPTR
   \   0000BC   7006         JNZ     ??HalUARTWriteDMA_5
   \   0000BE   90....       MOV     DPTR,#dmaCfg + 523
   \   0000C1   7401         MOV     A,#0x1
   \   0000C3   F0           MOVX    @DPTR,A
   \                     ??HalUARTWriteDMA_5:
   \   0000C4   E5..         MOV     A,?V0 + 0
   \   0000C6   A2E0         MOV     C,0xE0 /* A   */.0
   \   0000C8   92AF         MOV     0xa8.7,C
   \                     ??HalUARTWriteDMA_1:
   \   0000CA   7F08         MOV     R7,#0x8
   \   0000CC   02....       LJMP    ?BANKED_LEAVE_XDATA
   \   0000CF                REQUIRE _A_IEN0

   \                                 In  segment BANKED_CODE, align 1, keep-with-next
   \                     ?Subroutine18:
   \   000000   EE           MOV     A,R6
   \   000001   2A           ADD     A,R2
   \   000002   F582         MOV     DPL,A
   \   000004   EF           MOV     A,R7
   \   000005   3B           ADDC    A,R3
   \   000006   F583         MOV     DPH,A
   \   000008   E0           MOVX    A,@DPTR
   \   000009   22           RET

   \                                 In  segment BANKED_CODE, align 1, keep-with-next
   \                     ?Subroutine15:
   \   000000   74..         MOV     A,#(dmaCfg + 4) & 0xff
   \   000002   25..         ADD     A,?V0 + 0
   \   000004   F582         MOV     DPL,A
   \   000006   74..         MOV     A,#((dmaCfg + 516) >> 8) & 0xff
   \   000008   12....       LCALL   ??Subroutine25_0 & 0xFFFF
   \                     ??CrossCallReturnLabel_40:
   \   00000B   E0           MOVX    A,@DPTR
   \   00000C   F5..         MOV     ?V0 + 6,A
   \   00000E   22           RET

   \                                 In  segment BANKED_CODE, align 1, keep-with-next
   \                     ?Subroutine12:
   \   000000   85....       MOV     ?V0 + 4,?V0 + 6
   \   000003   74..         MOV     A,#(dmaCfg + 4) & 0xff
   \   000005   25..         ADD     A,?V0 + 4
   \   000007   F8           MOV     R0,A
   \   000008   74..         MOV     A,#((dmaCfg + 260) >> 8) & 0xff
   \   00000A   3400         ADDC    A,#0x0
   \   00000C   F9           MOV     R1,A
   \   00000D   E8           MOV     A,R0
   \   00000E   25..         ADD     A,?V0 + 2
   \   000010   F582         MOV     DPL,A
   \   000012   E9           MOV     A,R1
   \   000013   35..         ADDC    A,?V0 + 3
   \   000015   F583         MOV     DPH,A
   \   000017   22           RET

   \                                 In  segment BANKED_CODE, align 1, keep-with-next
   \                     ?Subroutine11:
   \   000000   E0           MOVX    A,@DPTR
   \   000001   F5..         MOV     ?V0 + 7,A
   \   000003   F582         MOV     DPL,A
   \   000005   8582..       MOV     ?V0 + 0,DPL
   \   000008   22           RET

   \                                 In  segment BANKED_CODE, align 1, keep-with-next
   \                     ?Subroutine6:
   \   000000   F0           MOVX    @DPTR,A
   \   000001   05..         INC     ?V0 + 6
   \   000003   EA           MOV     A,R2
   \   000004   2401         ADD     A,#0x1
   \   000006   0A           INC     R2
   \   000007   EB           MOV     A,R3
   \   000008   3400         ADDC    A,#0x0
   \   00000A   FB           MOV     R3,A
   \   00000B   22           RET

   \                                 In  segment BANKED_CODE, align 1, keep-with-next
   \                     ?Subroutine9:
   \   000000   12....       LCALL   ?Subroutine21 & 0xFFFF
   \                     ??CrossCallReturnLabel_35:
   \   000003   22           RET

   \                                 In  segment BANKED_CODE, align 1, keep-with-next
   \                     ?Subroutine13:
   \   000000   6401         XRL     A,#0x1
   \   000002   F8           MOV     R0,A
   \   000003                REQUIRE ??Subroutine23_0
   \   000003                ; // Fall through to label ??Subroutine23_0

   \                                 In  segment BANKED_CODE, align 1, keep-with-next
   \                     ??Subroutine23_0:
   \   000000   74..         MOV     A,#(dmaCfg + 4) & 0xff
   \   000002   28           ADD     A,R0
   \   000003   F582         MOV     DPL,A
   \   000005   74..         MOV     A,#((dmaCfg + 516) >> 8) & 0xff
   \   000007   12....       LCALL   ??Subroutine25_0 & 0xFFFF
   \                     ??CrossCallReturnLabel_44:
   \   00000A   22           RET

   \                                 In  segment BANKED_CODE, align 1, keep-with-next
   \                     ?Subroutine21:
   \   000000   90....       MOV     DPTR,#dmaCfg + 518
   \   000003   E0           MOVX    A,@DPTR
   \   000004   F8           MOV     R0,A
   \   000005   74..         MOV     A,#(dmaCfg + 4) & 0xff
   \   000007   28           ADD     A,R0
   \   000008   F582         MOV     DPL,A
   \   00000A   74..         MOV     A,#((dmaCfg + 516) >> 8) & 0xff
   \   00000C   3400         ADDC    A,#0x0
   \   00000E   F583         MOV     DPH,A
   \   000010   E0           MOVX    A,@DPTR
   \   000011   22           RET

   \                                 In  segment BANKED_CODE, align 1, keep-with-next
   \   static __banked_func __xdata_reentrant void HalUARTPollDMA(void)
   \                     HalUARTPollDMA:
   \   000000   74F6         MOV     A,#-0xa
   \   000002   12....       LCALL   ?BANKED_ENTER_XDATA
   \   000005                ; Saved register size: 10
   \   000005                ; Auto size: 0
   \   000005   7E00         MOV     R6,#0x0
   \   000007   90....       MOV     DPTR,#dmaCfg + 256
   \   00000A   E0           MOVX    A,@DPTR
   \   00000B   FA           MOV     R2,A
   \   00000C   12....       LCALL   ?Subroutine16 & 0xFFFF
   \                     ??CrossCallReturnLabel_23:
   \   00000F   6003         JZ      $+5
   \   000011   02....       LJMP    ??HalUARTPollDMA_0 & 0xFFFF
   \   000014   8A82         MOV     DPL,R2
   \   000016   AC82         MOV     R4,DPL
   \   000018   EC           MOV     A,R4
   \   000019   F8           MOV     R0,A
   \   00001A   7900         MOV     R1,#0x0
   \                     ??HalUARTPollDMA_1:
   \   00001C   E8           MOV     A,R0
   \   00001D   FA           MOV     R2,A
   \   00001E   E9           MOV     A,R1
   \   00001F   FB           MOV     R3,A
   \   000020   EA           MOV     A,R2
   \   000021   C3           CLR     C
   \   000022   33           RLC     A
   \   000023   FA           MOV     R2,A
   \   000024   EB           MOV     A,R3
   \   000025   33           RLC     A
   \   000026   FB           MOV     R3,A
   \   000027   74..         MOV     A,#dmaCfg & 0xff
   \   000029   2A           ADD     A,R2
   \   00002A   F582         MOV     DPL,A
   \   00002C   74..         MOV     A,#(dmaCfg >> 8) & 0xff
   \   00002E   3B           ADDC    A,R3
   \   00002F   F583         MOV     DPH,A
   \   000031   A3           INC     DPTR
   \   000032   E0           MOVX    A,@DPTR
   \   000033   65C2         XRL     A,0xc2
   \   000035   7010         JNZ     ??HalUARTPollDMA_2
   \   000037   12....       LCALL   ?Subroutine14 & 0xFFFF
   \                     ??CrossCallReturnLabel_20:
   \   00003A   4004         JC      ??HalUARTPollDMA_3
   \   00003C   7800         MOV     R0,#0x0
   \   00003E   7900         MOV     R1,#0x0
   \                     ??HalUARTPollDMA_3:
   \   000040   EC           MOV     A,R4
   \   000041   68           XRL     A,R0
   \   000042   7001         JNZ     ??HalUARTPollDMA_4
   \   000044   E9           MOV     A,R1
   \                     ??HalUARTPollDMA_4:
   \   000045   70D5         JNZ     ??HalUARTPollDMA_1
   \                     ??HalUARTPollDMA_2:
   \   000047   90....       MOV     DPTR,#dmaCfg + 257
   \   00004A   E0           MOVX    A,@DPTR
   \   00004B   FA           MOV     R2,A
   \   00004C   E8           MOV     A,R0
   \   00004D   6A           XRL     A,R2
   \   00004E   7001         JNZ     ??HalUARTPollDMA_5
   \   000050   E9           MOV     A,R1
   \                     ??HalUARTPollDMA_5:
   \   000051   6011         JZ      ??HalUARTPollDMA_6
   \   000053   E8           MOV     A,R0
   \   000054   F0           MOVX    @DPTR,A
   \   000055   A3           INC     DPTR
   \   000056   E0           MOVX    A,@DPTR
   \   000057   7004         JNZ     ??HalUARTPollDMA_7
   \   000059   E595         MOV     A,0x95
   \   00005B   A3           INC     DPTR
   \   00005C   F0           MOVX    @DPTR,A
   \                     ??HalUARTPollDMA_7:
   \   00005D   90....       MOV     DPTR,#dmaCfg + 258
   \   000060   74C6         MOV     A,#-0x3a
   \   000062   801E         SJMP    ??HalUARTPollDMA_8
   \                     ??HalUARTPollDMA_6:
   \   000064   A3           INC     DPTR
   \   000065   E0           MOVX    A,@DPTR
   \   000066   F9           MOV     R1,A
   \   000067   601A         JZ      ??HalUARTPollDMA_9
   \   000069   A3           INC     DPTR
   \   00006A   E0           MOVX    A,@DPTR
   \   00006B   F8           MOV     R0,A
   \   00006C   E595         MOV     A,0x95
   \   00006E   C3           CLR     C
   \   00006F   98           SUBB    A,R0
   \   000070   F8           MOV     R0,A
   \   000071   C3           CLR     C
   \   000072   99           SUBB    A,R1
   \   000073   90....       MOV     DPTR,#dmaCfg + 258
   \   000076   5009         JNC     ??HalUARTPollDMA_10
   \   000078   E0           MOVX    A,@DPTR
   \   000079   C3           CLR     C
   \   00007A   98           SUBB    A,R0
   \   00007B   F0           MOVX    @DPTR,A
   \   00007C   E595         MOV     A,0x95
   \   00007E   A3           INC     DPTR
   \   00007F   8001         SJMP    ??HalUARTPollDMA_8
   \                     ??HalUARTPollDMA_10:
   \   000081   E4           CLR     A
   \                     ??HalUARTPollDMA_8:
   \   000082   F0           MOVX    @DPTR,A
   \                     ??HalUARTPollDMA_9:
   \   000083                ; Setup parameters for call to function HalUARTRxAvailDMA
   \   000083   12....       LCALL   ??HalUARTRxAvailDMA?relay
   \   000086   8A..         MOV     ?V0 + 0,R2
   \   000088   8B..         MOV     ?V0 + 1,R3
   \   00008A   A8..         MOV     R0,?V0 + 0
   \   00008C   A9..         MOV     R1,?V0 + 1
   \   00008E   C3           CLR     C
   \   00008F   E8           MOV     A,R0
   \   000090   9470         SUBB    A,#0x70
   \   000092   E9           MOV     A,R1
   \   000093   9400         SUBB    A,#0x0
   \   000095   400A         JC      ??HalUARTPollDMA_11
   \   000097   0E           INC     R6
   \   000098   8022         SJMP    ??HalUARTPollDMA_12
   \                     ??HalUARTPollDMA_0:
   \   00009A   90....       MOV     DPTR,#dmaCfg + 258
   \   00009D   E4           CLR     A
   \   00009E   F0           MOVX    @DPTR,A
   \   00009F   801B         SJMP    ??HalUARTPollDMA_12
   \                     ??HalUARTPollDMA_11:
   \   0000A1   C3           CLR     C
   \   0000A2   E8           MOV     A,R0
   \   0000A3   9440         SUBB    A,#0x40
   \   0000A5   E9           MOV     A,R1
   \   0000A6   9400         SUBB    A,#0x0
   \   0000A8   4006         JC      ??HalUARTPollDMA_13
   \   0000AA   0E           INC     R6
   \   0000AB   0E           INC     R6
   \   0000AC   D285         SETB    0x80.5
   \   0000AE   800C         SJMP    ??HalUARTPollDMA_12
   \                     ??HalUARTPollDMA_13:
   \   0000B0   E8           MOV     A,R0
   \   0000B1   49           ORL     A,R1
   \   0000B2   6008         JZ      ??HalUARTPollDMA_12
   \   0000B4   90....       MOV     DPTR,#dmaCfg + 258
   \   0000B7   E0           MOVX    A,@DPTR
   \   0000B8   7002         JNZ     ??HalUARTPollDMA_12
   \   0000BA   7E04         MOV     R6,#0x4
   \                     ??HalUARTPollDMA_12:
   \   0000BC   90....       MOV     DPTR,#dmaCfg + 519
   \   0000BF   E0           MOVX    A,@DPTR
   \   0000C0   6006         JZ      ??HalUARTPollDMA_14
   \   0000C2   E4           CLR     A
   \   0000C3   F0           MOVX    @DPTR,A
   \   0000C4   EE           MOV     A,R6
   \   0000C5   D2E4         SETB    0xE0 /* A   */.4
   \   0000C7   FE           MOV     R6,A
   \                     ??HalUARTPollDMA_14:
   \   0000C8   90....       MOV     DPTR,#dmaCfg + 522
   \   0000CB   E0           MOVX    A,@DPTR
   \   0000CC   6019         JZ      ??HalUARTPollDMA_15
   \   0000CE   E595         MOV     A,0x95
   \   0000D0   F9           MOV     R1,A
   \   0000D1   90....       MOV     DPTR,#dmaCfg + 521
   \   0000D4   E0           MOVX    A,@DPTR
   \   0000D5   F8           MOV     R0,A
   \   0000D6   E9           MOV     A,R1
   \   0000D7   C3           CLR     C
   \   0000D8   98           SUBB    A,R0
   \   0000D9   F8           MOV     R0,A
   \   0000DA   90....       MOV     DPTR,#dmaCfg + 520
   \   0000DD   E0           MOVX    A,@DPTR
   \   0000DE   C3           CLR     C
   \   0000DF   98           SUBB    A,R0
   \   0000E0   5005         JNC     ??HalUARTPollDMA_15
   \   0000E2   90....       MOV     DPTR,#dmaCfg + 522
   \   0000E5   E4           CLR     A
   \   0000E6   F0           MOVX    @DPTR,A
   \                     ??HalUARTPollDMA_15:
   \   0000E7   90....       MOV     DPTR,#dmaCfg + 523
   \   0000EA   E0           MOVX    A,@DPTR
   \   0000EB   6056         JZ      ??HalUARTPollDMA_16
   \   0000ED   90....       MOV     DPTR,#dmaCfg + 522
   \   0000F0   E0           MOVX    A,@DPTR
   \   0000F1   7050         JNZ     ??HalUARTPollDMA_16
   \   0000F3   A3           INC     DPTR
   \   0000F4   E4           CLR     A
   \   0000F5   12....       LCALL   ?Subroutine5 & 0xFFFF
   \                     ??CrossCallReturnLabel_2:
   \   0000F8   12....       LCALL   ?S_SHL
   \   0000FB   74..         MOV     A,#(dmaCfg + 4) & 0xff
   \   0000FD   25..         ADD     A,?V0 + 0
   \   0000FF   74..         MOV     A,#((dmaCfg + 260) >> 8) & 0xff
   \   000101   35..         ADDC    A,?V0 + 1
   \   000103   90....       MOV     DPTR,#dmaCh1234 + 24
   \   000106   12....       LCALL   ?Subroutine5 & 0xFFFF
   \                     ??CrossCallReturnLabel_3:
   \   000109   12....       LCALL   ?S_SHL
   \   00010C   74..         MOV     A,#(dmaCfg + 4) & 0xff
   \   00010E   25..         ADD     A,?V0 + 0
   \   000110   90....       MOV     DPTR,#dmaCh1234 + 25
   \   000113   12....       LCALL   ?Subroutine4 & 0xFFFF
   \                     ??CrossCallReturnLabel_0:
   \   000116   90....       MOV     DPTR,#dmaCh1234 + 29
   \   000119   F0           MOVX    @DPTR,A
   \   00011A   90....       MOV     DPTR,#dmaCh1234 + 28
   \   00011D   E0           MOVX    A,@DPTR
   \   00011E   54E0         ANL     A,#0xe0
   \   000120   F0           MOVX    @DPTR,A
   \   000121   90....       MOV     DPTR,#dmaCfg + 518
   \   000124   E0           MOVX    A,@DPTR
   \   000125   E0           MOVX    A,@DPTR
   \   000126   6401         XRL     A,#0x1
   \   000128   F0           MOVX    @DPTR,A
   \   000129   A2AF         MOV     C,0xa8.7
   \   00012B   E4           CLR     A
   \   00012C   33           RLC     A
   \   00012D   F8           MOV     R0,A
   \   00012E   C2AF         CLR     0xa8.7
   \   000130   75D610       MOV     0xd6,#0x10
   \                     ??HalUARTPollDMA_17:
   \   000133   00           NOP
   \   000134   E5D6         MOV     A,0xd6
   \   000136   A2E4         MOV     C,0xE0 /* A   */.4
   \   000138   50F9         JNC     ??HalUARTPollDMA_17
   \   00013A   53D1EF       ANL     0xd1,#0xef
   \   00013D   75D710       MOV     0xd7,#0x10
   \   000140   E8           MOV     A,R0
   \   000141   8023         SJMP    ??HalUARTPollDMA_18
   \                     ??HalUARTPollDMA_16:
   \   000143   A2AF         MOV     C,0xa8.7
   \   000145   E4           CLR     A
   \   000146   33           RLC     A
   \   000147   FA           MOV     R2,A
   \   000148   C2AF         CLR     0xa8.7
   \   00014A   12....       LCALL   ?Subroutine9 & 0xFFFF
   \                     ??CrossCallReturnLabel_12:
   \   00014D   6016         JZ      ??HalUARTPollDMA_19
   \   00014F   E5D6         MOV     A,0xd6
   \   000151   A2E4         MOV     C,0xE0 /* A   */.4
   \   000153   4010         JC      ??HalUARTPollDMA_19
   \   000155   E5D1         MOV     A,0xd1
   \   000157   A2E4         MOV     C,0xE0 /* A   */.4
   \   000159   400A         JC      ??HalUARTPollDMA_19
   \   00015B   EA           MOV     A,R2
   \   00015C   A2E0         MOV     C,0xE0 /* A   */.0
   \   00015E   92AF         MOV     0xa8.7,C
   \   000160                ; Setup parameters for call to function HalUARTIsrDMA
   \   000160   12....       LCALL   ??HalUARTIsrDMA?relay
   \   000163   8005         SJMP    ??HalUARTPollDMA_20
   \                     ??HalUARTPollDMA_19:
   \   000165   EA           MOV     A,R2
   \                     ??HalUARTPollDMA_18:
   \   000166   A2E0         MOV     C,0xE0 /* A   */.0
   \   000168   92AF         MOV     0xa8.7,C
   \                     ??HalUARTPollDMA_20:
   \   00016A   EE           MOV     A,R6
   \   00016B   6019         JZ      ??HalUARTPollDMA_21
   \   00016D   90....       MOV     DPTR,#dmaCfg + 524
   \   000170   E0           MOVX    A,@DPTR
   \   000171   F8           MOV     R0,A
   \   000172   A3           INC     DPTR
   \   000173   E0           MOVX    A,@DPTR
   \   000174   F9           MOV     R1,A
   \   000175   8882         MOV     DPL,R0
   \   000177   8983         MOV     DPH,R1
   \   000179   E582         MOV     A,DPL
   \   00017B   4583         ORL     A,DPH
   \   00017D   6007         JZ      ??HalUARTPollDMA_21
   \   00017F                ; Setup parameters for indirect call
   \   00017F   EE           MOV     A,R6
   \   000180   FA           MOV     R2,A
   \   000181   7900         MOV     R1,#0x0
   \   000183   12....       LCALL   ?CALL_IND
   \                     ??HalUARTPollDMA_21:
   \   000186   02....       LJMP    ?Subroutine1 & 0xFFFF
   \   000189                REQUIRE U0BAUD
   \   000189                REQUIRE ST0
   \   000189                REQUIRE _A_P0
   \   000189                REQUIRE _A_IEN0
   \   000189                REQUIRE DMAARM
   \   000189                REQUIRE DMAIRQ
   \   000189                REQUIRE DMAREQ

   \                                 In  segment BANKED_CODE, align 1, keep-with-next
   \                     ?Subroutine5:
   \   000000   F0           MOVX    @DPTR,A
   \   000001   90....       MOV     DPTR,#dmaCfg + 518
   \   000004   E0           MOVX    A,@DPTR
   \   000005   F5..         MOV     ?V0 + 0,A
   \   000007   75..00       MOV     ?V0 + 1,#0x0
   \   00000A   7407         MOV     A,#0x7
   \   00000C   78..         MOV     R0,#?V0 + 0
   \   00000E   22           RET

   \                                 In  segment BANKED_CODE, align 1, keep-with-next
   \                     ?Subroutine16:
   \   000000   C3           CLR     C
   \   000001   33           RLC     A
   \   000002   F8           MOV     R0,A
   \   000003   E4           CLR     A
   \   000004   33           RLC     A
   \   000005   F9           MOV     R1,A
   \   000006   74..         MOV     A,#dmaCfg & 0xff
   \   000008   28           ADD     A,R0
   \   000009   F582         MOV     DPL,A
   \   00000B   74..         MOV     A,#(dmaCfg >> 8) & 0xff
   \   00000D   39           ADDC    A,R1
   \   00000E   F583         MOV     DPH,A
   \   000010   A3           INC     DPTR
   \   000011   E0           MOVX    A,@DPTR
   \   000012   65C2         XRL     A,0xc2
   \   000014   22           RET

   \                                 In  segment BANKED_CODE, align 1, keep-with-next
   \                     ?Subroutine4:
   \   000000   F0           MOVX    @DPTR,A
   \   000001   12....       LCALL   ?Subroutine21 & 0xFFFF
   \                     ??CrossCallReturnLabel_34:
   \   000004   22           RET

   \                                 In  segment BANKED_CODE, align 1, keep-with-next
   \   static __banked_func __xdata_reentrant uint16 HalUARTRxAvailDMA(void)
   \                     HalUARTRxAvailDMA:
   \   000000   C082         PUSH    DPL
   \   000002   C083         PUSH    DPH
   \   000004                ; Saved register size: 2
   \   000004                ; Auto size: 0
   \   000004   7A00         MOV     R2,#0x0
   \   000006   7B00         MOV     R3,#0x0
   \   000008   90....       MOV     DPTR,#dmaCfg + 256
   \   00000B   E0           MOVX    A,@DPTR
   \   00000C   12....       LCALL   ?Subroutine16 & 0xFFFF
   \                     ??CrossCallReturnLabel_24:
   \   00000F   702C         JNZ     ??HalUARTRxAvailDMA_0
   \   000011   7800         MOV     R0,#0x0
   \   000013   7900         MOV     R1,#0x0
   \                     ??HalUARTRxAvailDMA_1:
   \   000015   E8           MOV     A,R0
   \   000016   FC           MOV     R4,A
   \   000017   E9           MOV     A,R1
   \   000018   FD           MOV     R5,A
   \   000019   EC           MOV     A,R4
   \   00001A   C3           CLR     C
   \   00001B   33           RLC     A
   \   00001C   FC           MOV     R4,A
   \   00001D   ED           MOV     A,R5
   \   00001E   33           RLC     A
   \   00001F   FD           MOV     R5,A
   \   000020   74..         MOV     A,#dmaCfg & 0xff
   \   000022   2C           ADD     A,R4
   \   000023   F582         MOV     DPL,A
   \   000025   74..         MOV     A,#(dmaCfg >> 8) & 0xff
   \   000027   3D           ADDC    A,R5
   \   000028   F583         MOV     DPH,A
   \   00002A   A3           INC     DPTR
   \   00002B   E0           MOVX    A,@DPTR
   \   00002C   65C2         XRL     A,0xc2
   \   00002E   7008         JNZ     ??HalUARTRxAvailDMA_2
   \   000030   EA           MOV     A,R2
   \   000031   2401         ADD     A,#0x1
   \   000033   0A           INC     R2
   \   000034   EB           MOV     A,R3
   \   000035   3400         ADDC    A,#0x0
   \   000037   FB           MOV     R3,A
   \                     ??HalUARTRxAvailDMA_2:
   \   000038   12....       LCALL   ?Subroutine14 & 0xFFFF
   \                     ??CrossCallReturnLabel_19:
   \   00003B   40D8         JC      ??HalUARTRxAvailDMA_1
   \                     ??HalUARTRxAvailDMA_0:
   \   00003D   80..         SJMP    ??Subroutine24_0
   \   00003F                REQUIRE U0BAUD

   \                                 In  segment BANKED_CODE, align 1, keep-with-next
   \                     ?Subroutine14:
   \   000000   E8           MOV     A,R0
   \   000001   2401         ADD     A,#0x1
   \   000003   08           INC     R0
   \   000004   E9           MOV     A,R1
   \   000005   3400         ADDC    A,#0x0
   \   000007   F9           MOV     R1,A
   \   000008   C3           CLR     C
   \   000009   E8           MOV     A,R0
   \   00000A   9480         SUBB    A,#-0x80
   \   00000C   E9           MOV     A,R1
   \   00000D   9400         SUBB    A,#0x0
   \   00000F   22           RET

   \                                 In  segment BANKED_CODE, align 1, keep-with-next
   \   __banked_func __xdata_reentrant void HalUARTIsrDMA(void)
   \                     HalUARTIsrDMA:
   \   000000   C082         PUSH    DPL
   \   000002   C083         PUSH    DPH
   \   000004                ; Saved register size: 2
   \   000004                ; Auto size: 0
   \   000004   53D1EF       ANL     0xd1,#0xef
   \   000007   90....       MOV     DPTR,#dmaCfg + 518
   \   00000A   E0           MOVX    A,@DPTR
   \   00000B   12....       LCALL   ?Subroutine13 & 0xFFFF
   \                     ??CrossCallReturnLabel_38:
   \   00000E   E4           CLR     A
   \   00000F   F0           MOVX    @DPTR,A
   \   000010   90....       MOV     DPTR,#dmaCfg + 519
   \   000013   04           INC     A
   \   000014   F0           MOVX    @DPTR,A
   \   000015   E595         MOV     A,0x95
   \   000017   90....       MOV     DPTR,#dmaCfg + 521
   \   00001A   F0           MOVX    @DPTR,A
   \   00001B   A3           INC     DPTR
   \   00001C   7401         MOV     A,#0x1
   \   00001E   12....       LCALL   ?Subroutine4 & 0xFFFF
   \                     ??CrossCallReturnLabel_1:
   \   000021   6006         JZ      ??HalUARTIsrDMA_0
   \   000023   90....       MOV     DPTR,#dmaCfg + 523
   \   000026   7401         MOV     A,#0x1
   \   000028   F0           MOVX    @DPTR,A
   \                     ??HalUARTIsrDMA_0:
   \   000029   80..         SJMP    ??Subroutine24_0
   \   00002B                REQUIRE DMAIRQ
   \   00002B                REQUIRE ST0
     79          #endif
     80          #if HAL_UART_ISR
     81          #include "_hal_uart_isr.c"
     82          #endif
     83          #if HAL_UART_USB
     84          #include "_hal_uart_usb.c"
     85          #endif
     86          
     87          /******************************************************************************
     88           * @fn      HalUARTInit
     89           *
     90           * @brief   Initialize the UART
     91           *
     92           * @param   none
     93           *
     94           * @return  none
     95           *****************************************************************************/

   \                                 In  segment BANKED_CODE, align 1, keep-with-next
     96          void HalUARTInit(void)
   \                     HalUARTInit:
     97          {
   \   000000   C082         PUSH    DPL
   \   000002   C083         PUSH    DPH
   \   000004                ; Saved register size: 2
   \   000004                ; Auto size: 0
     98          #if HAL_UART_DMA
     99            HalUARTInitDMA();
   \   000004                ; Setup parameters for call to function HalUARTInitDMA
   \   000004   12....       LCALL   ??HalUARTInitDMA?relay
    100          #endif
    101          #if HAL_UART_ISR
    102            HalUARTInitISR();
    103          #endif
    104          #if HAL_UART_USB
    105            HalUARTInitUSB();
    106          #endif
    107          }
   \   000007   80..         SJMP    ??Subroutine24_0
    108          
    109          /******************************************************************************
    110           * @fn      HalUARTOpen
    111           *
    112           * @brief   Open a port according tp the configuration specified by parameter.
    113           *
    114           * @param   port   - UART port
    115           *          config - contains configuration information
    116           *
    117           * @return  Status of the function call
    118           *****************************************************************************/

   \                                 In  segment BANKED_CODE, align 1, keep-with-next
    119          uint8 HalUARTOpen(uint8 port, halUARTCfg_t *config)
   \                     HalUARTOpen:
    120          {
   \   000000   74F7         MOV     A,#-0x9
   \   000002   12....       LCALL   ?BANKED_ENTER_XDATA
   \   000005                ; Saved register size: 9
   \   000005                ; Auto size: 0
   \   000005   E9           MOV     A,R1
    121            (void)port;
    122            (void)config;
    123          
    124          #if (HAL_UART_DMA == 1)
    125            if (port == HAL_UART_PORT_0)  HalUARTOpenDMA(config);
   \   000006   7003         JNZ     ??HalUARTOpen_0
   \   000008                ; Setup parameters for call to function HalUARTOpenDMA
   \   000008   12....       LCALL   ??HalUARTOpenDMA?relay
    126          #endif
    127          #if (HAL_UART_DMA == 2)
    128            if (port == HAL_UART_PORT_1)  HalUARTOpenDMA(config);
    129          #endif
    130          #if (HAL_UART_ISR == 1)
    131            if (port == HAL_UART_PORT_0)  HalUARTOpenISR(config);
    132          #endif
    133          #if (HAL_UART_ISR == 2)
    134            if (port == HAL_UART_PORT_1)  HalUARTOpenISR(config);
    135          #endif
    136          #if (HAL_UART_USB)
    137            HalUARTOpenUSB(config);
    138          #endif
    139            
    140            return HAL_UART_SUCCESS;
   \                     ??HalUARTOpen_0:
   \   00000B   7900         MOV     R1,#0x0
   \   00000D   80..         SJMP    ?Subroutine2
    141          }

   \                                 In  segment BANKED_CODE, align 1, keep-with-next
   \                     ?Subroutine2:
   \   000000   7F01         MOV     R7,#0x1
   \   000002   02....       LJMP    ?BANKED_LEAVE_XDATA
    142          
    143          /*****************************************************************************
    144           * @fn      HalUARTRead
    145           *
    146           * @brief   Read a buffer from the UART
    147           *
    148           * @param   port - USART module designation
    149           *          buf  - valid data buffer at least 'len' bytes in size
    150           *          len  - max length number of bytes to copy to 'buf'
    151           *
    152           * @return  length of buffer that was read
    153           *****************************************************************************/

   \                                 In  segment BANKED_CODE, align 1, keep-with-next
    154          uint16 HalUARTRead(uint8 port, uint8 *buf, uint16 len)
   \                     HalUARTRead:
    155          {
   \   000000   74F7         MOV     A,#-0x9
   \   000002   12....       LCALL   ?BANKED_ENTER_XDATA
   \   000005                ; Saved register size: 9
   \   000005                ; Auto size: 0
   \   000005   E9           MOV     A,R1
    156            (void)port;
    157            (void)buf;
    158            (void)len;
    159          
    160          #if (HAL_UART_DMA == 1)
    161            if (port == HAL_UART_PORT_0)  return HalUARTReadDMA(buf, len);
   \   000006   7005         JNZ     ??HalUARTRead_0
   \   000008                ; Setup parameters for call to function HalUARTReadDMA
   \   000008   12....       LCALL   ??HalUARTReadDMA?relay
   \   00000B   8004         SJMP    ??HalUARTRead_1
    162          #endif
    163          #if (HAL_UART_DMA == 2)
    164            if (port == HAL_UART_PORT_1)  return HalUARTReadDMA(buf, len);
    165          #endif
    166          #if (HAL_UART_ISR == 1)
    167            if (port == HAL_UART_PORT_0)  return HalUARTReadISR(buf, len);
    168          #endif
    169          #if (HAL_UART_ISR == 2)
    170            if (port == HAL_UART_PORT_1)  return HalUARTReadISR(buf, len);
    171          #endif
    172          
    173          #if HAL_UART_USB
    174            return HalUARTRx(buf, len);
    175          #else
    176            return 0;
   \                     ??HalUARTRead_0:
   \   00000D   7A00         MOV     R2,#0x0
   \   00000F   7B00         MOV     R3,#0x0
   \                     ??HalUARTRead_1:
   \   000011   80..         SJMP    ?Subroutine2
    177          #endif
    178          }
    179          
    180          /******************************************************************************
    181           * @fn      HalUARTWrite
    182           *
    183           * @brief   Write a buffer to the UART.
    184           *
    185           * @param   port - UART port
    186           *          buf  - pointer to the buffer that will be written, not freed
    187           *          len  - length of
    188           *
    189           * @return  length of the buffer that was sent
    190           *****************************************************************************/

   \                                 In  segment BANKED_CODE, align 1, keep-with-next
    191          uint16 HalUARTWrite(uint8 port, uint8 *buf, uint16 len)
   \                     HalUARTWrite:
    192          {
   \   000000   74F7         MOV     A,#-0x9
   \   000002   12....       LCALL   ?BANKED_ENTER_XDATA
   \   000005                ; Saved register size: 9
   \   000005                ; Auto size: 0
   \   000005   E9           MOV     A,R1
    193            (void)port;
    194            (void)buf;
    195            (void)len;
    196          
    197          #if (HAL_UART_DMA == 1)
    198            if (port == HAL_UART_PORT_0)  return HalUARTWriteDMA(buf, len);
   \   000006   7005         JNZ     ??HalUARTWrite_0
   \   000008                ; Setup parameters for call to function HalUARTWriteDMA
   \   000008   12....       LCALL   ??HalUARTWriteDMA?relay
   \   00000B   8004         SJMP    ??HalUARTWrite_1
    199          #endif
    200          #if (HAL_UART_DMA == 2)
    201            if (port == HAL_UART_PORT_1)  return HalUARTWriteDMA(buf, len);
    202          #endif
    203          #if (HAL_UART_ISR == 1)
    204            if (port == HAL_UART_PORT_0)  return HalUARTWriteISR(buf, len);
    205          #endif
    206          #if (HAL_UART_ISR == 2)
    207            if (port == HAL_UART_PORT_1)  return HalUARTWriteISR(buf, len);
    208          #endif
    209          
    210          #if HAL_UART_USB
    211            HalUARTTx(buf, len);
    212            return len;
    213          #else
    214            return 0;
   \                     ??HalUARTWrite_0:
   \   00000D   7A00         MOV     R2,#0x0
   \   00000F   7B00         MOV     R3,#0x0
   \                     ??HalUARTWrite_1:
   \   000011                REQUIRE ?Subroutine2
   \   000011                ; // Fall through to label ?Subroutine2
    215          #endif
    216          }
    217          
    218          /******************************************************************************
    219           * @fn      HalUARTSuspend
    220           *
    221           * @brief   Suspend UART hardware before entering PM mode 1, 2 or 3.
    222           *
    223           * @param   None
    224           *
    225           * @return  None
    226           *****************************************************************************/

   \                                 In  segment BANKED_CODE, align 1, keep-with-next
    227          void HalUARTSuspend( void )
   \                     HalUARTSuspend:
    228          {
   \   000000                ; Saved register size: 0
   \   000000                ; Auto size: 0
    229          #if HAL_UART_DMA
    230            HalUARTSuspendDMA();
   \   000000   5386BF       ANL     0x86,#0xbf
    231          #endif
    232          #if HAL_UART_ISR
    233            HalUARTSuspendISR();
    234          #endif
    235          }
   \   000003   02....       LJMP    ?BRET
   \   000006                REQUIRE U0CSR
    236          
    237          /******************************************************************************
    238           * @fn      HalUARTResume
    239           *
    240           * @brief   Resume UART hardware after exiting PM mode 1, 2 or 3.
    241           *
    242           * @param   None
    243           *
    244           * @return  None
    245           *****************************************************************************/

   \                                 In  segment BANKED_CODE, align 1, keep-with-next
    246          void HalUARTResume( void )
   \                     HalUARTResume:
    247          {
   \   000000                ; Saved register size: 0
   \   000000                ; Auto size: 0
    248          #if HAL_UART_DMA
    249            HalUARTResumeDMA();
   \   000000   43C480       ORL     0xc4,#0x80
   \   000003   438640       ORL     0x86,#0x40
    250          #endif
    251          #if HAL_UART_ISR
    252            HalUARTResumeISR();
    253          #endif
    254          }
   \   000006   02....       LJMP    ?BRET
   \   000009                REQUIRE U0UCR
   \   000009                REQUIRE U0CSR
    255          
    256          /***************************************************************************************************
    257           * @fn      HalUARTPoll
    258           *
    259           * @brief   Poll the UART.
    260           *
    261           * @param   none
    262           *
    263           * @return  none
    264           *****************************************************************************/

   \                                 In  segment BANKED_CODE, align 1, keep-with-next
    265          void HalUARTPoll(void)
   \                     HalUARTPoll:
    266          {
   \   000000   C082         PUSH    DPL
   \   000002   C083         PUSH    DPH
   \   000004                ; Saved register size: 2
   \   000004                ; Auto size: 0
    267          #if HAL_UART_DMA
    268            HalUARTPollDMA();
   \   000004                ; Setup parameters for call to function HalUARTPollDMA
   \   000004   12....       LCALL   ??HalUARTPollDMA?relay
    269          #endif
    270          #if HAL_UART_ISR
    271            HalUARTPollISR();
    272          #endif
    273          #if HAL_UART_USB
    274            HalUARTPollUSB();
    275          #endif
    276          }
   \   000007   80..         SJMP    ??Subroutine24_0
    277          
    278          /**************************************************************************************************
    279           * @fn      Hal_UART_RxBufLen()
    280           *
    281           * @brief   Calculate Rx Buffer length - the number of bytes in the buffer.
    282           *
    283           * @param   port - UART port
    284           *
    285           * @return  length of current Rx Buffer
    286           **************************************************************************************************/

   \                                 In  segment BANKED_CODE, align 1, keep-with-next
    287          uint16 Hal_UART_RxBufLen( uint8 port )
   \                     Hal_UART_RxBufLen:
    288          {
   \   000000   74F7         MOV     A,#-0x9
   \   000002   12....       LCALL   ?BANKED_ENTER_XDATA
   \   000005                ; Saved register size: 9
   \   000005                ; Auto size: 0
   \   000005   E9           MOV     A,R1
    289            (void)port;
    290          
    291          #if (HAL_UART_DMA == 1)
    292            if (port == HAL_UART_PORT_0)  return HalUARTRxAvailDMA();
   \   000006   7005         JNZ     ??Hal_UART_RxBufLen_0
   \   000008                ; Setup parameters for call to function HalUARTRxAvailDMA
   \   000008   12....       LCALL   ??HalUARTRxAvailDMA?relay
   \   00000B   8004         SJMP    ??Hal_UART_RxBufLen_1
    293          #endif
    294          #if (HAL_UART_DMA == 2)
    295            if (port == HAL_UART_PORT_1)  return HalUARTRxAvailDMA();
    296          #endif
    297          #if (HAL_UART_ISR == 1)
    298            if (port == HAL_UART_PORT_0)  return HalUARTRxAvailISR();
    299          #endif
    300          #if (HAL_UART_ISR == 2)
    301            if (port == HAL_UART_PORT_1)  return HalUARTRxAvailISR();
    302          #endif
    303          #if HAL_UART_USB
    304            return HalUARTRxAvailUSB();
    305          #else
    306            return 0;
   \                     ??Hal_UART_RxBufLen_0:
   \   00000D   7A00         MOV     R2,#0x0
   \   00000F   7B00         MOV     R3,#0x0
   \                     ??Hal_UART_RxBufLen_1:
   \   000011   80..         SJMP    ?Subroutine2
    307          #endif
    308          }
    309          /*
    310          */

   \                                 In  segment BANKED_CODE, align 1, keep-with-next
    311          void UART_PrintData(uint8 *pprompt,uint32 data)
   \                     UART_PrintData:
    312          {
   \   000000   74F3         MOV     A,#-0xd
   \   000002   12....       LCALL   ?BANKED_ENTER_XDATA
   \   000005                ; Saved register size: 13
   \   000005                ; Auto size: 8
   \   000005   74F8         MOV     A,#-0x8
   \   000007   12....       LCALL   ?ALLOC_XSTACK8
   \   00000A   EA           MOV     A,R2
   \   00000B   FE           MOV     R6,A
   \   00000C   EB           MOV     A,R3
   \   00000D   FF           MOV     R7,A
   \   00000E   7415         MOV     A,#0x15
   \   000010   12....       LCALL   ?XSTACK_DISP0_8
   \   000013   78..         MOV     R0,#?V0 + 0
   \   000015   12....       LCALL   ?L_MOV_X
    313            uint8 temp[4]={0},temp1[4]={0},index=0,i = 0;
   \   000018   85..82       MOV     DPL,?XSP + 0
   \   00001B   85..83       MOV     DPH,?XSP + 1
   \   00001E   AC82         MOV     R4,DPL
   \   000020   AD83         MOV     R5,DPH
   \   000022   7583..       MOV     DPH,#(`?<Constant {0}>` >> 8) & 0xff
   \   000025   7582..       MOV     DPL,#`?<Constant {0}>` & 0xff
   \   000028   7404         MOV     A,#0x4
   \   00002A   12....       LCALL   ?MOVE_LONG8_XDATA_XDATA
   \   00002D   7404         MOV     A,#0x4
   \   00002F   12....       LCALL   ?XSTACK_DISP0_8
   \   000032   AC82         MOV     R4,DPL
   \   000034   AD83         MOV     R5,DPH
   \   000036   7583..       MOV     DPH,#(`?<Constant {0}>_1` >> 8) & 0xff
   \   000039   7582..       MOV     DPL,#`?<Constant {0}>_1` & 0xff
   \   00003C   7404         MOV     A,#0x4
   \   00003E   12....       LCALL   ?MOVE_LONG8_XDATA_XDATA
   \   000041   F5..         MOV     ?V0 + 4,A
    314            HalUARTWrite(0,pprompt,strlen((char const *)pprompt));
   \   000043                ; Setup parameters for call to function HalUARTWrite
   \   000043                ; Setup parameters for call to function strlen
   \   000043   12....       LCALL   ?Subroutine20 & 0xFFFF
   \                     ??CrossCallReturnLabel_32:
   \   000046   7900         MOV     R1,#0x0
   \   000048   12....       LCALL   ??HalUARTWrite?relay
    315            
    316            temp[index++] = (data&0x0F) + 0x30;
   \   00004B   E5..         MOV     A,?V0 + 0
   \   00004D   540F         ANL     A,#0xf
   \   00004F   2430         ADD     A,#0x30
   \   000051   85..82       MOV     DPL,?XSP + 0
   \   000054   85..83       MOV     DPH,?XSP + 1
   \   000057   F0           MOVX    @DPTR,A
    317            data          = data >> 4;
   \   000058   7404         MOV     A,#0x4
   \   00005A   78..         MOV     R0,#?V0 + 0
   \   00005C   12....       LCALL   ?US_SHR
    318            temp[index++] = (data&0x0F) + 0x30; 
   \   00005F   E5..         MOV     A,?V0 + 0
   \   000061   540F         ANL     A,#0xf
   \   000063   2430         ADD     A,#0x30
   \   000065   C0E0         PUSH    A
   \   000067   7401         MOV     A,#0x1
   \   000069   12....       LCALL   ?XSTACK_DISP0_8
   \   00006C   D0E0         POP     A
   \   00006E   F0           MOVX    @DPTR,A
    319            data          = data >> 4;
   \   00006F   7404         MOV     A,#0x4
   \   000071   78..         MOV     R0,#?V0 + 0
   \   000073   12....       LCALL   ?US_SHR
    320            temp[index++] = (data&0x0F) + 0x30;
   \   000076   E5..         MOV     A,?V0 + 0
   \   000078   540F         ANL     A,#0xf
   \   00007A   2430         ADD     A,#0x30
   \   00007C   C0E0         PUSH    A
   \   00007E   7402         MOV     A,#0x2
   \   000080   12....       LCALL   ?XSTACK_DISP0_8
   \   000083   D0E0         POP     A
   \   000085   F0           MOVX    @DPTR,A
    321            data          = data >> 4;
    322            temp[index++] = (data&0x0F) + 0x30; 
   \   000086   E5..         MOV     A,?V0 + 0
   \   000088   C4           SWAP    A
   \   000089   540F         ANL     A,#0xf
   \   00008B   2430         ADD     A,#0x30
   \   00008D   C0E0         PUSH    A
   \   00008F   7403         MOV     A,#0x3
   \   000091   12....       LCALL   ?XSTACK_DISP0_8
   \   000094   D0E0         POP     A
   \   000096   F0           MOVX    @DPTR,A
    323            
    324            while(i<index)
    325            {
    326              if(temp[i]>0x39)
   \                     ??UART_PrintData_0:
   \   000097   85..82       MOV     DPL,?V0 + 4
   \   00009A   AA82         MOV     R2,DPL
   \   00009C   85..82       MOV     DPL,?XSP + 0
   \   00009F   85..83       MOV     DPH,?XSP + 1
   \   0000A2   E582         MOV     A,DPL
   \   0000A4   2A           ADD     A,R2
   \   0000A5   F582         MOV     DPL,A
   \   0000A7   E583         MOV     A,DPH
   \   0000A9   12....       LCALL   ?Subroutine17 & 0xFFFF
   \                     ??CrossCallReturnLabel_25:
   \   0000AC   4004         JC      ??UART_PrintData_1
    327              {
    328                temp[i] = 0x41+temp[i]-0x39-1;
   \   0000AE   E0           MOVX    A,@DPTR
   \   0000AF   2407         ADD     A,#0x7
   \   0000B1   F0           MOVX    @DPTR,A
    329              }
    330              temp1[3-i] = temp[i];
   \                     ??UART_PrintData_1:
   \   0000B2   E0           MOVX    A,@DPTR
   \   0000B3   C0E0         PUSH    A
   \   0000B5   C3           CLR     C
   \   0000B6   E4           CLR     A
   \   0000B7   9A           SUBB    A,R2
   \   0000B8   F8           MOV     R0,A
   \   0000B9   95E0         SUBB    A,0xE0 /* A   */
   \   0000BB   F9           MOV     R1,A
   \   0000BC   7404         MOV     A,#0x4
   \   0000BE   12....       LCALL   ?XSTACK_DISP0_8
   \   0000C1   E582         MOV     A,DPL
   \   0000C3   28           ADD     A,R0
   \   0000C4   F582         MOV     DPL,A
   \   0000C6   E583         MOV     A,DPH
   \   0000C8   39           ADDC    A,R1
   \   0000C9   F583         MOV     DPH,A
   \   0000CB   A3           INC     DPTR
   \   0000CC   A3           INC     DPTR
   \   0000CD   A3           INC     DPTR
   \   0000CE   D0E0         POP     A
   \   0000D0   F0           MOVX    @DPTR,A
    331              i++;
   \   0000D1   05..         INC     ?V0 + 4
    332            }
   \   0000D3   E5..         MOV     A,?V0 + 4
   \   0000D5   C3           CLR     C
   \   0000D6   9404         SUBB    A,#0x4
   \   0000D8   40BD         JC      ??UART_PrintData_0
    333            HalUARTWrite(0,temp1,index);
   \   0000DA                ; Setup parameters for call to function HalUARTWrite
   \   0000DA   7C04         MOV     R4,#0x4
   \   0000DC   7D00         MOV     R5,#0x0
   \   0000DE   EC           MOV     A,R4
   \   0000DF   12....       LCALL   ?XSTACK_DISP0_8
   \   0000E2   AA82         MOV     R2,DPL
   \   0000E4   AB83         MOV     R3,DPH
   \   0000E6   12....       LCALL   ?Subroutine19 & 0xFFFF
    334            HalUARTWrite(0,"\r\n",2);
    335          }
   \                     ??CrossCallReturnLabel_29:
   \   0000E9   7408         MOV     A,#0x8
   \   0000EB   12....       LCALL   ?DEALLOC_XSTACK8
   \   0000EE                REQUIRE ?Subroutine3
   \   0000EE                ; // Fall through to label ?Subroutine3

   \                                 In  segment BANKED_CODE, align 1, keep-with-next
   \                     ?Subroutine3:
   \   000000   7F05         MOV     R7,#0x5
   \   000002   02....       LJMP    ?BANKED_LEAVE_XDATA

   \                                 In  segment BANKED_CODE, align 1, keep-with-next
   \                     ?Subroutine19:
   \   000000   7900         MOV     R1,#0x0
   \   000002   12....       LCALL   ??HalUARTWrite?relay
   \   000005                ; Setup parameters for call to function HalUARTWrite
   \   000005                ; Setup parameters for call to function HalUARTWrite
   \   000005                ; Setup parameters for call to function HalUARTWrite
   \   000005   7C02         MOV     R4,#0x2
   \   000007   7D00         MOV     R5,#0x0
   \   000009   7A..         MOV     R2,#`?<Constant "\\r\\n">` & 0xff
   \   00000B   7B..         MOV     R3,#(`?<Constant "\\r\\n">` >> 8) & 0xff
   \   00000D   7900         MOV     R1,#0x0
   \   00000F   12....       LCALL   ??HalUARTWrite?relay
   \   000012   22           RET

   \                                 In  segment BANKED_CODE, align 1, keep-with-next
   \                     ?Subroutine17:
   \   000000   12....       LCALL   ??Subroutine25_0 & 0xFFFF
   \                     ??CrossCallReturnLabel_41:
   \   000003   E0           MOVX    A,@DPTR
   \   000004   C3           CLR     C
   \   000005   943A         SUBB    A,#0x3a
   \   000007   22           RET

   \                                 In  segment BANKED_CODE, align 1, keep-with-next
   \                     ?Subroutine20:
   \   000000   12....       LCALL   ??strlen?relay
   \   000003   EA           MOV     A,R2
   \   000004   FC           MOV     R4,A
   \   000005   EB           MOV     A,R3
   \   000006   FD           MOV     R5,A
   \   000007   EE           MOV     A,R6
   \   000008   FA           MOV     R2,A
   \   000009   EF           MOV     A,R7
   \   00000A   FB           MOV     R3,A
   \   00000B   22           RET
    336          /*
    337          */

   \                                 In  segment XDATA_Z, align 1, keep-with-next
    338          uint8 uart_printstring_buf[50],uart_printstring_idx=0;
   \                     uart_printstring_buf:
   \   000000                DS 50
   \   000032                REQUIRE __INIT_XDATA_Z

   \                                 In  segment XDATA_Z, align 1, keep-with-next
   \                     uart_printstring_idx:
   \   000000                DS 1
   \   000001                REQUIRE __INIT_XDATA_Z

   \                                 In  segment BANKED_CODE, align 1, keep-with-next
    339          void UART_PrintBuffer(uint8 *pprompt,uint8 *pdata,uint16 len)
   \                     UART_PrintBuffer:
    340          {
   \   000000   74F3         MOV     A,#-0xd
   \   000002   12....       LCALL   ?BANKED_ENTER_XDATA
   \   000005                ; Saved register size: 13
   \   000005                ; Auto size: 0
   \   000005   8A..         MOV     ?V0 + 2,R2
   \   000007   8B..         MOV     ?V0 + 3,R3
   \   000009   8C..         MOV     ?V0 + 0,R4
   \   00000B   8D..         MOV     ?V0 + 1,R5
   \   00000D   740D         MOV     A,#0xd
   \   00000F   12....       LCALL   ?XSTACK_DISP0_8
   \   000012   E0           MOVX    A,@DPTR
   \   000013   FE           MOV     R6,A
   \   000014   A3           INC     DPTR
   \   000015   E0           MOVX    A,@DPTR
   \   000016   FF           MOV     R7,A
    341            uint8 temp,i = 0;
   \   000017   75..00       MOV     ?V0 + 4,#0x0
    342            HalUARTWrite(0,pprompt,strlen((char const *)pprompt));
   \   00001A                ; Setup parameters for call to function HalUARTWrite
   \   00001A                ; Setup parameters for call to function strlen
   \   00001A   12....       LCALL   ??strlen?relay
   \   00001D   EA           MOV     A,R2
   \   00001E   FC           MOV     R4,A
   \   00001F   EB           MOV     A,R3
   \   000020   FD           MOV     R5,A
   \   000021   AA..         MOV     R2,?V0 + 2
   \   000023   AB..         MOV     R3,?V0 + 3
   \   000025   7900         MOV     R1,#0x0
   \   000027   12....       LCALL   ??HalUARTWrite?relay
    343            uart_printstring_idx = 0;
   \   00002A   90....       MOV     DPTR,#uart_printstring_idx
   \   00002D   E4           CLR     A
   \   00002E   803A         SJMP    ??CrossCallReturnLabel_8
    344            
    345            
    346            while(len--)
    347            {
    348              temp = *(pdata++);
   \                     ??UART_PrintBuffer_0:
   \   000030   85..82       MOV     DPL,?V0 + 0
   \   000033   85..83       MOV     DPH,?V0 + 1
   \   000036   E0           MOVX    A,@DPTR
   \   000037   FA           MOV     R2,A
   \   000038   A3           INC     DPTR
   \   000039   8582..       MOV     ?V0 + 0,DPL
   \   00003C   8583..       MOV     ?V0 + 1,DPH
    349              uart_printstring_buf[uart_printstring_idx++] = ((temp>>4)&0x0F) + 0x30; //·¢¸ßµÄËÄ×Ö½Ú
   \   00003F   C4           SWAP    A
   \   000040   540F         ANL     A,#0xf
   \   000042   2430         ADD     A,#0x30
   \   000044   C0E0         PUSH    A
   \   000046   90....       MOV     DPTR,#uart_printstring_idx
   \   000049   12....       LCALL   ?Subroutine10 & 0xFFFF
   \                     ??CrossCallReturnLabel_13:
   \   00004C   D0E0         POP     A
   \   00004E   12....       LCALL   ?Subroutine7 & 0xFFFF
   \                     ??CrossCallReturnLabel_6:
   \   000051   F0           MOVX    @DPTR,A
    350              uart_printstring_buf[uart_printstring_idx++] = (temp&0x0F)      + 0x30;//·¢µÍµÄËÄ×Ö½Ú
   \   000052   740F         MOV     A,#0xf
   \   000054   5A           ANL     A,R2
   \   000055   2430         ADD     A,#0x30
   \   000057   C0E0         PUSH    A
   \   000059   12....       LCALL   ?Subroutine10 & 0xFFFF
   \                     ??CrossCallReturnLabel_14:
   \   00005C   D0E0         POP     A
   \   00005E   12....       LCALL   ?Subroutine7 & 0xFFFF
   \                     ??CrossCallReturnLabel_7:
   \   000061   F0           MOVX    @DPTR,A
    351              uart_printstring_buf[uart_printstring_idx++] = ' ';  
   \   000062   12....       LCALL   ?Subroutine22 & 0xFFFF
    352            }
   \                     ??CrossCallReturnLabel_42:
   \   000065   7420         MOV     A,#0x20
   \   000067   12....       LCALL   ?Subroutine7 & 0xFFFF
   \                     ??CrossCallReturnLabel_8:
   \   00006A   F0           MOVX    @DPTR,A
   \   00006B   EE           MOV     A,R6
   \   00006C   F8           MOV     R0,A
   \   00006D   EF           MOV     A,R7
   \   00006E   F9           MOV     R1,A
   \   00006F   E8           MOV     A,R0
   \   000070   24FF         ADD     A,#-0x1
   \   000072   1E           DEC     R6
   \   000073   E9           MOV     A,R1
   \   000074   34FF         ADDC    A,#-0x1
   \   000076   FF           MOV     R7,A
   \   000077   E8           MOV     A,R0
   \   000078   49           ORL     A,R1
   \   000079   70B5         JNZ     ??UART_PrintBuffer_0
    353            
    354            while(i < uart_printstring_idx)
   \                     ??UART_PrintBuffer_1:
   \   00007B   90....       MOV     DPTR,#uart_printstring_idx
   \   00007E   E0           MOVX    A,@DPTR
   \   00007F   F8           MOV     R0,A
   \   000080   E5..         MOV     A,?V0 + 4
   \   000082   C3           CLR     C
   \   000083   98           SUBB    A,R0
   \   000084   5018         JNC     ??UART_PrintBuffer_2
    355            {
    356              if(uart_printstring_buf[i] > 0x39)
   \   000086   85....       MOV     ?V0 + 0,?V0 + 4
   \   000089   74..         MOV     A,#uart_printstring_buf & 0xff
   \   00008B   25..         ADD     A,?V0 + 0
   \   00008D   F582         MOV     DPL,A
   \   00008F   74..         MOV     A,#(uart_printstring_buf >> 8) & 0xff
   \   000091   12....       LCALL   ?Subroutine17 & 0xFFFF
   \                     ??CrossCallReturnLabel_26:
   \   000094   4004         JC      ??UART_PrintBuffer_3
    357              {
    358                uart_printstring_buf[i] = 0x41+uart_printstring_buf[i]-0x39-1;
   \   000096   E0           MOVX    A,@DPTR
   \   000097   2407         ADD     A,#0x7
   \   000099   F0           MOVX    @DPTR,A
    359              }
    360              i++;
   \                     ??UART_PrintBuffer_3:
   \   00009A   05..         INC     ?V0 + 4
   \   00009C   80DD         SJMP    ??UART_PrintBuffer_1
    361            }
    362            
    363            HalUARTWrite(0,uart_printstring_buf,uart_printstring_idx);
   \                     ??UART_PrintBuffer_2:
   \   00009E                ; Setup parameters for call to function HalUARTWrite
   \   00009E   E0           MOVX    A,@DPTR
   \   00009F   FC           MOV     R4,A
   \   0000A0   7D00         MOV     R5,#0x0
   \   0000A2   7A..         MOV     R2,#uart_printstring_buf & 0xff
   \   0000A4   7B..         MOV     R3,#(uart_printstring_buf >> 8) & 0xff
   \   0000A6   12....       LCALL   ?Subroutine19 & 0xFFFF
    364            HalUARTWrite(0,"\r\n",2);
    365          }
   \                     ??CrossCallReturnLabel_30:
   \   0000A9   02....       LJMP    ?Subroutine3 & 0xFFFF

   \                                 In  segment BANKED_CODE, align 1, keep-with-next
   \                     ?Subroutine10:
   \   000000   E0           MOVX    A,@DPTR
   \   000001   12....       LCALL   ?Subroutine22 & 0xFFFF
   \                     ??CrossCallReturnLabel_43:
   \   000004   22           RET

   \                                 In  segment BANKED_CODE, align 1, keep-with-next
   \                     ?Subroutine22:
   \   000000   F8           MOV     R0,A
   \   000001   74..         MOV     A,#uart_printstring_buf & 0xff
   \   000003   28           ADD     A,R0
   \   000004   F582         MOV     DPL,A
   \   000006   74..         MOV     A,#(uart_printstring_buf >> 8) & 0xff
   \   000008                REQUIRE ??Subroutine25_0
   \   000008                ; // Fall through to label ??Subroutine25_0

   \                                 In  segment BANKED_CODE, align 1, keep-with-next
   \                     ?Subroutine7:
   \   000000   F0           MOVX    @DPTR,A
   \   000001   90....       MOV     DPTR,#uart_printstring_idx
   \   000004   E0           MOVX    A,@DPTR
   \   000005   04           INC     A
   \   000006   22           RET
    366          

   \                                 In  segment BANKED_CODE, align 1, keep-with-next
    367          void UART_PrintString(uint8 *pdata)
   \                     UART_PrintString:
    368          {
   \   000000   74F7         MOV     A,#-0x9
   \   000002   12....       LCALL   ?BANKED_ENTER_XDATA
   \   000005                ; Saved register size: 9
   \   000005                ; Auto size: 0
   \   000005   EA           MOV     A,R2
   \   000006   FE           MOV     R6,A
   \   000007   EB           MOV     A,R3
   \   000008   FF           MOV     R7,A
    369            HalUARTWrite(0,pdata,strlen((char const *)pdata));
   \   000009                ; Setup parameters for call to function HalUARTWrite
   \   000009                ; Setup parameters for call to function strlen
   \   000009   12....       LCALL   ?Subroutine20 & 0xFFFF
   \                     ??CrossCallReturnLabel_33:
   \   00000C   12....       LCALL   ?Subroutine19 & 0xFFFF
    370            HalUARTWrite(0,"\r\n",2);
    371          }
   \                     ??CrossCallReturnLabel_31:
   \   00000F   02....       LJMP    ?Subroutine2 & 0xFFFF

   \                                 In  segment NEAR_CODE, align 1, keep-with-next
    372          __near_func int putchar(int c)
   \                     putchar:
    373          {
   \   000000                ; Saved register size: 0
   \   000000                ; Auto size: 0
    374              UTX0IF = 0;
   \   000000   C2E9         CLR     0xe8.1
    375              U0DBUF = (char)c;
   \   000002   EA           MOV     A,R2
   \   000003   F5C1         MOV     0xc1,A
    376              while(UTX0IF == 0);
   \                     ??putchar_0:
   \   000005   A2E9         MOV     C,0xe8.1
   \   000007   50FC         JNC     ??putchar_0
    377              return(c);
   \   000009   22           RET
   \   00000A                REQUIRE _A_IRCON2
   \   00000A                REQUIRE U0DBUF
    378          }

   \                                 In  segment BANK_RELAYS, align 1
   \                     ??HalUARTInitDMA?relay:
   \   000000   12....       LCALL   ?BDISPATCH
   \   000003   ......       DC24    HalUARTInitDMA

   \                                 In  segment BANK_RELAYS, align 1
   \                     ??HalUARTOpenDMA?relay:
   \   000000   12....       LCALL   ?BDISPATCH
   \   000003   ......       DC24    HalUARTOpenDMA

   \                                 In  segment BANK_RELAYS, align 1
   \                     ??HalUARTReadDMA?relay:
   \   000000   12....       LCALL   ?BDISPATCH
   \   000003   ......       DC24    HalUARTReadDMA

   \                                 In  segment BANK_RELAYS, align 1
   \                     ??HalUARTWriteDMA?relay:
   \   000000   12....       LCALL   ?BDISPATCH
   \   000003   ......       DC24    HalUARTWriteDMA

   \                                 In  segment BANK_RELAYS, align 1
   \                     ??HalUARTPollDMA?relay:
   \   000000   12....       LCALL   ?BDISPATCH
   \   000003   ......       DC24    HalUARTPollDMA

   \                                 In  segment BANK_RELAYS, align 1
   \                     ??HalUARTRxAvailDMA?relay:
   \   000000   12....       LCALL   ?BDISPATCH
   \   000003   ......       DC24    HalUARTRxAvailDMA

   \                                 In  segment BANK_RELAYS, align 1
   \                     ??HalUARTIsrDMA?relay:
   \   000000   12....       LCALL   ?BDISPATCH
   \   000003   ......       DC24    HalUARTIsrDMA

   \                                 In  segment BANK_RELAYS, align 1
   \                     ??HalUARTInit?relay:
   \   000000   12....       LCALL   ?BDISPATCH
   \   000003   ......       DC24    HalUARTInit

   \                                 In  segment BANK_RELAYS, align 1
   \                     ??HalUARTOpen?relay:
   \   000000   12....       LCALL   ?BDISPATCH
   \   000003   ......       DC24    HalUARTOpen

   \                                 In  segment BANK_RELAYS, align 1
   \                     ??HalUARTRead?relay:
   \   000000   12....       LCALL   ?BDISPATCH
   \   000003   ......       DC24    HalUARTRead

   \                                 In  segment BANK_RELAYS, align 1
   \                     ??HalUARTWrite?relay:
   \   000000   12....       LCALL   ?BDISPATCH
   \   000003   ......       DC24    HalUARTWrite

   \                                 In  segment BANK_RELAYS, align 1
   \                     ??HalUARTSuspend?relay:
   \   000000   12....       LCALL   ?BDISPATCH
   \   000003   ......       DC24    HalUARTSuspend

   \                                 In  segment BANK_RELAYS, align 1
   \                     ??HalUARTResume?relay:
   \   000000   12....       LCALL   ?BDISPATCH
   \   000003   ......       DC24    HalUARTResume

   \                                 In  segment BANK_RELAYS, align 1
   \                     ??HalUARTPoll?relay:
   \   000000   12....       LCALL   ?BDISPATCH
   \   000003   ......       DC24    HalUARTPoll

   \                                 In  segment BANK_RELAYS, align 1
   \                     ??Hal_UART_RxBufLen?relay:
   \   000000   12....       LCALL   ?BDISPATCH
   \   000003   ......       DC24    Hal_UART_RxBufLen

   \                                 In  segment BANK_RELAYS, align 1
   \                     ??UART_PrintData?relay:
   \   000000   12....       LCALL   ?BDISPATCH
   \   000003   ......       DC24    UART_PrintData

   \                                 In  segment BANK_RELAYS, align 1
   \                     ??UART_PrintBuffer?relay:
   \   000000   12....       LCALL   ?BDISPATCH
   \   000003   ......       DC24    UART_PrintBuffer

   \                                 In  segment BANK_RELAYS, align 1
   \                     ??UART_PrintString?relay:
   \   000000   12....       LCALL   ?BDISPATCH
   \   000003   ......       DC24    UART_PrintString

   \                                 In  segment XDATA_ROM_C, align 1
   \                     `?<Constant {0}>`:
   \   000000   00           DB 0
   \   000001   000000       DB 0, 0, 0

   \                                 In  segment XDATA_ROM_C, align 1
   \                     `?<Constant {0}>_1`:
   \   000000   00           DB 0
   \   000001   000000       DB 0, 0, 0

   \                                 In  segment XDATA_ROM_C, align 1
   \                     `?<Constant "\\r\\n">`:
   \   000000   0D0A00       DB "\015\012"
    379          /******************************************************************************
    380          ******************************************************************************/

   Maximum stack usage in bytes:

     Function               ISTACK PSTACK XSTACK
     --------               ------ ------ ------
     HalUARTInit                2      0      0
       -> HalUARTInitDMA        4      0      0
     HalUARTInitDMA             2      0      0
     HalUARTIsrDMA              2      0     10
     HalUARTOpen                0      0      9
       -> HalUARTOpenDMA        0      0     18
     HalUARTOpenDMA             2      0      9
       -> osal_memset           4      0      0
     HalUARTPoll                2      0      0
       -> HalUARTPollDMA        4      0      0
     HalUARTPollDMA             0      0     10
       -> HalUARTRxAvailDMA     0      0     20
       -> HalUARTIsrDMA         0      0     20
     HalUARTRead                0      0      9
       -> HalUARTReadDMA        0      0     18
     HalUARTReadDMA             1      0     19
     HalUARTResume              0      0      0
     HalUARTRxAvailDMA          2      0     10
     HalUARTSuspend             0      0      0
     HalUARTWrite               0      0     30
       -> HalUARTWriteDMA       0      0     18
     HalUARTWriteDMA            1      0     25
     Hal_UART_RxBufLen          0      0      9
       -> HalUARTRxAvailDMA     0      0     18
     UART_PrintBuffer           1      0     15
       -> strlen                0      0     26
       -> HalUARTWrite          0      0     26
       -> HalUARTWrite          0      0     26
       -> HalUARTWrite          0      0     26
     UART_PrintData             2      0     25
       -> strlen                0      0     42
       -> HalUARTWrite          0      0     42
       -> HalUARTWrite          0      0     42
       -> HalUARTWrite          0      0     42
     UART_PrintString           0      0      9
       -> strlen                0      0     18
       -> HalUARTWrite          0      0     18
       -> HalUARTWrite          0      0     18
     putchar                    0      0      0


   Segment part sizes:

     Function/Label            Bytes
     --------------            -----
     _A_P0                        1
     U0CSR                        1
     ST0                          1
     _A_IEN0                      1
     U0DBUF                       1
     U0BAUD                       1
     U0UCR                        1
     U0GCR                        1
     DMAIRQ                       1
     DMAARM                       1
     DMAREQ                       1
     _A_IRCON2                    1
     PERCFG                       1
     ADCCFG                       1
     P0SEL                        1
     P0DIR                        1
     P2DIR                        1
     dmaCfg                     526
     HalUARTInitDMA             109
     ?Subroutine0                 1
     ??Subroutine24_0             7
     HalUARTOpenDMA             184
     ??Subroutine25_0             5
     HalUARTReadDMA              83
     ?Subroutine1                 5
     ?Subroutine8                21
     HalUARTWriteDMA            207
     ?Subroutine18               10
     ?Subroutine15               15
     ?Subroutine12               24
     ?Subroutine11                9
     ?Subroutine6                12
     ?Subroutine9                 4
     ?Subroutine13                3
     ??Subroutine23_0            11
     ?Subroutine21               18
     HalUARTPollDMA             393
     ?Subroutine5                15
     ?Subroutine16               21
     ?Subroutine4                 5
     HalUARTRxAvailDMA           63
     ?Subroutine14               16
     HalUARTIsrDMA               43
     HalUARTInit                  9
     HalUARTOpen                 15
     ?Subroutine2                 5
     HalUARTRead                 19
     HalUARTWrite                17
     HalUARTSuspend               6
     HalUARTResume                9
     HalUARTPoll                  9
     Hal_UART_RxBufLen           19
     UART_PrintData             238
     ?Subroutine3                 5
     ?Subroutine19               19
     ?Subroutine17                8
     ?Subroutine20               12
     uart_printstring_buf        50
     uart_printstring_idx         1
     UART_PrintBuffer           172
     ?Subroutine10                5
     ?Subroutine22                8
     ?Subroutine7                 7
     UART_PrintString            18
     putchar                     10
     ??HalUARTInitDMA?relay       6
     ??HalUARTOpenDMA?relay       6
     ??HalUARTReadDMA?relay       6
     ??HalUARTWriteDMA?relay      6
     ??HalUARTPollDMA?relay       6
     ??HalUARTRxAvailDMA?relay    6
     ??HalUARTIsrDMA?relay        6
     ??HalUARTInit?relay          6
     ??HalUARTOpen?relay          6
     ??HalUARTRead?relay          6
     ??HalUARTWrite?relay         6
     ??HalUARTSuspend?relay       6
     ??HalUARTResume?relay        6
     ??HalUARTPoll?relay          6
     ??Hal_UART_RxBufLen?relay    6
     ??UART_PrintData?relay       6
     ??UART_PrintBuffer?relay     6
     ??UART_PrintString?relay     6
     ?<Constant {0}>              4
     ?<Constant {0}>_1            4
     ?<Constant "\r\n">           3

 
 1 884 bytes in segment BANKED_CODE
   108 bytes in segment BANK_RELAYS
    10 bytes in segment NEAR_CODE
    17 bytes in segment SFR_AN
    11 bytes in segment XDATA_ROM_C
   577 bytes in segment XDATA_Z
 
 2 002 bytes of CODE  memory
    11 bytes of CONST memory
     0 bytes of DATA  memory (+ 17 bytes shared)
   577 bytes of XDATA memory

Errors: none
Warnings: 1
