///////////////////////////////////////////////////////////////////////////////
//                                                                            /
// IAR C/C++ Compiler V8.10.3.10338/W32 for 8051        01/Mar/2019  15:06:15 /
// Copyright 2004-2011 IAR Systems AB.                                        /
//                                                                            /
//    Core               =  plain                                             /
//    Code model         =  banked                                            /
//    Data model         =  large                                             /
//    Calling convention =  xdata reentrant                                   /
//    Constant location  =  data_rom                                          /
//    Dptr setup         =  1,16                                              /
//    Source file        =  D:\ZigBee\KJXY-ZigBee\KJXY-ZigBeeV2.0\exp9-group\ /
//                          Components\HARDWARE\MPU6050\eMPL\inv_mpu.c        /
//    Command line       =  -f D:\ZigBee\KJXY-ZigBee\KJXY-ZigBeeV2.0\exp9-gro /
//                          up\Projects\zstack\Samples\SampleApp\CC2530DB\..\ /
//                          ..\..\Tools\CC2530DB\f8wEndev.cfg (-DCPU32MHZ     /
//                          -DROOT=__near_func -DBLINK_LEDS) -f               /
//                          D:\ZigBee\KJXY-ZigBee\KJXY-ZigBeeV2.0\exp9-group\ /
//                          Projects\zstack\Samples\SampleApp\CC2530DB\..\..\ /
//                          ..\Tools\CC2530DB\f8wConfig.cfg (-DSECURE=0       /
//                          -DZG_SECURE_DYNAMIC=0 -DREFLECTOR                 /
//                          -DDEFAULT_CHANLIST=0x00000800                     /
//                          -DZDAPP_CONFIG_PAN_ID=0xFF11                      /
//                          -DNWK_START_DELAY=100 -DEXTENDED_JOINING_RANDOM_M /
//                          ASK=0x007F -DBEACON_REQUEST_DELAY=100             /
//                          -DBEACON_REQ_DELAY_MASK=0x00FF                    /
//                          -DROUTE_EXPIRY_TIME=30 -DAPSC_ACK_WAIT_DURATION_P /
//                          OLLED=3000 -DNWK_INDIRECT_MSG_TIMEOUT=7           /
//                          -DMAX_RREQ_ENTRIES=8 -DAPSC_MAX_FRAME_RETRIES=3   /
//                          -DNWK_MAX_DATA_RETRIES=2                          /
//                          -DMAX_POLL_FAILURE_RETRIES=2 -DMAX_BCAST=9        /
//                          -DAPS_MAX_GROUPS=16 -DMAX_RTG_ENTRIES=40          /
//                          -DNWK_MAX_BINDING_ENTRIES=4                       /
//                          -DMAX_BINDING_CLUSTER_IDS=4                       /
//                          "-DDEFAULT_KEY={0x01, 0x03, 0x05, 0x07, 0x09,     /
//                          0x0B, 0x0D, 0x0F, 0x00, 0x02, 0x04, 0x06, 0x08,   /
//                          0x0A, 0x0C, 0x0D}" -DMAC_MAX_FRAME_SIZE=116       /
//                          "-DCONST=const __code" -DGENERIC=__generic        /
//                          -DRFD_RCVC_ALWAYS_ON=TRUE -DPOLL_RATE=1000        /
//                          -DQUEUED_POLL_RATE=100 -DRESPONSE_POLL_RATE=100)  /
//                          -DREJOIN_POLL_RATE=440 D:\ZigBee\KJXY-ZigBee\KJXY /
//                          -ZigBeeV2.0\exp9-group\Components\HARDWARE\MPU605 /
//                          0\eMPL\inv_mpu.c -D NWK_AUTO_POLL -D ZTOOL_P1 -D  /
//                          MT_SYS_FUNC -D MT_ZDO_FUNC -D                     /
//                          LCD_SUPPORTED=DEBUG -lC                           /
//                          D:\ZigBee\KJXY-ZigBee\KJXY-ZigBeeV2.0\exp9-group\ /
//                          Projects\zstack\Samples\SampleApp\CC2530DB\EndDev /
//                          iceEB-Fan\List\ -lA D:\ZigBee\KJXY-ZigBee\KJXY-Zi /
//                          gBeeV2.0\exp9-group\Projects\zstack\Samples\Sampl /
//                          eApp\CC2530DB\EndDeviceEB-Fan\List\               /
//                          --diag_suppress Pe001,Pa010 -o                    /
//                          D:\ZigBee\KJXY-ZigBee\KJXY-ZigBeeV2.0\exp9-group\ /
//                          Projects\zstack\Samples\SampleApp\CC2530DB\EndDev /
//                          iceEB-Fan\Obj\ -e --no_unroll --no_inline         /
//                          --no_tbaa --debug --core=plain --dptr=16,1        /
//                          --data_model=large --code_model=banked            /
//                          --calling_convention=xdata_reentrant              /
//                          --place_constants=data_rom --nr_virtual_regs 16   /
//                          -I D:\ZigBee\KJXY-ZigBee\KJXY-ZigBeeV2.0\exp9-gro /
//                          up\Projects\zstack\Samples\SampleApp\CC2530DB\    /
//                          -I D:\ZigBee\KJXY-ZigBee\KJXY-ZigBeeV2.0\exp9-gro /
//                          up\Projects\zstack\Samples\SampleApp\CC2530DB\..\ /
//                          SOURCE\ -I D:\ZigBee\KJXY-ZigBee\KJXY-ZigBeeV2.0\ /
//                          exp9-group\Projects\zstack\Samples\SampleApp\CC25 /
//                          30DB\..\..\..\ZMAIN\TI2530DB\ -I                  /
//                          D:\ZigBee\KJXY-ZigBee\KJXY-ZigBeeV2.0\exp9-group\ /
//                          Projects\zstack\Samples\SampleApp\CC2530DB\..\..\ /
//                          ..\..\..\COMPONENTS\MT\ -I                        /
//                          D:\ZigBee\KJXY-ZigBee\KJXY-ZigBeeV2.0\exp9-group\ /
//                          Projects\zstack\Samples\SampleApp\CC2530DB\..\..\ /
//                          ..\..\..\COMPONENTS\HAL\INCLUDE\ -I               /
//                          D:\ZigBee\KJXY-ZigBee\KJXY-ZigBeeV2.0\exp9-group\ /
//                          Projects\zstack\Samples\SampleApp\CC2530DB\..\..\ /
//                          ..\..\..\COMPONENTS\HAL\TARGET\CC2530EB\ -I       /
//                          D:\ZigBee\KJXY-ZigBee\KJXY-ZigBeeV2.0\exp9-group\ /
//                          Projects\zstack\Samples\SampleApp\CC2530DB\..\..\ /
//                          ..\..\..\COMPONENTS\OSAL\MCU\CCSOC\ -I            /
//                          D:\ZigBee\KJXY-ZigBee\KJXY-ZigBeeV2.0\exp9-group\ /
//                          Projects\zstack\Samples\SampleApp\CC2530DB\..\..\ /
//                          ..\..\..\COMPONENTS\OSAL\INCLUDE\ -I              /
//                          D:\ZigBee\KJXY-ZigBee\KJXY-ZigBeeV2.0\exp9-group\ /
//                          Projects\zstack\Samples\SampleApp\CC2530DB\..\..\ /
//                          ..\..\..\COMPONENTS\STACK\AF\ -I                  /
//                          D:\ZigBee\KJXY-ZigBee\KJXY-ZigBeeV2.0\exp9-group\ /
//                          Projects\zstack\Samples\SampleApp\CC2530DB\..\..\ /
//                          ..\..\..\COMPONENTS\STACK\NWK\ -I                 /
//                          D:\ZigBee\KJXY-ZigBee\KJXY-ZigBeeV2.0\exp9-group\ /
//                          Projects\zstack\Samples\SampleApp\CC2530DB\..\..\ /
//                          ..\..\..\COMPONENTS\STACK\SEC\ -I                 /
//                          D:\ZigBee\KJXY-ZigBee\KJXY-ZigBeeV2.0\exp9-group\ /
//                          Projects\zstack\Samples\SampleApp\CC2530DB\..\..\ /
//                          ..\..\..\COMPONENTS\STACK\SAPI\ -I                /
//                          D:\ZigBee\KJXY-ZigBee\KJXY-ZigBeeV2.0\exp9-group\ /
//                          Projects\zstack\Samples\SampleApp\CC2530DB\..\..\ /
//                          ..\..\..\COMPONENTS\STACK\SYS\ -I                 /
//                          D:\ZigBee\KJXY-ZigBee\KJXY-ZigBeeV2.0\exp9-group\ /
//                          Projects\zstack\Samples\SampleApp\CC2530DB\..\..\ /
//                          ..\..\..\COMPONENTS\STACK\ZDO\ -I                 /
//                          D:\ZigBee\KJXY-ZigBee\KJXY-ZigBeeV2.0\exp9-group\ /
//                          Projects\zstack\Samples\SampleApp\CC2530DB\..\..\ /
//                          ..\..\..\COMPONENTS\ZMAC\F8W\ -I                  /
//                          D:\ZigBee\KJXY-ZigBee\KJXY-ZigBeeV2.0\exp9-group\ /
//                          Projects\zstack\Samples\SampleApp\CC2530DB\..\..\ /
//                          ..\..\..\COMPONENTS\ZMAC\ -I                      /
//                          D:\ZigBee\KJXY-ZigBee\KJXY-ZigBeeV2.0\exp9-group\ /
//                          Projects\zstack\Samples\SampleApp\CC2530DB\..\..\ /
//                          ..\..\..\COMPONENTS\SERVICES\SADDR\ -I            /
//                          D:\ZigBee\KJXY-ZigBee\KJXY-ZigBeeV2.0\exp9-group\ /
//                          Projects\zstack\Samples\SampleApp\CC2530DB\..\..\ /
//                          ..\..\..\COMPONENTS\SERVICES\SDATA\ -I            /
//                          D:\ZigBee\KJXY-ZigBee\KJXY-ZigBeeV2.0\exp9-group\ /
//                          Projects\zstack\Samples\SampleApp\CC2530DB\..\..\ /
//                          ..\..\..\COMPONENTS\MAC\INCLUDE\ -I               /
//                          D:\ZigBee\KJXY-ZigBee\KJXY-ZigBeeV2.0\exp9-group\ /
//                          Projects\zstack\Samples\SampleApp\CC2530DB\..\..\ /
//                          ..\..\..\COMPONENTS\MAC\HIGH_LEVEL\ -I            /
//                          D:\ZigBee\KJXY-ZigBee\KJXY-ZigBeeV2.0\exp9-group\ /
//                          Projects\zstack\Samples\SampleApp\CC2530DB\..\..\ /
//                          ..\..\..\COMPONENTS\MAC\LOW_LEVEL\srf04\ -I       /
//                          D:\ZigBee\KJXY-ZigBee\KJXY-ZigBeeV2.0\exp9-group\ /
//                          Projects\zstack\Samples\SampleApp\CC2530DB\..\..\ /
//                          ..\..\..\COMPONENTS\MAC\LOW_LEVEL\srf04\SINGLE_CH /
//                          IP\ -I D:\ZigBee\KJXY-ZigBee\KJXY-ZigBeeV2.0\exp9 /
//                          -group\Projects\zstack\Samples\SampleApp\CC2530DB /
//                          \..\..\..\..\..\COMPONENTS\HARDWARE\ -I           /
//                          D:\ZigBee\KJXY-ZigBee\KJXY-ZigBeeV2.0\exp9-group\ /
//                          Projects\zstack\Samples\SampleApp\CC2530DB\..\..\ /
//                          ..\..\..\COMPONENTS\HARDWARE\MPU6050\ -I          /
//                          D:\ZigBee\KJXY-ZigBee\KJXY-ZigBeeV2.0\exp9-group\ /
//                          Projects\zstack\Samples\SampleApp\CC2530DB\..\..\ /
//                          ..\..\..\COMPONENTS\HARDWARE\MPU6050\eMPL\ -Om    /
//    List file          =  D:\ZigBee\KJXY-ZigBee\KJXY-ZigBeeV2.0\exp9-group\ /
//                          Projects\zstack\Samples\SampleApp\CC2530DB\EndDev /
//                          iceEB-Fan\List\inv_mpu.s51                        /
//                                                                            /
//                                                                            /
///////////////////////////////////////////////////////////////////////////////

        NAME inv_mpu

        RTMODEL "__SystemLibrary", "CLib"
        RTMODEL "__calling_convention", "xdata_reentrant"
        RTMODEL "__code_model", "banked"
        RTMODEL "__core", "plain"
        RTMODEL "__data_model", "large"
        RTMODEL "__dptr_size", "16"
        RTMODEL "__extended_stack", "disabled"
        RTMODEL "__location_for_constants", "data"
        RTMODEL "__number_of_dptrs", "1"
        RTMODEL "__rt_version", "1"

        RSEG DOVERLAY:DATA:NOROOT(0)
        RSEG IOVERLAY:IDATA:NOROOT(0)
        RSEG ISTACK:IDATA:NOROOT(0)
        RSEG PSTACK:XDATA:NOROOT(0)
        RSEG XSTACK:XDATA:NOROOT(0)

        EXTERN ?ALLOC_XSTACK8
        EXTERN ?BANKED_ENTER_XDATA
        EXTERN ?BANKED_LEAVE_XDATA
        EXTERN ?BDISPATCH
        EXTERN ?BRET
        EXTERN ?DEALLOC_XSTACK8
        EXTERN ?FLT_ADD
        EXTERN ?FLT_DIV
        EXTERN ?FLT_EQ
        EXTERN ?FLT_GE
        EXTERN ?FLT_LT
        EXTERN ?FLT_MUL
        EXTERN ?FLT_SUB
        EXTERN ?FLT_TO_L
        EXTERN ?L_ADD_TO_X
        EXTERN ?L_DIV_MOD
        EXTERN ?L_MOV_TO_X
        EXTERN ?L_MOV_X
        EXTERN ?L_SHL
        EXTERN ?L_SUB_X
        EXTERN ?L_TO_FLT
        EXTERN ?PUSH_XSTACK_I_FOUR
        EXTERN ?PUSH_XSTACK_I_TWO
        EXTERN ?SL_GT_X
        EXTERN ?SS_SHR
        EXTERN ?S_DIV_MOD
        EXTERN ?S_SHL
        EXTERN ?UL_DIV_MOD
        EXTERN ?UL_SHR
        EXTERN ?UL_TO_FLT
        EXTERN ?US_DIV_MOD
        EXTERN ?US_SHR
        EXTERN ?US_SWITCH_SPARSE
        EXTERN ?V0
        EXTERN ?XLOAD_R2345
        EXTERN ?XSP
        EXTERN ?XSTACK_DISP0_8
        EXTERN ?XSTORE_R2345
        EXTERN __INIT_XDATA_I

        FUNCTION ??accel_self_test?relay,0203H
        FUNCTION ??get_accel_prod_shift?relay,0203H
        FUNCTION ??get_st_biases?relay,0203H
        FUNCTION ??gyro_self_test?relay,0203H
        PUBLIC ??inv_orientation_matrix_to_scalar?relay
        FUNCTION ??inv_orientation_matrix_to_scalar?relay,0203H
        PUBLIC ??inv_row_2_scale?relay
        FUNCTION ??inv_row_2_scale?relay,0203H
        PUBLIC ??mget_ms?relay
        FUNCTION ??mget_ms?relay,0203H
        PUBLIC ??mpu_configure_fifo?relay
        FUNCTION ??mpu_configure_fifo?relay,0203H
        PUBLIC ??mpu_dmp_get_data?relay
        FUNCTION ??mpu_dmp_get_data?relay,0203H
        PUBLIC ??mpu_dmp_init?relay
        FUNCTION ??mpu_dmp_init?relay,0203H
        PUBLIC ??mpu_get_accel_fsr?relay
        FUNCTION ??mpu_get_accel_fsr?relay,0203H
        PUBLIC ??mpu_get_accel_reg?relay
        FUNCTION ??mpu_get_accel_reg?relay,0203H
        PUBLIC ??mpu_get_accel_sens?relay
        FUNCTION ??mpu_get_accel_sens?relay,0203H
        PUBLIC ??mpu_get_compass_fsr?relay
        FUNCTION ??mpu_get_compass_fsr?relay,0203H
        PUBLIC ??mpu_get_compass_reg?relay
        FUNCTION ??mpu_get_compass_reg?relay,0203H
        PUBLIC ??mpu_get_compass_sample_rate?relay
        FUNCTION ??mpu_get_compass_sample_rate?relay,0203H
        PUBLIC ??mpu_get_dmp_state?relay
        FUNCTION ??mpu_get_dmp_state?relay,0203H
        PUBLIC ??mpu_get_fifo_config?relay
        FUNCTION ??mpu_get_fifo_config?relay,0203H
        PUBLIC ??mpu_get_gyro_fsr?relay
        FUNCTION ??mpu_get_gyro_fsr?relay,0203H
        PUBLIC ??mpu_get_gyro_reg?relay
        FUNCTION ??mpu_get_gyro_reg?relay,0203H
        PUBLIC ??mpu_get_gyro_sens?relay
        FUNCTION ??mpu_get_gyro_sens?relay,0203H
        PUBLIC ??mpu_get_int_status?relay
        FUNCTION ??mpu_get_int_status?relay,0203H
        PUBLIC ??mpu_get_lpf?relay
        FUNCTION ??mpu_get_lpf?relay,0203H
        PUBLIC ??mpu_get_power_state?relay
        FUNCTION ??mpu_get_power_state?relay,0203H
        PUBLIC ??mpu_get_sample_rate?relay
        FUNCTION ??mpu_get_sample_rate?relay,0203H
        PUBLIC ??mpu_get_temperature?relay
        FUNCTION ??mpu_get_temperature?relay,0203H
        PUBLIC ??mpu_init?relay
        FUNCTION ??mpu_init?relay,0203H
        PUBLIC ??mpu_load_firmware?relay
        FUNCTION ??mpu_load_firmware?relay,0203H
        PUBLIC ??mpu_lp_accel_mode?relay
        FUNCTION ??mpu_lp_accel_mode?relay,0203H
        PUBLIC ??mpu_lp_motion_interrupt?relay
        FUNCTION ??mpu_lp_motion_interrupt?relay,0203H
        PUBLIC ??mpu_read_fifo?relay
        FUNCTION ??mpu_read_fifo?relay,0203H
        PUBLIC ??mpu_read_fifo_stream?relay
        FUNCTION ??mpu_read_fifo_stream?relay,0203H
        PUBLIC ??mpu_read_mem?relay
        FUNCTION ??mpu_read_mem?relay,0203H
        PUBLIC ??mpu_read_reg?relay
        FUNCTION ??mpu_read_reg?relay,0203H
        PUBLIC ??mpu_reg_dump?relay
        FUNCTION ??mpu_reg_dump?relay,0203H
        PUBLIC ??mpu_reset_fifo?relay
        FUNCTION ??mpu_reset_fifo?relay,0203H
        PUBLIC ??mpu_run_self_test?relay
        FUNCTION ??mpu_run_self_test?relay,0203H
        PUBLIC ??mpu_set_accel_bias?relay
        FUNCTION ??mpu_set_accel_bias?relay,0203H
        PUBLIC ??mpu_set_accel_fsr?relay
        FUNCTION ??mpu_set_accel_fsr?relay,0203H
        PUBLIC ??mpu_set_bypass?relay
        FUNCTION ??mpu_set_bypass?relay,0203H
        PUBLIC ??mpu_set_compass_sample_rate?relay
        FUNCTION ??mpu_set_compass_sample_rate?relay,0203H
        PUBLIC ??mpu_set_dmp_state?relay
        FUNCTION ??mpu_set_dmp_state?relay,0203H
        PUBLIC ??mpu_set_gyro_fsr?relay
        FUNCTION ??mpu_set_gyro_fsr?relay,0203H
        PUBLIC ??mpu_set_int_latched?relay
        FUNCTION ??mpu_set_int_latched?relay,0203H
        PUBLIC ??mpu_set_int_level?relay
        FUNCTION ??mpu_set_int_level?relay,0203H
        PUBLIC ??mpu_set_lpf?relay
        FUNCTION ??mpu_set_lpf?relay,0203H
        PUBLIC ??mpu_set_sample_rate?relay
        FUNCTION ??mpu_set_sample_rate?relay,0203H
        PUBLIC ??mpu_set_sensors?relay
        FUNCTION ??mpu_set_sensors?relay,0203H
        PUBLIC ??mpu_write_mem?relay
        FUNCTION ??mpu_write_mem?relay,0203H
        PUBLIC ??run_self_test?relay
        FUNCTION ??run_self_test?relay,0203H
        FUNCTION ??set_int_enable?relay,0203H
        PUBLIC ??setup_compass?relay
        FUNCTION ??setup_compass?relay,0203H
        PUBWEAK __Constant_0
        PUBWEAK __Constant_1
        PUBWEAK __Constant_10000
        PUBWEAK __Constant_3
        PUBWEAK __Constant_30800000
        PUBWEAK __Constant_32
        PUBWEAK __Constant_37800000
        PUBWEAK __Constant_3e0f5c2a
        PUBWEAK __Constant_3e99999a
        PUBWEAK __Constant_3eae147b
        PUBWEAK __Constant_3f733334
        PUBWEAK __Constant_3f800000
        PUBWEAK __Constant_3f845a1d
        PUBWEAK __Constant_3f85e354
        PUBWEAK __Constant_40000000
        PUBWEAK __Constant_41200000
        PUBWEAK __Constant_41833333
        PUBWEAK __Constant_41c80000
        PUBWEAK __Constant_42033333
        PUBWEAK __Constant_420c0000
        PUBWEAK __Constant_42653333
        PUBWEAK __Constant_42830000
        PUBWEAK __Constant_42d20001
        PUBWEAK __Constant_43030000
        PUBWEAK __Constant_47800000
        PUBWEAK __Constant_5
        PUBWEAK __Constant_64
        PUBWEAK __Constant_83
        PUBWEAK __Constant_bf800000
        PUBWEAK __Constant_c0000000
        PUBWEAK __Constant_c8
        PUBWEAK __Constant_f
        PUBWEAK __Constant_ffff0000
        FUNCTION accel_self_test,021203H
        ARGFRAME XSTACK, 48, STACK
        ARGFRAME IOVERLAY, 0, STATIC
        ARGFRAME DOVERLAY, 0, STATIC
        LOCFRAME XSTACK, 38, STACK
        FUNCTION get_accel_prod_shift,021203H
        ARGFRAME XSTACK, 38, STACK
        ARGFRAME IOVERLAY, 0, STATIC
        ARGFRAME DOVERLAY, 0, STATIC
        LOCFRAME ISTACK, 1, STACK
        LOCFRAME XSTACK, 29, STACK
        FUNCTION get_st_biases,021203H
        ARGFRAME XSTACK, 48, STACK
        ARGFRAME IOVERLAY, 0, STATIC
        ARGFRAME DOVERLAY, 0, STATIC
        LOCFRAME ISTACK, 2, STACK
        LOCFRAME XSTACK, 55, STACK
        FUNCTION gyro_self_test,021203H
        ARGFRAME XSTACK, 48, STACK
        ARGFRAME IOVERLAY, 0, STATIC
        ARGFRAME DOVERLAY, 0, STATIC
        LOCFRAME XSTACK, 29, STACK
        PUBLIC hw
        PUBLIC inv_orientation_matrix_to_scalar
        FUNCTION inv_orientation_matrix_to_scalar,021203H
        ARGFRAME XSTACK, 10, STACK
        ARGFRAME IOVERLAY, 0, STATIC
        ARGFRAME DOVERLAY, 0, STATIC
        LOCFRAME XSTACK, 12, STACK
        PUBLIC inv_row_2_scale
        FUNCTION inv_row_2_scale,0203H
        ARGFRAME XSTACK, 12, STACK
        ARGFRAME IOVERLAY, 0, STATIC
        ARGFRAME DOVERLAY, 0, STATIC
        LOCFRAME ISTACK, 2, STACK
        PUBLIC mget_ms
        FUNCTION mget_ms,0203H
        ARGFRAME XSTACK, 36, STACK
        ARGFRAME IOVERLAY, 0, STATIC
        ARGFRAME DOVERLAY, 0, STATIC
        PUBLIC mpu_configure_fifo
        FUNCTION mpu_configure_fifo,021203H
        ARGFRAME XSTACK, 48, STACK
        ARGFRAME IOVERLAY, 0, STATIC
        ARGFRAME DOVERLAY, 0, STATIC
        LOCFRAME XSTACK, 12, STACK
        PUBLIC mpu_dmp_get_data
        FUNCTION mpu_dmp_get_data,021203H
        ARGFRAME XSTACK, 2, STACK
        LOCFRAME ISTACK, 4, STACK
        LOCFRAME XSTACK, 87, STACK
        PUBLIC mpu_dmp_init
        FUNCTION mpu_dmp_init,021203H
        ARGFRAME XSTACK, 0, STACK
        LOCFRAME XSTACK, 10, STACK
        PUBLIC mpu_get_accel_fsr
        FUNCTION mpu_get_accel_fsr,0203H
        ARGFRAME XSTACK, 48, STACK
        ARGFRAME IOVERLAY, 0, STATIC
        ARGFRAME DOVERLAY, 0, STATIC
        LOCFRAME ISTACK, 3, STACK
        PUBLIC mpu_get_accel_reg
        FUNCTION mpu_get_accel_reg,021203H
        ARGFRAME XSTACK, 0, STACK
        LOCFRAME XSTACK, 16, STACK
        PUBLIC mpu_get_accel_sens
        FUNCTION mpu_get_accel_sens,0203H
        ARGFRAME XSTACK, 46, STACK
        ARGFRAME IOVERLAY, 0, STATIC
        ARGFRAME DOVERLAY, 0, STATIC
        LOCFRAME ISTACK, 2, STACK
        PUBLIC mpu_get_compass_fsr
        FUNCTION mpu_get_compass_fsr,0203H
        ARGFRAME XSTACK, 0, STACK
        PUBLIC mpu_get_compass_reg
        FUNCTION mpu_get_compass_reg,0203H
        ARGFRAME XSTACK, 0, STACK
        PUBLIC mpu_get_compass_sample_rate
        FUNCTION mpu_get_compass_sample_rate,0203H
        ARGFRAME XSTACK, 0, STACK
        LOCFRAME ISTACK, 2, STACK
        PUBLIC mpu_get_dmp_state
        FUNCTION mpu_get_dmp_state,0203H
        ARGFRAME XSTACK, 0, STACK
        LOCFRAME ISTACK, 3, STACK
        PUBLIC mpu_get_fifo_config
        FUNCTION mpu_get_fifo_config,0203H
        ARGFRAME XSTACK, 48, STACK
        ARGFRAME IOVERLAY, 0, STATIC
        ARGFRAME DOVERLAY, 0, STATIC
        LOCFRAME ISTACK, 3, STACK
        PUBLIC mpu_get_gyro_fsr
        FUNCTION mpu_get_gyro_fsr,0203H
        ARGFRAME XSTACK, 48, STACK
        ARGFRAME IOVERLAY, 0, STATIC
        ARGFRAME DOVERLAY, 0, STATIC
        LOCFRAME ISTACK, 2, STACK
        PUBLIC mpu_get_gyro_reg
        FUNCTION mpu_get_gyro_reg,021203H
        ARGFRAME XSTACK, 0, STACK
        LOCFRAME XSTACK, 16, STACK
        PUBLIC mpu_get_gyro_sens
        FUNCTION mpu_get_gyro_sens,0203H
        ARGFRAME XSTACK, 46, STACK
        ARGFRAME IOVERLAY, 0, STATIC
        ARGFRAME DOVERLAY, 0, STATIC
        LOCFRAME XSTACK, 9, STACK
        PUBLIC mpu_get_int_status
        FUNCTION mpu_get_int_status,021203H
        ARGFRAME XSTACK, 0, STACK
        LOCFRAME XSTACK, 11, STACK
        PUBLIC mpu_get_lpf
        FUNCTION mpu_get_lpf,0203H
        ARGFRAME XSTACK, 48, STACK
        ARGFRAME IOVERLAY, 0, STATIC
        ARGFRAME DOVERLAY, 0, STATIC
        LOCFRAME ISTACK, 2, STACK
        PUBLIC mpu_get_power_state
        FUNCTION mpu_get_power_state,0203H
        ARGFRAME XSTACK, 0, STACK
        LOCFRAME ISTACK, 2, STACK
        PUBLIC mpu_get_sample_rate
        FUNCTION mpu_get_sample_rate,0203H
        ARGFRAME XSTACK, 48, STACK
        ARGFRAME IOVERLAY, 0, STATIC
        ARGFRAME DOVERLAY, 0, STATIC
        LOCFRAME ISTACK, 2, STACK
        PUBLIC mpu_get_temperature
        FUNCTION mpu_get_temperature,021203H
        ARGFRAME XSTACK, 0, STACK
        LOCFRAME XSTACK, 22, STACK
        PUBLIC mpu_init
        FUNCTION mpu_init,021203H
        ARGFRAME XSTACK, 10, STACK
        ARGFRAME IOVERLAY, 0, STATIC
        ARGFRAME DOVERLAY, 0, STATIC
        LOCFRAME XSTACK, 18, STACK
        PUBLIC mpu_load_firmware
        FUNCTION mpu_load_firmware,021203H
        ARGFRAME XSTACK, 4, STACK
        LOCFRAME ISTACK, 1, STACK
        LOCFRAME XSTACK, 42, STACK
        PUBLIC mpu_lp_accel_mode
        FUNCTION mpu_lp_accel_mode,021203H
        ARGFRAME XSTACK, 13, STACK
        ARGFRAME IOVERLAY, 0, STATIC
        ARGFRAME DOVERLAY, 0, STATIC
        LOCFRAME ISTACK, 1, STACK
        LOCFRAME XSTACK, 11, STACK
        PUBLIC mpu_lp_motion_interrupt
        FUNCTION mpu_lp_motion_interrupt,021203H
        ARGFRAME XSTACK, 0, STACK
        LOCFRAME ISTACK, 1, STACK
        LOCFRAME XSTACK, 13, STACK
        PUBLIC mpu_read_fifo
        FUNCTION mpu_read_fifo,021203H
        ARGFRAME XSTACK, 6, STACK
        LOCFRAME ISTACK, 1, STACK
        LOCFRAME XSTACK, 36, STACK
        PUBLIC mpu_read_fifo_stream
        FUNCTION mpu_read_fifo_stream,021203H
        ARGFRAME XSTACK, 2, STACK
        LOCFRAME ISTACK, 1, STACK
        LOCFRAME XSTACK, 18, STACK
        PUBLIC mpu_read_mem
        FUNCTION mpu_read_mem,021203H
        ARGFRAME XSTACK, 42, STACK
        ARGFRAME IOVERLAY, 0, STATIC
        ARGFRAME DOVERLAY, 0, STATIC
        LOCFRAME ISTACK, 2, STACK
        LOCFRAME XSTACK, 14, STACK
        PUBLIC mpu_read_reg
        FUNCTION mpu_read_reg,021203H
        ARGFRAME XSTACK, 0, STACK
        LOCFRAME XSTACK, 9, STACK
        PUBLIC mpu_reg_dump
        FUNCTION mpu_reg_dump,021203H
        ARGFRAME XSTACK, 0, STACK
        LOCFRAME XSTACK, 15, STACK
        PUBLIC mpu_reset_fifo
        FUNCTION mpu_reset_fifo,021203H
        ARGFRAME XSTACK, 36, STACK
        ARGFRAME IOVERLAY, 0, STATIC
        ARGFRAME DOVERLAY, 0, STATIC
        LOCFRAME ISTACK, 2, STACK
        LOCFRAME XSTACK, 1, STACK
        PUBLIC mpu_run_self_test
        FUNCTION mpu_run_self_test,021203H
        ARGFRAME XSTACK, 46, STACK
        ARGFRAME IOVERLAY, 0, STATIC
        ARGFRAME DOVERLAY, 0, STATIC
        LOCFRAME XSTACK, 48, STACK
        PUBLIC mpu_set_accel_bias
        FUNCTION mpu_set_accel_bias,021203H
        ARGFRAME XSTACK, 0, STACK
        LOCFRAME ISTACK, 1, STACK
        LOCFRAME XSTACK, 40, STACK
        PUBLIC mpu_set_accel_fsr
        FUNCTION mpu_set_accel_fsr,021203H
        ARGFRAME XSTACK, 48, STACK
        ARGFRAME IOVERLAY, 0, STATIC
        ARGFRAME DOVERLAY, 0, STATIC
        LOCFRAME XSTACK, 10, STACK
        PUBLIC mpu_set_bypass
        FUNCTION mpu_set_bypass,021203H
        ARGFRAME XSTACK, 16, STACK
        ARGFRAME IOVERLAY, 0, STATIC
        ARGFRAME DOVERLAY, 0, STATIC
        LOCFRAME XSTACK, 10, STACK
        PUBLIC mpu_set_compass_sample_rate
        FUNCTION mpu_set_compass_sample_rate,0203H
        ARGFRAME XSTACK, 0, STACK
        PUBLIC mpu_set_dmp_state
        FUNCTION mpu_set_dmp_state,021203H
        ARGFRAME XSTACK, 48, STACK
        ARGFRAME IOVERLAY, 0, STATIC
        ARGFRAME DOVERLAY, 0, STATIC
        LOCFRAME ISTACK, 1, STACK
        LOCFRAME XSTACK, 10, STACK
        PUBLIC mpu_set_gyro_fsr
        FUNCTION mpu_set_gyro_fsr,0a1203H
        ARGFRAME XSTACK, 48, STACK
        ARGFRAME IOVERLAY, 0, STATIC
        ARGFRAME DOVERLAY, 0, STATIC
        LOCFRAME XSTACK, 11, STACK
        PUBLIC mpu_set_int_latched
        FUNCTION mpu_set_int_latched,021203H
        ARGFRAME XSTACK, 11, STACK
        ARGFRAME IOVERLAY, 0, STATIC
        ARGFRAME DOVERLAY, 0, STATIC
        LOCFRAME XSTACK, 10, STACK
        PUBLIC mpu_set_int_level
        FUNCTION mpu_set_int_level,0203H
        ARGFRAME XSTACK, 0, STACK
        LOCFRAME ISTACK, 2, STACK
        PUBLIC mpu_set_lpf
        FUNCTION mpu_set_lpf,021203H
        ARGFRAME XSTACK, 48, STACK
        ARGFRAME IOVERLAY, 0, STATIC
        ARGFRAME DOVERLAY, 0, STATIC
        LOCFRAME ISTACK, 2, STACK
        LOCFRAME XSTACK, 1, STACK
        PUBLIC mpu_set_sample_rate
        FUNCTION mpu_set_sample_rate,021203H
        ARGFRAME XSTACK, 48, STACK
        ARGFRAME IOVERLAY, 0, STATIC
        ARGFRAME DOVERLAY, 0, STATIC
        LOCFRAME ISTACK, 1, STACK
        LOCFRAME XSTACK, 10, STACK
        PUBLIC mpu_set_sensors
        FUNCTION mpu_set_sensors,021203H
        ARGFRAME XSTACK, 48, STACK
        ARGFRAME IOVERLAY, 0, STATIC
        ARGFRAME DOVERLAY, 0, STATIC
        LOCFRAME XSTACK, 10, STACK
        PUBLIC mpu_write_mem
        FUNCTION mpu_write_mem,021203H
        ARGFRAME XSTACK, 42, STACK
        ARGFRAME IOVERLAY, 0, STATIC
        ARGFRAME DOVERLAY, 0, STATIC
        LOCFRAME ISTACK, 2, STACK
        LOCFRAME XSTACK, 14, STACK
        PUBLIC reg
        PUBLIC run_self_test
        FUNCTION run_self_test,021203H
        ARGFRAME XSTACK, 0, STACK
        LOCFRAME XSTACK, 46, STACK
        FUNCTION set_int_enable,021203H
        ARGFRAME XSTACK, 13, STACK
        ARGFRAME IOVERLAY, 0, STATIC
        ARGFRAME DOVERLAY, 0, STATIC
        LOCFRAME XSTACK, 10, STACK
        PUBLIC setup_compass
        FUNCTION setup_compass,0203H
        ARGFRAME XSTACK, 0, STACK
        PUBLIC test
        
        CFI Names cfiNames0
        CFI StackFrame CFA_SP SP IDATA
        CFI StackFrame CFA_PSP16 PSP16 XDATA
        CFI StackFrame CFA_XSP16 XSP16 XDATA
        CFI StaticOverlayFrame CFA_IOVERLAY IOVERLAY
        CFI StaticOverlayFrame CFA_DOVERLAY DOVERLAY
        CFI Resource `PSW.CY`:1, `B.BR0`:1, `B.BR1`:1, `B.BR2`:1, `B.BR3`:1
        CFI Resource `B.BR4`:1, `B.BR5`:1, `B.BR6`:1, `B.BR7`:1, `VB.BR8`:1
        CFI Resource `VB.BR9`:1, `VB.BR10`:1, `VB.BR11`:1, `VB.BR12`:1
        CFI Resource `VB.BR13`:1, `VB.BR14`:1, `VB.BR15`:1, VB:8, B:8, A:8
        CFI Resource PSW:8, DPL0:8, DPH0:8, R0:8, R1:8, R2:8, R3:8, R4:8, R5:8
        CFI Resource R6:8, R7:8, V0:8, V1:8, V2:8, V3:8, V4:8, V5:8, V6:8, V7:8
        CFI Resource V8:8, V9:8, V10:8, V11:8, V12:8, V13:8, V14:8, V15:8, SP:8
        CFI Resource PSPH:8, PSPL:8, PSP16:16, XSPH:8, XSPL:8, XSP16:16
        CFI VirtualResource ?RET:24
        CFI Resource ?BRET_EXT:8
        CFI VirtualResource ?RET_HIGH:8, ?RET_LOW:8
        CFI ResourceParts PSP16 PSPH, PSPL
        CFI ResourceParts XSP16 XSPH, XSPL
        CFI ResourceParts ?RET ?BRET_EXT, ?RET_HIGH, ?RET_LOW
        CFI EndNames cfiNames0
        
        CFI Common cfiCommon0 Using cfiNames0
        CFI CodeAlign 1
        CFI DataAlign -1
        CFI ReturnAddress ?RET CODE
        CFI CFA_DOVERLAY Used
        CFI CFA_IOVERLAY Used
        CFI CFA_SP SP+-3
        CFI CFA_PSP16 PSP16+0
        CFI CFA_XSP16 XSP16+0
        CFI `PSW.CY` SameValue
        CFI `B.BR0` SameValue
        CFI `B.BR1` SameValue
        CFI `B.BR2` SameValue
        CFI `B.BR3` SameValue
        CFI `B.BR4` SameValue
        CFI `B.BR5` SameValue
        CFI `B.BR6` SameValue
        CFI `B.BR7` SameValue
        CFI `VB.BR8` SameValue
        CFI `VB.BR9` SameValue
        CFI `VB.BR10` SameValue
        CFI `VB.BR11` SameValue
        CFI `VB.BR12` SameValue
        CFI `VB.BR13` SameValue
        CFI `VB.BR14` SameValue
        CFI `VB.BR15` SameValue
        CFI VB SameValue
        CFI B Undefined
        CFI A Undefined
        CFI PSW SameValue
        CFI DPL0 SameValue
        CFI DPH0 SameValue
        CFI R0 Undefined
        CFI R1 Undefined
        CFI R2 Undefined
        CFI R3 Undefined
        CFI R4 Undefined
        CFI R5 Undefined
        CFI R6 SameValue
        CFI R7 SameValue
        CFI V0 SameValue
        CFI V1 SameValue
        CFI V2 SameValue
        CFI V3 SameValue
        CFI V4 SameValue
        CFI V5 SameValue
        CFI V6 SameValue
        CFI V7 SameValue
        CFI V8 SameValue
        CFI V9 SameValue
        CFI V10 SameValue
        CFI V11 SameValue
        CFI V12 SameValue
        CFI V13 SameValue
        CFI V14 SameValue
        CFI V15 SameValue
        CFI PSPH Undefined
        CFI PSPL Undefined
        CFI XSPH Undefined
        CFI XSPL Undefined
        CFI ?RET Concat
        CFI ?BRET_EXT Frame(CFA_SP, 3)
        CFI ?RET_HIGH Frame(CFA_SP, 2)
        CFI ?RET_LOW Frame(CFA_SP, 1)
        CFI EndCommon cfiCommon0
        
MPU_Write_Len       SYMBOL "MPU_Write_Len"
printf              SYMBOL "printf"
MPU_Read_Len        SYMBOL "MPU_Read_Len"
delay_ms            SYMBOL "delay_ms"
memset              SYMBOL "memset"
labs                SYMBOL "labs"
memcmp              SYMBOL "memcmp"
dmp_set_gyro_bias   SYMBOL "dmp_set_gyro_bias"
dmp_set_accel_bias  SYMBOL "dmp_set_accel_bias"
MPU_IIC_Init        SYMBOL "MPU_IIC_Init"
dmp_load_motion_driver_firmware SYMBOL "dmp_load_motion_driver_firmware"
dmp_set_orientation SYMBOL "dmp_set_orientation"
dmp_enable_feature  SYMBOL "dmp_enable_feature"
dmp_set_fifo_rate   SYMBOL "dmp_set_fifo_rate"
dmp_read_fifo       SYMBOL "dmp_read_fifo"
asin                SYMBOL "asin"
atan2               SYMBOL "atan2"
??MPU_IIC_Init?relay SYMBOL "?relay", MPU_IIC_Init
??MPU_Read_Len?relay SYMBOL "?relay", MPU_Read_Len
??MPU_Write_Len?relay SYMBOL "?relay", MPU_Write_Len
??asin?relay        SYMBOL "?relay", asin
??atan2?relay       SYMBOL "?relay", atan2
??delay_ms?relay    SYMBOL "?relay", delay_ms
??dmp_enable_feature?relay SYMBOL "?relay", dmp_enable_feature
??dmp_load_motion_driver_firmware?relay SYMBOL "?relay", dmp_load_motion_driver_firmware
??dmp_read_fifo?relay SYMBOL "?relay", dmp_read_fifo
??dmp_set_accel_bias?relay SYMBOL "?relay", dmp_set_accel_bias
??dmp_set_fifo_rate?relay SYMBOL "?relay", dmp_set_fifo_rate
??dmp_set_gyro_bias?relay SYMBOL "?relay", dmp_set_gyro_bias
??dmp_set_orientation?relay SYMBOL "?relay", dmp_set_orientation
??labs?relay        SYMBOL "?relay", labs
??memcmp?relay      SYMBOL "?relay", memcmp
??memset?relay      SYMBOL "?relay", memset
??printf?relay      SYMBOL "?relay", printf
inv_orientation_matrix_to_scalar SYMBOL "inv_orientation_matrix_to_scalar"
??inv_orientation_matrix_to_scalar?relay SYMBOL "?relay", inv_orientation_matrix_to_scalar
inv_row_2_scale     SYMBOL "inv_row_2_scale"
??inv_row_2_scale?relay SYMBOL "?relay", inv_row_2_scale
mget_ms             SYMBOL "mget_ms"
??mget_ms?relay     SYMBOL "?relay", mget_ms
mpu_configure_fifo  SYMBOL "mpu_configure_fifo"
??mpu_configure_fifo?relay SYMBOL "?relay", mpu_configure_fifo
mpu_dmp_get_data    SYMBOL "mpu_dmp_get_data"
??mpu_dmp_get_data?relay SYMBOL "?relay", mpu_dmp_get_data
mpu_dmp_init        SYMBOL "mpu_dmp_init"
??mpu_dmp_init?relay SYMBOL "?relay", mpu_dmp_init
mpu_get_accel_fsr   SYMBOL "mpu_get_accel_fsr"
??mpu_get_accel_fsr?relay SYMBOL "?relay", mpu_get_accel_fsr
mpu_get_accel_reg   SYMBOL "mpu_get_accel_reg"
??mpu_get_accel_reg?relay SYMBOL "?relay", mpu_get_accel_reg
mpu_get_accel_sens  SYMBOL "mpu_get_accel_sens"
??mpu_get_accel_sens?relay SYMBOL "?relay", mpu_get_accel_sens
mpu_get_compass_fsr SYMBOL "mpu_get_compass_fsr"
??mpu_get_compass_fsr?relay SYMBOL "?relay", mpu_get_compass_fsr
mpu_get_compass_reg SYMBOL "mpu_get_compass_reg"
??mpu_get_compass_reg?relay SYMBOL "?relay", mpu_get_compass_reg
mpu_get_compass_sample_rate SYMBOL "mpu_get_compass_sample_rate"
??mpu_get_compass_sample_rate?relay SYMBOL "?relay", mpu_get_compass_sample_rate
mpu_get_dmp_state   SYMBOL "mpu_get_dmp_state"
??mpu_get_dmp_state?relay SYMBOL "?relay", mpu_get_dmp_state
mpu_get_fifo_config SYMBOL "mpu_get_fifo_config"
??mpu_get_fifo_config?relay SYMBOL "?relay", mpu_get_fifo_config
mpu_get_gyro_fsr    SYMBOL "mpu_get_gyro_fsr"
??mpu_get_gyro_fsr?relay SYMBOL "?relay", mpu_get_gyro_fsr
mpu_get_gyro_reg    SYMBOL "mpu_get_gyro_reg"
??mpu_get_gyro_reg?relay SYMBOL "?relay", mpu_get_gyro_reg
mpu_get_gyro_sens   SYMBOL "mpu_get_gyro_sens"
??mpu_get_gyro_sens?relay SYMBOL "?relay", mpu_get_gyro_sens
mpu_get_int_status  SYMBOL "mpu_get_int_status"
??mpu_get_int_status?relay SYMBOL "?relay", mpu_get_int_status
mpu_get_lpf         SYMBOL "mpu_get_lpf"
??mpu_get_lpf?relay SYMBOL "?relay", mpu_get_lpf
mpu_get_power_state SYMBOL "mpu_get_power_state"
??mpu_get_power_state?relay SYMBOL "?relay", mpu_get_power_state
mpu_get_sample_rate SYMBOL "mpu_get_sample_rate"
??mpu_get_sample_rate?relay SYMBOL "?relay", mpu_get_sample_rate
mpu_get_temperature SYMBOL "mpu_get_temperature"
??mpu_get_temperature?relay SYMBOL "?relay", mpu_get_temperature
mpu_init            SYMBOL "mpu_init"
??mpu_init?relay    SYMBOL "?relay", mpu_init
mpu_load_firmware   SYMBOL "mpu_load_firmware"
??mpu_load_firmware?relay SYMBOL "?relay", mpu_load_firmware
mpu_lp_accel_mode   SYMBOL "mpu_lp_accel_mode"
??mpu_lp_accel_mode?relay SYMBOL "?relay", mpu_lp_accel_mode
mpu_lp_motion_interrupt SYMBOL "mpu_lp_motion_interrupt"
??mpu_lp_motion_interrupt?relay SYMBOL "?relay", mpu_lp_motion_interrupt
mpu_read_fifo       SYMBOL "mpu_read_fifo"
??mpu_read_fifo?relay SYMBOL "?relay", mpu_read_fifo
mpu_read_fifo_stream SYMBOL "mpu_read_fifo_stream"
??mpu_read_fifo_stream?relay SYMBOL "?relay", mpu_read_fifo_stream
mpu_read_mem        SYMBOL "mpu_read_mem"
??mpu_read_mem?relay SYMBOL "?relay", mpu_read_mem
mpu_read_reg        SYMBOL "mpu_read_reg"
??mpu_read_reg?relay SYMBOL "?relay", mpu_read_reg
mpu_reg_dump        SYMBOL "mpu_reg_dump"
??mpu_reg_dump?relay SYMBOL "?relay", mpu_reg_dump
mpu_reset_fifo      SYMBOL "mpu_reset_fifo"
??mpu_reset_fifo?relay SYMBOL "?relay", mpu_reset_fifo
mpu_run_self_test   SYMBOL "mpu_run_self_test"
??mpu_run_self_test?relay SYMBOL "?relay", mpu_run_self_test
mpu_set_accel_bias  SYMBOL "mpu_set_accel_bias"
??mpu_set_accel_bias?relay SYMBOL "?relay", mpu_set_accel_bias
mpu_set_accel_fsr   SYMBOL "mpu_set_accel_fsr"
??mpu_set_accel_fsr?relay SYMBOL "?relay", mpu_set_accel_fsr
mpu_set_bypass      SYMBOL "mpu_set_bypass"
??mpu_set_bypass?relay SYMBOL "?relay", mpu_set_bypass
mpu_set_compass_sample_rate SYMBOL "mpu_set_compass_sample_rate"
??mpu_set_compass_sample_rate?relay SYMBOL "?relay", mpu_set_compass_sample_rate
mpu_set_dmp_state   SYMBOL "mpu_set_dmp_state"
??mpu_set_dmp_state?relay SYMBOL "?relay", mpu_set_dmp_state
mpu_set_gyro_fsr    SYMBOL "mpu_set_gyro_fsr"
??mpu_set_gyro_fsr?relay SYMBOL "?relay", mpu_set_gyro_fsr
mpu_set_int_latched SYMBOL "mpu_set_int_latched"
??mpu_set_int_latched?relay SYMBOL "?relay", mpu_set_int_latched
mpu_set_int_level   SYMBOL "mpu_set_int_level"
??mpu_set_int_level?relay SYMBOL "?relay", mpu_set_int_level
mpu_set_lpf         SYMBOL "mpu_set_lpf"
??mpu_set_lpf?relay SYMBOL "?relay", mpu_set_lpf
mpu_set_sample_rate SYMBOL "mpu_set_sample_rate"
??mpu_set_sample_rate?relay SYMBOL "?relay", mpu_set_sample_rate
mpu_set_sensors     SYMBOL "mpu_set_sensors"
??mpu_set_sensors?relay SYMBOL "?relay", mpu_set_sensors
mpu_write_mem       SYMBOL "mpu_write_mem"
??mpu_write_mem?relay SYMBOL "?relay", mpu_write_mem
run_self_test       SYMBOL "run_self_test"
??run_self_test?relay SYMBOL "?relay", run_self_test
setup_compass       SYMBOL "setup_compass"
??setup_compass?relay SYMBOL "?relay", setup_compass

        EXTERN MPU_Write_Len
        FUNCTION MPU_Write_Len,0202H
        ARGFRAME ISTACK, 2, STACK
        ARGFRAME PSTACK, 0, STACK
        ARGFRAME XSTACK, 55, STACK
        ARGFRAME IOVERLAY, 0, STATIC
        ARGFRAME DOVERLAY, 0, STATIC
        EXTERN printf
        FUNCTION printf,0202H
        ARGFRAME ISTACK, 0, STACK
        ARGFRAME PSTACK, 0, STACK
        ARGFRAME XSTACK, 18, STACK
        ARGFRAME IOVERLAY, 0, STATIC
        ARGFRAME DOVERLAY, 0, STATIC
        EXTERN MPU_Read_Len
        FUNCTION MPU_Read_Len,0202H
        ARGFRAME ISTACK, 0, STACK
        ARGFRAME PSTACK, 0, STACK
        ARGFRAME XSTACK, 55, STACK
        ARGFRAME IOVERLAY, 0, STATIC
        ARGFRAME DOVERLAY, 0, STATIC
        EXTERN delay_ms
        FUNCTION delay_ms,0202H
        ARGFRAME ISTACK, 2, STACK
        ARGFRAME PSTACK, 0, STACK
        ARGFRAME XSTACK, 55, STACK
        ARGFRAME IOVERLAY, 0, STATIC
        ARGFRAME DOVERLAY, 0, STATIC
        EXTERN memset
        FUNCTION memset,010202H
        ARGFRAME ISTACK, 0, STACK
        ARGFRAME PSTACK, 0, STACK
        ARGFRAME XSTACK, 18, STACK
        ARGFRAME IOVERLAY, 0, STATIC
        ARGFRAME DOVERLAY, 0, STATIC
        EXTERN labs
        FUNCTION labs,010202H
        ARGFRAME ISTACK, 0, STACK
        ARGFRAME PSTACK, 0, STACK
        ARGFRAME XSTACK, 38, STACK
        ARGFRAME IOVERLAY, 0, STATIC
        ARGFRAME DOVERLAY, 0, STATIC
        EXTERN memcmp
        FUNCTION memcmp,010202H
        ARGFRAME ISTACK, 0, STACK
        ARGFRAME PSTACK, 0, STACK
        ARGFRAME XSTACK, 42, STACK
        ARGFRAME IOVERLAY, 0, STATIC
        ARGFRAME DOVERLAY, 0, STATIC
        EXTERN dmp_set_gyro_bias
        FUNCTION dmp_set_gyro_bias,0202H
        ARGFRAME ISTACK, 0, STACK
        ARGFRAME PSTACK, 0, STACK
        ARGFRAME XSTACK, 46, STACK
        ARGFRAME IOVERLAY, 0, STATIC
        ARGFRAME DOVERLAY, 0, STATIC
        EXTERN dmp_set_accel_bias
        FUNCTION dmp_set_accel_bias,0202H
        ARGFRAME ISTACK, 0, STACK
        ARGFRAME PSTACK, 0, STACK
        ARGFRAME XSTACK, 46, STACK
        ARGFRAME IOVERLAY, 0, STATIC
        ARGFRAME DOVERLAY, 0, STATIC
        EXTERN MPU_IIC_Init
        FUNCTION MPU_IIC_Init,0202H
        ARGFRAME ISTACK, 0, STACK
        ARGFRAME PSTACK, 0, STACK
        ARGFRAME XSTACK, 10, STACK
        ARGFRAME IOVERLAY, 0, STATIC
        ARGFRAME DOVERLAY, 0, STATIC
        EXTERN dmp_load_motion_driver_firmware
        FUNCTION dmp_load_motion_driver_firmware,0202H
        ARGFRAME ISTACK, 0, STACK
        ARGFRAME PSTACK, 0, STACK
        ARGFRAME XSTACK, 10, STACK
        ARGFRAME IOVERLAY, 0, STATIC
        ARGFRAME DOVERLAY, 0, STATIC
        EXTERN dmp_set_orientation
        FUNCTION dmp_set_orientation,0202H
        ARGFRAME ISTACK, 0, STACK
        ARGFRAME PSTACK, 0, STACK
        ARGFRAME XSTACK, 10, STACK
        ARGFRAME IOVERLAY, 0, STATIC
        ARGFRAME DOVERLAY, 0, STATIC
        EXTERN dmp_enable_feature
        FUNCTION dmp_enable_feature,0202H
        ARGFRAME ISTACK, 0, STACK
        ARGFRAME PSTACK, 0, STACK
        ARGFRAME XSTACK, 10, STACK
        ARGFRAME IOVERLAY, 0, STATIC
        ARGFRAME DOVERLAY, 0, STATIC
        EXTERN dmp_set_fifo_rate
        FUNCTION dmp_set_fifo_rate,0202H
        ARGFRAME ISTACK, 0, STACK
        ARGFRAME PSTACK, 0, STACK
        ARGFRAME XSTACK, 10, STACK
        ARGFRAME IOVERLAY, 0, STATIC
        ARGFRAME DOVERLAY, 0, STATIC
        EXTERN dmp_read_fifo
        FUNCTION dmp_read_fifo,0202H
        ARGFRAME ISTACK, 0, STACK
        ARGFRAME PSTACK, 0, STACK
        ARGFRAME XSTACK, 87, STACK
        ARGFRAME IOVERLAY, 0, STATIC
        ARGFRAME DOVERLAY, 0, STATIC
        EXTERN asin
        FUNCTION asin,010202H
        ARGFRAME ISTACK, 0, STACK
        ARGFRAME PSTACK, 0, STACK
        ARGFRAME XSTACK, 79, STACK
        ARGFRAME IOVERLAY, 0, STATIC
        ARGFRAME DOVERLAY, 0, STATIC
        EXTERN atan2
        FUNCTION atan2,010202H
        ARGFRAME ISTACK, 0, STACK
        ARGFRAME PSTACK, 0, STACK
        ARGFRAME XSTACK, 83, STACK
        ARGFRAME IOVERLAY, 0, STATIC
        ARGFRAME DOVERLAY, 0, STATIC
        EXTERN ??MPU_IIC_Init?relay
        FUNCTION ??MPU_IIC_Init?relay,00H
        EXTERN ??MPU_Read_Len?relay
        FUNCTION ??MPU_Read_Len?relay,00H
        EXTERN ??MPU_Write_Len?relay
        FUNCTION ??MPU_Write_Len?relay,00H
        EXTERN ??asin?relay
        FUNCTION ??asin?relay,00H
        EXTERN ??atan2?relay
        FUNCTION ??atan2?relay,00H
        EXTERN ??delay_ms?relay
        FUNCTION ??delay_ms?relay,00H
        EXTERN ??dmp_enable_feature?relay
        FUNCTION ??dmp_enable_feature?relay,00H
        EXTERN ??dmp_load_motion_driver_firmware?relay
        FUNCTION ??dmp_load_motion_driver_firmware?relay,00H
        EXTERN ??dmp_read_fifo?relay
        FUNCTION ??dmp_read_fifo?relay,00H
        EXTERN ??dmp_set_accel_bias?relay
        FUNCTION ??dmp_set_accel_bias?relay,00H
        EXTERN ??dmp_set_fifo_rate?relay
        FUNCTION ??dmp_set_fifo_rate?relay,00H
        EXTERN ??dmp_set_gyro_bias?relay
        FUNCTION ??dmp_set_gyro_bias?relay,00H
        EXTERN ??dmp_set_orientation?relay
        FUNCTION ??dmp_set_orientation?relay,00H
        EXTERN ??labs?relay
        FUNCTION ??labs?relay,00H
        EXTERN ??memcmp?relay
        FUNCTION ??memcmp?relay,00H
        EXTERN ??memset?relay
        FUNCTION ??memset?relay,00H
        EXTERN ??printf?relay
        FUNCTION ??printf?relay,00H

// D:\ZigBee\KJXY-ZigBee\KJXY-ZigBeeV2.0\exp9-group\Components\HARDWARE\MPU6050\eMPL\inv_mpu.c
//    1 /*
//    2  $License:
//    3     Copyright (C) 2011-2012 InvenSense Corporation, All Rights Reserved.
//    4     See included License.txt for License information.
//    5  $
//    6  */
//    7 /**
//    8  *  @addtogroup  DRIVERS Sensor Driver Layer
//    9  *  @brief       Hardware drivers to communicate with sensors via I2C.
//   10  *
//   11  *  @{
//   12  *      @file       inv_mpu.c
//   13  *      @brief      An I2C-based driver for Invensense gyroscopes.
//   14  *      @details    This driver currently works for the following devices:
//   15  *                  MPU6050
//   16  *                  MPU6500
//   17  *                  MPU9150 (or MPU6050 w/ AK8975 on the auxiliary bus)
//   18  *                  MPU9250 (or MPU6500 w/ AK8963 on the auxiliary bus)
//   19  */
//   20 #include <stdio.h>
//   21 //#include <stdint.h>
//   22 #include <stdlib.h>
//   23 #include <string.h>
//   24 #include <math.h>
//   25 #include "inv_mpu.h"
//   26 #include "inv_mpu_dmp_motion_driver.h"
//   27 #include "mpu6050.h"
//   28 #include "delay.h"
//   29 
//   30 #define MPU6050					//定义我们使用的传感器为MPU6050
//   31 #define MOTION_DRIVER_TARGET_MSP430		//定义驱动部分,采用MSP430的驱动(移植到STM32F1)
//   32 
//   33 /* The following functions must be defined for this platform:
//   34  * i2c_write(unsigned char slave_addr, unsigned char reg_addr,
//   35  *      unsigned char length, unsigned char const *data)
//   36  * i2c_read(unsigned char slave_addr, unsigned char reg_addr,
//   37  *      unsigned char length, unsigned char *data)
//   38  * delay_ms(unsigned long num_ms)
//   39  * get_ms(unsigned long *count)
//   40  * reg_int_cb(void (*cb)(void), unsigned char port, unsigned char pin)
//   41  * labs(long x)
//   42  * fabsf(float x)
//   43  * min(int a, int b)
//   44  */
//   45 #if defined MOTION_DRIVER_TARGET_MSP430
//   46 //#include "msp430.h"
//   47 //#include "msp430_i2c.h"
//   48 //#include "msp430_clock.h"
//   49 //#include "msp430_interrupt.h"
//   50 
//   51 #define i2c_write   MPU_Write_Len
//   52 #define i2c_read    MPU_Read_Len
//   53 #define delay_ms    delay_ms
//   54 #define get_ms      mget_ms
//   55 //static inline int reg_int_cb(struct int_param_s *int_param)
//   56 //{
//   57 //    return msp430_reg_int_cb(int_param->cb, int_param->pin, int_param->lp_exit,
//   58 //        int_param->active_low);
//   59 //}
//   60 #define log_i 	printf	//打印信息
//   61 #define log_e  	printf	//打印信息
//   62 /* labs is already defined by TI's toolchain. */
//   63 /* fabs is for doubles. fabsf is for floats. */
//   64 //#define fabs  fabsf
//   65 #define min(a,b) ((a<b)?a:b)
//   66 #elif defined EMPL_TARGET_MSP430
//   67 #include "msp430.h"
//   68 #include "msp430_i2c.h"
//   69 #include "msp430_clock.h"
//   70 #include "msp430_interrupt.h"
//   71 #include "log.h"
//   72 #define i2c_write   msp430_i2c_write
//   73 #define i2c_read    msp430_i2c_read
//   74 #define delay_ms    msp430_delay_ms
//   75 #define get_ms      msp430_get_clock_ms
//   76 static inline int reg_int_cb(struct int_param_s *int_param)
//   77 {
//   78     return msp430_reg_int_cb(int_param->cb, int_param->pin, int_param->lp_exit,
//   79         int_param->active_low);
//   80 }
//   81 #define log_i       MPL_LOGI
//   82 #define log_e       MPL_LOGE
//   83 /* labs is already defined by TI's toolchain. */
//   84 /* fabs is for doubles. fabsf is for floats. */
//   85 #define fabs   fabsf
//   86 #define min(a,b) ((a<b)?a:b)
//   87 #elif defined EMPL_TARGET_UC3L0
//   88 /* Instead of using the standard TWI driver from the ASF library, we're using
//   89  * a TWI driver that follows the slave address + register address convention.
//   90  */
//   91 #include "twi.h"
//   92 #include "delay.h"
//   93 #include "sysclk.h"
//   94 #include "log.h"
//   95 #include "sensors_xplained.h"
//   96 #include "uc3l0_clock.h"
//   97 #define i2c_write(a, b, c, d)   twi_write(a, b, d, c)
//   98 #define i2c_read(a, b, c, d)    twi_read(a, b, d, c)
//   99 /* delay_ms is a function already defined in ASF. */
//  100 #define get_ms  uc3l0_get_clock_ms
//  101 static inline int reg_int_cb(struct int_param_s *int_param)
//  102 {
//  103     sensor_board_irq_connect(int_param->pin, int_param->cb, int_param->arg);
//  104     return 0;
//  105 }
//  106 #define log_i       MPL_LOGI
//  107 #define log_e       MPL_LOGE
//  108 /* UC3 is a 32-bit processor, so abs and labs are equivalent. */
//  109 #define labs        abs
//  110 #define fabs(x)     (((x)>0)?(x):-(x))
//  111 #else
//  112 #error  Gyro driver is missing the system layer implementations.
//  113 #endif
//  114 
//  115 #if !defined MPU6050 && !defined MPU9150 && !defined MPU6500 && !defined MPU9250
//  116 #error  Which gyro are you using? Define MPUxxxx in your compiler options.
//  117 #endif
//  118 
//  119 /* Time for some messy macro work. =]
//  120  * #define MPU9150
//  121  * is equivalent to..
//  122  * #define MPU6050
//  123  * #define AK8975_SECONDARY
//  124  *
//  125  * #define MPU9250
//  126  * is equivalent to..
//  127  * #define MPU6500
//  128  * #define AK8963_SECONDARY
//  129  */
//  130 #if defined MPU9150
//  131 #ifndef MPU6050
//  132 #define MPU6050
//  133 #endif                          /* #ifndef MPU6050 */
//  134 #if defined AK8963_SECONDARY
//  135 #error "MPU9150 and AK8963_SECONDARY cannot both be defined."
//  136 #elif !defined AK8975_SECONDARY /* #if defined AK8963_SECONDARY */
//  137 #define AK8975_SECONDARY
//  138 #endif                          /* #if defined AK8963_SECONDARY */
//  139 #elif defined MPU9250           /* #if defined MPU9150 */
//  140 #ifndef MPU6500
//  141 #define MPU6500
//  142 #endif                          /* #ifndef MPU6500 */
//  143 #if defined AK8975_SECONDARY
//  144 #error "MPU9250 and AK8975_SECONDARY cannot both be defined."
//  145 #elif !defined AK8963_SECONDARY /* #if defined AK8975_SECONDARY */
//  146 #define AK8963_SECONDARY
//  147 #endif                          /* #if defined AK8975_SECONDARY */
//  148 #endif                          /* #if defined MPU9150 */
//  149 
//  150 #if defined AK8975_SECONDARY || defined AK8963_SECONDARY
//  151 #define AK89xx_SECONDARY
//  152 #else
//  153 /* #warning "No compass = less profit for Invensense. Lame." */
//  154 #endif
//  155 
//  156 static int set_int_enable(unsigned char enable);
//  157 
//  158 /* Hardware registers needed by driver. */
//  159 struct gyro_reg_s {
//  160     unsigned char who_am_i;
//  161     unsigned char rate_div;
//  162     unsigned char lpf;
//  163     unsigned char prod_id;
//  164     unsigned char user_ctrl;
//  165     unsigned char fifo_en;
//  166     unsigned char gyro_cfg;
//  167     unsigned char accel_cfg;
//  168 //    unsigned char accel_cfg2;
//  169 //    unsigned char lp_accel_odr;
//  170     unsigned char motion_thr;
//  171     unsigned char motion_dur;
//  172     unsigned char fifo_count_h;
//  173     unsigned char fifo_r_w;
//  174     unsigned char raw_gyro;
//  175     unsigned char raw_accel;
//  176     unsigned char temp;
//  177     unsigned char int_enable;
//  178     unsigned char dmp_int_status;
//  179     unsigned char int_status;
//  180 //    unsigned char accel_intel;
//  181     unsigned char pwr_mgmt_1;
//  182     unsigned char pwr_mgmt_2;
//  183     unsigned char int_pin_cfg;
//  184     unsigned char mem_r_w;
//  185     unsigned char accel_offs;
//  186     unsigned char i2c_mst;
//  187     unsigned char bank_sel;
//  188     unsigned char mem_start_addr;
//  189     unsigned char prgm_start_h;
//  190 #if defined AK89xx_SECONDARY
//  191     unsigned char s0_addr;
//  192     unsigned char s0_reg;
//  193     unsigned char s0_ctrl;
//  194     unsigned char s1_addr;
//  195     unsigned char s1_reg;
//  196     unsigned char s1_ctrl;
//  197     unsigned char s4_ctrl;
//  198     unsigned char s0_do;
//  199     unsigned char s1_do;
//  200     unsigned char i2c_delay_ctrl;
//  201     unsigned char raw_compass;
//  202     /* The I2C_MST_VDDIO bit is in this register. */
//  203     unsigned char yg_offs_tc;
//  204 #endif
//  205 };
//  206 
//  207 /* Information specific to a particular device. */
//  208 struct hw_s {
//  209     unsigned char addr;
//  210     unsigned short max_fifo;
//  211     unsigned char num_reg;
//  212     unsigned short temp_sens;
//  213     short temp_offset;
//  214     unsigned short bank_size;
//  215 #if defined AK89xx_SECONDARY
//  216     unsigned short compass_fsr;
//  217 #endif
//  218 };
//  219 
//  220 /* When entering motion interrupt mode, the driver keeps track of the
//  221  * previous state so that it can be restored at a later time.
//  222  * TODO: This is tacky. Fix it.
//  223  */
//  224 struct motion_int_cache_s {
//  225     unsigned short gyro_fsr;
//  226     unsigned char accel_fsr;
//  227     unsigned short lpf;
//  228     unsigned short sample_rate;
//  229     unsigned char sensors_on;
//  230     unsigned char fifo_sensors;
//  231     unsigned char dmp_on;
//  232 };
//  233 
//  234 /* Cached chip configuration data.
//  235  * TODO: A lot of these can be handled with a bitmask.
//  236  */
//  237 struct chip_cfg_s {
//  238     /* Matches gyro_cfg >> 3 & 0x03 */
//  239     unsigned char gyro_fsr;
//  240     /* Matches accel_cfg >> 3 & 0x03 */
//  241     unsigned char accel_fsr;
//  242     /* Enabled sensors. Uses same masks as fifo_en, NOT pwr_mgmt_2. */
//  243     unsigned char sensors;
//  244     /* Matches config register. */
//  245     unsigned char lpf;
//  246     unsigned char clk_src;
//  247     /* Sample rate, NOT rate divider. */
//  248     unsigned short sample_rate;
//  249     /* Matches fifo_en register. */
//  250     unsigned char fifo_enable;
//  251     /* Matches int enable register. */
//  252     unsigned char int_enable;
//  253     /* 1 if devices on auxiliary I2C bus appear on the primary. */
//  254     unsigned char bypass_mode;
//  255     /* 1 if half-sensitivity.
//  256      * NOTE: This doesn't belong here, but everything else in hw_s is const,
//  257      * and this allows us to save some precious RAM.
//  258      */
//  259     unsigned char accel_half;
//  260     /* 1 if device in low-power accel-only mode. */
//  261     unsigned char lp_accel_mode;
//  262     /* 1 if interrupts are only triggered on motion events. */
//  263     unsigned char int_motion_only;
//  264     struct motion_int_cache_s cache;
//  265     /* 1 for active low interrupts. */
//  266     unsigned char active_low_int;
//  267     /* 1 for latched interrupts. */
//  268     unsigned char latched_int;
//  269     /* 1 if DMP is enabled. */
//  270     unsigned char dmp_on;
//  271     /* Ensures that DMP will only be loaded once. */
//  272     unsigned char dmp_loaded;
//  273     /* Sampling rate used when DMP is enabled. */
//  274     unsigned short dmp_sample_rate;
//  275 #ifdef AK89xx_SECONDARY
//  276     /* Compass sample rate. */
//  277     unsigned short compass_sample_rate;
//  278     unsigned char compass_addr;
//  279     short mag_sens_adj[3];
//  280 #endif
//  281 };
//  282 
//  283 /* Information for self-test. */
//  284 struct test_s {
//  285     unsigned long gyro_sens;
//  286     unsigned long accel_sens;
//  287     unsigned char reg_rate_div;
//  288     unsigned char reg_lpf;
//  289     unsigned char reg_gyro_fsr;
//  290     unsigned char reg_accel_fsr;
//  291     unsigned short wait_ms;
//  292     unsigned char packet_thresh;
//  293     float min_dps;
//  294     float max_dps;
//  295     float max_gyro_var;
//  296     float min_g;
//  297     float max_g;
//  298     float max_accel_var;
//  299 };
//  300 
//  301 /* Gyro driver state variables. */
//  302 struct gyro_state_s {
//  303     const struct gyro_reg_s *reg;
//  304     const struct hw_s *hw;
//  305     struct chip_cfg_s chip_cfg;
//  306     const struct test_s *test;
//  307 };
//  308 
//  309 /* Filter configurations. */
//  310 enum lpf_e {
//  311     INV_FILTER_256HZ_NOLPF2 = 0,
//  312     INV_FILTER_188HZ,
//  313     INV_FILTER_98HZ,
//  314     INV_FILTER_42HZ,
//  315     INV_FILTER_20HZ,
//  316     INV_FILTER_10HZ,
//  317     INV_FILTER_5HZ,
//  318     INV_FILTER_2100HZ_NOLPF,
//  319     NUM_FILTER
//  320 };
//  321 
//  322 /* Full scale ranges. */
//  323 enum gyro_fsr_e {
//  324     INV_FSR_250DPS = 0,
//  325     INV_FSR_500DPS,
//  326     INV_FSR_1000DPS,
//  327     INV_FSR_2000DPS,
//  328     NUM_GYRO_FSR
//  329 };
//  330 
//  331 /* Full scale ranges. */
//  332 enum accel_fsr_e {
//  333     INV_FSR_2G = 0,
//  334     INV_FSR_4G,
//  335     INV_FSR_8G,
//  336     INV_FSR_16G,
//  337     NUM_ACCEL_FSR
//  338 };
//  339 
//  340 /* Clock sources. */
//  341 enum clock_sel_e {
//  342     INV_CLK_INTERNAL = 0,
//  343     INV_CLK_PLL,
//  344     NUM_CLK
//  345 };
//  346 
//  347 /* Low-power accel wakeup rates. */
//  348 enum lp_accel_rate_e {
//  349 #if defined MPU6050
//  350     INV_LPA_1_25HZ,
//  351     INV_LPA_5HZ,
//  352     INV_LPA_20HZ,
//  353     INV_LPA_40HZ
//  354 #elif defined MPU6500
//  355     INV_LPA_0_3125HZ,
//  356     INV_LPA_0_625HZ,
//  357     INV_LPA_1_25HZ,
//  358     INV_LPA_2_5HZ,
//  359     INV_LPA_5HZ,
//  360     INV_LPA_10HZ,
//  361     INV_LPA_20HZ,
//  362     INV_LPA_40HZ,
//  363     INV_LPA_80HZ,
//  364     INV_LPA_160HZ,
//  365     INV_LPA_320HZ,
//  366     INV_LPA_640HZ
//  367 #endif
//  368 };
//  369 
//  370 #define BIT_I2C_MST_VDDIO   (0x80)
//  371 #define BIT_FIFO_EN         (0x40)
//  372 #define BIT_DMP_EN          (0x80)
//  373 #define BIT_FIFO_RST        (0x04)
//  374 #define BIT_DMP_RST         (0x08)
//  375 #define BIT_FIFO_OVERFLOW   (0x10)
//  376 #define BIT_DATA_RDY_EN     (0x01)
//  377 #define BIT_DMP_INT_EN      (0x02)
//  378 #define BIT_MOT_INT_EN      (0x40)
//  379 #define BITS_FSR            (0x18)
//  380 #define BITS_LPF            (0x07)
//  381 #define BITS_HPF            (0x07)
//  382 #define BITS_CLK            (0x07)
//  383 #define BIT_FIFO_SIZE_1024  (0x40)
//  384 #define BIT_FIFO_SIZE_2048  (0x80)
//  385 #define BIT_FIFO_SIZE_4096  (0xC0)
//  386 #define BIT_RESET           (0x80)
//  387 #define BIT_SLEEP           (0x40)
//  388 #define BIT_S0_DELAY_EN     (0x01)
//  389 #define BIT_S2_DELAY_EN     (0x04)
//  390 #define BITS_SLAVE_LENGTH   (0x0F)
//  391 #define BIT_SLAVE_BYTE_SW   (0x40)
//  392 #define BIT_SLAVE_GROUP     (0x10)
//  393 #define BIT_SLAVE_EN        (0x80)
//  394 #define BIT_I2C_READ        (0x80)
//  395 #define BITS_I2C_MASTER_DLY (0x1F)
//  396 #define BIT_AUX_IF_EN       (0x20)
//  397 #define BIT_ACTL            (0x80)
//  398 #define BIT_LATCH_EN        (0x20)
//  399 #define BIT_ANY_RD_CLR      (0x10)
//  400 #define BIT_BYPASS_EN       (0x02)
//  401 #define BITS_WOM_EN         (0xC0)
//  402 #define BIT_LPA_CYCLE       (0x20)
//  403 #define BIT_STBY_XA         (0x20)
//  404 #define BIT_STBY_YA         (0x10)
//  405 #define BIT_STBY_ZA         (0x08)
//  406 #define BIT_STBY_XG         (0x04)
//  407 #define BIT_STBY_YG         (0x02)
//  408 #define BIT_STBY_ZG         (0x01)
//  409 #define BIT_STBY_XYZA       (BIT_STBY_XA | BIT_STBY_YA | BIT_STBY_ZA)
//  410 #define BIT_STBY_XYZG       (BIT_STBY_XG | BIT_STBY_YG | BIT_STBY_ZG)
//  411 
//  412 #if defined AK8975_SECONDARY
//  413 #define SUPPORTS_AK89xx_HIGH_SENS   (0x00)
//  414 #define AK89xx_FSR                  (9830)
//  415 #elif defined AK8963_SECONDARY
//  416 #define SUPPORTS_AK89xx_HIGH_SENS   (0x10)
//  417 #define AK89xx_FSR                  (4915)
//  418 #endif
//  419 
//  420 #ifdef AK89xx_SECONDARY
//  421 #define AKM_REG_WHOAMI      (0x00)
//  422 
//  423 #define AKM_REG_ST1         (0x02)
//  424 #define AKM_REG_HXL         (0x03)
//  425 #define AKM_REG_ST2         (0x09)
//  426 
//  427 #define AKM_REG_CNTL        (0x0A)
//  428 #define AKM_REG_ASTC        (0x0C)
//  429 #define AKM_REG_ASAX        (0x10)
//  430 #define AKM_REG_ASAY        (0x11)
//  431 #define AKM_REG_ASAZ        (0x12)
//  432 
//  433 #define AKM_DATA_READY      (0x01)
//  434 #define AKM_DATA_OVERRUN    (0x02)
//  435 #define AKM_OVERFLOW        (0x80)
//  436 #define AKM_DATA_ERROR      (0x40)
//  437 
//  438 #define AKM_BIT_SELF_TEST   (0x40)
//  439 
//  440 #define AKM_POWER_DOWN          (0x00 | SUPPORTS_AK89xx_HIGH_SENS)
//  441 #define AKM_SINGLE_MEASUREMENT  (0x01 | SUPPORTS_AK89xx_HIGH_SENS)
//  442 #define AKM_FUSE_ROM_ACCESS     (0x0F | SUPPORTS_AK89xx_HIGH_SENS)
//  443 #define AKM_MODE_SELF_TEST      (0x08 | SUPPORTS_AK89xx_HIGH_SENS)
//  444 
//  445 #define AKM_WHOAMI      (0x48)
//  446 #endif
//  447 
//  448 #if defined MPU6050
//  449 //const struct gyro_reg_s reg = {
//  450 //    .who_am_i       = 0x75,
//  451 //    .rate_div       = 0x19,
//  452 //    .lpf            = 0x1A,
//  453 //    .prod_id        = 0x0C,
//  454 //    .user_ctrl      = 0x6A,
//  455 //    .fifo_en        = 0x23,
//  456 //    .gyro_cfg       = 0x1B,
//  457 //    .accel_cfg      = 0x1C,
//  458 //    .motion_thr     = 0x1F,
//  459 //    .motion_dur     = 0x20,
//  460 //    .fifo_count_h   = 0x72,
//  461 //    .fifo_r_w       = 0x74,
//  462 //    .raw_gyro       = 0x43,
//  463 //    .raw_accel      = 0x3B,
//  464 //    .temp           = 0x41,
//  465 //    .int_enable     = 0x38,
//  466 //    .dmp_int_status = 0x39,
//  467 //    .int_status     = 0x3A,
//  468 //    .pwr_mgmt_1     = 0x6B,
//  469 //    .pwr_mgmt_2     = 0x6C,
//  470 //    .int_pin_cfg    = 0x37,
//  471 //    .mem_r_w        = 0x6F,
//  472 //    .accel_offs     = 0x06,
//  473 //    .i2c_mst        = 0x24,
//  474 //    .bank_sel       = 0x6D,
//  475 //    .mem_start_addr = 0x6E,
//  476 //    .prgm_start_h   = 0x70
//  477 //#ifdef AK89xx_SECONDARY
//  478 //    ,.raw_compass   = 0x49,
//  479 //    .yg_offs_tc     = 0x01,
//  480 //    .s0_addr        = 0x25,
//  481 //    .s0_reg         = 0x26,
//  482 //    .s0_ctrl        = 0x27,
//  483 //    .s1_addr        = 0x28,
//  484 //    .s1_reg         = 0x29,
//  485 //    .s1_ctrl        = 0x2A,
//  486 //    .s4_ctrl        = 0x34,
//  487 //    .s0_do          = 0x63,
//  488 //    .s1_do          = 0x64,
//  489 //    .i2c_delay_ctrl = 0x67
//  490 //#endif
//  491 //};

        RSEG XDATA_ROM_C:CONST:REORDER:NOROOT(0)
        DATA8
//  492 const struct gyro_reg_s reg = {
reg:
        DB 117
        DB 25
        DB 26
        DB 12
        DB 106
        DB 35
        DB 27
        DB 28
        DB 31
        DB 32
        DB 114
        DB 116
        DB 67
        DB 59
        DB 65
        DB 56
        DB 57
        DB 58
        DB 107
        DB 108
        DB 55
        DB 111
        DB 6
        DB 36
        DB 109
        DB 110
        DB 112
//  493 0x75,  //who_am_i
//  494 0x19,  //rate_div
//  495 0x1A,  //lpf
//  496 0x0C,  //prod_id
//  497 0x6A,  //user_ctrl
//  498 0x23,  //fifo_en
//  499 0x1B,  //gyro_cfg
//  500 0x1C,  //accel_cfg
//  501 0x1F,  // motion_thr
//  502 0x20,  // motion_dur
//  503 0x72,  // fifo_count_h
//  504 0x74,  // fifo_r_w
//  505 0x43,  // raw_gyro
//  506 0x3B,  // raw_accel
//  507 0x41,  // temp
//  508 0x38,  // int_enable
//  509 0x39,  //  dmp_int_status
//  510 0x3A,  //  int_status
//  511 0x6B,  // pwr_mgmt_1
//  512 0x6C,  // pwr_mgmt_2
//  513 0x37,  // int_pin_cfg
//  514 0x6F,  // mem_r_w
//  515 0x06,  // accel_offs
//  516 0x24,  // i2c_mst
//  517 0x6D,  // bank_sel
//  518 0x6E,  // mem_start_addr
//  519 0x70   // prgm_start_h
//  520 };
//  521 
//  522 //const struct hw_s hw = {
//  523 //    .addr           = 0x68,
//  524 //    .max_fifo       = 1024,
//  525 //    .num_reg        = 118,
//  526 //    .temp_sens      = 340,
//  527 //    .temp_offset    = -521,
//  528 //    .bank_size      = 256
//  529 //#if defined AK89xx_SECONDARY
//  530 //    ,.compass_fsr    = AK89xx_FSR
//  531 //#endif
//  532 //};

        RSEG XDATA_ROM_C:CONST:REORDER:NOROOT(0)
        DATA8
//  533 const struct hw_s hw={
hw:
        DB 104
        DATA16
        DW 1024
        DATA8
        DB 118
        DATA16
        DW 340
        DW -521
        DW 256
//  534   0x68,	 //addr
//  535   1024,	 //max_fifo
//  536   118,	 //num_reg
//  537   340,	 //temp_sens
//  538   -521,	 //temp_offset
//  539   256	 //bank_size
//  540 };
//  541 
//  542 //const struct test_s test = {
//  543 //    .gyro_sens      = 32768/250,
//  544 //    .accel_sens     = 32768/16,
//  545 //    .reg_rate_div   = 0,    /* 1kHz. */
//  546 //    .reg_lpf        = 1,    /* 188Hz. */
//  547 //    .reg_gyro_fsr   = 0,    /* 250dps. */
//  548 //    .reg_accel_fsr  = 0x18, /* 16g. */
//  549 //    .wait_ms        = 50,
//  550 //    .packet_thresh  = 5,    /* 5% */
//  551 //    .min_dps        = 10.f,
//  552 //    .max_dps        = 105.f,
//  553 //    .max_gyro_var   = 0.14f,
//  554 //    .min_g          = 0.3f,
//  555 //    .max_g          = 0.95f,
//  556 //    .max_accel_var  = 0.14f
//  557 //};

        RSEG XDATA_ROM_C:CONST:REORDER:NOROOT(0)
        DATA8
//  558 const struct test_s test={
test:
        DATA32
        DD 131
        DD 2048
        DATA8
        DB 0
        DB 1
        DB 0
        DB 24
        DATA16
        DW 50
        DATA8
        DB 5
        DATA32
        DD 41200000H
        DD 42D20000H
        DD 3E0F5C29H
        DD 3E99999AH
        DD 3F733333H
        DD 3E0F5C29H
//  559 32768/250,		 //gyro_sens
//  560 32768/16,		 //	accel_sens
//  561 0,				 //	reg_rate_div
//  562 1,				//	reg_lpf
//  563 0,				 //	reg_gyro_fsr
//  564 0x18,			//	reg_accel_fsr
//  565 50,				//	wait_ms
//  566 5,				//	packet_thresh
//  567 10.0f,			 //	min_dps
//  568 105.0f,			 //	max_dps
//  569 0.14f,			//	max_gyro_var
//  570 0.3f,		   //	min_g
//  571 0.95f,		   //	max_g
//  572 0.14f		   //	max_accel_var
//  573 };
//  574 
//  575 //static struct gyro_state_s st = {
//  576 //    .reg = &reg,
//  577 //    .hw = &hw,
//  578 //    .test = &test
//  579 //};

        RSEG XDATA_I:XDATA:NOROOT(0)
//  580 static struct gyro_state_s st={
st:
        DATA8
        DS 35
        REQUIRE `?<Initializer for st>`
        REQUIRE __INIT_XDATA_I
//  581   &reg,
//  582   &hw,
//  583   {0},
//  584   &test
//  585 };
//  586 
//  587 
//  588 #elif defined MPU6500
//  589 const struct gyro_reg_s reg = {
//  590     .who_am_i       = 0x75,
//  591     .rate_div       = 0x19,
//  592     .lpf            = 0x1A,
//  593     .prod_id        = 0x0C,
//  594     .user_ctrl      = 0x6A,
//  595     .fifo_en        = 0x23,
//  596     .gyro_cfg       = 0x1B,
//  597     .accel_cfg      = 0x1C,
//  598     .accel_cfg2     = 0x1D,
//  599     .lp_accel_odr   = 0x1E,
//  600     .motion_thr     = 0x1F,
//  601     .motion_dur     = 0x20,
//  602     .fifo_count_h   = 0x72,
//  603     .fifo_r_w       = 0x74,
//  604     .raw_gyro       = 0x43,
//  605     .raw_accel      = 0x3B,
//  606     .temp           = 0x41,
//  607     .int_enable     = 0x38,
//  608     .dmp_int_status = 0x39,
//  609     .int_status     = 0x3A,
//  610     .accel_intel    = 0x69,
//  611     .pwr_mgmt_1     = 0x6B,
//  612     .pwr_mgmt_2     = 0x6C,
//  613     .int_pin_cfg    = 0x37,
//  614     .mem_r_w        = 0x6F,
//  615     .accel_offs     = 0x77,
//  616     .i2c_mst        = 0x24,
//  617     .bank_sel       = 0x6D,
//  618     .mem_start_addr = 0x6E,
//  619     .prgm_start_h   = 0x70
//  620 #ifdef AK89xx_SECONDARY
//  621     ,.raw_compass   = 0x49,
//  622     .s0_addr        = 0x25,
//  623     .s0_reg         = 0x26,
//  624     .s0_ctrl        = 0x27,
//  625     .s1_addr        = 0x28,
//  626     .s1_reg         = 0x29,
//  627     .s1_ctrl        = 0x2A,
//  628     .s4_ctrl        = 0x34,
//  629     .s0_do          = 0x63,
//  630     .s1_do          = 0x64,
//  631     .i2c_delay_ctrl = 0x67
//  632 #endif
//  633 };
//  634 const struct hw_s hw = {
//  635     .addr           = 0x68,
//  636     .max_fifo       = 1024,
//  637     .num_reg        = 128,
//  638     .temp_sens      = 321,
//  639     .temp_offset    = 0,
//  640     .bank_size      = 256
//  641 #if defined AK89xx_SECONDARY
//  642     ,.compass_fsr    = AK89xx_FSR
//  643 #endif
//  644 };
//  645 
//  646 const struct test_s test = {
//  647     .gyro_sens      = 32768/250,
//  648     .accel_sens     = 32768/16,
//  649     .reg_rate_div   = 0,    /* 1kHz. */
//  650     .reg_lpf        = 1,    /* 188Hz. */
//  651     .reg_gyro_fsr   = 0,    /* 250dps. */
//  652     .reg_accel_fsr  = 0x18, /* 16g. */
//  653     .wait_ms        = 50,
//  654     .packet_thresh  = 5,    /* 5% */
//  655     .min_dps        = 10.f,
//  656     .max_dps        = 105.f,
//  657     .max_gyro_var   = 0.14f,
//  658     .min_g          = 0.3f,
//  659     .max_g          = 0.95f,
//  660     .max_accel_var  = 0.14f
//  661 };
//  662 
//  663 static struct gyro_state_s st = {
//  664     .reg = &reg,
//  665     .hw = &hw,
//  666     .test = &test
//  667 };
//  668 #endif
//  669 
//  670 #define MAX_PACKET_LENGTH (12)
//  671 
//  672 #ifdef AK89xx_SECONDARY
//  673 static int setup_compass(void);
//  674 #define MAX_COMPASS_SAMPLE_RATE (100)
//  675 #endif
//  676 
//  677 /**
//  678  *  @brief      Enable/disable data ready interrupt.
//  679  *  If the DMP is on, the DMP interrupt is enabled. Otherwise, the data ready
//  680  *  interrupt is used.
//  681  *  @param[in]  enable      1 to enable interrupt.
//  682  *  @return     0 if successful.
//  683  */

        RSEG BANKED_CODE:CODE:NOROOT(0)
//  684 static int set_int_enable(unsigned char enable)
set_int_enable:
        CFI Block cfiBlock0 Using cfiCommon0
        CFI Function set_int_enable
        CODE
//  685 {
        FUNCALL set_int_enable, MPU_Write_Len
        LOCFRAME ISTACK, 0, STACK
        LOCFRAME PSTACK, 0, STACK
        LOCFRAME XSTACK, 10, STACK
        LOCFRAME IOVERLAY, 0, STATIC
        LOCFRAME DOVERLAY, 0, STATIC
        ARGFRAME ISTACK, 0, STACK
        ARGFRAME PSTACK, 0, STACK
        ARGFRAME XSTACK, 10, STACK
        ARGFRAME IOVERLAY, 0, STATIC
        ARGFRAME DOVERLAY, 0, STATIC
        FUNCALL set_int_enable, MPU_Write_Len
        LOCFRAME ISTACK, 0, STACK
        LOCFRAME PSTACK, 0, STACK
        LOCFRAME XSTACK, 10, STACK
        LOCFRAME IOVERLAY, 0, STATIC
        LOCFRAME DOVERLAY, 0, STATIC
        ARGFRAME ISTACK, 0, STACK
        ARGFRAME PSTACK, 0, STACK
        ARGFRAME XSTACK, 10, STACK
        ARGFRAME IOVERLAY, 0, STATIC
        ARGFRAME DOVERLAY, 0, STATIC
        MOV     A,#-0x9
        LCALL   ?BANKED_ENTER_XDATA
        CFI DPH0 load(1, XDATA, add(CFA_XSP16, literal(-1)))
        CFI DPL0 load(1, XDATA, add(CFA_XSP16, literal(-2)))
        CFI ?BRET_EXT load(1, XDATA, add(CFA_XSP16, literal(-3)))
        CFI ?RET_HIGH load(1, XDATA, add(CFA_XSP16, literal(-4)))
        CFI ?RET_LOW load(1, XDATA, add(CFA_XSP16, literal(-5)))
        CFI R7 load(1, XDATA, add(CFA_XSP16, literal(-6)))
        CFI V0 load(1, XDATA, add(CFA_XSP16, literal(-7)))
        CFI VB load(1, XDATA, add(CFA_XSP16, literal(-8)))
        CFI R6 load(1, XDATA, add(CFA_XSP16, literal(-9)))
        CFI CFA_SP SP+0
        CFI CFA_XSP16 add(XSP16, 9)
        ; Saved register size: 9
        ; Auto size: 1
        MOV     A,#-0x1
        LCALL   ?ALLOC_XSTACK8
        CFI CFA_XSP16 add(XSP16, 10)
        MOV     A,R1
        MOV     R6,A
//  686     unsigned char tmp;
//  687 
//  688     if (st.chip_cfg.dmp_on) {
        MOV     DPTR,#st + 29
        MOVX    A,@DPTR
        JZ      ??set_int_enable_0
//  689         if (enable)
        MOV     A,R6
        MOV     DPL,?XSP + 0
        MOV     DPH,?XSP + 1
        JZ      ??set_int_enable_1
//  690             tmp = BIT_DMP_INT_EN;
        MOV     A,#0x2
        SJMP    ??set_int_enable_2
//  691         else
//  692             tmp = 0x00;
??set_int_enable_1:
        CLR     A
??set_int_enable_2:
        MOVX    @DPTR,A
//  693         if (i2c_write(st.hw->addr, st.reg->int_enable, 1, &tmp))
        ; Setup parameters for call to function MPU_Write_Len
        MOV     R4,DPL
        MOV     R5,DPH
        MOV     R3,#0x1
        MOV     DPTR,#st
        MOVX    A,@DPTR
        ADD     A,#0xf
        MOV     R0,A
        INC     DPTR
        MOVX    A,@DPTR
        ADDC    A,#0x0
        MOV     R1,A
        MOV     DPL,R0
        MOV     DPH,R1
        MOVX    A,@DPTR
        MOV     R2,A
        MOV     DPTR,#st + 2
        MOVX    A,@DPTR
        MOV     R0,A
        INC     DPTR
        MOVX    A,@DPTR
        MOV     DPH,A
        MOV     DPL,R0
        MOVX    A,@DPTR
        MOV     R1,A
        LCALL   ??MPU_Write_Len?relay
        MOV     A,R1
        JZ      ??set_int_enable_3
//  694             return -1;
??set_int_enable_4:
        MOV     R2,#-0x1
        MOV     R3,#-0x1
??set_int_enable_5:
        MOV     A,#0x1
        LCALL   ?DEALLOC_XSTACK8
        CFI CFA_XSP16 add(XSP16, 9)
        MOV     R7,#0x1
        LJMP    ?BANKED_LEAVE_XDATA
        CFI CFA_XSP16 add(XSP16, 10)
//  695         st.chip_cfg.int_enable = tmp;
//  696     } else {
//  697         if (!st.chip_cfg.sensors)
??set_int_enable_0:
        MOV     DPTR,#st + 6
        MOVX    A,@DPTR
        JZ      ??set_int_enable_4
//  698             return -1;
//  699         if (enable && st.chip_cfg.int_enable)
        MOV     A,R6
        JZ      ??set_int_enable_6
        MOV     DPTR,#st + 12
        MOVX    A,@DPTR
        JZ      ??set_int_enable_6
//  700             return 0;
??set_int_enable_7:
        MOV     R2,#0x0
        MOV     R3,#0x0
        SJMP    ??set_int_enable_5
//  701         if (enable)
??set_int_enable_6:
        MOV     A,R6
        MOV     DPL,?XSP + 0
        MOV     DPH,?XSP + 1
        JZ      ??set_int_enable_8
//  702             tmp = BIT_DATA_RDY_EN;
        MOV     A,#0x1
        SJMP    ??set_int_enable_9
//  703         else
//  704             tmp = 0x00;
??set_int_enable_8:
        CLR     A
??set_int_enable_9:
        MOVX    @DPTR,A
//  705         if (i2c_write(st.hw->addr, st.reg->int_enable, 1, &tmp))
        ; Setup parameters for call to function MPU_Write_Len
        MOV     R4,DPL
        MOV     R5,DPH
        MOV     R3,#0x1
        MOV     DPTR,#st
        MOVX    A,@DPTR
        ADD     A,#0xf
        MOV     R0,A
        INC     DPTR
        MOVX    A,@DPTR
        ADDC    A,#0x0
        MOV     R1,A
        MOV     DPL,R0
        MOV     DPH,R1
        MOVX    A,@DPTR
        MOV     R2,A
        MOV     DPTR,#st + 2
        MOVX    A,@DPTR
        MOV     R0,A
        INC     DPTR
        MOVX    A,@DPTR
        MOV     DPH,A
        MOV     DPL,R0
        MOVX    A,@DPTR
        MOV     R1,A
        LCALL   ??MPU_Write_Len?relay
        MOV     A,R1
        JNZ     ??set_int_enable_4
//  706             return -1;
//  707         st.chip_cfg.int_enable = tmp;
//  708     }
??set_int_enable_3:
        MOV     DPL,?XSP + 0
        MOV     DPH,?XSP + 1
        MOVX    A,@DPTR
        MOV     DPTR,#st + 12
        MOVX    @DPTR,A
        SJMP    ??set_int_enable_7
        CFI EndBlock cfiBlock0
//  709     return 0;
//  710 }
//  711 
//  712 /**
//  713  *  @brief      Register dump for testing.
//  714  *  @return     0 if successful.
//  715  */

        RSEG BANKED_CODE:CODE:NOROOT(0)
//  716 int mpu_reg_dump(void)
mpu_reg_dump:
        CFI Block cfiBlock1 Using cfiCommon0
        CFI Function mpu_reg_dump
        CODE
//  717 {
        FUNCALL mpu_reg_dump, printf
        LOCFRAME ISTACK, 0, STACK
        LOCFRAME PSTACK, 0, STACK
        LOCFRAME XSTACK, 15, STACK
        LOCFRAME IOVERLAY, 0, STATIC
        LOCFRAME DOVERLAY, 0, STATIC
        ARGFRAME ISTACK, 0, STACK
        ARGFRAME PSTACK, 0, STACK
        ARGFRAME XSTACK, 15, STACK
        ARGFRAME IOVERLAY, 0, STATIC
        ARGFRAME DOVERLAY, 0, STATIC
        FUNCALL mpu_reg_dump, MPU_Read_Len
        LOCFRAME ISTACK, 0, STACK
        LOCFRAME PSTACK, 0, STACK
        LOCFRAME XSTACK, 11, STACK
        LOCFRAME IOVERLAY, 0, STATIC
        LOCFRAME DOVERLAY, 0, STATIC
        ARGFRAME ISTACK, 0, STACK
        ARGFRAME PSTACK, 0, STACK
        ARGFRAME XSTACK, 11, STACK
        ARGFRAME IOVERLAY, 0, STATIC
        ARGFRAME DOVERLAY, 0, STATIC
        MOV     A,#-0xa
        LCALL   ?BANKED_ENTER_XDATA
        CFI DPH0 load(1, XDATA, add(CFA_XSP16, literal(-1)))
        CFI DPL0 load(1, XDATA, add(CFA_XSP16, literal(-2)))
        CFI ?BRET_EXT load(1, XDATA, add(CFA_XSP16, literal(-3)))
        CFI ?RET_HIGH load(1, XDATA, add(CFA_XSP16, literal(-4)))
        CFI ?RET_LOW load(1, XDATA, add(CFA_XSP16, literal(-5)))
        CFI R7 load(1, XDATA, add(CFA_XSP16, literal(-6)))
        CFI V1 load(1, XDATA, add(CFA_XSP16, literal(-7)))
        CFI V0 load(1, XDATA, add(CFA_XSP16, literal(-8)))
        CFI VB load(1, XDATA, add(CFA_XSP16, literal(-9)))
        CFI R6 load(1, XDATA, add(CFA_XSP16, literal(-10)))
        CFI CFA_SP SP+0
        CFI CFA_XSP16 add(XSP16, 10)
        ; Saved register size: 10
        ; Auto size: 1
        MOV     A,#-0x1
        LCALL   ?ALLOC_XSTACK8
        CFI CFA_XSP16 add(XSP16, 11)
//  718     unsigned char ii;
//  719     unsigned char data;
//  720 
//  721     for (ii = 0; ii < st.hw->num_reg; ii++) {
        MOV     R6,#0x0
        SJMP    ??mpu_reg_dump_0
//  722         if (ii == st.reg->fifo_r_w || ii == st.reg->mem_r_w)
//  723             continue;
//  724         if (i2c_read(st.hw->addr, ii, 1, &data))
//  725             return -1;
//  726         log_i("%#5x: %#5x\r\n", ii, data);
??mpu_reg_dump_1:
        ; Setup parameters for call to function printf
        MOV     DPL,?XSP + 0
        MOV     DPH,?XSP + 1
        MOVX    A,@DPTR
        MOV     ?V0 + 0,A
        MOV     ?V0 + 1,#0x0
        MOV     R0,#?V0 + 0
        LCALL   ?PUSH_XSTACK_I_TWO
        CFI CFA_XSP16 add(XSP16, 13)
        MOV     ?V0 + 0,R6
        MOV     R0,#?V0 + 0
        LCALL   ?PUSH_XSTACK_I_TWO
        CFI CFA_XSP16 add(XSP16, 15)
        MOV     R2,#`?<Constant "%#5x: %#5x\\r\\n">` & 0xff
        MOV     R3,#(`?<Constant "%#5x: %#5x\\r\\n">` >> 8) & 0xff
        LCALL   ??printf?relay
        MOV     A,#0x4
        LCALL   ?DEALLOC_XSTACK8
        CFI CFA_XSP16 add(XSP16, 11)
??mpu_reg_dump_2:
        INC     R6
??mpu_reg_dump_0:
        MOV     DPTR,#st + 2
        MOVX    A,@DPTR
        MOV     R0,A
        INC     DPTR
        MOVX    A,@DPTR
        MOV     R1,A
        MOV     DPL,R0
        MOV     DPH,R1
        INC     DPTR
        INC     DPTR
        INC     DPTR
        MOVX    A,@DPTR
        MOV     R2,A
        MOV     A,R6
        CLR     C
        SUBB    A,R2
        JNC     ??mpu_reg_dump_3
        MOV     DPTR,#st
        MOVX    A,@DPTR
        ADD     A,#0xb
        MOV     R2,A
        INC     DPTR
        MOVX    A,@DPTR
        ADDC    A,#0x0
        MOV     R3,A
        MOV     DPL,R2
        MOV     DPH,R3
        MOVX    A,@DPTR
        XRL     A,R6
        JZ      ??mpu_reg_dump_2
        MOV     DPTR,#st
        MOVX    A,@DPTR
        ADD     A,#0x15
        MOV     R2,A
        INC     DPTR
        MOVX    A,@DPTR
        ADDC    A,#0x0
        MOV     R3,A
        MOV     DPL,R2
        MOV     DPH,R3
        MOVX    A,@DPTR
        XRL     A,R6
        JZ      ??mpu_reg_dump_2
        ; Setup parameters for call to function MPU_Read_Len
        MOV     DPL,?XSP + 0
        MOV     DPH,?XSP + 1
        MOV     R4,DPL
        MOV     R5,DPH
        MOV     R3,#0x1
        MOV     A,R6
        MOV     R2,A
        MOV     DPL,R0
        MOV     DPH,R1
        MOVX    A,@DPTR
        MOV     R1,A
        LCALL   ??MPU_Read_Len?relay
        MOV     A,R1
        JZ      ??mpu_reg_dump_1
        MOV     R2,#-0x1
        MOV     R3,#-0x1
        SJMP    ??mpu_reg_dump_4
//  727     }
//  728     return 0;
??mpu_reg_dump_3:
        MOV     R2,#0x0
        MOV     R3,#0x0
??mpu_reg_dump_4:
        MOV     A,#0x1
        LCALL   ?DEALLOC_XSTACK8
        CFI CFA_XSP16 add(XSP16, 10)
        MOV     R7,#0x2
        LJMP    ?BANKED_LEAVE_XDATA
        CFI EndBlock cfiBlock1
//  729 }
//  730 
//  731 /**
//  732  *  @brief      Read from a single register.
//  733  *  NOTE: The memory and FIFO read/write registers cannot be accessed.
//  734  *  @param[in]  reg     Register address.
//  735  *  @param[out] data    Register data.
//  736  *  @return     0 if successful.
//  737  */

        RSEG BANKED_CODE:CODE:NOROOT(0)
//  738 int mpu_read_reg(unsigned char reg, unsigned char *data)
mpu_read_reg:
        CFI Block cfiBlock2 Using cfiCommon0
        CFI Function mpu_read_reg
        CODE
//  739 {
        FUNCALL mpu_read_reg, MPU_Read_Len
        LOCFRAME ISTACK, 0, STACK
        LOCFRAME PSTACK, 0, STACK
        LOCFRAME XSTACK, 9, STACK
        LOCFRAME IOVERLAY, 0, STATIC
        LOCFRAME DOVERLAY, 0, STATIC
        ARGFRAME ISTACK, 0, STACK
        ARGFRAME PSTACK, 0, STACK
        ARGFRAME XSTACK, 9, STACK
        ARGFRAME IOVERLAY, 0, STATIC
        ARGFRAME DOVERLAY, 0, STATIC
        MOV     A,#-0x9
        LCALL   ?BANKED_ENTER_XDATA
        CFI DPH0 load(1, XDATA, add(CFA_XSP16, literal(-1)))
        CFI DPL0 load(1, XDATA, add(CFA_XSP16, literal(-2)))
        CFI ?BRET_EXT load(1, XDATA, add(CFA_XSP16, literal(-3)))
        CFI ?RET_HIGH load(1, XDATA, add(CFA_XSP16, literal(-4)))
        CFI ?RET_LOW load(1, XDATA, add(CFA_XSP16, literal(-5)))
        CFI R7 load(1, XDATA, add(CFA_XSP16, literal(-6)))
        CFI V0 load(1, XDATA, add(CFA_XSP16, literal(-7)))
        CFI VB load(1, XDATA, add(CFA_XSP16, literal(-8)))
        CFI R6 load(1, XDATA, add(CFA_XSP16, literal(-9)))
        CFI CFA_SP SP+0
        CFI CFA_XSP16 add(XSP16, 9)
        ; Saved register size: 9
        ; Auto size: 0
        MOV     A,R1
        MOV     R6,A
        MOV     A,R2
        MOV     R4,A
        MOV     A,R3
        MOV     R5,A
//  740     if (reg == st.reg->fifo_r_w || reg == st.reg->mem_r_w)
        MOV     DPTR,#st
        MOVX    A,@DPTR
        ADD     A,#0xb
        MOV     R0,A
        INC     DPTR
        MOVX    A,@DPTR
        ADDC    A,#0x0
        MOV     R1,A
        MOV     DPL,R0
        MOV     DPH,R1
        MOVX    A,@DPTR
        XRL     A,R6
        JZ      ??mpu_read_reg_0
        MOV     DPTR,#st
        MOVX    A,@DPTR
        ADD     A,#0x15
        MOV     R0,A
        INC     DPTR
        MOVX    A,@DPTR
        ADDC    A,#0x0
        MOV     R1,A
        MOV     DPL,R0
        MOV     DPH,R1
        MOVX    A,@DPTR
        XRL     A,R6
        JNZ     ??mpu_read_reg_1
//  741         return -1;
??mpu_read_reg_0:
        MOV     R2,#-0x1
        MOV     R3,#-0x1
        SJMP    ??mpu_read_reg_2
//  742     if (reg >= st.hw->num_reg)
??mpu_read_reg_1:
        MOV     DPTR,#st + 2
        MOVX    A,@DPTR
        MOV     R0,A
        INC     DPTR
        MOVX    A,@DPTR
        MOV     R1,A
        MOV     DPL,R0
        MOV     DPH,R1
        INC     DPTR
        INC     DPTR
        INC     DPTR
        MOVX    A,@DPTR
        MOV     R2,A
        MOV     A,R6
        CLR     C
        SUBB    A,R2
        JNC     ??mpu_read_reg_0
//  743         return -1;
//  744     return i2c_read(st.hw->addr, reg, 1, data);
        ; Setup parameters for call to function MPU_Read_Len
        MOV     R3,#0x1
        MOV     A,R6
        MOV     R2,A
        MOV     DPL,R0
        MOV     DPH,R1
        MOVX    A,@DPTR
        MOV     R1,A
        LCALL   ??MPU_Read_Len?relay
        MOV     ?V0 + 0,R1
        MOV     R2,?V0 + 0
        MOV     R3,#0x0
??mpu_read_reg_2:
        MOV     R7,#0x1
        LJMP    ?BANKED_LEAVE_XDATA
        CFI EndBlock cfiBlock2
//  745 }
//  746 
//  747 /**
//  748  *  @brief      Initialize hardware.
//  749  *  Initial configuration:\n
//  750  *  Gyro FSR: +/- 2000DPS\n
//  751  *  Accel FSR +/- 2G\n
//  752  *  DLPF: 42Hz\n
//  753  *  FIFO rate: 50Hz\n
//  754  *  Clock source: Gyro PLL\n
//  755  *  FIFO: Disabled.\n
//  756  *  Data ready interrupt: Disabled, active low, unlatched.
//  757  *  @param[in]  int_param   Platform-specific parameters to interrupt API.
//  758  *  @return     0 if successful.
//  759  */

        RSEG BANKED_CODE:CODE:NOROOT(0)
//  760 int mpu_init(void)
mpu_init:
        CFI Block cfiBlock3 Using cfiCommon0
        CFI Function mpu_init
        CODE
//  761 {
        FUNCALL mpu_init, MPU_Write_Len
        LOCFRAME ISTACK, 0, STACK
        LOCFRAME PSTACK, 0, STACK
        LOCFRAME XSTACK, 16, STACK
        LOCFRAME IOVERLAY, 0, STATIC
        LOCFRAME DOVERLAY, 0, STATIC
        ARGFRAME ISTACK, 0, STACK
        ARGFRAME PSTACK, 0, STACK
        ARGFRAME XSTACK, 16, STACK
        ARGFRAME IOVERLAY, 0, STATIC
        ARGFRAME DOVERLAY, 0, STATIC
        FUNCALL mpu_init, delay_ms
        LOCFRAME ISTACK, 0, STACK
        LOCFRAME PSTACK, 0, STACK
        LOCFRAME XSTACK, 16, STACK
        LOCFRAME IOVERLAY, 0, STATIC
        LOCFRAME DOVERLAY, 0, STATIC
        ARGFRAME ISTACK, 0, STACK
        ARGFRAME PSTACK, 0, STACK
        ARGFRAME XSTACK, 16, STACK
        ARGFRAME IOVERLAY, 0, STATIC
        ARGFRAME DOVERLAY, 0, STATIC
        FUNCALL mpu_init, MPU_Write_Len
        LOCFRAME ISTACK, 0, STACK
        LOCFRAME PSTACK, 0, STACK
        LOCFRAME XSTACK, 16, STACK
        LOCFRAME IOVERLAY, 0, STATIC
        LOCFRAME DOVERLAY, 0, STATIC
        ARGFRAME ISTACK, 0, STACK
        ARGFRAME PSTACK, 0, STACK
        ARGFRAME XSTACK, 16, STACK
        ARGFRAME IOVERLAY, 0, STATIC
        ARGFRAME DOVERLAY, 0, STATIC
        FUNCALL mpu_init, MPU_Read_Len
        LOCFRAME ISTACK, 0, STACK
        LOCFRAME PSTACK, 0, STACK
        LOCFRAME XSTACK, 16, STACK
        LOCFRAME IOVERLAY, 0, STATIC
        LOCFRAME DOVERLAY, 0, STATIC
        ARGFRAME ISTACK, 0, STACK
        ARGFRAME PSTACK, 0, STACK
        ARGFRAME XSTACK, 16, STACK
        ARGFRAME IOVERLAY, 0, STATIC
        ARGFRAME DOVERLAY, 0, STATIC
        FUNCALL mpu_init, printf
        LOCFRAME ISTACK, 0, STACK
        LOCFRAME PSTACK, 0, STACK
        LOCFRAME XSTACK, 18, STACK
        LOCFRAME IOVERLAY, 0, STATIC
        LOCFRAME DOVERLAY, 0, STATIC
        ARGFRAME ISTACK, 0, STACK
        ARGFRAME PSTACK, 0, STACK
        ARGFRAME XSTACK, 18, STACK
        ARGFRAME IOVERLAY, 0, STATIC
        ARGFRAME DOVERLAY, 0, STATIC
        FUNCALL mpu_init, MPU_Read_Len
        LOCFRAME ISTACK, 0, STACK
        LOCFRAME PSTACK, 0, STACK
        LOCFRAME XSTACK, 16, STACK
        LOCFRAME IOVERLAY, 0, STATIC
        LOCFRAME DOVERLAY, 0, STATIC
        ARGFRAME ISTACK, 0, STACK
        ARGFRAME PSTACK, 0, STACK
        ARGFRAME XSTACK, 16, STACK
        ARGFRAME IOVERLAY, 0, STATIC
        ARGFRAME DOVERLAY, 0, STATIC
        FUNCALL mpu_init, printf
        LOCFRAME ISTACK, 0, STACK
        LOCFRAME PSTACK, 0, STACK
        LOCFRAME XSTACK, 16, STACK
        LOCFRAME IOVERLAY, 0, STATIC
        LOCFRAME DOVERLAY, 0, STATIC
        ARGFRAME ISTACK, 0, STACK
        ARGFRAME PSTACK, 0, STACK
        ARGFRAME XSTACK, 16, STACK
        ARGFRAME IOVERLAY, 0, STATIC
        ARGFRAME DOVERLAY, 0, STATIC
        FUNCALL mpu_init, printf
        LOCFRAME ISTACK, 0, STACK
        LOCFRAME PSTACK, 0, STACK
        LOCFRAME XSTACK, 16, STACK
        LOCFRAME IOVERLAY, 0, STATIC
        LOCFRAME DOVERLAY, 0, STATIC
        ARGFRAME ISTACK, 0, STACK
        ARGFRAME PSTACK, 0, STACK
        ARGFRAME XSTACK, 16, STACK
        ARGFRAME IOVERLAY, 0, STATIC
        ARGFRAME DOVERLAY, 0, STATIC
        FUNCALL mpu_init, memset
        LOCFRAME ISTACK, 0, STACK
        LOCFRAME PSTACK, 0, STACK
        LOCFRAME XSTACK, 18, STACK
        LOCFRAME IOVERLAY, 0, STATIC
        LOCFRAME DOVERLAY, 0, STATIC
        ARGFRAME ISTACK, 0, STACK
        ARGFRAME PSTACK, 0, STACK
        ARGFRAME XSTACK, 18, STACK
        ARGFRAME IOVERLAY, 0, STATIC
        ARGFRAME DOVERLAY, 0, STATIC
        FUNCALL mpu_init, mpu_set_gyro_fsr
        LOCFRAME ISTACK, 0, STACK
        LOCFRAME PSTACK, 0, STACK
        LOCFRAME XSTACK, 16, STACK
        LOCFRAME IOVERLAY, 0, STATIC
        LOCFRAME DOVERLAY, 0, STATIC
        ARGFRAME ISTACK, 0, STACK
        ARGFRAME PSTACK, 0, STACK
        ARGFRAME XSTACK, 16, STACK
        ARGFRAME IOVERLAY, 0, STATIC
        ARGFRAME DOVERLAY, 0, STATIC
        FUNCALL mpu_init, mpu_set_accel_fsr
        LOCFRAME ISTACK, 0, STACK
        LOCFRAME PSTACK, 0, STACK
        LOCFRAME XSTACK, 16, STACK
        LOCFRAME IOVERLAY, 0, STATIC
        LOCFRAME DOVERLAY, 0, STATIC
        ARGFRAME ISTACK, 0, STACK
        ARGFRAME PSTACK, 0, STACK
        ARGFRAME XSTACK, 16, STACK
        ARGFRAME IOVERLAY, 0, STATIC
        ARGFRAME DOVERLAY, 0, STATIC
        FUNCALL mpu_init, mpu_set_lpf
        LOCFRAME ISTACK, 0, STACK
        LOCFRAME PSTACK, 0, STACK
        LOCFRAME XSTACK, 16, STACK
        LOCFRAME IOVERLAY, 0, STATIC
        LOCFRAME DOVERLAY, 0, STATIC
        ARGFRAME ISTACK, 0, STACK
        ARGFRAME PSTACK, 0, STACK
        ARGFRAME XSTACK, 16, STACK
        ARGFRAME IOVERLAY, 0, STATIC
        ARGFRAME DOVERLAY, 0, STATIC
        FUNCALL mpu_init, mpu_set_sample_rate
        LOCFRAME ISTACK, 0, STACK
        LOCFRAME PSTACK, 0, STACK
        LOCFRAME XSTACK, 16, STACK
        LOCFRAME IOVERLAY, 0, STATIC
        LOCFRAME DOVERLAY, 0, STATIC
        ARGFRAME ISTACK, 0, STACK
        ARGFRAME PSTACK, 0, STACK
        ARGFRAME XSTACK, 16, STACK
        ARGFRAME IOVERLAY, 0, STATIC
        ARGFRAME DOVERLAY, 0, STATIC
        FUNCALL mpu_init, mpu_configure_fifo
        LOCFRAME ISTACK, 0, STACK
        LOCFRAME PSTACK, 0, STACK
        LOCFRAME XSTACK, 16, STACK
        LOCFRAME IOVERLAY, 0, STATIC
        LOCFRAME DOVERLAY, 0, STATIC
        ARGFRAME ISTACK, 0, STACK
        ARGFRAME PSTACK, 0, STACK
        ARGFRAME XSTACK, 16, STACK
        ARGFRAME IOVERLAY, 0, STATIC
        ARGFRAME DOVERLAY, 0, STATIC
        FUNCALL mpu_init, mpu_set_bypass
        LOCFRAME ISTACK, 0, STACK
        LOCFRAME PSTACK, 0, STACK
        LOCFRAME XSTACK, 16, STACK
        LOCFRAME IOVERLAY, 0, STATIC
        LOCFRAME DOVERLAY, 0, STATIC
        ARGFRAME ISTACK, 0, STACK
        ARGFRAME PSTACK, 0, STACK
        ARGFRAME XSTACK, 16, STACK
        ARGFRAME IOVERLAY, 0, STATIC
        ARGFRAME DOVERLAY, 0, STATIC
        FUNCALL mpu_init, mpu_set_sensors
        LOCFRAME ISTACK, 0, STACK
        LOCFRAME PSTACK, 0, STACK
        LOCFRAME XSTACK, 16, STACK
        LOCFRAME IOVERLAY, 0, STATIC
        LOCFRAME DOVERLAY, 0, STATIC
        ARGFRAME ISTACK, 0, STACK
        ARGFRAME PSTACK, 0, STACK
        ARGFRAME XSTACK, 16, STACK
        ARGFRAME IOVERLAY, 0, STATIC
        ARGFRAME DOVERLAY, 0, STATIC
        MOV     A,#-0xa
        LCALL   ?BANKED_ENTER_XDATA
        CFI DPH0 load(1, XDATA, add(CFA_XSP16, literal(-1)))
        CFI DPL0 load(1, XDATA, add(CFA_XSP16, literal(-2)))
        CFI ?BRET_EXT load(1, XDATA, add(CFA_XSP16, literal(-3)))
        CFI ?RET_HIGH load(1, XDATA, add(CFA_XSP16, literal(-4)))
        CFI ?RET_LOW load(1, XDATA, add(CFA_XSP16, literal(-5)))
        CFI R7 load(1, XDATA, add(CFA_XSP16, literal(-6)))
        CFI V1 load(1, XDATA, add(CFA_XSP16, literal(-7)))
        CFI V0 load(1, XDATA, add(CFA_XSP16, literal(-8)))
        CFI VB load(1, XDATA, add(CFA_XSP16, literal(-9)))
        CFI R6 load(1, XDATA, add(CFA_XSP16, literal(-10)))
        CFI CFA_SP SP+0
        CFI CFA_XSP16 add(XSP16, 10)
        ; Saved register size: 10
        ; Auto size: 6
        MOV     A,#-0x6
        LCALL   ?ALLOC_XSTACK8
        CFI CFA_XSP16 add(XSP16, 16)
//  762     unsigned char data[6], rev;
//  763 
//  764     /* Reset device. */
//  765     data[0] = BIT_RESET;
        MOV     DPL,?XSP + 0
        MOV     DPH,?XSP + 1
        MOV     A,#-0x80
        MOVX    @DPTR,A
//  766     if (i2c_write(st.hw->addr, st.reg->pwr_mgmt_1, 1, data))
        ; Setup parameters for call to function MPU_Write_Len
        MOV     R4,DPL
        MOV     R5,DPH
        MOV     R3,#0x1
        MOV     DPTR,#st
        MOVX    A,@DPTR
        ADD     A,#0x12
        MOV     R0,A
        INC     DPTR
        MOVX    A,@DPTR
        ADDC    A,#0x0
        MOV     R1,A
        MOV     DPL,R0
        MOV     DPH,R1
        MOVX    A,@DPTR
        MOV     R2,A
        MOV     DPTR,#st + 2
        MOVX    A,@DPTR
        MOV     R0,A
        INC     DPTR
        MOVX    A,@DPTR
        MOV     DPH,A
        MOV     DPL,R0
        MOVX    A,@DPTR
        MOV     R1,A
        LCALL   ??MPU_Write_Len?relay
        MOV     A,R1
        JZ      ??mpu_init_0
//  767         return -1;
??mpu_init_1:
        MOV     R2,#-0x1
        MOV     R3,#-0x1
        LJMP    ??mpu_init_2 & 0xFFFF
//  768     delay_ms(100);
??mpu_init_0:
        ; Setup parameters for call to function delay_ms
        MOV     DPTR,#__Constant_64
        LCALL   ?XLOAD_R2345
        LCALL   ??delay_ms?relay
//  769 
//  770     /* Wake up chip. */
//  771     data[0] = 0x00;
        MOV     DPL,?XSP + 0
        MOV     DPH,?XSP + 1
        CLR     A
        MOVX    @DPTR,A
//  772     if (i2c_write(st.hw->addr, st.reg->pwr_mgmt_1, 1, data))
        ; Setup parameters for call to function MPU_Write_Len
        MOV     R4,DPL
        MOV     R5,DPH
        MOV     R3,#0x1
        MOV     DPTR,#st
        MOVX    A,@DPTR
        ADD     A,#0x12
        MOV     R0,A
        INC     DPTR
        MOVX    A,@DPTR
        ADDC    A,#0x0
        MOV     R1,A
        MOV     DPL,R0
        MOV     DPH,R1
        MOVX    A,@DPTR
        MOV     R2,A
        MOV     DPTR,#st + 2
        MOVX    A,@DPTR
        MOV     R0,A
        INC     DPTR
        MOVX    A,@DPTR
        MOV     DPH,A
        MOV     DPL,R0
        MOVX    A,@DPTR
        MOV     R1,A
        LCALL   ??MPU_Write_Len?relay
        MOV     A,R1
        JNZ     ??mpu_init_1
//  773         return -1;
//  774 
//  775 #if defined MPU6050
//  776     /* Check product revision. */
//  777     if (i2c_read(st.hw->addr, st.reg->accel_offs, 6, data))
        ; Setup parameters for call to function MPU_Read_Len
        MOV     DPL,?XSP + 0
        MOV     DPH,?XSP + 1
        MOV     R4,DPL
        MOV     R5,DPH
        MOV     R3,#0x6
        MOV     DPTR,#st
        MOVX    A,@DPTR
        ADD     A,#0x16
        MOV     R0,A
        INC     DPTR
        MOVX    A,@DPTR
        ADDC    A,#0x0
        MOV     R1,A
        MOV     DPL,R0
        MOV     DPH,R1
        MOVX    A,@DPTR
        MOV     R2,A
        MOV     DPTR,#st + 2
        MOVX    A,@DPTR
        MOV     R0,A
        INC     DPTR
        MOVX    A,@DPTR
        MOV     DPH,A
        MOV     DPL,R0
        MOVX    A,@DPTR
        MOV     R1,A
        LCALL   ??MPU_Read_Len?relay
        MOV     A,R1
        JNZ     ??mpu_init_1
//  778         return -1;
//  779     rev = ((data[5] & 0x01) << 2) | ((data[3] & 0x01) << 1) |
//  780         (data[1] & 0x01);
        MOV     A,#0x1
        LCALL   ?XSTACK_DISP0_8
        MOVX    A,@DPTR
        MOV     C,0xE0 /* A   */.0
        CLR     A
        RLC     A
        MOV     R1,A
        MOV     A,#0x3
        LCALL   ?XSTACK_DISP0_8
        MOVX    A,@DPTR
        MOV     C,0xE0 /* A   */.0
        CLR     A
        RLC     A
        RLC     A
        MOV     R0,A
        MOV     A,#0x5
        LCALL   ?XSTACK_DISP0_8
        MOVX    A,@DPTR
        MOV     C,0xE0 /* A   */.0
        CLR     A
        RLC     A
        RLC     A
        RLC     A
        ORL     A,R0
        ORL     A,R1
        MOV     ?V0 + 0,A
//  781 
//  782     if (rev) {
        JZ      ??mpu_init_3
//  783         /* Congrats, these parts are better. */
//  784         if (rev == 1)
        MOV     A,#0x1
        XRL     A,?V0 + 0
        JZ      ??mpu_init_4
//  785             st.chip_cfg.accel_half = 1;
//  786         else if (rev == 2)
        MOV     A,#0x2
        XRL     A,?V0 + 0
        JNZ     ??mpu_init_5
//  787             st.chip_cfg.accel_half = 0;
??mpu_init_6:
        MOV     DPTR,#st + 14
        CLR     A
        SJMP    ??mpu_init_7
//  788         else {
//  789             log_e("Unsupported software product rev %d.\n", rev);
??mpu_init_5:
        ; Setup parameters for call to function printf
        MOV     ?V0 + 1,#0x0
        MOV     R0,#?V0 + 0
        LCALL   ?PUSH_XSTACK_I_TWO
        CFI CFA_XSP16 add(XSP16, 18)
        MOV     R2,#`?<Constant "Unsupported software ...">` & 0xff
        MOV     R3,#(`?<Constant "Unsupported software ...">` >> 8) & 0xff
        LCALL   ??printf?relay
        MOV     A,#0x2
        LCALL   ?DEALLOC_XSTACK8
        CFI CFA_XSP16 add(XSP16, 16)
//  790             return -1;
        LJMP    ??mpu_init_1 & 0xFFFF
//  791         }
//  792     } else {
//  793         if (i2c_read(st.hw->addr, st.reg->prod_id, 1, data))
??mpu_init_3:
        ; Setup parameters for call to function MPU_Read_Len
        MOV     DPL,?XSP + 0
        MOV     DPH,?XSP + 1
        MOV     R4,DPL
        MOV     R5,DPH
        MOV     R3,#0x1
        MOV     DPTR,#st
        MOVX    A,@DPTR
        MOV     R0,A
        INC     DPTR
        MOVX    A,@DPTR
        MOV     DPH,A
        MOV     DPL,R0
        INC     DPTR
        INC     DPTR
        INC     DPTR
        MOVX    A,@DPTR
        MOV     R2,A
        MOV     DPTR,#st + 2
        MOVX    A,@DPTR
        MOV     R0,A
        INC     DPTR
        MOVX    A,@DPTR
        MOV     DPH,A
        MOV     DPL,R0
        MOVX    A,@DPTR
        MOV     R1,A
        LCALL   ??MPU_Read_Len?relay
        MOV     A,R1
        JZ      $+5
        LJMP    ??mpu_init_1 & 0xFFFF
//  794             return -1;
//  795         rev = data[0] & 0x0F;
        MOV     DPL,?XSP + 0
        MOV     DPH,?XSP + 1
        MOVX    A,@DPTR
        ANL     A,#0xf
        MOV     ?V0 + 0,A
//  796         if (!rev) {
        JNZ     ??mpu_init_8
//  797             log_e("Product ID read as 0 indicates device is either "
//  798                 "incompatible or an MPU3050.\n");
        ; Setup parameters for call to function printf
        MOV     R2,#`?<Constant "Product ID read as 0 ...">` & 0xff
        MOV     R3,#(`?<Constant "Product ID read as 0 ...">` >> 8) & 0xff
        LCALL   ??printf?relay
//  799             return -1;
        LJMP    ??mpu_init_1 & 0xFFFF
//  800         } else if (rev == 4) {
??mpu_init_8:
        MOV     A,#0x4
        XRL     A,?V0 + 0
        JNZ     ??mpu_init_6
//  801             log_i("Half sensitivity part found.\n");
        ; Setup parameters for call to function printf
        MOV     R2,#`?<Constant "Half sensitivity part...">` & 0xff
        MOV     R3,#(`?<Constant "Half sensitivity part...">` >> 8) & 0xff
        LCALL   ??printf?relay
//  802             st.chip_cfg.accel_half = 1;
??mpu_init_4:
        MOV     DPTR,#st + 14
        MOV     A,#0x1
??mpu_init_7:
        MOVX    @DPTR,A
//  803         } else
//  804             st.chip_cfg.accel_half = 0;
//  805     }
//  806 #elif defined MPU6500
//  807 #define MPU6500_MEM_REV_ADDR    (0x17)
//  808     if (mpu_read_mem(MPU6500_MEM_REV_ADDR, 1, &rev))
//  809         return -1;
//  810     if (rev == 0x1)
//  811         st.chip_cfg.accel_half = 0;
//  812     else {
//  813         log_e("Unsupported software product rev %d.\n", rev);
//  814         return -1;
//  815     }
//  816 
//  817     /* MPU6500 shares 4kB of memory between the DMP and the FIFO. Since the
//  818      * first 3kB are needed by the DMP, we'll use the last 1kB for the FIFO.
//  819      */
//  820     data[0] = BIT_FIFO_SIZE_1024 | 0x8;
//  821     if (i2c_write(st.hw->addr, st.reg->accel_cfg2, 1, data))
//  822         return -1;
//  823 #endif
//  824 
//  825     /* Set to invalid values to ensure no I2C writes are skipped. */
//  826     st.chip_cfg.sensors = 0xFF;
        MOV     DPTR,#st + 6
        MOV     A,#-0x1
        MOVX    @DPTR,A
//  827     st.chip_cfg.gyro_fsr = 0xFF;
        MOV     DPTR,#st + 4
        MOVX    @DPTR,A
//  828     st.chip_cfg.accel_fsr = 0xFF;
        INC     DPTR
        MOVX    @DPTR,A
//  829     st.chip_cfg.lpf = 0xFF;
        MOV     DPTR,#st + 7
        MOVX    @DPTR,A
//  830     st.chip_cfg.sample_rate = 0xFFFF;
        MOV     DPTR,#st + 9
        MOVX    @DPTR,A
        INC     DPTR
        MOVX    @DPTR,A
//  831     st.chip_cfg.fifo_enable = 0xFF;
        INC     DPTR
        MOVX    @DPTR,A
//  832     st.chip_cfg.bypass_mode = 0xFF;
        MOV     DPTR,#st + 13
        MOVX    @DPTR,A
//  833 #ifdef AK89xx_SECONDARY
//  834     st.chip_cfg.compass_sample_rate = 0xFFFF;
//  835 #endif
//  836     /* mpu_set_sensors always preserves this setting. */
//  837     st.chip_cfg.clk_src = INV_CLK_PLL;
        MOV     DPTR,#st + 8
        MOV     A,#0x1
        MOVX    @DPTR,A
//  838     /* Handled in next call to mpu_set_bypass. */
//  839     st.chip_cfg.active_low_int = 1;
        MOV     DPTR,#st + 27
        MOVX    @DPTR,A
//  840     st.chip_cfg.latched_int = 0;
        INC     DPTR
        CLR     A
        MOVX    @DPTR,A
//  841     st.chip_cfg.int_motion_only = 0;
        MOV     DPTR,#st + 16
        MOVX    @DPTR,A
//  842     st.chip_cfg.lp_accel_mode = 0;
        MOV     DPTR,#st + 15
        MOVX    @DPTR,A
//  843     memset(&st.chip_cfg.cache, 0, sizeof(st.chip_cfg.cache));
        ; Setup parameters for call to function memset
        MOV     ?V0 + 0,#0xa
        MOV     ?V0 + 1,A
        MOV     R0,#?V0 + 0
        LCALL   ?PUSH_XSTACK_I_TWO
        CFI CFA_XSP16 add(XSP16, 18)
        MOV     R4,#0x0
        MOV     R5,#0x0
        MOV     R2,#(st + 17) & 0xff
        MOV     R3,#((st + 17) >> 8) & 0xff
        LCALL   ??memset?relay
        MOV     A,#0x2
        LCALL   ?DEALLOC_XSTACK8
        CFI CFA_XSP16 add(XSP16, 16)
//  844     st.chip_cfg.dmp_on = 0;
        MOV     DPTR,#st + 29
        CLR     A
        MOVX    @DPTR,A
//  845     st.chip_cfg.dmp_loaded = 0;
        INC     DPTR
        MOVX    @DPTR,A
//  846     st.chip_cfg.dmp_sample_rate = 0;
        INC     DPTR
        MOVX    @DPTR,A
        INC     DPTR
        MOVX    @DPTR,A
//  847 
//  848     if (mpu_set_gyro_fsr(2000))
        ; Setup parameters for call to function mpu_set_gyro_fsr
        MOV     R2,#-0x30
        MOV     R3,#0x7
        LCALL   ??mpu_set_gyro_fsr?relay
        MOV     ?V0 + 1,R3
        MOV     A,R2
        ORL     A,?V0 + 1
        JZ      $+5
        LJMP    ??mpu_init_1 & 0xFFFF
//  849         return -1;
//  850     if (mpu_set_accel_fsr(2))
        ; Setup parameters for call to function mpu_set_accel_fsr
        MOV     R1,#0x2
        LCALL   ??mpu_set_accel_fsr?relay
        MOV     ?V0 + 1,R3
        MOV     A,R2
        ORL     A,?V0 + 1
        JZ      $+5
        LJMP    ??mpu_init_1 & 0xFFFF
//  851         return -1;
//  852     if (mpu_set_lpf(42))
        ; Setup parameters for call to function mpu_set_lpf
        MOV     R2,#0x2a
        MOV     R3,#0x0
        LCALL   ??mpu_set_lpf?relay
        MOV     ?V0 + 1,R3
        MOV     A,R2
        ORL     A,?V0 + 1
        JZ      $+5
        LJMP    ??mpu_init_1 & 0xFFFF
//  853         return -1;
//  854     if (mpu_set_sample_rate(50))
        ; Setup parameters for call to function mpu_set_sample_rate
        MOV     R2,#0x32
        MOV     R3,#0x0
        LCALL   ??mpu_set_sample_rate?relay
        MOV     ?V0 + 1,R3
        MOV     A,R2
        ORL     A,?V0 + 1
        JZ      $+5
        LJMP    ??mpu_init_1 & 0xFFFF
//  855         return -1;
//  856     if (mpu_configure_fifo(0))
        ; Setup parameters for call to function mpu_configure_fifo
        MOV     R1,#0x0
        LCALL   ??mpu_configure_fifo?relay
        MOV     ?V0 + 1,R3
        MOV     A,R2
        ORL     A,?V0 + 1
        JZ      $+5
        LJMP    ??mpu_init_1 & 0xFFFF
//  857         return -1;
//  858 
//  859 //    if (int_param)
//  860 //        reg_int_cb(int_param);
//  861 
//  862 #ifdef AK89xx_SECONDARY
//  863     setup_compass();
//  864     if (mpu_set_compass_sample_rate(10))
//  865         return -1;
//  866 #else
//  867     /* Already disabled by setup_compass. */
//  868     if (mpu_set_bypass(0))
        ; Setup parameters for call to function mpu_set_bypass
        MOV     R1,#0x0
        LCALL   ??mpu_set_bypass?relay
        MOV     ?V0 + 1,R3
        MOV     A,R2
        ORL     A,?V0 + 1
        JZ      $+5
        LJMP    ??mpu_init_1 & 0xFFFF
//  869         return -1;
//  870 #endif
//  871 
//  872     mpu_set_sensors(0);
        ; Setup parameters for call to function mpu_set_sensors
        MOV     R1,#0x0
        LCALL   ??mpu_set_sensors?relay
//  873     return 0;
        MOV     R2,#0x0
        MOV     R3,#0x0
??mpu_init_2:
        MOV     A,#0x6
        LCALL   ?DEALLOC_XSTACK8
        CFI CFA_XSP16 add(XSP16, 10)
        MOV     R7,#0x2
        LJMP    ?BANKED_LEAVE_XDATA
        CFI EndBlock cfiBlock3
//  874 }
//  875 
//  876 /**
//  877  *  @brief      Enter low-power accel-only mode.
//  878  *  In low-power accel mode, the chip goes to sleep and only wakes up to sample
//  879  *  the accelerometer at one of the following frequencies:
//  880  *  \n MPU6050: 1.25Hz, 5Hz, 20Hz, 40Hz
//  881  *  \n MPU6500: 1.25Hz, 2.5Hz, 5Hz, 10Hz, 20Hz, 40Hz, 80Hz, 160Hz, 320Hz, 640Hz
//  882  *  \n If the requested rate is not one listed above, the device will be set to
//  883  *  the next highest rate. Requesting a rate above the maximum supported
//  884  *  frequency will result in an error.
//  885  *  \n To select a fractional wake-up frequency, round down the value passed to
//  886  *  @e rate.
//  887  *  @param[in]  rate        Minimum sampling rate, or zero to disable LP
//  888  *                          accel mode.
//  889  *  @return     0 if successful.
//  890  */

        RSEG BANKED_CODE:CODE:NOROOT(0)
//  891 int mpu_lp_accel_mode(unsigned char rate)
mpu_lp_accel_mode:
        CFI Block cfiBlock4 Using cfiCommon0
        CFI Function mpu_lp_accel_mode
        CODE
//  892 {
        FUNCALL mpu_lp_accel_mode, mpu_set_int_latched
        LOCFRAME ISTACK, 0, STACK
        LOCFRAME PSTACK, 0, STACK
        LOCFRAME XSTACK, 11, STACK
        LOCFRAME IOVERLAY, 0, STATIC
        LOCFRAME DOVERLAY, 0, STATIC
        ARGFRAME ISTACK, 0, STACK
        ARGFRAME PSTACK, 0, STACK
        ARGFRAME XSTACK, 11, STACK
        ARGFRAME IOVERLAY, 0, STATIC
        ARGFRAME DOVERLAY, 0, STATIC
        FUNCALL mpu_lp_accel_mode, MPU_Write_Len
        LOCFRAME ISTACK, 0, STACK
        LOCFRAME PSTACK, 0, STACK
        LOCFRAME XSTACK, 11, STACK
        LOCFRAME IOVERLAY, 0, STATIC
        LOCFRAME DOVERLAY, 0, STATIC
        ARGFRAME ISTACK, 0, STACK
        ARGFRAME PSTACK, 0, STACK
        ARGFRAME XSTACK, 11, STACK
        ARGFRAME IOVERLAY, 0, STATIC
        ARGFRAME DOVERLAY, 0, STATIC
        FUNCALL mpu_lp_accel_mode, mpu_set_int_latched
        LOCFRAME ISTACK, 0, STACK
        LOCFRAME PSTACK, 0, STACK
        LOCFRAME XSTACK, 11, STACK
        LOCFRAME IOVERLAY, 0, STATIC
        LOCFRAME DOVERLAY, 0, STATIC
        ARGFRAME ISTACK, 0, STACK
        ARGFRAME PSTACK, 0, STACK
        ARGFRAME XSTACK, 11, STACK
        ARGFRAME IOVERLAY, 0, STATIC
        ARGFRAME DOVERLAY, 0, STATIC
        FUNCALL mpu_lp_accel_mode, mpu_set_lpf
        LOCFRAME ISTACK, 0, STACK
        LOCFRAME PSTACK, 0, STACK
        LOCFRAME XSTACK, 11, STACK
        LOCFRAME IOVERLAY, 0, STATIC
        LOCFRAME DOVERLAY, 0, STATIC
        ARGFRAME ISTACK, 0, STACK
        ARGFRAME PSTACK, 0, STACK
        ARGFRAME XSTACK, 11, STACK
        ARGFRAME IOVERLAY, 0, STATIC
        ARGFRAME DOVERLAY, 0, STATIC
        FUNCALL mpu_lp_accel_mode, mpu_set_lpf
        LOCFRAME ISTACK, 0, STACK
        LOCFRAME PSTACK, 0, STACK
        LOCFRAME XSTACK, 11, STACK
        LOCFRAME IOVERLAY, 0, STATIC
        LOCFRAME DOVERLAY, 0, STATIC
        ARGFRAME ISTACK, 0, STACK
        ARGFRAME PSTACK, 0, STACK
        ARGFRAME XSTACK, 11, STACK
        ARGFRAME IOVERLAY, 0, STATIC
        ARGFRAME DOVERLAY, 0, STATIC
        FUNCALL mpu_lp_accel_mode, mpu_set_lpf
        LOCFRAME ISTACK, 0, STACK
        LOCFRAME PSTACK, 0, STACK
        LOCFRAME XSTACK, 11, STACK
        LOCFRAME IOVERLAY, 0, STATIC
        LOCFRAME DOVERLAY, 0, STATIC
        ARGFRAME ISTACK, 0, STACK
        ARGFRAME PSTACK, 0, STACK
        ARGFRAME XSTACK, 11, STACK
        ARGFRAME IOVERLAY, 0, STATIC
        ARGFRAME DOVERLAY, 0, STATIC
        FUNCALL mpu_lp_accel_mode, mpu_set_lpf
        LOCFRAME ISTACK, 0, STACK
        LOCFRAME PSTACK, 0, STACK
        LOCFRAME XSTACK, 11, STACK
        LOCFRAME IOVERLAY, 0, STATIC
        LOCFRAME DOVERLAY, 0, STATIC
        ARGFRAME ISTACK, 0, STACK
        ARGFRAME PSTACK, 0, STACK
        ARGFRAME XSTACK, 11, STACK
        ARGFRAME IOVERLAY, 0, STATIC
        ARGFRAME DOVERLAY, 0, STATIC
        FUNCALL mpu_lp_accel_mode, MPU_Write_Len
        LOCFRAME ISTACK, 0, STACK
        LOCFRAME PSTACK, 0, STACK
        LOCFRAME XSTACK, 11, STACK
        LOCFRAME IOVERLAY, 0, STATIC
        LOCFRAME DOVERLAY, 0, STATIC
        ARGFRAME ISTACK, 0, STACK
        ARGFRAME PSTACK, 0, STACK
        ARGFRAME XSTACK, 11, STACK
        ARGFRAME IOVERLAY, 0, STATIC
        ARGFRAME DOVERLAY, 0, STATIC
        FUNCALL mpu_lp_accel_mode, mpu_configure_fifo
        LOCFRAME ISTACK, 0, STACK
        LOCFRAME PSTACK, 0, STACK
        LOCFRAME XSTACK, 11, STACK
        LOCFRAME IOVERLAY, 0, STATIC
        LOCFRAME DOVERLAY, 0, STATIC
        ARGFRAME ISTACK, 0, STACK
        ARGFRAME PSTACK, 0, STACK
        ARGFRAME XSTACK, 11, STACK
        ARGFRAME IOVERLAY, 0, STATIC
        ARGFRAME DOVERLAY, 0, STATIC
        MOV     A,#-0x9
        LCALL   ?BANKED_ENTER_XDATA
        CFI DPH0 load(1, XDATA, add(CFA_XSP16, literal(-1)))
        CFI DPL0 load(1, XDATA, add(CFA_XSP16, literal(-2)))
        CFI ?BRET_EXT load(1, XDATA, add(CFA_XSP16, literal(-3)))
        CFI ?RET_HIGH load(1, XDATA, add(CFA_XSP16, literal(-4)))
        CFI ?RET_LOW load(1, XDATA, add(CFA_XSP16, literal(-5)))
        CFI R7 load(1, XDATA, add(CFA_XSP16, literal(-6)))
        CFI V0 load(1, XDATA, add(CFA_XSP16, literal(-7)))
        CFI VB load(1, XDATA, add(CFA_XSP16, literal(-8)))
        CFI R6 load(1, XDATA, add(CFA_XSP16, literal(-9)))
        CFI CFA_SP SP+0
        CFI CFA_XSP16 add(XSP16, 9)
        ; Saved register size: 9
        ; Auto size: 2
        MOV     A,#-0x2
        LCALL   ?ALLOC_XSTACK8
        CFI CFA_XSP16 add(XSP16, 11)
        MOV     A,R1
        MOV     R6,A
//  893     unsigned char tmp[2];
//  894 
//  895     if (rate > 40)
        CLR     C
        SUBB    A,#0x29
        JC      ??mpu_lp_accel_mode_0
//  896         return -1;
??mpu_lp_accel_mode_1:
        MOV     R2,#-0x1
        MOV     R3,#-0x1
        LJMP    ??mpu_lp_accel_mode_2 & 0xFFFF
//  897 
//  898     if (!rate) {
??mpu_lp_accel_mode_0:
        MOV     A,R6
        JNZ     ??mpu_lp_accel_mode_3
//  899         mpu_set_int_latched(0);
        ; Setup parameters for call to function mpu_set_int_latched
        MOV     R1,#0x0
        LCALL   ??mpu_set_int_latched?relay
//  900         tmp[0] = 0;
        MOV     DPL,?XSP + 0
        MOV     DPH,?XSP + 1
        CLR     A
        MOVX    @DPTR,A
//  901         tmp[1] = BIT_STBY_XYZG;
        INC     A
        LCALL   ?XSTACK_DISP0_8
        MOV     A,#0x7
        MOVX    @DPTR,A
//  902         if (i2c_write(st.hw->addr, st.reg->pwr_mgmt_1, 2, tmp))
        ; Setup parameters for call to function MPU_Write_Len
        MOV     DPL,?XSP + 0
        MOV     DPH,?XSP + 1
        MOV     R4,DPL
        MOV     R5,DPH
        MOV     R3,#0x2
        MOV     DPTR,#st
        MOVX    A,@DPTR
        ADD     A,#0x12
        MOV     R0,A
        INC     DPTR
        MOVX    A,@DPTR
        ADDC    A,#0x0
        MOV     R1,A
        MOV     DPL,R0
        MOV     DPH,R1
        MOVX    A,@DPTR
        MOV     R2,A
        MOV     DPTR,#st + 2
        MOVX    A,@DPTR
        MOV     R0,A
        INC     DPTR
        MOVX    A,@DPTR
        MOV     DPH,A
        MOV     DPL,R0
        MOVX    A,@DPTR
        MOV     R1,A
        LCALL   ??MPU_Write_Len?relay
        MOV     A,R1
        JNZ     ??mpu_lp_accel_mode_1
//  903             return -1;
//  904         st.chip_cfg.lp_accel_mode = 0;
        MOV     DPTR,#st + 15
        CLR     A
        MOVX    @DPTR,A
//  905         return 0;
        MOV     R2,A
        MOV     R3,A
        LJMP    ??mpu_lp_accel_mode_2 & 0xFFFF
//  906     }
//  907     /* For LP accel, we automatically configure the hardware to produce latched
//  908      * interrupts. In LP accel mode, the hardware cycles into sleep mode before
//  909      * it gets a chance to deassert the interrupt pin; therefore, we shift this
//  910      * responsibility over to the MCU.
//  911      *
//  912      * Any register read will clear the interrupt.
//  913      */
//  914     mpu_set_int_latched(1);
??mpu_lp_accel_mode_3:
        ; Setup parameters for call to function mpu_set_int_latched
        MOV     R1,#0x1
        LCALL   ??mpu_set_int_latched?relay
//  915 #if defined MPU6050
//  916     tmp[0] = BIT_LPA_CYCLE;
        MOV     DPL,?XSP + 0
        MOV     DPH,?XSP + 1
        MOV     A,#0x20
        MOVX    @DPTR,A
//  917     if (rate == 1) {
        MOV     A,#0x1
        XRL     A,R6
        JNZ     ??mpu_lp_accel_mode_4
//  918         tmp[1] = INV_LPA_1_25HZ;
        MOV     A,#0x1
        LCALL   ?XSTACK_DISP0_8
        CLR     A
        MOVX    @DPTR,A
//  919         mpu_set_lpf(5);
        ; Setup parameters for call to function mpu_set_lpf
        MOV     R2,#0x5
        MOV     R3,A
        SJMP    ??mpu_lp_accel_mode_5
//  920     } else if (rate <= 5) {
??mpu_lp_accel_mode_4:
        MOV     A,R6
        CLR     C
        SUBB    A,#0x6
        JNC     ??mpu_lp_accel_mode_6
//  921         tmp[1] = INV_LPA_5HZ;
        MOV     A,#0x1
        LCALL   ?XSTACK_DISP0_8
        MOV     A,#0x1
        MOVX    @DPTR,A
//  922         mpu_set_lpf(5);
        ; Setup parameters for call to function mpu_set_lpf
        MOV     R2,#0x5
        SJMP    ??mpu_lp_accel_mode_7
//  923     } else if (rate <= 20) {
??mpu_lp_accel_mode_6:
        MOV     A,R6
        CLR     C
        SUBB    A,#0x15
        MOV     A,#0x1
        JNC     ??mpu_lp_accel_mode_8
//  924         tmp[1] = INV_LPA_20HZ;
        LCALL   ?XSTACK_DISP0_8
        MOV     A,#0x2
        MOVX    @DPTR,A
//  925         mpu_set_lpf(10);
        ; Setup parameters for call to function mpu_set_lpf
        MOV     R2,#0xa
        SJMP    ??mpu_lp_accel_mode_7
//  926     } else {
//  927         tmp[1] = INV_LPA_40HZ;
??mpu_lp_accel_mode_8:
        LCALL   ?XSTACK_DISP0_8
        MOV     A,#0x3
        MOVX    @DPTR,A
//  928         mpu_set_lpf(20);
        ; Setup parameters for call to function mpu_set_lpf
        MOV     R2,#0x14
??mpu_lp_accel_mode_7:
        MOV     R3,#0x0
??mpu_lp_accel_mode_5:
        LCALL   ??mpu_set_lpf?relay
//  929     }
//  930     tmp[1] = (tmp[1] << 6) | BIT_STBY_XYZG;
        MOV     A,#0x1
        LCALL   ?XSTACK_DISP0_8
        MOVX    A,@DPTR
        SWAP    A
        RLC     A
        RLC     A
        ANL     A,#0xc0
        ORL     A,#0x7
        MOVX    @DPTR,A
//  931     if (i2c_write(st.hw->addr, st.reg->pwr_mgmt_1, 2, tmp))
        ; Setup parameters for call to function MPU_Write_Len
        MOV     DPL,?XSP + 0
        MOV     DPH,?XSP + 1
        MOV     R4,DPL
        MOV     R5,DPH
        MOV     R3,#0x2
        MOV     DPTR,#st
        MOVX    A,@DPTR
        ADD     A,#0x12
        MOV     R0,A
        INC     DPTR
        MOVX    A,@DPTR
        ADDC    A,#0x0
        MOV     R1,A
        MOV     DPL,R0
        MOV     DPH,R1
        MOVX    A,@DPTR
        MOV     R2,A
        MOV     DPTR,#st + 2
        MOVX    A,@DPTR
        MOV     R0,A
        INC     DPTR
        MOVX    A,@DPTR
        MOV     DPH,A
        MOV     DPL,R0
        MOVX    A,@DPTR
        MOV     R1,A
        LCALL   ??MPU_Write_Len?relay
        MOV     A,R1
        JZ      $+5
        LJMP    ??mpu_lp_accel_mode_1 & 0xFFFF
//  932         return -1;
//  933 #elif defined MPU6500
//  934     /* Set wake frequency. */
//  935     if (rate == 1)
//  936         tmp[0] = INV_LPA_1_25HZ;
//  937     else if (rate == 2)
//  938         tmp[0] = INV_LPA_2_5HZ;
//  939     else if (rate <= 5)
//  940         tmp[0] = INV_LPA_5HZ;
//  941     else if (rate <= 10)
//  942         tmp[0] = INV_LPA_10HZ;
//  943     else if (rate <= 20)
//  944         tmp[0] = INV_LPA_20HZ;
//  945     else if (rate <= 40)
//  946         tmp[0] = INV_LPA_40HZ;
//  947     else if (rate <= 80)
//  948         tmp[0] = INV_LPA_80HZ;
//  949     else if (rate <= 160)
//  950         tmp[0] = INV_LPA_160HZ;
//  951     else if (rate <= 320)
//  952         tmp[0] = INV_LPA_320HZ;
//  953     else
//  954         tmp[0] = INV_LPA_640HZ;
//  955     if (i2c_write(st.hw->addr, st.reg->lp_accel_odr, 1, tmp))
//  956         return -1;
//  957     tmp[0] = BIT_LPA_CYCLE;
//  958     if (i2c_write(st.hw->addr, st.reg->pwr_mgmt_1, 1, tmp))
//  959         return -1;
//  960 #endif
//  961     st.chip_cfg.sensors = INV_XYZ_ACCEL;
        MOV     DPTR,#st + 6
        MOV     A,#0x8
        MOVX    @DPTR,A
//  962     st.chip_cfg.clk_src = 0;
        MOV     DPTR,#st + 8
        CLR     A
        MOVX    @DPTR,A
//  963     st.chip_cfg.lp_accel_mode = 1;
        MOV     DPTR,#st + 15
        INC     A
        MOVX    @DPTR,A
//  964     mpu_configure_fifo(0);
        ; Setup parameters for call to function mpu_configure_fifo
        MOV     R1,#0x0
        LCALL   ??mpu_configure_fifo?relay
//  965 
//  966     return 0;
        MOV     R2,#0x0
        MOV     R3,#0x0
??mpu_lp_accel_mode_2:
        MOV     A,#0x2
        LCALL   ?DEALLOC_XSTACK8
        CFI CFA_XSP16 add(XSP16, 9)
        MOV     R7,#0x1
        LJMP    ?BANKED_LEAVE_XDATA
        CFI EndBlock cfiBlock4
//  967 }
//  968 
//  969 /**
//  970  *  @brief      Read raw gyro data directly from the registers.
//  971  *  @param[out] data        Raw data in hardware units.
//  972  *  @param[out] timestamp   Timestamp in milliseconds. Null if not needed.
//  973  *  @return     0 if successful.
//  974  */

        RSEG BANKED_CODE:CODE:NOROOT(0)
//  975 int mpu_get_gyro_reg(short *data, unsigned long *timestamp)
mpu_get_gyro_reg:
        CFI Block cfiBlock5 Using cfiCommon0
        CFI Function mpu_get_gyro_reg
        CODE
//  976 {
        FUNCALL mpu_get_gyro_reg, MPU_Read_Len
        LOCFRAME ISTACK, 0, STACK
        LOCFRAME PSTACK, 0, STACK
        LOCFRAME XSTACK, 16, STACK
        LOCFRAME IOVERLAY, 0, STATIC
        LOCFRAME DOVERLAY, 0, STATIC
        ARGFRAME ISTACK, 0, STACK
        ARGFRAME PSTACK, 0, STACK
        ARGFRAME XSTACK, 16, STACK
        ARGFRAME IOVERLAY, 0, STATIC
        ARGFRAME DOVERLAY, 0, STATIC
        FUNCALL mpu_get_gyro_reg, mget_ms
        LOCFRAME ISTACK, 0, STACK
        LOCFRAME PSTACK, 0, STACK
        LOCFRAME XSTACK, 16, STACK
        LOCFRAME IOVERLAY, 0, STATIC
        LOCFRAME DOVERLAY, 0, STATIC
        ARGFRAME ISTACK, 0, STACK
        ARGFRAME PSTACK, 0, STACK
        ARGFRAME XSTACK, 16, STACK
        ARGFRAME IOVERLAY, 0, STATIC
        ARGFRAME DOVERLAY, 0, STATIC
        MOV     A,#-0xa
        LCALL   ?BANKED_ENTER_XDATA
        CFI DPH0 load(1, XDATA, add(CFA_XSP16, literal(-1)))
        CFI DPL0 load(1, XDATA, add(CFA_XSP16, literal(-2)))
        CFI ?BRET_EXT load(1, XDATA, add(CFA_XSP16, literal(-3)))
        CFI ?RET_HIGH load(1, XDATA, add(CFA_XSP16, literal(-4)))
        CFI ?RET_LOW load(1, XDATA, add(CFA_XSP16, literal(-5)))
        CFI R7 load(1, XDATA, add(CFA_XSP16, literal(-6)))
        CFI V1 load(1, XDATA, add(CFA_XSP16, literal(-7)))
        CFI V0 load(1, XDATA, add(CFA_XSP16, literal(-8)))
        CFI VB load(1, XDATA, add(CFA_XSP16, literal(-9)))
        CFI R6 load(1, XDATA, add(CFA_XSP16, literal(-10)))
        CFI CFA_SP SP+0
        CFI CFA_XSP16 add(XSP16, 10)
        ; Saved register size: 10
        ; Auto size: 6
        MOV     A,#-0x6
        LCALL   ?ALLOC_XSTACK8
        CFI CFA_XSP16 add(XSP16, 16)
        MOV     A,R2
        MOV     R6,A
        MOV     A,R3
        MOV     R7,A
        MOV     ?V0 + 0,R4
        MOV     ?V0 + 1,R5
//  977     unsigned char tmp[6];
//  978 
//  979     if (!(st.chip_cfg.sensors & INV_XYZ_GYRO))
        MOV     DPTR,#st + 6
        MOVX    A,@DPTR
        ANL     A,#0x70
        JNZ     ??mpu_get_gyro_reg_0
//  980         return -1;
??mpu_get_gyro_reg_1:
        MOV     R2,#-0x1
        MOV     R3,#-0x1
        LJMP    ??mpu_get_gyro_reg_2 & 0xFFFF
//  981 
//  982     if (i2c_read(st.hw->addr, st.reg->raw_gyro, 6, tmp))
??mpu_get_gyro_reg_0:
        ; Setup parameters for call to function MPU_Read_Len
        MOV     DPL,?XSP + 0
        MOV     DPH,?XSP + 1
        MOV     R4,DPL
        MOV     R5,DPH
        MOV     R3,#0x6
        MOV     DPTR,#st
        MOVX    A,@DPTR
        ADD     A,#0xc
        MOV     R0,A
        INC     DPTR
        MOVX    A,@DPTR
        ADDC    A,#0x0
        MOV     R1,A
        MOV     DPL,R0
        MOV     DPH,R1
        MOVX    A,@DPTR
        MOV     R2,A
        MOV     DPTR,#st + 2
        MOVX    A,@DPTR
        MOV     R0,A
        INC     DPTR
        MOVX    A,@DPTR
        MOV     DPH,A
        MOV     DPL,R0
        MOVX    A,@DPTR
        MOV     R1,A
        LCALL   ??MPU_Read_Len?relay
        MOV     A,R1
        JNZ     ??mpu_get_gyro_reg_1
//  983         return -1;
//  984     data[0] = (tmp[0] << 8) | tmp[1];
        MOV     DPL,?XSP + 0
        MOV     DPH,?XSP + 1
        MOVX    A,@DPTR
        MOV     R1,A
        MOV     A,#0x1
        LCALL   ?XSTACK_DISP0_8
        MOVX    A,@DPTR
        MOV     DPL,R6
        MOV     DPH,R7
        MOVX    @DPTR,A
        INC     DPTR
        MOV     A,R1
        MOVX    @DPTR,A
//  985     data[1] = (tmp[2] << 8) | tmp[3];
        MOV     A,#0x2
        LCALL   ?XSTACK_DISP0_8
        MOVX    A,@DPTR
        MOV     R1,A
        MOV     A,#0x3
        LCALL   ?XSTACK_DISP0_8
        MOVX    A,@DPTR
        MOV     DPL,R6
        MOV     DPH,R7
        INC     DPTR
        INC     DPTR
        MOVX    @DPTR,A
        INC     DPTR
        MOV     A,R1
        MOVX    @DPTR,A
//  986     data[2] = (tmp[4] << 8) | tmp[5];
        MOV     A,#0x4
        LCALL   ?XSTACK_DISP0_8
        MOVX    A,@DPTR
        MOV     R1,A
        MOV     A,#0x5
        LCALL   ?XSTACK_DISP0_8
        MOVX    A,@DPTR
        MOV     DPL,R6
        MOV     DPH,R7
        INC     DPTR
        INC     DPTR
        INC     DPTR
        INC     DPTR
        MOVX    @DPTR,A
        INC     DPTR
        MOV     A,R1
        MOVX    @DPTR,A
//  987     if (timestamp)
        MOV     A,?V0 + 0
        ORL     A,?V0 + 1
        JZ      ??mpu_get_gyro_reg_3
//  988         get_ms(timestamp);
        ; Setup parameters for call to function mget_ms
        MOV     R2,?V0 + 0
        MOV     R3,?V0 + 1
        LCALL   ??mget_ms?relay
//  989     return 0;
??mpu_get_gyro_reg_3:
        MOV     R2,#0x0
        MOV     R3,#0x0
??mpu_get_gyro_reg_2:
        MOV     A,#0x6
        LCALL   ?DEALLOC_XSTACK8
        CFI CFA_XSP16 add(XSP16, 10)
        MOV     R7,#0x2
        LJMP    ?BANKED_LEAVE_XDATA
        CFI EndBlock cfiBlock5
//  990 }
//  991 
//  992 /**
//  993  *  @brief      Read raw accel data directly from the registers.
//  994  *  @param[out] data        Raw data in hardware units.
//  995  *  @param[out] timestamp   Timestamp in milliseconds. Null if not needed.
//  996  *  @return     0 if successful.
//  997  */

        RSEG BANKED_CODE:CODE:NOROOT(0)
//  998 int mpu_get_accel_reg(short *data, unsigned long *timestamp)
mpu_get_accel_reg:
        CFI Block cfiBlock6 Using cfiCommon0
        CFI Function mpu_get_accel_reg
        CODE
//  999 {
        FUNCALL mpu_get_accel_reg, MPU_Read_Len
        LOCFRAME ISTACK, 0, STACK
        LOCFRAME PSTACK, 0, STACK
        LOCFRAME XSTACK, 16, STACK
        LOCFRAME IOVERLAY, 0, STATIC
        LOCFRAME DOVERLAY, 0, STATIC
        ARGFRAME ISTACK, 0, STACK
        ARGFRAME PSTACK, 0, STACK
        ARGFRAME XSTACK, 16, STACK
        ARGFRAME IOVERLAY, 0, STATIC
        ARGFRAME DOVERLAY, 0, STATIC
        FUNCALL mpu_get_accel_reg, mget_ms
        LOCFRAME ISTACK, 0, STACK
        LOCFRAME PSTACK, 0, STACK
        LOCFRAME XSTACK, 16, STACK
        LOCFRAME IOVERLAY, 0, STATIC
        LOCFRAME DOVERLAY, 0, STATIC
        ARGFRAME ISTACK, 0, STACK
        ARGFRAME PSTACK, 0, STACK
        ARGFRAME XSTACK, 16, STACK
        ARGFRAME IOVERLAY, 0, STATIC
        ARGFRAME DOVERLAY, 0, STATIC
        MOV     A,#-0xa
        LCALL   ?BANKED_ENTER_XDATA
        CFI DPH0 load(1, XDATA, add(CFA_XSP16, literal(-1)))
        CFI DPL0 load(1, XDATA, add(CFA_XSP16, literal(-2)))
        CFI ?BRET_EXT load(1, XDATA, add(CFA_XSP16, literal(-3)))
        CFI ?RET_HIGH load(1, XDATA, add(CFA_XSP16, literal(-4)))
        CFI ?RET_LOW load(1, XDATA, add(CFA_XSP16, literal(-5)))
        CFI R7 load(1, XDATA, add(CFA_XSP16, literal(-6)))
        CFI V1 load(1, XDATA, add(CFA_XSP16, literal(-7)))
        CFI V0 load(1, XDATA, add(CFA_XSP16, literal(-8)))
        CFI VB load(1, XDATA, add(CFA_XSP16, literal(-9)))
        CFI R6 load(1, XDATA, add(CFA_XSP16, literal(-10)))
        CFI CFA_SP SP+0
        CFI CFA_XSP16 add(XSP16, 10)
        ; Saved register size: 10
        ; Auto size: 6
        MOV     A,#-0x6
        LCALL   ?ALLOC_XSTACK8
        CFI CFA_XSP16 add(XSP16, 16)
        MOV     A,R2
        MOV     R6,A
        MOV     A,R3
        MOV     R7,A
        MOV     ?V0 + 0,R4
        MOV     ?V0 + 1,R5
// 1000     unsigned char tmp[6];
// 1001 
// 1002     if (!(st.chip_cfg.sensors & INV_XYZ_ACCEL))
        MOV     DPTR,#st + 6
        MOVX    A,@DPTR
        MOV     C,0xE0 /* A   */.3
        JC      ??mpu_get_accel_reg_0
// 1003         return -1;
??mpu_get_accel_reg_1:
        MOV     R2,#-0x1
        MOV     R3,#-0x1
        LJMP    ??mpu_get_accel_reg_2 & 0xFFFF
// 1004 
// 1005     if (i2c_read(st.hw->addr, st.reg->raw_accel, 6, tmp))
??mpu_get_accel_reg_0:
        ; Setup parameters for call to function MPU_Read_Len
        MOV     DPL,?XSP + 0
        MOV     DPH,?XSP + 1
        MOV     R4,DPL
        MOV     R5,DPH
        MOV     R3,#0x6
        MOV     DPTR,#st
        MOVX    A,@DPTR
        ADD     A,#0xd
        MOV     R0,A
        INC     DPTR
        MOVX    A,@DPTR
        ADDC    A,#0x0
        MOV     R1,A
        MOV     DPL,R0
        MOV     DPH,R1
        MOVX    A,@DPTR
        MOV     R2,A
        MOV     DPTR,#st + 2
        MOVX    A,@DPTR
        MOV     R0,A
        INC     DPTR
        MOVX    A,@DPTR
        MOV     DPH,A
        MOV     DPL,R0
        MOVX    A,@DPTR
        MOV     R1,A
        LCALL   ??MPU_Read_Len?relay
        MOV     A,R1
        JNZ     ??mpu_get_accel_reg_1
// 1006         return -1;
// 1007     data[0] = (tmp[0] << 8) | tmp[1];
        MOV     DPL,?XSP + 0
        MOV     DPH,?XSP + 1
        MOVX    A,@DPTR
        MOV     R1,A
        MOV     A,#0x1
        LCALL   ?XSTACK_DISP0_8
        MOVX    A,@DPTR
        MOV     DPL,R6
        MOV     DPH,R7
        MOVX    @DPTR,A
        INC     DPTR
        MOV     A,R1
        MOVX    @DPTR,A
// 1008     data[1] = (tmp[2] << 8) | tmp[3];
        MOV     A,#0x2
        LCALL   ?XSTACK_DISP0_8
        MOVX    A,@DPTR
        MOV     R1,A
        MOV     A,#0x3
        LCALL   ?XSTACK_DISP0_8
        MOVX    A,@DPTR
        MOV     DPL,R6
        MOV     DPH,R7
        INC     DPTR
        INC     DPTR
        MOVX    @DPTR,A
        INC     DPTR
        MOV     A,R1
        MOVX    @DPTR,A
// 1009     data[2] = (tmp[4] << 8) | tmp[5];
        MOV     A,#0x4
        LCALL   ?XSTACK_DISP0_8
        MOVX    A,@DPTR
        MOV     R1,A
        MOV     A,#0x5
        LCALL   ?XSTACK_DISP0_8
        MOVX    A,@DPTR
        MOV     DPL,R6
        MOV     DPH,R7
        INC     DPTR
        INC     DPTR
        INC     DPTR
        INC     DPTR
        MOVX    @DPTR,A
        INC     DPTR
        MOV     A,R1
        MOVX    @DPTR,A
// 1010     if (timestamp)
        MOV     A,?V0 + 0
        ORL     A,?V0 + 1
        JZ      ??mpu_get_accel_reg_3
// 1011         get_ms(timestamp);
        ; Setup parameters for call to function mget_ms
        MOV     R2,?V0 + 0
        MOV     R3,?V0 + 1
        LCALL   ??mget_ms?relay
// 1012     return 0;
??mpu_get_accel_reg_3:
        MOV     R2,#0x0
        MOV     R3,#0x0
??mpu_get_accel_reg_2:
        MOV     A,#0x6
        LCALL   ?DEALLOC_XSTACK8
        CFI CFA_XSP16 add(XSP16, 10)
        MOV     R7,#0x2
        LJMP    ?BANKED_LEAVE_XDATA
        CFI EndBlock cfiBlock6
// 1013 }
// 1014 
// 1015 /**
// 1016  *  @brief      Read temperature data directly from the registers.
// 1017  *  @param[out] data        Data in q16 format.
// 1018  *  @param[out] timestamp   Timestamp in milliseconds. Null if not needed.
// 1019  *  @return     0 if successful.
// 1020  */

        RSEG BANKED_CODE:CODE:NOROOT(0)
// 1021 int mpu_get_temperature(long *data, unsigned long *timestamp)
mpu_get_temperature:
        CFI Block cfiBlock7 Using cfiCommon0
        CFI Function mpu_get_temperature
        CODE
// 1022 {
        FUNCALL mpu_get_temperature, MPU_Read_Len
        LOCFRAME ISTACK, 0, STACK
        LOCFRAME PSTACK, 0, STACK
        LOCFRAME XSTACK, 22, STACK
        LOCFRAME IOVERLAY, 0, STATIC
        LOCFRAME DOVERLAY, 0, STATIC
        ARGFRAME ISTACK, 0, STACK
        ARGFRAME PSTACK, 0, STACK
        ARGFRAME XSTACK, 22, STACK
        ARGFRAME IOVERLAY, 0, STATIC
        ARGFRAME DOVERLAY, 0, STATIC
        FUNCALL mpu_get_temperature, mget_ms
        LOCFRAME ISTACK, 0, STACK
        LOCFRAME PSTACK, 0, STACK
        LOCFRAME XSTACK, 22, STACK
        LOCFRAME IOVERLAY, 0, STATIC
        LOCFRAME DOVERLAY, 0, STATIC
        ARGFRAME ISTACK, 0, STACK
        ARGFRAME PSTACK, 0, STACK
        ARGFRAME XSTACK, 22, STACK
        ARGFRAME IOVERLAY, 0, STATIC
        ARGFRAME DOVERLAY, 0, STATIC
        MOV     A,#-0x14
        LCALL   ?BANKED_ENTER_XDATA
        CFI DPH0 load(1, XDATA, add(CFA_XSP16, literal(-1)))
        CFI DPL0 load(1, XDATA, add(CFA_XSP16, literal(-2)))
        CFI ?BRET_EXT load(1, XDATA, add(CFA_XSP16, literal(-3)))
        CFI ?RET_HIGH load(1, XDATA, add(CFA_XSP16, literal(-4)))
        CFI ?RET_LOW load(1, XDATA, add(CFA_XSP16, literal(-5)))
        CFI R7 load(1, XDATA, add(CFA_XSP16, literal(-6)))
        CFI V11 load(1, XDATA, add(CFA_XSP16, literal(-7)))
        CFI V10 load(1, XDATA, add(CFA_XSP16, literal(-8)))
        CFI V9 load(1, XDATA, add(CFA_XSP16, literal(-9)))
        CFI V8 load(1, XDATA, add(CFA_XSP16, literal(-10)))
        CFI V7 load(1, XDATA, add(CFA_XSP16, literal(-11)))
        CFI V6 load(1, XDATA, add(CFA_XSP16, literal(-12)))
        CFI V5 load(1, XDATA, add(CFA_XSP16, literal(-13)))
        CFI V4 load(1, XDATA, add(CFA_XSP16, literal(-14)))
        CFI V3 load(1, XDATA, add(CFA_XSP16, literal(-15)))
        CFI V2 load(1, XDATA, add(CFA_XSP16, literal(-16)))
        CFI V1 load(1, XDATA, add(CFA_XSP16, literal(-17)))
        CFI V0 load(1, XDATA, add(CFA_XSP16, literal(-18)))
        CFI VB load(1, XDATA, add(CFA_XSP16, literal(-19)))
        CFI R6 load(1, XDATA, add(CFA_XSP16, literal(-20)))
        CFI CFA_SP SP+0
        CFI CFA_XSP16 add(XSP16, 20)
        ; Saved register size: 20
        ; Auto size: 2
        MOV     A,#-0x2
        LCALL   ?ALLOC_XSTACK8
        CFI CFA_XSP16 add(XSP16, 22)
        MOV     ?V0 + 0,R2
        MOV     ?V0 + 1,R3
        MOV     A,R4
        MOV     R6,A
        MOV     A,R5
        MOV     R7,A
// 1023     unsigned char tmp[2];
// 1024     short raw;
// 1025 
// 1026     if (!(st.chip_cfg.sensors))
        MOV     DPTR,#st + 6
        MOVX    A,@DPTR
        JNZ     ??mpu_get_temperature_0
// 1027         return -1;
??mpu_get_temperature_1:
        MOV     R2,#-0x1
        MOV     R3,#-0x1
        LJMP    ??mpu_get_temperature_2 & 0xFFFF
// 1028 
// 1029     if (i2c_read(st.hw->addr, st.reg->temp, 2, tmp))
??mpu_get_temperature_0:
        ; Setup parameters for call to function MPU_Read_Len
        MOV     DPL,?XSP + 0
        MOV     DPH,?XSP + 1
        MOV     R4,DPL
        MOV     R5,DPH
        MOV     R3,#0x2
        MOV     DPTR,#st
        MOVX    A,@DPTR
        ADD     A,#0xe
        MOV     R0,A
        INC     DPTR
        MOVX    A,@DPTR
        ADDC    A,#0x0
        MOV     R1,A
        MOV     DPL,R0
        MOV     DPH,R1
        MOVX    A,@DPTR
        MOV     R2,A
        MOV     DPTR,#st + 2
        MOVX    A,@DPTR
        MOV     R0,A
        INC     DPTR
        MOVX    A,@DPTR
        MOV     DPH,A
        MOV     DPL,R0
        MOVX    A,@DPTR
        MOV     R1,A
        LCALL   ??MPU_Read_Len?relay
        MOV     A,R1
        JNZ     ??mpu_get_temperature_1
// 1030         return -1;
// 1031     raw = (tmp[0] << 8) | tmp[1];
        MOV     DPL,?XSP + 0
        MOV     DPH,?XSP + 1
        MOVX    A,@DPTR
        MOV     R1,A
        MOV     A,#0x1
        LCALL   ?XSTACK_DISP0_8
        MOVX    A,@DPTR
        MOV     ?V0 + 4,A
        MOV     A,R1
        MOV     ?V0 + 5,A
// 1032     if (timestamp)
        MOV     A,R6
        ORL     A,R7
        JZ      ??mpu_get_temperature_3
// 1033         get_ms(timestamp);
        ; Setup parameters for call to function mget_ms
        MOV     A,R6
        MOV     R2,A
        MOV     A,R7
        MOV     R3,A
        LCALL   ??mget_ms?relay
// 1034 
// 1035     data[0] = (long)((35 + ((raw - (float)st.hw->temp_offset) / st.hw->temp_sens)) * 65536L);
??mpu_get_temperature_3:
        MOV     DPTR,#st + 2
        MOVX    A,@DPTR
        MOV     R0,A
        INC     DPTR
        MOVX    A,@DPTR
        MOV     R1,A
        MOV     A,R0
        MOV     R2,A
        MOV     A,R1
        MOV     R3,A
        MOV     A,?V0 + 5
        RLC     A
        SUBB    A,0xE0 /* A   */
        MOV     ?V0 + 6,A
        MOV     ?V0 + 7,A
        MOV     R0,#?V0 + 4
        LCALL   ?L_TO_FLT
        MOV     DPL,R2
        MOV     DPH,R3
        INC     DPTR
        INC     DPTR
        INC     DPTR
        INC     DPTR
        INC     DPTR
        INC     DPTR
        MOVX    A,@DPTR
        MOV     ?V0 + 8,A
        INC     DPTR
        MOVX    A,@DPTR
        MOV     ?V0 + 9,A
        RLC     A
        SUBB    A,0xE0 /* A   */
        MOV     ?V0 + 10,A
        MOV     ?V0 + 11,A
        MOV     R0,#?V0 + 8
        LCALL   ?L_TO_FLT
        MOV     R0,#?V0 + 4
        MOV     R1,#?V0 + 8
        LCALL   ?FLT_SUB
        MOV     DPL,R2
        MOV     DPH,R3
        INC     DPTR
        INC     DPTR
        INC     DPTR
        INC     DPTR
        MOVX    A,@DPTR
        MOV     ?V0 + 8,A
        INC     DPTR
        MOVX    A,@DPTR
        MOV     ?V0 + 9,A
        CLR     A
        MOV     ?V0 + 10,A
        MOV     ?V0 + 11,A
        MOV     R0,#?V0 + 8
        LCALL   ?UL_TO_FLT
        MOV     R0,#?V0 + 4
        MOV     R1,#?V0 + 8
        LCALL   ?FLT_DIV
        MOV     DPTR,#__Constant_420c0000
        MOV     R0,#?V0 + 8
        LCALL   ?L_MOV_X
        MOV     R0,#?V0 + 4
        MOV     R1,#?V0 + 8
        LCALL   ?FLT_ADD
        MOV     DPTR,#__Constant_47800000
        MOV     R0,#?V0 + 8
        LCALL   ?L_MOV_X
        MOV     R0,#?V0 + 4
        MOV     R1,#?V0 + 8
        LCALL   ?FLT_MUL
        MOV     R0,#?V0 + 4
        LCALL   ?FLT_TO_L
        MOV     DPL,?V0 + 0
        MOV     DPH,?V0 + 1
        MOV     R0,#?V0 + 4
        LCALL   ?L_MOV_TO_X
// 1036     return 0;
        MOV     R2,#0x0
        MOV     R3,#0x0
??mpu_get_temperature_2:
        MOV     A,#0x2
        LCALL   ?DEALLOC_XSTACK8
        CFI CFA_XSP16 add(XSP16, 20)
        MOV     R7,#0xc
        LJMP    ?BANKED_LEAVE_XDATA
        CFI EndBlock cfiBlock7
// 1037 }
// 1038 
// 1039 /**
// 1040  *  @brief      Push biases to the accel bias registers.
// 1041  *  This function expects biases relative to the current sensor output, and
// 1042  *  these biases will be added to the factory-supplied values.
// 1043  *  @param[in]  accel_bias  New biases.
// 1044  *  @return     0 if successful.
// 1045  */

        RSEG BANKED_CODE:CODE:NOROOT(0)
// 1046 int mpu_set_accel_bias(const long *accel_bias)
mpu_set_accel_bias:
        CFI Block cfiBlock8 Using cfiCommon0
        CFI Function mpu_set_accel_bias
        CODE
// 1047 {
        FUNCALL mpu_set_accel_bias, MPU_Read_Len
        LOCFRAME ISTACK, 0, STACK
        LOCFRAME PSTACK, 0, STACK
        LOCFRAME XSTACK, 40, STACK
        LOCFRAME IOVERLAY, 0, STATIC
        LOCFRAME DOVERLAY, 0, STATIC
        ARGFRAME ISTACK, 0, STACK
        ARGFRAME PSTACK, 0, STACK
        ARGFRAME XSTACK, 40, STACK
        ARGFRAME IOVERLAY, 0, STATIC
        ARGFRAME DOVERLAY, 0, STATIC
        FUNCALL mpu_set_accel_bias, MPU_Read_Len
        LOCFRAME ISTACK, 0, STACK
        LOCFRAME PSTACK, 0, STACK
        LOCFRAME XSTACK, 40, STACK
        LOCFRAME IOVERLAY, 0, STATIC
        LOCFRAME DOVERLAY, 0, STATIC
        ARGFRAME ISTACK, 0, STACK
        ARGFRAME PSTACK, 0, STACK
        ARGFRAME XSTACK, 40, STACK
        ARGFRAME IOVERLAY, 0, STATIC
        ARGFRAME DOVERLAY, 0, STATIC
        FUNCALL mpu_set_accel_bias, MPU_Write_Len
        LOCFRAME ISTACK, 0, STACK
        LOCFRAME PSTACK, 0, STACK
        LOCFRAME XSTACK, 40, STACK
        LOCFRAME IOVERLAY, 0, STATIC
        LOCFRAME DOVERLAY, 0, STATIC
        ARGFRAME ISTACK, 0, STACK
        ARGFRAME PSTACK, 0, STACK
        ARGFRAME XSTACK, 40, STACK
        ARGFRAME IOVERLAY, 0, STATIC
        ARGFRAME DOVERLAY, 0, STATIC
        MOV     A,#-0x10
        LCALL   ?BANKED_ENTER_XDATA
        CFI DPH0 load(1, XDATA, add(CFA_XSP16, literal(-1)))
        CFI DPL0 load(1, XDATA, add(CFA_XSP16, literal(-2)))
        CFI ?BRET_EXT load(1, XDATA, add(CFA_XSP16, literal(-3)))
        CFI ?RET_HIGH load(1, XDATA, add(CFA_XSP16, literal(-4)))
        CFI ?RET_LOW load(1, XDATA, add(CFA_XSP16, literal(-5)))
        CFI R7 load(1, XDATA, add(CFA_XSP16, literal(-6)))
        CFI V7 load(1, XDATA, add(CFA_XSP16, literal(-7)))
        CFI V6 load(1, XDATA, add(CFA_XSP16, literal(-8)))
        CFI V5 load(1, XDATA, add(CFA_XSP16, literal(-9)))
        CFI V4 load(1, XDATA, add(CFA_XSP16, literal(-10)))
        CFI V3 load(1, XDATA, add(CFA_XSP16, literal(-11)))
        CFI V2 load(1, XDATA, add(CFA_XSP16, literal(-12)))
        CFI V1 load(1, XDATA, add(CFA_XSP16, literal(-13)))
        CFI V0 load(1, XDATA, add(CFA_XSP16, literal(-14)))
        CFI VB load(1, XDATA, add(CFA_XSP16, literal(-15)))
        CFI R6 load(1, XDATA, add(CFA_XSP16, literal(-16)))
        CFI CFA_SP SP+0
        CFI CFA_XSP16 add(XSP16, 16)
        ; Saved register size: 16
        ; Auto size: 24
        MOV     A,#-0x18
        LCALL   ?ALLOC_XSTACK8
        CFI CFA_XSP16 add(XSP16, 40)
        MOV     A,R2
        MOV     R6,A
        MOV     A,R3
        MOV     R7,A
// 1048     unsigned char data[6];
// 1049     short accel_hw[3];
// 1050     short got_accel[3];
// 1051     short fg[3];
// 1052 
// 1053     if (!accel_bias)
        MOV     A,R6
        ORL     A,R7
        JNZ     ??mpu_set_accel_bias_0
// 1054         return -1;
??mpu_set_accel_bias_1:
        MOV     R2,#-0x1
        MOV     R3,#-0x1
??mpu_set_accel_bias_2:
        MOV     A,#0x18
        LCALL   ?DEALLOC_XSTACK8
        CFI CFA_XSP16 add(XSP16, 16)
        MOV     R7,#0x8
        LJMP    ?BANKED_LEAVE_XDATA
        CFI CFA_XSP16 add(XSP16, 40)
// 1055     if (!accel_bias[0] && !accel_bias[1] && !accel_bias[2])
??mpu_set_accel_bias_0:
        MOV     DPL,R6
        MOV     DPH,R7
        MOV     R0,#?V0 + 0
        LCALL   ?L_MOV_X
        MOV     A,?V0 + 0
        ORL     A,?V0 + 1
        ORL     A,?V0 + 2
        ORL     A,?V0 + 3
        JNZ     ??mpu_set_accel_bias_3
        MOV     DPL,R6
        MOV     DPH,R7
        INC     DPTR
        INC     DPTR
        INC     DPTR
        INC     DPTR
        MOV     R0,#?V0 + 0
        LCALL   ?L_MOV_X
        MOV     A,?V0 + 0
        ORL     A,?V0 + 1
        ORL     A,?V0 + 2
        ORL     A,?V0 + 3
        JNZ     ??mpu_set_accel_bias_3
        MOV     DPL,R6
        MOV     DPH,R7
        INC     DPTR
        INC     DPTR
        INC     DPTR
        INC     DPTR
        INC     DPTR
        INC     DPTR
        INC     DPTR
        INC     DPTR
        MOV     R0,#?V0 + 0
        LCALL   ?L_MOV_X
        MOV     A,?V0 + 0
        ORL     A,?V0 + 1
        ORL     A,?V0 + 2
        ORL     A,?V0 + 3
        JNZ     ??mpu_set_accel_bias_3
// 1056         return 0;
??mpu_set_accel_bias_4:
        MOV     R2,#0x0
        MOV     R3,#0x0
        SJMP    ??mpu_set_accel_bias_2
// 1057 
// 1058     if (i2c_read(st.hw->addr, 3, 3, data))
??mpu_set_accel_bias_3:
        ; Setup parameters for call to function MPU_Read_Len
        MOV     DPL,?XSP + 0
        MOV     DPH,?XSP + 1
        MOV     R4,DPL
        MOV     R5,DPH
        MOV     R3,#0x3
        MOV     R2,#0x3
        MOV     DPTR,#st + 2
        MOVX    A,@DPTR
        MOV     R0,A
        INC     DPTR
        MOVX    A,@DPTR
        MOV     DPH,A
        MOV     DPL,R0
        MOVX    A,@DPTR
        MOV     R1,A
        LCALL   ??MPU_Read_Len?relay
        MOV     A,R1
        JNZ     ??mpu_set_accel_bias_1
// 1059         return -1;
// 1060     fg[0] = ((data[0] >> 4) + 8) & 0xf;
        MOV     DPL,?XSP + 0
        MOV     DPH,?XSP + 1
        MOVX    A,@DPTR
        SWAP    A
        ANL     A,#0xf
        ADD     A,#0x8
        ANL     A,#0xf
        MOV     R0,A
        MOV     A,#0xc
        LCALL   ?XSTACK_DISP0_8
        MOV     A,R0
        MOVX    @DPTR,A
        INC     DPTR
        CLR     A
        MOVX    @DPTR,A
// 1061     fg[1] = ((data[1] >> 4) + 8) & 0xf;
        INC     A
        LCALL   ?XSTACK_DISP0_8
        MOVX    A,@DPTR
        SWAP    A
        ANL     A,#0xf
        ADD     A,#0x8
        ANL     A,#0xf
        MOV     R4,A
        MOV     A,#0xe
        LCALL   ?XSTACK_DISP0_8
        MOV     A,R4
        MOVX    @DPTR,A
        INC     DPTR
        CLR     A
        MOVX    @DPTR,A
// 1062     fg[2] = ((data[2] >> 4) + 8) & 0xf;
        MOV     A,#0x2
        LCALL   ?XSTACK_DISP0_8
        MOVX    A,@DPTR
        SWAP    A
        ANL     A,#0xf
        ADD     A,#0x8
        ANL     A,#0xf
        MOV     R2,A
        MOV     A,#0x10
        LCALL   ?XSTACK_DISP0_8
        MOV     A,R2
        MOVX    @DPTR,A
        INC     DPTR
        CLR     A
        MOVX    @DPTR,A
// 1063 
// 1064     accel_hw[0] = (short)(accel_bias[0] * 2 / (64 + fg[0]));
        MOV     DPL,R6
        MOV     DPH,R7
        MOV     R0,#?V0 + 4
        LCALL   ?L_MOV_X
        MOV     A,#0x1
        MOV     R0,#?V0 + 4
        LCALL   ?L_SHL
        MOV     A,#0xc
        LCALL   ?XSTACK_DISP0_8
        MOVX    A,@DPTR
        ADD     A,#0x40
        MOV     ?V0 + 0,A
        INC     DPTR
        MOVX    A,@DPTR
        ADDC    A,#0x0
        MOV     ?V0 + 1,A
        RLC     A
        SUBB    A,0xE0 /* A   */
        MOV     ?V0 + 2,A
        MOV     ?V0 + 3,A
        MOV     R0,#?V0 + 4
        MOV     R1,#?V0 + 0
        LCALL   ?L_DIV_MOD
        MOV     A,#0x6
        LCALL   ?XSTACK_DISP0_8
        MOV     A,?V0 + 4
        MOVX    @DPTR,A
        INC     DPTR
        MOV     A,?V0 + 5
        MOVX    @DPTR,A
// 1065     accel_hw[1] = (short)(accel_bias[1] * 2 / (64 + fg[1]));
        MOV     DPL,R6
        MOV     DPH,R7
        INC     DPTR
        INC     DPTR
        INC     DPTR
        INC     DPTR
        MOV     R0,#?V0 + 0
        LCALL   ?L_MOV_X
        MOV     A,#0x1
        MOV     R0,#?V0 + 0
        LCALL   ?L_SHL
        MOV     A,R4
        ADD     A,#0x40
        MOV     ?V0 + 4,A
        CLR     A
        MOV     ?V0 + 5,A
        MOV     ?V0 + 6,A
        MOV     ?V0 + 7,A
        MOV     R0,#?V0 + 0
        MOV     R1,#?V0 + 4
        LCALL   ?L_DIV_MOD
        MOV     A,#0x8
        LCALL   ?XSTACK_DISP0_8
        MOV     A,?V0 + 0
        MOVX    @DPTR,A
        INC     DPTR
        MOV     A,?V0 + 1
        MOVX    @DPTR,A
// 1066     accel_hw[2] = (short)(accel_bias[2] * 2 / (64 + fg[2]));
        MOV     DPL,R6
        MOV     DPH,R7
        INC     DPTR
        INC     DPTR
        INC     DPTR
        INC     DPTR
        INC     DPTR
        INC     DPTR
        INC     DPTR
        INC     DPTR
        MOV     R0,#?V0 + 0
        LCALL   ?L_MOV_X
        MOV     A,#0x1
        MOV     R0,#?V0 + 0
        LCALL   ?L_SHL
        MOV     A,R2
        ADD     A,#0x40
        MOV     ?V0 + 4,A
        CLR     A
        MOV     ?V0 + 5,A
        MOV     ?V0 + 6,A
        MOV     ?V0 + 7,A
        MOV     R0,#?V0 + 0
        MOV     R1,#?V0 + 4
        LCALL   ?L_DIV_MOD
        MOV     A,#0xa
        LCALL   ?XSTACK_DISP0_8
        MOV     A,?V0 + 0
        MOVX    @DPTR,A
        INC     DPTR
        MOV     A,?V0 + 1
        MOVX    @DPTR,A
// 1067 
// 1068     if (i2c_read(st.hw->addr, 0x06, 6, data))
        ; Setup parameters for call to function MPU_Read_Len
        MOV     DPL,?XSP + 0
        MOV     DPH,?XSP + 1
        MOV     R4,DPL
        MOV     R5,DPH
        MOV     R3,#0x6
        MOV     R2,#0x6
        MOV     DPTR,#st + 2
        MOVX    A,@DPTR
        MOV     R0,A
        INC     DPTR
        MOVX    A,@DPTR
        MOV     DPH,A
        MOV     DPL,R0
        MOVX    A,@DPTR
        MOV     R1,A
        LCALL   ??MPU_Read_Len?relay
        MOV     A,R1
        JZ      $+5
        LJMP    ??mpu_set_accel_bias_1 & 0xFFFF
// 1069         return -1;
// 1070 
// 1071     got_accel[0] = ((short)data[0] << 8) | data[1];
        MOV     DPL,?XSP + 0
        MOV     DPH,?XSP + 1
        MOVX    A,@DPTR
        MOV     R1,A
        MOV     A,#0x1
        LCALL   ?XSTACK_DISP0_8
        MOVX    A,@DPTR
        MOV     R0,A
        MOV     A,#0x12
        LCALL   ?XSTACK_DISP0_8
        MOV     A,R0
        MOVX    @DPTR,A
        INC     DPTR
        MOV     A,R1
        MOVX    @DPTR,A
// 1072     got_accel[1] = ((short)data[2] << 8) | data[3];
        MOV     A,#0x2
        LCALL   ?XSTACK_DISP0_8
        MOVX    A,@DPTR
        MOV     R1,A
        MOV     A,#0x3
        LCALL   ?XSTACK_DISP0_8
        MOVX    A,@DPTR
        MOV     R2,A
        MOV     A,R1
        MOV     R3,A
        MOV     A,#0x14
        LCALL   ?XSTACK_DISP0_8
        MOV     A,R2
        MOVX    @DPTR,A
        INC     DPTR
        MOV     A,R3
        MOVX    @DPTR,A
// 1073     got_accel[2] = ((short)data[4] << 8) | data[5];
        MOV     A,#0x4
        LCALL   ?XSTACK_DISP0_8
        MOVX    A,@DPTR
        MOV     R1,A
        MOV     A,#0x5
        LCALL   ?XSTACK_DISP0_8
        MOVX    A,@DPTR
        MOV     R0,A
        MOV     A,#0x16
        LCALL   ?XSTACK_DISP0_8
        MOV     A,R0
        MOVX    @DPTR,A
        INC     DPTR
        MOV     A,R1
        MOVX    @DPTR,A
// 1074 
// 1075     accel_hw[0] += got_accel[0];
        MOV     A,#0x12
        LCALL   ?XSTACK_DISP0_8
        MOVX    A,@DPTR
        MOV     R4,A
        INC     DPTR
        MOVX    A,@DPTR
        MOV     R5,A
        MOV     A,#0x6
        LCALL   ?XSTACK_DISP0_8
        MOVX    A,@DPTR
        ADD     A,R4
        MOVX    @DPTR,A
        INC     DPTR
        MOVX    A,@DPTR
        ADDC    A,R5
        MOVX    @DPTR,A
// 1076     accel_hw[1] += got_accel[1];
        MOV     A,#0x8
        LCALL   ?XSTACK_DISP0_8
        MOVX    A,@DPTR
        ADD     A,R2
        MOVX    @DPTR,A
        INC     DPTR
        MOVX    A,@DPTR
        ADDC    A,R3
        MOVX    @DPTR,A
// 1077     accel_hw[2] += got_accel[2];
        MOV     A,#0xa
        LCALL   ?XSTACK_DISP0_8
        MOVX    A,@DPTR
        ADD     A,R0
        MOVX    @DPTR,A
        INC     DPTR
        MOVX    A,@DPTR
        ADDC    A,R1
        MOVX    @DPTR,A
// 1078 
// 1079     data[0] = (accel_hw[0] >> 8) & 0xff;
        MOV     A,#0x6
        LCALL   ?XSTACK_DISP0_8
        MOVX    A,@DPTR
        MOV     ?V0 + 0,A
        INC     DPTR
        MOVX    A,@DPTR
        MOV     ?V0 + 1,A
        MOV     A,#0x8
        MOV     R0,#?V0 + 0
        LCALL   ?SS_SHR
        MOV     DPL,?XSP + 0
        MOV     DPH,?XSP + 1
        MOV     A,?V0 + 0
        MOVX    @DPTR,A
// 1080     data[1] = (accel_hw[0]) & 0xff;
        MOV     A,#0x6
        LCALL   ?XSTACK_DISP0_8
        MOVX    A,@DPTR
        PUSH    A
        CFI CFA_SP SP+-1
        MOV     A,#0x1
        LCALL   ?XSTACK_DISP0_8
        POP     A
        CFI CFA_SP SP+0
        MOVX    @DPTR,A
// 1081     data[2] = (accel_hw[1] >> 8) & 0xff;
        MOV     A,#0x8
        LCALL   ?XSTACK_DISP0_8
        MOVX    A,@DPTR
        MOV     R2,A
        INC     DPTR
        MOVX    A,@DPTR
        MOV     R3,A
        MOV     ?V0 + 0,R2
        MOV     ?V0 + 1,R3
        MOV     A,#0x8
        MOV     R0,#?V0 + 0
        LCALL   ?SS_SHR
        MOV     A,#0x2
        LCALL   ?XSTACK_DISP0_8
        MOV     A,?V0 + 0
        MOVX    @DPTR,A
// 1082     data[3] = (accel_hw[1]) & 0xff;
        MOV     A,R2
        PUSH    A
        CFI CFA_SP SP+-1
        MOV     A,#0x3
        LCALL   ?XSTACK_DISP0_8
        POP     A
        CFI CFA_SP SP+0
        MOVX    @DPTR,A
// 1083     data[4] = (accel_hw[2] >> 8) & 0xff;
        MOV     A,#0xa
        LCALL   ?XSTACK_DISP0_8
        MOVX    A,@DPTR
        MOV     R2,A
        INC     DPTR
        MOVX    A,@DPTR
        MOV     R3,A
        MOV     ?V0 + 0,R2
        MOV     ?V0 + 1,R3
        MOV     A,#0x8
        MOV     R0,#?V0 + 0
        LCALL   ?SS_SHR
        MOV     A,#0x4
        LCALL   ?XSTACK_DISP0_8
        MOV     A,?V0 + 0
        MOVX    @DPTR,A
// 1084     data[5] = (accel_hw[2]) & 0xff;
        MOV     A,R2
        PUSH    A
        CFI CFA_SP SP+-1
        MOV     A,#0x5
        LCALL   ?XSTACK_DISP0_8
        POP     A
        CFI CFA_SP SP+0
        MOVX    @DPTR,A
// 1085 
// 1086     if (i2c_write(st.hw->addr, 0x06, 6, data))
        ; Setup parameters for call to function MPU_Write_Len
        MOV     DPL,?XSP + 0
        MOV     DPH,?XSP + 1
        MOV     R4,DPL
        MOV     R5,DPH
        MOV     R3,#0x6
        MOV     R2,#0x6
        MOV     DPTR,#st + 2
        MOVX    A,@DPTR
        MOV     R0,A
        INC     DPTR
        MOVX    A,@DPTR
        MOV     DPH,A
        MOV     DPL,R0
        MOVX    A,@DPTR
        MOV     R1,A
        LCALL   ??MPU_Write_Len?relay
        MOV     A,R1
        JZ      $+5
        LJMP    ??mpu_set_accel_bias_1 & 0xFFFF
        LJMP    ??mpu_set_accel_bias_4 & 0xFFFF
        CFI EndBlock cfiBlock8
// 1087         return -1;
// 1088     return 0;
// 1089 }
// 1090 
// 1091 /**
// 1092  *  @brief  Reset FIFO read/write pointers.
// 1093  *  @return 0 if successful.
// 1094  */

        RSEG BANKED_CODE:CODE:NOROOT(0)
// 1095 int mpu_reset_fifo(void)
mpu_reset_fifo:
        CFI Block cfiBlock9 Using cfiCommon0
        CFI Function mpu_reset_fifo
        CODE
// 1096 {
        FUNCALL mpu_reset_fifo, MPU_Write_Len
        LOCFRAME ISTACK, 2, STACK
        LOCFRAME PSTACK, 0, STACK
        LOCFRAME XSTACK, 1, STACK
        LOCFRAME IOVERLAY, 0, STATIC
        LOCFRAME DOVERLAY, 0, STATIC
        ARGFRAME ISTACK, 2, STACK
        ARGFRAME PSTACK, 0, STACK
        ARGFRAME XSTACK, 1, STACK
        ARGFRAME IOVERLAY, 0, STATIC
        ARGFRAME DOVERLAY, 0, STATIC
        FUNCALL mpu_reset_fifo, MPU_Write_Len
        LOCFRAME ISTACK, 2, STACK
        LOCFRAME PSTACK, 0, STACK
        LOCFRAME XSTACK, 1, STACK
        LOCFRAME IOVERLAY, 0, STATIC
        LOCFRAME DOVERLAY, 0, STATIC
        ARGFRAME ISTACK, 2, STACK
        ARGFRAME PSTACK, 0, STACK
        ARGFRAME XSTACK, 1, STACK
        ARGFRAME IOVERLAY, 0, STATIC
        ARGFRAME DOVERLAY, 0, STATIC
        FUNCALL mpu_reset_fifo, MPU_Write_Len
        LOCFRAME ISTACK, 2, STACK
        LOCFRAME PSTACK, 0, STACK
        LOCFRAME XSTACK, 1, STACK
        LOCFRAME IOVERLAY, 0, STATIC
        LOCFRAME DOVERLAY, 0, STATIC
        ARGFRAME ISTACK, 2, STACK
        ARGFRAME PSTACK, 0, STACK
        ARGFRAME XSTACK, 1, STACK
        ARGFRAME IOVERLAY, 0, STATIC
        ARGFRAME DOVERLAY, 0, STATIC
        FUNCALL mpu_reset_fifo, MPU_Write_Len
        LOCFRAME ISTACK, 2, STACK
        LOCFRAME PSTACK, 0, STACK
        LOCFRAME XSTACK, 1, STACK
        LOCFRAME IOVERLAY, 0, STATIC
        LOCFRAME DOVERLAY, 0, STATIC
        ARGFRAME ISTACK, 2, STACK
        ARGFRAME PSTACK, 0, STACK
        ARGFRAME XSTACK, 1, STACK
        ARGFRAME IOVERLAY, 0, STATIC
        ARGFRAME DOVERLAY, 0, STATIC
        FUNCALL mpu_reset_fifo, delay_ms
        LOCFRAME ISTACK, 2, STACK
        LOCFRAME PSTACK, 0, STACK
        LOCFRAME XSTACK, 1, STACK
        LOCFRAME IOVERLAY, 0, STATIC
        LOCFRAME DOVERLAY, 0, STATIC
        ARGFRAME ISTACK, 2, STACK
        ARGFRAME PSTACK, 0, STACK
        ARGFRAME XSTACK, 1, STACK
        ARGFRAME IOVERLAY, 0, STATIC
        ARGFRAME DOVERLAY, 0, STATIC
        FUNCALL mpu_reset_fifo, MPU_Write_Len
        LOCFRAME ISTACK, 2, STACK
        LOCFRAME PSTACK, 0, STACK
        LOCFRAME XSTACK, 1, STACK
        LOCFRAME IOVERLAY, 0, STATIC
        LOCFRAME DOVERLAY, 0, STATIC
        ARGFRAME ISTACK, 2, STACK
        ARGFRAME PSTACK, 0, STACK
        ARGFRAME XSTACK, 1, STACK
        ARGFRAME IOVERLAY, 0, STATIC
        ARGFRAME DOVERLAY, 0, STATIC
        FUNCALL mpu_reset_fifo, MPU_Write_Len
        LOCFRAME ISTACK, 2, STACK
        LOCFRAME PSTACK, 0, STACK
        LOCFRAME XSTACK, 1, STACK
        LOCFRAME IOVERLAY, 0, STATIC
        LOCFRAME DOVERLAY, 0, STATIC
        ARGFRAME ISTACK, 2, STACK
        ARGFRAME PSTACK, 0, STACK
        ARGFRAME XSTACK, 1, STACK
        ARGFRAME IOVERLAY, 0, STATIC
        ARGFRAME DOVERLAY, 0, STATIC
        FUNCALL mpu_reset_fifo, MPU_Write_Len
        LOCFRAME ISTACK, 2, STACK
        LOCFRAME PSTACK, 0, STACK
        LOCFRAME XSTACK, 1, STACK
        LOCFRAME IOVERLAY, 0, STATIC
        LOCFRAME DOVERLAY, 0, STATIC
        ARGFRAME ISTACK, 2, STACK
        ARGFRAME PSTACK, 0, STACK
        ARGFRAME XSTACK, 1, STACK
        ARGFRAME IOVERLAY, 0, STATIC
        ARGFRAME DOVERLAY, 0, STATIC
        FUNCALL mpu_reset_fifo, MPU_Write_Len
        LOCFRAME ISTACK, 2, STACK
        LOCFRAME PSTACK, 0, STACK
        LOCFRAME XSTACK, 1, STACK
        LOCFRAME IOVERLAY, 0, STATIC
        LOCFRAME DOVERLAY, 0, STATIC
        ARGFRAME ISTACK, 2, STACK
        ARGFRAME PSTACK, 0, STACK
        ARGFRAME XSTACK, 1, STACK
        ARGFRAME IOVERLAY, 0, STATIC
        ARGFRAME DOVERLAY, 0, STATIC
        FUNCALL mpu_reset_fifo, MPU_Write_Len
        LOCFRAME ISTACK, 2, STACK
        LOCFRAME PSTACK, 0, STACK
        LOCFRAME XSTACK, 1, STACK
        LOCFRAME IOVERLAY, 0, STATIC
        LOCFRAME DOVERLAY, 0, STATIC
        ARGFRAME ISTACK, 2, STACK
        ARGFRAME PSTACK, 0, STACK
        ARGFRAME XSTACK, 1, STACK
        ARGFRAME IOVERLAY, 0, STATIC
        ARGFRAME DOVERLAY, 0, STATIC
        FUNCALL mpu_reset_fifo, delay_ms
        LOCFRAME ISTACK, 2, STACK
        LOCFRAME PSTACK, 0, STACK
        LOCFRAME XSTACK, 1, STACK
        LOCFRAME IOVERLAY, 0, STATIC
        LOCFRAME DOVERLAY, 0, STATIC
        ARGFRAME ISTACK, 2, STACK
        ARGFRAME PSTACK, 0, STACK
        ARGFRAME XSTACK, 1, STACK
        ARGFRAME IOVERLAY, 0, STATIC
        ARGFRAME DOVERLAY, 0, STATIC
        FUNCALL mpu_reset_fifo, MPU_Write_Len
        LOCFRAME ISTACK, 2, STACK
        LOCFRAME PSTACK, 0, STACK
        LOCFRAME XSTACK, 1, STACK
        LOCFRAME IOVERLAY, 0, STATIC
        LOCFRAME DOVERLAY, 0, STATIC
        ARGFRAME ISTACK, 2, STACK
        ARGFRAME PSTACK, 0, STACK
        ARGFRAME XSTACK, 1, STACK
        ARGFRAME IOVERLAY, 0, STATIC
        ARGFRAME DOVERLAY, 0, STATIC
        FUNCALL mpu_reset_fifo, MPU_Write_Len
        LOCFRAME ISTACK, 2, STACK
        LOCFRAME PSTACK, 0, STACK
        LOCFRAME XSTACK, 1, STACK
        LOCFRAME IOVERLAY, 0, STATIC
        LOCFRAME DOVERLAY, 0, STATIC
        ARGFRAME ISTACK, 2, STACK
        ARGFRAME PSTACK, 0, STACK
        ARGFRAME XSTACK, 1, STACK
        ARGFRAME IOVERLAY, 0, STATIC
        ARGFRAME DOVERLAY, 0, STATIC
        PUSH    DPL
        CFI DPL0 Frame(CFA_SP, 4)
        CFI CFA_SP SP+-4
        PUSH    DPH
        CFI DPH0 Frame(CFA_SP, 5)
        CFI CFA_SP SP+-5
        ; Saved register size: 2
        ; Auto size: 1
        MOV     A,#-0x1
        LCALL   ?ALLOC_XSTACK8
        CFI CFA_XSP16 add(XSP16, 1)
// 1097     unsigned char data;
// 1098 
// 1099     if (!(st.chip_cfg.sensors))
        MOV     DPTR,#st + 6
        MOVX    A,@DPTR
        JNZ     ??mpu_reset_fifo_0
// 1100         return -1;
??mpu_reset_fifo_1:
        MOV     R2,#-0x1
        MOV     R3,#-0x1
        LJMP    ??mpu_reset_fifo_2 & 0xFFFF
// 1101 
// 1102     data = 0;
??mpu_reset_fifo_0:
        MOV     DPL,?XSP + 0
        MOV     DPH,?XSP + 1
        CLR     A
        MOVX    @DPTR,A
// 1103     if (i2c_write(st.hw->addr, st.reg->int_enable, 1, &data))
        ; Setup parameters for call to function MPU_Write_Len
        MOV     R4,DPL
        MOV     R5,DPH
        MOV     R3,#0x1
        MOV     DPTR,#st
        MOVX    A,@DPTR
        ADD     A,#0xf
        MOV     R0,A
        INC     DPTR
        MOVX    A,@DPTR
        ADDC    A,#0x0
        MOV     R1,A
        MOV     DPL,R0
        MOV     DPH,R1
        MOVX    A,@DPTR
        MOV     R2,A
        MOV     DPTR,#st + 2
        MOVX    A,@DPTR
        MOV     R0,A
        INC     DPTR
        MOVX    A,@DPTR
        MOV     DPH,A
        MOV     DPL,R0
        MOVX    A,@DPTR
        MOV     R1,A
        LCALL   ??MPU_Write_Len?relay
        MOV     A,R1
        JNZ     ??mpu_reset_fifo_1
// 1104         return -1;
// 1105     if (i2c_write(st.hw->addr, st.reg->fifo_en, 1, &data))
        ; Setup parameters for call to function MPU_Write_Len
        MOV     DPL,?XSP + 0
        MOV     DPH,?XSP + 1
        MOV     R4,DPL
        MOV     R5,DPH
        MOV     R3,#0x1
        MOV     DPTR,#st
        MOVX    A,@DPTR
        MOV     R0,A
        INC     DPTR
        MOVX    A,@DPTR
        MOV     DPH,A
        MOV     DPL,R0
        INC     DPTR
        INC     DPTR
        INC     DPTR
        INC     DPTR
        INC     DPTR
        MOVX    A,@DPTR
        MOV     R2,A
        MOV     DPTR,#st + 2
        MOVX    A,@DPTR
        MOV     R0,A
        INC     DPTR
        MOVX    A,@DPTR
        MOV     DPH,A
        MOV     DPL,R0
        MOVX    A,@DPTR
        MOV     R1,A
        LCALL   ??MPU_Write_Len?relay
        MOV     A,R1
        JNZ     ??mpu_reset_fifo_1
// 1106         return -1;
// 1107     if (i2c_write(st.hw->addr, st.reg->user_ctrl, 1, &data))
        ; Setup parameters for call to function MPU_Write_Len
        MOV     DPL,?XSP + 0
        MOV     DPH,?XSP + 1
        MOV     R4,DPL
        MOV     R5,DPH
        MOV     R3,#0x1
        MOV     DPTR,#st
        MOVX    A,@DPTR
        MOV     R0,A
        INC     DPTR
        MOVX    A,@DPTR
        MOV     DPH,A
        MOV     DPL,R0
        INC     DPTR
        INC     DPTR
        INC     DPTR
        INC     DPTR
        MOVX    A,@DPTR
        MOV     R2,A
        MOV     DPTR,#st + 2
        MOVX    A,@DPTR
        MOV     R0,A
        INC     DPTR
        MOVX    A,@DPTR
        MOV     DPH,A
        MOV     DPL,R0
        MOVX    A,@DPTR
        MOV     R1,A
        LCALL   ??MPU_Write_Len?relay
        MOV     A,R1
        JZ      $+5
        LJMP    ??mpu_reset_fifo_1 & 0xFFFF
// 1108         return -1;
// 1109 
// 1110     if (st.chip_cfg.dmp_on) {
        MOV     DPTR,#st + 29
        MOVX    A,@DPTR
        MOV     DPL,?XSP + 0
        MOV     DPH,?XSP + 1
        JNZ     $+5
        LJMP    ??mpu_reset_fifo_3 & 0xFFFF
// 1111         data = BIT_FIFO_RST | BIT_DMP_RST;
        MOV     A,#0xc
        MOVX    @DPTR,A
// 1112         if (i2c_write(st.hw->addr, st.reg->user_ctrl, 1, &data))
        ; Setup parameters for call to function MPU_Write_Len
        MOV     R4,DPL
        MOV     R5,DPH
        MOV     R3,#0x1
        MOV     DPTR,#st
        MOVX    A,@DPTR
        MOV     R0,A
        INC     DPTR
        MOVX    A,@DPTR
        MOV     DPH,A
        MOV     DPL,R0
        INC     DPTR
        INC     DPTR
        INC     DPTR
        INC     DPTR
        MOVX    A,@DPTR
        MOV     R2,A
        MOV     DPTR,#st + 2
        MOVX    A,@DPTR
        MOV     R0,A
        INC     DPTR
        MOVX    A,@DPTR
        MOV     DPH,A
        MOV     DPL,R0
        MOVX    A,@DPTR
        MOV     R1,A
        LCALL   ??MPU_Write_Len?relay
        MOV     A,R1
        JZ      $+5
        LJMP    ??mpu_reset_fifo_1 & 0xFFFF
// 1113             return -1;
// 1114         delay_ms(50);
        ; Setup parameters for call to function delay_ms
        MOV     DPTR,#__Constant_32
        LCALL   ?XLOAD_R2345
        LCALL   ??delay_ms?relay
// 1115         data = BIT_DMP_EN | BIT_FIFO_EN;
        MOV     DPL,?XSP + 0
        MOV     DPH,?XSP + 1
        MOV     A,#-0x40
        MOVX    @DPTR,A
// 1116         if (st.chip_cfg.sensors & INV_XYZ_COMPASS)
        MOV     DPTR,#st + 6
        MOVX    A,@DPTR
        MOV     C,0xE0 /* A   */.0
        JNC     ??mpu_reset_fifo_4
// 1117             data |= BIT_AUX_IF_EN;
        MOV     DPL,?XSP + 0
        MOV     DPH,?XSP + 1
        MOV     A,#-0x20
        MOVX    @DPTR,A
// 1118         if (i2c_write(st.hw->addr, st.reg->user_ctrl, 1, &data))
??mpu_reset_fifo_4:
        ; Setup parameters for call to function MPU_Write_Len
        MOV     DPL,?XSP + 0
        MOV     DPH,?XSP + 1
        MOV     R4,DPL
        MOV     R5,DPH
        MOV     R3,#0x1
        MOV     DPTR,#st
        MOVX    A,@DPTR
        MOV     R0,A
        INC     DPTR
        MOVX    A,@DPTR
        MOV     DPH,A
        MOV     DPL,R0
        INC     DPTR
        INC     DPTR
        INC     DPTR
        INC     DPTR
        MOVX    A,@DPTR
        MOV     R2,A
        MOV     DPTR,#st + 2
        MOVX    A,@DPTR
        MOV     R0,A
        INC     DPTR
        MOVX    A,@DPTR
        MOV     DPH,A
        MOV     DPL,R0
        MOVX    A,@DPTR
        MOV     R1,A
        LCALL   ??MPU_Write_Len?relay
        MOV     A,R1
        JZ      $+5
        LJMP    ??mpu_reset_fifo_1 & 0xFFFF
// 1119             return -1;
// 1120         if (st.chip_cfg.int_enable)
        MOV     DPTR,#st + 12
        MOVX    A,@DPTR
        MOV     DPL,?XSP + 0
        MOV     DPH,?XSP + 1
        JZ      ??mpu_reset_fifo_5
// 1121             data = BIT_DMP_INT_EN;
        MOV     A,#0x2
        SJMP    ??mpu_reset_fifo_6
// 1122         else
// 1123             data = 0;
??mpu_reset_fifo_5:
        CLR     A
??mpu_reset_fifo_6:
        MOVX    @DPTR,A
// 1124         if (i2c_write(st.hw->addr, st.reg->int_enable, 1, &data))
        ; Setup parameters for call to function MPU_Write_Len
        MOV     R4,DPL
        MOV     R5,DPH
        MOV     R3,#0x1
        MOV     DPTR,#st
        MOVX    A,@DPTR
        ADD     A,#0xf
        MOV     R0,A
        INC     DPTR
        MOVX    A,@DPTR
        ADDC    A,#0x0
        MOV     R1,A
        MOV     DPL,R0
        MOV     DPH,R1
        MOVX    A,@DPTR
        MOV     R2,A
        MOV     DPTR,#st + 2
        MOVX    A,@DPTR
        MOV     R0,A
        INC     DPTR
        MOVX    A,@DPTR
        MOV     DPH,A
        MOV     DPL,R0
        MOVX    A,@DPTR
        MOV     R1,A
        LCALL   ??MPU_Write_Len?relay
        MOV     A,R1
        JZ      $+5
        LJMP    ??mpu_reset_fifo_1 & 0xFFFF
// 1125             return -1;
// 1126         data = 0;
        MOV     DPL,?XSP + 0
        MOV     DPH,?XSP + 1
        CLR     A
        MOVX    @DPTR,A
// 1127         if (i2c_write(st.hw->addr, st.reg->fifo_en, 1, &data))
        ; Setup parameters for call to function MPU_Write_Len
        MOV     R4,DPL
        MOV     R5,DPH
        MOV     R3,#0x1
        MOV     DPTR,#st
        MOVX    A,@DPTR
        MOV     R0,A
        INC     DPTR
        MOVX    A,@DPTR
        MOV     DPH,A
        MOV     DPL,R0
        INC     DPTR
        INC     DPTR
        INC     DPTR
        INC     DPTR
        INC     DPTR
        MOVX    A,@DPTR
        MOV     R2,A
        MOV     DPTR,#st + 2
        MOVX    A,@DPTR
        MOV     R0,A
        INC     DPTR
        MOVX    A,@DPTR
        MOV     DPH,A
        MOV     DPL,R0
        MOVX    A,@DPTR
        MOV     R1,A
        LCALL   ??MPU_Write_Len?relay
        MOV     A,R1
        JZ      $+5
        LJMP    ??mpu_reset_fifo_1 & 0xFFFF
        LJMP    ??mpu_reset_fifo_7 & 0xFFFF
// 1128             return -1;
// 1129     } else {
// 1130         data = BIT_FIFO_RST;
??mpu_reset_fifo_3:
        MOV     A,#0x4
        MOVX    @DPTR,A
// 1131         if (i2c_write(st.hw->addr, st.reg->user_ctrl, 1, &data))
        ; Setup parameters for call to function MPU_Write_Len
        MOV     R4,DPL
        MOV     R5,DPH
        MOV     R3,#0x1
        MOV     DPTR,#st
        MOVX    A,@DPTR
        MOV     R0,A
        INC     DPTR
        MOVX    A,@DPTR
        MOV     DPH,A
        MOV     DPL,R0
        INC     DPTR
        INC     DPTR
        INC     DPTR
        INC     DPTR
        MOVX    A,@DPTR
        MOV     R2,A
        MOV     DPTR,#st + 2
        MOVX    A,@DPTR
        MOV     R0,A
        INC     DPTR
        MOVX    A,@DPTR
        MOV     DPH,A
        MOV     DPL,R0
        MOVX    A,@DPTR
        MOV     R1,A
        LCALL   ??MPU_Write_Len?relay
        MOV     A,R1
        JZ      $+5
        LJMP    ??mpu_reset_fifo_1 & 0xFFFF
// 1132             return -1;
// 1133         if (st.chip_cfg.bypass_mode || !(st.chip_cfg.sensors & INV_XYZ_COMPASS))
        MOV     DPTR,#st + 13
        MOVX    A,@DPTR
        JNZ     ??mpu_reset_fifo_8
        MOV     DPTR,#st + 6
        MOVX    A,@DPTR
        MOV     C,0xE0 /* A   */.0
        JC      ??mpu_reset_fifo_9
// 1134             data = BIT_FIFO_EN;
??mpu_reset_fifo_8:
        MOV     DPL,?XSP + 0
        MOV     DPH,?XSP + 1
        MOV     A,#0x40
        SJMP    ??mpu_reset_fifo_10
// 1135         else
// 1136             data = BIT_FIFO_EN | BIT_AUX_IF_EN;
??mpu_reset_fifo_9:
        MOV     DPL,?XSP + 0
        MOV     DPH,?XSP + 1
        MOV     A,#0x60
??mpu_reset_fifo_10:
        MOVX    @DPTR,A
// 1137         if (i2c_write(st.hw->addr, st.reg->user_ctrl, 1, &data))
        ; Setup parameters for call to function MPU_Write_Len
        MOV     R4,DPL
        MOV     R5,DPH
        MOV     R3,#0x1
        MOV     DPTR,#st
        MOVX    A,@DPTR
        MOV     R0,A
        INC     DPTR
        MOVX    A,@DPTR
        MOV     DPH,A
        MOV     DPL,R0
        INC     DPTR
        INC     DPTR
        INC     DPTR
        INC     DPTR
        MOVX    A,@DPTR
        MOV     R2,A
        MOV     DPTR,#st + 2
        MOVX    A,@DPTR
        MOV     R0,A
        INC     DPTR
        MOVX    A,@DPTR
        MOV     DPH,A
        MOV     DPL,R0
        MOVX    A,@DPTR
        MOV     R1,A
        LCALL   ??MPU_Write_Len?relay
        MOV     A,R1
        JZ      $+5
        LJMP    ??mpu_reset_fifo_1 & 0xFFFF
// 1138             return -1;
// 1139         delay_ms(50);
        ; Setup parameters for call to function delay_ms
        MOV     DPTR,#__Constant_32
        LCALL   ?XLOAD_R2345
        LCALL   ??delay_ms?relay
// 1140         if (st.chip_cfg.int_enable)
        MOV     DPTR,#st + 12
        MOVX    A,@DPTR
        MOV     DPL,?XSP + 0
        MOV     DPH,?XSP + 1
        JZ      ??mpu_reset_fifo_11
// 1141             data = BIT_DATA_RDY_EN;
        MOV     A,#0x1
        SJMP    ??mpu_reset_fifo_12
// 1142         else
// 1143             data = 0;
??mpu_reset_fifo_11:
        CLR     A
??mpu_reset_fifo_12:
        MOVX    @DPTR,A
// 1144         if (i2c_write(st.hw->addr, st.reg->int_enable, 1, &data))
        ; Setup parameters for call to function MPU_Write_Len
        MOV     R4,DPL
        MOV     R5,DPH
        MOV     R3,#0x1
        MOV     DPTR,#st
        MOVX    A,@DPTR
        ADD     A,#0xf
        MOV     R0,A
        INC     DPTR
        MOVX    A,@DPTR
        ADDC    A,#0x0
        MOV     R1,A
        MOV     DPL,R0
        MOV     DPH,R1
        MOVX    A,@DPTR
        MOV     R2,A
        MOV     DPTR,#st + 2
        MOVX    A,@DPTR
        MOV     R0,A
        INC     DPTR
        MOVX    A,@DPTR
        MOV     DPH,A
        MOV     DPL,R0
        MOVX    A,@DPTR
        MOV     R1,A
        LCALL   ??MPU_Write_Len?relay
        MOV     A,R1
        JZ      $+5
        LJMP    ??mpu_reset_fifo_1 & 0xFFFF
// 1145             return -1;
// 1146         if (i2c_write(st.hw->addr, st.reg->fifo_en, 1, &st.chip_cfg.fifo_enable))
        ; Setup parameters for call to function MPU_Write_Len
        MOV     R4,#(st + 11) & 0xff
        MOV     R5,#((st + 11) >> 8) & 0xff
        MOV     R3,#0x1
        MOV     DPTR,#st
        MOVX    A,@DPTR
        MOV     R0,A
        INC     DPTR
        MOVX    A,@DPTR
        MOV     DPH,A
        MOV     DPL,R0
        INC     DPTR
        INC     DPTR
        INC     DPTR
        INC     DPTR
        INC     DPTR
        MOVX    A,@DPTR
        MOV     R2,A
        MOV     DPTR,#st + 2
        MOVX    A,@DPTR
        MOV     R0,A
        INC     DPTR
        MOVX    A,@DPTR
        MOV     DPH,A
        MOV     DPL,R0
        MOVX    A,@DPTR
        MOV     R1,A
        LCALL   ??MPU_Write_Len?relay
        MOV     A,R1
        JZ      $+5
        LJMP    ??mpu_reset_fifo_1 & 0xFFFF
// 1147             return -1;
// 1148     }
// 1149     return 0;
??mpu_reset_fifo_7:
        MOV     R2,#0x0
        MOV     R3,#0x0
??mpu_reset_fifo_2:
        MOV     A,#0x1
        LCALL   ?DEALLOC_XSTACK8
        CFI CFA_XSP16 XSP16+0
        POP     DPH
        CFI DPH0 SameValue
        CFI CFA_SP SP+-4
        POP     DPL
        CFI DPL0 SameValue
        CFI CFA_SP SP+-3
        LJMP    ?BRET
        CFI EndBlock cfiBlock9
// 1150 }
// 1151 
// 1152 /**
// 1153  *  @brief      Get the gyro full-scale range.
// 1154  *  @param[out] fsr Current full-scale range.
// 1155  *  @return     0 if successful.
// 1156  */

        RSEG BANKED_CODE:CODE:NOROOT(0)
// 1157 int mpu_get_gyro_fsr(unsigned short *fsr)
mpu_get_gyro_fsr:
        CFI Block cfiBlock10 Using cfiCommon0
        CFI Function mpu_get_gyro_fsr
        CODE
// 1158 {
        PUSH    DPL
        CFI DPL0 Frame(CFA_SP, 4)
        CFI CFA_SP SP+-4
        PUSH    DPH
        CFI DPH0 Frame(CFA_SP, 5)
        CFI CFA_SP SP+-5
        ; Saved register size: 2
        ; Auto size: 0
// 1159     switch (st.chip_cfg.gyro_fsr) {
        MOV     DPTR,#st + 4
        MOVX    A,@DPTR
        JZ      ??mpu_get_gyro_fsr_0
        DEC     A
        JZ      ??mpu_get_gyro_fsr_1
        DEC     A
        JZ      ??mpu_get_gyro_fsr_2
        DEC     A
        JZ      ??mpu_get_gyro_fsr_3
        SJMP    ??mpu_get_gyro_fsr_4
// 1160     case INV_FSR_250DPS:
// 1161         fsr[0] = 250;
??mpu_get_gyro_fsr_0:
        MOV     DPL,R2
        MOV     DPH,R3
        MOV     A,#-0x6
        MOVX    @DPTR,A
        INC     DPTR
        CLR     A
        SJMP    ??mpu_get_gyro_fsr_5
// 1162         break;
// 1163     case INV_FSR_500DPS:
// 1164         fsr[0] = 500;
??mpu_get_gyro_fsr_1:
        MOV     DPL,R2
        MOV     DPH,R3
        MOV     A,#-0xc
        MOVX    @DPTR,A
        INC     DPTR
        MOV     A,#0x1
        SJMP    ??mpu_get_gyro_fsr_5
// 1165         break;
// 1166     case INV_FSR_1000DPS:
// 1167         fsr[0] = 1000;
??mpu_get_gyro_fsr_2:
        MOV     DPL,R2
        MOV     DPH,R3
        MOV     A,#-0x18
        MOVX    @DPTR,A
        INC     DPTR
        MOV     A,#0x3
        SJMP    ??mpu_get_gyro_fsr_5
// 1168         break;
// 1169     case INV_FSR_2000DPS:
// 1170         fsr[0] = 2000;
??mpu_get_gyro_fsr_3:
        MOV     DPL,R2
        MOV     DPH,R3
        MOV     A,#-0x30
        MOVX    @DPTR,A
        INC     DPTR
        MOV     A,#0x7
        SJMP    ??mpu_get_gyro_fsr_5
// 1171         break;
// 1172     default:
// 1173         fsr[0] = 0;
??mpu_get_gyro_fsr_4:
        MOV     DPL,R2
        MOV     DPH,R3
        CLR     A
        MOVX    @DPTR,A
        INC     DPTR
??mpu_get_gyro_fsr_5:
        MOVX    @DPTR,A
// 1174         break;
// 1175     }
// 1176     return 0;
        MOV     R2,#0x0
        MOV     R3,#0x0
        POP     DPH
        CFI DPH0 SameValue
        CFI CFA_SP SP+-4
        POP     DPL
        CFI DPL0 SameValue
        CFI CFA_SP SP+-3
        LJMP    ?BRET
        CFI EndBlock cfiBlock10
// 1177 }
// 1178 
// 1179 /**
// 1180  *  @brief      Set the gyro full-scale range.
// 1181  *  @param[in]  fsr Desired full-scale range.
// 1182  *  @return     0 if successful.
// 1183  */

        RSEG BANKED_CODE:CODE:NOROOT(0)
// 1184 int mpu_set_gyro_fsr(unsigned short fsr)
mpu_set_gyro_fsr:
        CFI Block cfiBlock11 Using cfiCommon0
        CFI Function mpu_set_gyro_fsr
        CODE
// 1185 {
        FUNCALL mpu_set_gyro_fsr, MPU_Write_Len
        LOCFRAME ISTACK, 0, STACK
        LOCFRAME PSTACK, 0, STACK
        LOCFRAME XSTACK, 11, STACK
        LOCFRAME IOVERLAY, 0, STATIC
        LOCFRAME DOVERLAY, 0, STATIC
        ARGFRAME ISTACK, 0, STACK
        ARGFRAME PSTACK, 0, STACK
        ARGFRAME XSTACK, 11, STACK
        ARGFRAME IOVERLAY, 0, STATIC
        ARGFRAME DOVERLAY, 0, STATIC
        MOV     A,#-0xa
        LCALL   ?BANKED_ENTER_XDATA
        CFI DPH0 load(1, XDATA, add(CFA_XSP16, literal(-1)))
        CFI DPL0 load(1, XDATA, add(CFA_XSP16, literal(-2)))
        CFI ?BRET_EXT load(1, XDATA, add(CFA_XSP16, literal(-3)))
        CFI ?RET_HIGH load(1, XDATA, add(CFA_XSP16, literal(-4)))
        CFI ?RET_LOW load(1, XDATA, add(CFA_XSP16, literal(-5)))
        CFI R7 load(1, XDATA, add(CFA_XSP16, literal(-6)))
        CFI V1 load(1, XDATA, add(CFA_XSP16, literal(-7)))
        CFI V0 load(1, XDATA, add(CFA_XSP16, literal(-8)))
        CFI VB load(1, XDATA, add(CFA_XSP16, literal(-9)))
        CFI R6 load(1, XDATA, add(CFA_XSP16, literal(-10)))
        CFI CFA_SP SP+0
        CFI CFA_XSP16 add(XSP16, 10)
        ; Saved register size: 10
        ; Auto size: 1
        MOV     A,#-0x1
        LCALL   ?ALLOC_XSTACK8
        CFI CFA_XSP16 add(XSP16, 11)
// 1186     unsigned char data;
// 1187 
// 1188     if (!(st.chip_cfg.sensors))
        MOV     DPTR,#st + 6
        MOVX    A,@DPTR
        JNZ     ??mpu_set_gyro_fsr_0
// 1189         return -1;
??mpu_set_gyro_fsr_1:
        MOV     R2,#-0x1
        MOV     R3,#-0x1
        LJMP    ??mpu_set_gyro_fsr_2 & 0xFFFF
// 1190 
// 1191     switch (fsr) {
??mpu_set_gyro_fsr_0:
        MOV     ?V0 + 0,R2
        MOV     ?V0 + 1,R3
        MOV     R0,#?V0 + 0
        LCALL   ?US_SWITCH_SPARSE
`?<Jumptable for mpu_set_gyro_fsr>_0`:
        DATA
        DATA16
        DATA
        DATA16
        DATA
        DATA16
        DW        0
        DATA
        DATA16
        DATA
        DATA16
        DATA
        DATA16
        DW        4
        DATA
        DATA16
        DATA
        DATA16
        DATA
        DATA16
        DW        250
        DATA
        DATA16
        DATA
        DATA16
        DATA
        DATA16
        DW        ??mpu_set_gyro_fsr_3
        DATA
        DATA16
        DATA
        DATA16
        DATA
        DATA16
        DW        500
        DATA
        DATA16
        DATA
        DATA16
        DATA
        DATA16
        DW        ??mpu_set_gyro_fsr_4
        DATA
        DATA16
        DATA
        DATA16
        DATA
        DATA16
        DW        1000
        DATA
        DATA16
        DATA
        DATA16
        DATA
        DATA16
        DW        ??mpu_set_gyro_fsr_5
        DATA
        DATA16
        DATA
        DATA16
        DATA
        DATA16
        DW        2000
        DATA
        DATA16
        DATA
        DATA16
        DATA
        DATA16
        DW        ??mpu_set_gyro_fsr_6
        DATA
        DATA16
        DATA
        DATA16
        DW        ??mpu_set_gyro_fsr_1
        CODE
// 1192     case 250:
// 1193         data = INV_FSR_250DPS << 3;
??mpu_set_gyro_fsr_3:
        MOV     DPL,?XSP + 0
        MOV     DPH,?XSP + 1
        CLR     A
        SJMP    ??mpu_set_gyro_fsr_7
// 1194         break;
// 1195     case 500:
// 1196         data = INV_FSR_500DPS << 3;
??mpu_set_gyro_fsr_4:
        MOV     DPL,?XSP + 0
        MOV     DPH,?XSP + 1
        MOV     A,#0x8
        SJMP    ??mpu_set_gyro_fsr_7
// 1197         break;
// 1198     case 1000:
// 1199         data = INV_FSR_1000DPS << 3;
??mpu_set_gyro_fsr_5:
        MOV     DPL,?XSP + 0
        MOV     DPH,?XSP + 1
        MOV     A,#0x10
        SJMP    ??mpu_set_gyro_fsr_7
// 1200         break;
// 1201     case 2000:
// 1202         data = INV_FSR_2000DPS << 3;
??mpu_set_gyro_fsr_6:
        MOV     DPL,?XSP + 0
        MOV     DPH,?XSP + 1
        MOV     A,#0x18
??mpu_set_gyro_fsr_7:
        MOVX    @DPTR,A
// 1203         break;
// 1204     default:
// 1205         return -1;
// 1206     }
// 1207 
// 1208     if (st.chip_cfg.gyro_fsr == (data >> 3))
        MOV     DPTR,#st + 4
        MOVX    A,@DPTR
        MOV     R0,A
        MOV     DPL,?XSP + 0
        MOV     DPH,?XSP + 1
        MOVX    A,@DPTR
        RRC     A
        RRC     A
        RRC     A
        ANL     A,#0x1f
        XRL     A,R0
        JZ      ??mpu_set_gyro_fsr_8
// 1209         return 0;
// 1210     if (i2c_write(st.hw->addr, st.reg->gyro_cfg, 1, &data))
        ; Setup parameters for call to function MPU_Write_Len
        MOV     R4,DPL
        MOV     R5,DPH
        MOV     R3,#0x1
        MOV     DPTR,#st
        MOVX    A,@DPTR
        MOV     R0,A
        INC     DPTR
        MOVX    A,@DPTR
        MOV     DPH,A
        MOV     DPL,R0
        INC     DPTR
        INC     DPTR
        INC     DPTR
        INC     DPTR
        INC     DPTR
        INC     DPTR
        MOVX    A,@DPTR
        MOV     R2,A
        MOV     DPTR,#st + 2
        MOVX    A,@DPTR
        MOV     R0,A
        INC     DPTR
        MOVX    A,@DPTR
        MOV     DPH,A
        MOV     DPL,R0
        MOVX    A,@DPTR
        MOV     R1,A
        LCALL   ??MPU_Write_Len?relay
        MOV     A,R1
        JZ      $+5
        LJMP    ??mpu_set_gyro_fsr_1 & 0xFFFF
// 1211         return -1;
// 1212     st.chip_cfg.gyro_fsr = data >> 3;
        MOV     DPL,?XSP + 0
        MOV     DPH,?XSP + 1
        MOVX    A,@DPTR
        RRC     A
        RRC     A
        RRC     A
        ANL     A,#0x1f
        MOV     DPTR,#st + 4
        MOVX    @DPTR,A
// 1213     return 0;
??mpu_set_gyro_fsr_8:
        MOV     R2,#0x0
        MOV     R3,#0x0
??mpu_set_gyro_fsr_2:
        MOV     A,#0x1
        LCALL   ?DEALLOC_XSTACK8
        CFI CFA_XSP16 add(XSP16, 10)
        MOV     R7,#0x2
        LJMP    ?BANKED_LEAVE_XDATA
        CFI EndBlock cfiBlock11
// 1214 }
// 1215 
// 1216 /**
// 1217  *  @brief      Get the accel full-scale range.
// 1218  *  @param[out] fsr Current full-scale range.
// 1219  *  @return     0 if successful.
// 1220  */

        RSEG BANKED_CODE:CODE:NOROOT(0)
// 1221 int mpu_get_accel_fsr(unsigned char *fsr)
mpu_get_accel_fsr:
        CFI Block cfiBlock12 Using cfiCommon0
        CFI Function mpu_get_accel_fsr
        CODE
// 1222 {
        PUSH    DPL
        CFI DPL0 Frame(CFA_SP, 4)
        CFI CFA_SP SP+-4
        PUSH    DPH
        CFI DPH0 Frame(CFA_SP, 5)
        CFI CFA_SP SP+-5
        ; Saved register size: 2
        ; Auto size: 0
// 1223     switch (st.chip_cfg.accel_fsr) {
        MOV     DPTR,#st + 5
        MOVX    A,@DPTR
        JZ      ??mpu_get_accel_fsr_0
        DEC     A
        JZ      ??mpu_get_accel_fsr_1
        DEC     A
        JZ      ??mpu_get_accel_fsr_2
        DEC     A
        JZ      ??mpu_get_accel_fsr_3
        SJMP    ??mpu_get_accel_fsr_4
// 1224     case INV_FSR_2G:
// 1225         fsr[0] = 2;
??mpu_get_accel_fsr_0:
        MOV     DPL,R2
        MOV     DPH,R3
        MOV     A,#0x2
??mpu_get_accel_fsr_5:
        MOVX    @DPTR,A
// 1226         break;
// 1227     case INV_FSR_4G:
// 1228         fsr[0] = 4;
// 1229         break;
// 1230     case INV_FSR_8G:
// 1231         fsr[0] = 8;
// 1232         break;
// 1233     case INV_FSR_16G:
// 1234         fsr[0] = 16;
// 1235         break;
// 1236     default:
// 1237         return -1;
// 1238     }
// 1239     if (st.chip_cfg.accel_half)
        MOV     DPTR,#st + 14
        MOVX    A,@DPTR
        JZ      ??mpu_get_accel_fsr_6
// 1240         fsr[0] <<= 1;
        MOV     DPL,R2
        MOV     DPH,R3
        MOVX    A,@DPTR
        CLR     C
        RLC     A
        MOVX    @DPTR,A
// 1241     return 0;
??mpu_get_accel_fsr_6:
        MOV     R2,#0x0
        MOV     R3,#0x0
??mpu_get_accel_fsr_7:
        POP     DPH
        CFI DPH0 SameValue
        CFI CFA_SP SP+-4
        POP     DPL
        CFI DPL0 SameValue
        CFI CFA_SP SP+-3
        LJMP    ?BRET
        CFI DPL0 Frame(CFA_SP, 4)
        CFI DPH0 Frame(CFA_SP, 5)
        CFI CFA_SP SP+-5
??mpu_get_accel_fsr_1:
        MOV     DPL,R2
        MOV     DPH,R3
        MOV     A,#0x4
        SJMP    ??mpu_get_accel_fsr_5
??mpu_get_accel_fsr_2:
        MOV     DPL,R2
        MOV     DPH,R3
        MOV     A,#0x8
        SJMP    ??mpu_get_accel_fsr_5
??mpu_get_accel_fsr_3:
        MOV     DPL,R2
        MOV     DPH,R3
        MOV     A,#0x10
        SJMP    ??mpu_get_accel_fsr_5
??mpu_get_accel_fsr_4:
        MOV     R2,#-0x1
        MOV     R3,#-0x1
        SJMP    ??mpu_get_accel_fsr_7
        CFI EndBlock cfiBlock12
// 1242 }
// 1243 
// 1244 /**
// 1245  *  @brief      Set the accel full-scale range.
// 1246  *  @param[in]  fsr Desired full-scale range.
// 1247  *  @return     0 if successful.
// 1248  */

        RSEG BANKED_CODE:CODE:NOROOT(0)
// 1249 int mpu_set_accel_fsr(unsigned char fsr)
mpu_set_accel_fsr:
        CFI Block cfiBlock13 Using cfiCommon0
        CFI Function mpu_set_accel_fsr
        CODE
// 1250 {
        FUNCALL mpu_set_accel_fsr, MPU_Write_Len
        LOCFRAME ISTACK, 0, STACK
        LOCFRAME PSTACK, 0, STACK
        LOCFRAME XSTACK, 10, STACK
        LOCFRAME IOVERLAY, 0, STATIC
        LOCFRAME DOVERLAY, 0, STATIC
        ARGFRAME ISTACK, 0, STACK
        ARGFRAME PSTACK, 0, STACK
        ARGFRAME XSTACK, 10, STACK
        ARGFRAME IOVERLAY, 0, STATIC
        ARGFRAME DOVERLAY, 0, STATIC
        MOV     A,#-0x9
        LCALL   ?BANKED_ENTER_XDATA
        CFI DPH0 load(1, XDATA, add(CFA_XSP16, literal(-1)))
        CFI DPL0 load(1, XDATA, add(CFA_XSP16, literal(-2)))
        CFI ?BRET_EXT load(1, XDATA, add(CFA_XSP16, literal(-3)))
        CFI ?RET_HIGH load(1, XDATA, add(CFA_XSP16, literal(-4)))
        CFI ?RET_LOW load(1, XDATA, add(CFA_XSP16, literal(-5)))
        CFI R7 load(1, XDATA, add(CFA_XSP16, literal(-6)))
        CFI V0 load(1, XDATA, add(CFA_XSP16, literal(-7)))
        CFI VB load(1, XDATA, add(CFA_XSP16, literal(-8)))
        CFI R6 load(1, XDATA, add(CFA_XSP16, literal(-9)))
        CFI CFA_SP SP+0
        CFI CFA_XSP16 add(XSP16, 9)
        ; Saved register size: 9
        ; Auto size: 1
        MOV     A,#-0x1
        LCALL   ?ALLOC_XSTACK8
        CFI CFA_XSP16 add(XSP16, 10)
        MOV     A,R1
        MOV     R6,A
// 1251     unsigned char data;
// 1252 
// 1253     if (!(st.chip_cfg.sensors))
        MOV     DPTR,#st + 6
        MOVX    A,@DPTR
        JNZ     ??mpu_set_accel_fsr_0
// 1254         return -1;
??mpu_set_accel_fsr_1:
        MOV     R2,#-0x1
        MOV     R3,#-0x1
        LJMP    ??mpu_set_accel_fsr_2 & 0xFFFF
// 1255 
// 1256     switch (fsr) {
??mpu_set_accel_fsr_0:
        MOV     A,R6
        ADD     A,#-0x2
        JZ      ??mpu_set_accel_fsr_3
        ADD     A,#-0x2
        JZ      ??mpu_set_accel_fsr_4
        ADD     A,#-0x4
        JZ      ??mpu_set_accel_fsr_5
        ADD     A,#-0x8
        JZ      ??mpu_set_accel_fsr_6
        SJMP    ??mpu_set_accel_fsr_1
// 1257     case 2:
// 1258         data = INV_FSR_2G << 3;
??mpu_set_accel_fsr_3:
        MOV     DPL,?XSP + 0
        MOV     DPH,?XSP + 1
        CLR     A
        SJMP    ??mpu_set_accel_fsr_7
// 1259         break;
// 1260     case 4:
// 1261         data = INV_FSR_4G << 3;
??mpu_set_accel_fsr_4:
        MOV     DPL,?XSP + 0
        MOV     DPH,?XSP + 1
        MOV     A,#0x8
        SJMP    ??mpu_set_accel_fsr_7
// 1262         break;
// 1263     case 8:
// 1264         data = INV_FSR_8G << 3;
??mpu_set_accel_fsr_5:
        MOV     DPL,?XSP + 0
        MOV     DPH,?XSP + 1
        MOV     A,#0x10
        SJMP    ??mpu_set_accel_fsr_7
// 1265         break;
// 1266     case 16:
// 1267         data = INV_FSR_16G << 3;
??mpu_set_accel_fsr_6:
        MOV     DPL,?XSP + 0
        MOV     DPH,?XSP + 1
        MOV     A,#0x18
??mpu_set_accel_fsr_7:
        MOVX    @DPTR,A
// 1268         break;
// 1269     default:
// 1270         return -1;
// 1271     }
// 1272 
// 1273     if (st.chip_cfg.accel_fsr == (data >> 3))
        MOV     DPTR,#st + 5
        MOVX    A,@DPTR
        MOV     R0,A
        MOV     DPL,?XSP + 0
        MOV     DPH,?XSP + 1
        MOVX    A,@DPTR
        RRC     A
        RRC     A
        RRC     A
        ANL     A,#0x1f
        XRL     A,R0
        JZ      ??mpu_set_accel_fsr_8
// 1274         return 0;
// 1275     if (i2c_write(st.hw->addr, st.reg->accel_cfg, 1, &data))
        ; Setup parameters for call to function MPU_Write_Len
        MOV     R4,DPL
        MOV     R5,DPH
        MOV     R3,#0x1
        MOV     DPTR,#st
        MOVX    A,@DPTR
        MOV     R0,A
        INC     DPTR
        MOVX    A,@DPTR
        MOV     DPH,A
        MOV     DPL,R0
        INC     DPTR
        INC     DPTR
        INC     DPTR
        INC     DPTR
        INC     DPTR
        INC     DPTR
        INC     DPTR
        MOVX    A,@DPTR
        MOV     R2,A
        MOV     DPTR,#st + 2
        MOVX    A,@DPTR
        MOV     R0,A
        INC     DPTR
        MOVX    A,@DPTR
        MOV     DPH,A
        MOV     DPL,R0
        MOVX    A,@DPTR
        MOV     R1,A
        LCALL   ??MPU_Write_Len?relay
        MOV     A,R1
        JZ      $+5
        LJMP    ??mpu_set_accel_fsr_1 & 0xFFFF
// 1276         return -1;
// 1277     st.chip_cfg.accel_fsr = data >> 3;
        MOV     DPL,?XSP + 0
        MOV     DPH,?XSP + 1
        MOVX    A,@DPTR
        RRC     A
        RRC     A
        RRC     A
        ANL     A,#0x1f
        MOV     DPTR,#st + 5
        MOVX    @DPTR,A
// 1278     return 0;
??mpu_set_accel_fsr_8:
        MOV     R2,#0x0
        MOV     R3,#0x0
??mpu_set_accel_fsr_2:
        MOV     A,#0x1
        LCALL   ?DEALLOC_XSTACK8
        CFI CFA_XSP16 add(XSP16, 9)
        MOV     R7,#0x1
        LJMP    ?BANKED_LEAVE_XDATA
        CFI EndBlock cfiBlock13
// 1279 }
// 1280 
// 1281 /**
// 1282  *  @brief      Get the current DLPF setting.
// 1283  *  @param[out] lpf Current LPF setting.
// 1284  *  0 if successful.
// 1285  */

        RSEG BANKED_CODE:CODE:NOROOT(0)
// 1286 int mpu_get_lpf(unsigned short *lpf)
mpu_get_lpf:
        CFI Block cfiBlock14 Using cfiCommon0
        CFI Function mpu_get_lpf
        CODE
// 1287 {
        PUSH    DPL
        CFI DPL0 Frame(CFA_SP, 4)
        CFI CFA_SP SP+-4
        PUSH    DPH
        CFI DPH0 Frame(CFA_SP, 5)
        CFI CFA_SP SP+-5
        ; Saved register size: 2
        ; Auto size: 0
// 1288     switch (st.chip_cfg.lpf) {
        MOV     DPTR,#st + 7
        MOVX    A,@DPTR
        DEC     A
        JZ      ??mpu_get_lpf_0
        DEC     A
        JZ      ??mpu_get_lpf_1
        DEC     A
        JZ      ??mpu_get_lpf_2
        DEC     A
        JZ      ??mpu_get_lpf_3
        DEC     A
        JZ      ??mpu_get_lpf_4
        DEC     A
        JZ      ??mpu_get_lpf_5
        SJMP    ??mpu_get_lpf_6
// 1289     case INV_FILTER_188HZ:
// 1290         lpf[0] = 188;
??mpu_get_lpf_0:
        MOV     DPL,R2
        MOV     DPH,R3
        MOV     A,#-0x44
??mpu_get_lpf_7:
        MOVX    @DPTR,A
        INC     DPTR
        CLR     A
        SJMP    ??mpu_get_lpf_8
// 1291         break;
// 1292     case INV_FILTER_98HZ:
// 1293         lpf[0] = 98;
??mpu_get_lpf_1:
        MOV     DPL,R2
        MOV     DPH,R3
        MOV     A,#0x62
        SJMP    ??mpu_get_lpf_7
// 1294         break;
// 1295     case INV_FILTER_42HZ:
// 1296         lpf[0] = 42;
??mpu_get_lpf_2:
        MOV     DPL,R2
        MOV     DPH,R3
        MOV     A,#0x2a
        SJMP    ??mpu_get_lpf_7
// 1297         break;
// 1298     case INV_FILTER_20HZ:
// 1299         lpf[0] = 20;
??mpu_get_lpf_3:
        MOV     DPL,R2
        MOV     DPH,R3
        MOV     A,#0x14
        SJMP    ??mpu_get_lpf_7
// 1300         break;
// 1301     case INV_FILTER_10HZ:
// 1302         lpf[0] = 10;
??mpu_get_lpf_4:
        MOV     DPL,R2
        MOV     DPH,R3
        MOV     A,#0xa
        SJMP    ??mpu_get_lpf_7
// 1303         break;
// 1304     case INV_FILTER_5HZ:
// 1305         lpf[0] = 5;
??mpu_get_lpf_5:
        MOV     DPL,R2
        MOV     DPH,R3
        MOV     A,#0x5
        SJMP    ??mpu_get_lpf_7
// 1306         break;
// 1307     case INV_FILTER_256HZ_NOLPF2:
// 1308     case INV_FILTER_2100HZ_NOLPF:
// 1309     default:
// 1310         lpf[0] = 0;
??mpu_get_lpf_6:
        MOV     DPL,R2
        MOV     DPH,R3
        CLR     A
        MOVX    @DPTR,A
        INC     DPTR
??mpu_get_lpf_8:
        MOVX    @DPTR,A
// 1311         break;
// 1312     }
// 1313     return 0;
        MOV     R2,#0x0
        MOV     R3,#0x0
        POP     DPH
        CFI DPH0 SameValue
        CFI CFA_SP SP+-4
        POP     DPL
        CFI DPL0 SameValue
        CFI CFA_SP SP+-3
        LJMP    ?BRET
        CFI EndBlock cfiBlock14
// 1314 }
// 1315 
// 1316 /**
// 1317  *  @brief      Set digital low pass filter.
// 1318  *  The following LPF settings are supported: 188, 98, 42, 20, 10, 5.
// 1319  *  @param[in]  lpf Desired LPF setting.
// 1320  *  @return     0 if successful.
// 1321  */

        RSEG BANKED_CODE:CODE:NOROOT(0)
// 1322 int mpu_set_lpf(unsigned short lpf)
mpu_set_lpf:
        CFI Block cfiBlock15 Using cfiCommon0
        CFI Function mpu_set_lpf
        CODE
// 1323 {
        FUNCALL mpu_set_lpf, MPU_Write_Len
        LOCFRAME ISTACK, 2, STACK
        LOCFRAME PSTACK, 0, STACK
        LOCFRAME XSTACK, 1, STACK
        LOCFRAME IOVERLAY, 0, STATIC
        LOCFRAME DOVERLAY, 0, STATIC
        ARGFRAME ISTACK, 2, STACK
        ARGFRAME PSTACK, 0, STACK
        ARGFRAME XSTACK, 1, STACK
        ARGFRAME IOVERLAY, 0, STATIC
        ARGFRAME DOVERLAY, 0, STATIC
        PUSH    DPL
        CFI DPL0 Frame(CFA_SP, 4)
        CFI CFA_SP SP+-4
        PUSH    DPH
        CFI DPH0 Frame(CFA_SP, 5)
        CFI CFA_SP SP+-5
        ; Saved register size: 2
        ; Auto size: 1
        MOV     A,#-0x1
        LCALL   ?ALLOC_XSTACK8
        CFI CFA_XSP16 add(XSP16, 1)
// 1324     unsigned char data;
// 1325 
// 1326     if (!(st.chip_cfg.sensors))
        MOV     DPTR,#st + 6
        MOVX    A,@DPTR
        JNZ     ??mpu_set_lpf_0
// 1327         return -1;
??mpu_set_lpf_1:
        MOV     R2,#-0x1
        MOV     R3,#-0x1
        LJMP    ??mpu_set_lpf_2 & 0xFFFF
// 1328 
// 1329     if (lpf >= 188)
??mpu_set_lpf_0:
        CLR     C
        MOV     A,R2
        SUBB    A,#-0x44
        MOV     A,R3
        SUBB    A,#0x0
        JC      ??mpu_set_lpf_3
// 1330         data = INV_FILTER_188HZ;
        MOV     DPL,?XSP + 0
        MOV     DPH,?XSP + 1
        MOV     A,#0x1
        SJMP    ??mpu_set_lpf_4
// 1331     else if (lpf >= 98)
??mpu_set_lpf_3:
        CLR     C
        MOV     A,R2
        SUBB    A,#0x62
        MOV     A,R3
        SUBB    A,#0x0
        JC      ??mpu_set_lpf_5
// 1332         data = INV_FILTER_98HZ;
        MOV     DPL,?XSP + 0
        MOV     DPH,?XSP + 1
        MOV     A,#0x2
        SJMP    ??mpu_set_lpf_4
// 1333     else if (lpf >= 42)
??mpu_set_lpf_5:
        CLR     C
        MOV     A,R2
        SUBB    A,#0x2a
        MOV     A,R3
        SUBB    A,#0x0
        JC      ??mpu_set_lpf_6
// 1334         data = INV_FILTER_42HZ;
        MOV     DPL,?XSP + 0
        MOV     DPH,?XSP + 1
        MOV     A,#0x3
        SJMP    ??mpu_set_lpf_4
// 1335     else if (lpf >= 20)
??mpu_set_lpf_6:
        CLR     C
        MOV     A,R2
        SUBB    A,#0x14
        MOV     A,R3
        SUBB    A,#0x0
        JC      ??mpu_set_lpf_7
// 1336         data = INV_FILTER_20HZ;
        MOV     DPL,?XSP + 0
        MOV     DPH,?XSP + 1
        MOV     A,#0x4
        SJMP    ??mpu_set_lpf_4
// 1337     else if (lpf >= 10)
??mpu_set_lpf_7:
        CLR     C
        MOV     A,R2
        SUBB    A,#0xa
        MOV     A,R3
        SUBB    A,#0x0
        MOV     DPL,?XSP + 0
        MOV     DPH,?XSP + 1
        JC      ??mpu_set_lpf_8
// 1338         data = INV_FILTER_10HZ;
        MOV     A,#0x5
        SJMP    ??mpu_set_lpf_4
// 1339     else
// 1340         data = INV_FILTER_5HZ;
??mpu_set_lpf_8:
        MOV     A,#0x6
??mpu_set_lpf_4:
        MOVX    @DPTR,A
// 1341 
// 1342     if (st.chip_cfg.lpf == data)
        MOV     DPTR,#st + 7
        MOVX    A,@DPTR
        MOV     R0,A
        MOV     DPL,?XSP + 0
        MOV     DPH,?XSP + 1
        MOVX    A,@DPTR
        XRL     A,R0
        JZ      ??mpu_set_lpf_9
// 1343         return 0;
// 1344     if (i2c_write(st.hw->addr, st.reg->lpf, 1, &data))
        ; Setup parameters for call to function MPU_Write_Len
        MOV     R4,DPL
        MOV     R5,DPH
        MOV     R3,#0x1
        MOV     DPTR,#st
        MOVX    A,@DPTR
        MOV     R0,A
        INC     DPTR
        MOVX    A,@DPTR
        MOV     DPH,A
        MOV     DPL,R0
        INC     DPTR
        INC     DPTR
        MOVX    A,@DPTR
        MOV     R2,A
        MOV     DPTR,#st + 2
        MOVX    A,@DPTR
        MOV     R0,A
        INC     DPTR
        MOVX    A,@DPTR
        MOV     DPH,A
        MOV     DPL,R0
        MOVX    A,@DPTR
        MOV     R1,A
        LCALL   ??MPU_Write_Len?relay
        MOV     A,R1
        JZ      $+5
        LJMP    ??mpu_set_lpf_1 & 0xFFFF
// 1345         return -1;
// 1346     st.chip_cfg.lpf = data;
        MOV     DPL,?XSP + 0
        MOV     DPH,?XSP + 1
        MOVX    A,@DPTR
        MOV     DPTR,#st + 7
        MOVX    @DPTR,A
// 1347     return 0;
??mpu_set_lpf_9:
        MOV     R2,#0x0
        MOV     R3,#0x0
??mpu_set_lpf_2:
        MOV     A,#0x1
        LCALL   ?DEALLOC_XSTACK8
        CFI CFA_XSP16 XSP16+0
        POP     DPH
        CFI DPH0 SameValue
        CFI CFA_SP SP+-4
        POP     DPL
        CFI DPL0 SameValue
        CFI CFA_SP SP+-3
        LJMP    ?BRET
        CFI EndBlock cfiBlock15
// 1348 }
// 1349 
// 1350 /**
// 1351  *  @brief      Get sampling rate.
// 1352  *  @param[out] rate    Current sampling rate (Hz).
// 1353  *  @return     0 if successful.
// 1354  */

        RSEG BANKED_CODE:CODE:NOROOT(0)
// 1355 int mpu_get_sample_rate(unsigned short *rate)
mpu_get_sample_rate:
        CFI Block cfiBlock16 Using cfiCommon0
        CFI Function mpu_get_sample_rate
        CODE
// 1356 {
        PUSH    DPL
        CFI DPL0 Frame(CFA_SP, 4)
        CFI CFA_SP SP+-4
        PUSH    DPH
        CFI DPH0 Frame(CFA_SP, 5)
        CFI CFA_SP SP+-5
        ; Saved register size: 2
        ; Auto size: 0
// 1357     if (st.chip_cfg.dmp_on)
        MOV     DPTR,#st + 29
        MOVX    A,@DPTR
        JZ      ??mpu_get_sample_rate_0
// 1358         return -1;
        MOV     R2,#-0x1
        MOV     R3,#-0x1
        SJMP    ??mpu_get_sample_rate_1
// 1359     else
// 1360         rate[0] = st.chip_cfg.sample_rate;
??mpu_get_sample_rate_0:
        MOV     DPTR,#st + 9
        MOVX    A,@DPTR
        MOV     R0,A
        INC     DPTR
        MOVX    A,@DPTR
        MOV     R1,A
        MOV     DPL,R2
        MOV     DPH,R3
        MOV     A,R0
        MOVX    @DPTR,A
        INC     DPTR
        MOV     A,R1
        MOVX    @DPTR,A
// 1361     return 0;
        MOV     R2,#0x0
        MOV     R3,#0x0
??mpu_get_sample_rate_1:
        POP     DPH
        CFI DPH0 SameValue
        CFI CFA_SP SP+-4
        POP     DPL
        CFI DPL0 SameValue
        CFI CFA_SP SP+-3
        LJMP    ?BRET
        CFI EndBlock cfiBlock16
// 1362 }
// 1363 
// 1364 /**
// 1365  *  @brief      Set sampling rate.
// 1366  *  Sampling rate must be between 4Hz and 1kHz.
// 1367  *  @param[in]  rate    Desired sampling rate (Hz).
// 1368  *  @return     0 if successful.
// 1369  */

        RSEG BANKED_CODE:CODE:NOROOT(0)
// 1370 int mpu_set_sample_rate(unsigned short rate)
mpu_set_sample_rate:
        CFI Block cfiBlock17 Using cfiCommon0
        CFI Function mpu_set_sample_rate
        CODE
// 1371 {
        FUNCALL mpu_set_sample_rate, mpu_lp_accel_mode
        LOCFRAME ISTACK, 0, STACK
        LOCFRAME PSTACK, 0, STACK
        LOCFRAME XSTACK, 10, STACK
        LOCFRAME IOVERLAY, 0, STATIC
        LOCFRAME DOVERLAY, 0, STATIC
        ARGFRAME ISTACK, 0, STACK
        ARGFRAME PSTACK, 0, STACK
        ARGFRAME XSTACK, 10, STACK
        ARGFRAME IOVERLAY, 0, STATIC
        ARGFRAME DOVERLAY, 0, STATIC
        FUNCALL mpu_set_sample_rate, mpu_lp_accel_mode
        LOCFRAME ISTACK, 0, STACK
        LOCFRAME PSTACK, 0, STACK
        LOCFRAME XSTACK, 10, STACK
        LOCFRAME IOVERLAY, 0, STATIC
        LOCFRAME DOVERLAY, 0, STATIC
        ARGFRAME ISTACK, 0, STACK
        ARGFRAME PSTACK, 0, STACK
        ARGFRAME XSTACK, 10, STACK
        ARGFRAME IOVERLAY, 0, STATIC
        ARGFRAME DOVERLAY, 0, STATIC
        FUNCALL mpu_set_sample_rate, MPU_Write_Len
        LOCFRAME ISTACK, 0, STACK
        LOCFRAME PSTACK, 0, STACK
        LOCFRAME XSTACK, 10, STACK
        LOCFRAME IOVERLAY, 0, STATIC
        LOCFRAME DOVERLAY, 0, STATIC
        ARGFRAME ISTACK, 0, STACK
        ARGFRAME PSTACK, 0, STACK
        ARGFRAME XSTACK, 10, STACK
        ARGFRAME IOVERLAY, 0, STATIC
        ARGFRAME DOVERLAY, 0, STATIC
        FUNCALL mpu_set_sample_rate, mpu_set_lpf
        LOCFRAME ISTACK, 0, STACK
        LOCFRAME PSTACK, 0, STACK
        LOCFRAME XSTACK, 10, STACK
        LOCFRAME IOVERLAY, 0, STATIC
        LOCFRAME DOVERLAY, 0, STATIC
        ARGFRAME ISTACK, 0, STACK
        ARGFRAME PSTACK, 0, STACK
        ARGFRAME XSTACK, 10, STACK
        ARGFRAME IOVERLAY, 0, STATIC
        ARGFRAME DOVERLAY, 0, STATIC
        MOV     A,#-0x9
        LCALL   ?BANKED_ENTER_XDATA
        CFI DPH0 load(1, XDATA, add(CFA_XSP16, literal(-1)))
        CFI DPL0 load(1, XDATA, add(CFA_XSP16, literal(-2)))
        CFI ?BRET_EXT load(1, XDATA, add(CFA_XSP16, literal(-3)))
        CFI ?RET_HIGH load(1, XDATA, add(CFA_XSP16, literal(-4)))
        CFI ?RET_LOW load(1, XDATA, add(CFA_XSP16, literal(-5)))
        CFI R7 load(1, XDATA, add(CFA_XSP16, literal(-6)))
        CFI V0 load(1, XDATA, add(CFA_XSP16, literal(-7)))
        CFI VB load(1, XDATA, add(CFA_XSP16, literal(-8)))
        CFI R6 load(1, XDATA, add(CFA_XSP16, literal(-9)))
        CFI CFA_SP SP+0
        CFI CFA_XSP16 add(XSP16, 9)
        ; Saved register size: 9
        ; Auto size: 1
        MOV     A,#-0x1
        LCALL   ?ALLOC_XSTACK8
        CFI CFA_XSP16 add(XSP16, 10)
        MOV     A,R2
        MOV     R6,A
        MOV     A,R3
        MOV     R7,A
// 1372     unsigned char data;
// 1373 
// 1374     if (!(st.chip_cfg.sensors))
        MOV     DPTR,#st + 6
        MOVX    A,@DPTR
        JNZ     ??mpu_set_sample_rate_0
// 1375         return -1;
??mpu_set_sample_rate_1:
        MOV     R2,#-0x1
        MOV     R3,#-0x1
        LJMP    ??mpu_set_sample_rate_2 & 0xFFFF
// 1376 
// 1377     if (st.chip_cfg.dmp_on)
??mpu_set_sample_rate_0:
        MOV     DPTR,#st + 29
        MOVX    A,@DPTR
        JNZ     ??mpu_set_sample_rate_1
// 1378         return -1;
// 1379     else {
// 1380         if (st.chip_cfg.lp_accel_mode) {
        MOV     DPTR,#st + 15
        MOVX    A,@DPTR
        JZ      ??mpu_set_sample_rate_3
// 1381             if (rate && (rate <= 40)) {
        MOV     A,R6
        ORL     A,R7
        JZ      ??mpu_set_sample_rate_4
        CLR     C
        MOV     A,R6
        SUBB    A,#0x29
        MOV     A,R7
        SUBB    A,#0x0
        JNC     ??mpu_set_sample_rate_4
// 1382                 /* Just stay in low-power accel mode. */
// 1383                 mpu_lp_accel_mode(rate);
        ; Setup parameters for call to function mpu_lp_accel_mode
        MOV     A,R6
        MOV     R1,A
        LCALL   ??mpu_lp_accel_mode?relay
// 1384                 return 0;
        LJMP    ??mpu_set_sample_rate_5 & 0xFFFF
// 1385             }
// 1386             /* Requested rate exceeds the allowed frequencies in LP accel mode,
// 1387              * switch back to full-power mode.
// 1388              */
// 1389             mpu_lp_accel_mode(0);
??mpu_set_sample_rate_4:
        ; Setup parameters for call to function mpu_lp_accel_mode
        MOV     R1,#0x0
        LCALL   ??mpu_lp_accel_mode?relay
// 1390         }
// 1391         if (rate < 4)
??mpu_set_sample_rate_3:
        CLR     C
        MOV     A,R6
        SUBB    A,#0x4
        MOV     A,R7
        SUBB    A,#0x0
        JNC     ??mpu_set_sample_rate_6
// 1392             rate = 4;
        MOV     R6,#0x4
        MOV     R7,#0x0
        SJMP    ??mpu_set_sample_rate_7
// 1393         else if (rate > 1000)
??mpu_set_sample_rate_6:
        CLR     C
        MOV     A,R6
        SUBB    A,#-0x17
        MOV     A,R7
        SUBB    A,#0x3
        JC      ??mpu_set_sample_rate_7
// 1394             rate = 1000;
        MOV     R6,#-0x18
        MOV     R7,#0x3
// 1395 
// 1396         data = 1000 / rate - 1;
??mpu_set_sample_rate_7:
        MOV     R0,#-0x18
        MOV     R1,#0x3
        MOV     A,R6
        MOV     R2,A
        MOV     A,R7
        MOV     R3,A
        LCALL   ?US_DIV_MOD
        MOV     A,R0
        DEC     A
        MOV     DPL,?XSP + 0
        MOV     DPH,?XSP + 1
        MOVX    @DPTR,A
// 1397         if (i2c_write(st.hw->addr, st.reg->rate_div, 1, &data))
        ; Setup parameters for call to function MPU_Write_Len
        MOV     R4,DPL
        MOV     R5,DPH
        MOV     R3,#0x1
        MOV     DPTR,#st
        MOVX    A,@DPTR
        MOV     R0,A
        INC     DPTR
        MOVX    A,@DPTR
        MOV     DPH,A
        MOV     DPL,R0
        INC     DPTR
        MOVX    A,@DPTR
        MOV     R2,A
        MOV     DPTR,#st + 2
        MOVX    A,@DPTR
        MOV     R0,A
        INC     DPTR
        MOVX    A,@DPTR
        MOV     DPH,A
        MOV     DPL,R0
        MOVX    A,@DPTR
        MOV     R1,A
        LCALL   ??MPU_Write_Len?relay
        MOV     A,R1
        JZ      $+5
        LJMP    ??mpu_set_sample_rate_1 & 0xFFFF
// 1398             return -1;
// 1399 
// 1400         st.chip_cfg.sample_rate = 1000 / (1 + data);
        MOV     R0,#-0x18
        MOV     R1,#0x3
        MOV     DPL,?XSP + 0
        MOV     DPH,?XSP + 1
        MOVX    A,@DPTR
        ADD     A,#0x1
        MOV     R2,A
        CLR     A
        ADDC    A,#0x0
        MOV     R3,A
        LCALL   ?S_DIV_MOD
        MOV     DPTR,#st + 9
        MOV     A,R0
        MOVX    @DPTR,A
        INC     DPTR
        MOV     A,R1
        MOVX    @DPTR,A
// 1401 
// 1402 #ifdef AK89xx_SECONDARY
// 1403         mpu_set_compass_sample_rate(min(st.chip_cfg.compass_sample_rate, MAX_COMPASS_SAMPLE_RATE));
// 1404 #endif
// 1405 
// 1406         /* Automatically set LPF to 1/2 sampling rate. */
// 1407         mpu_set_lpf(st.chip_cfg.sample_rate >> 1);
        ; Setup parameters for call to function mpu_set_lpf
        MOV     DPTR,#st + 9
        MOVX    A,@DPTR
        MOV     R2,A
        INC     DPTR
        MOVX    A,@DPTR
        CLR     C
        RRC     A
        MOV     R3,A
        MOV     A,R2
        RRC     A
        MOV     R2,A
        LCALL   ??mpu_set_lpf?relay
// 1408         return 0;
??mpu_set_sample_rate_5:
        MOV     R2,#0x0
        MOV     R3,#0x0
??mpu_set_sample_rate_2:
        MOV     A,#0x1
        LCALL   ?DEALLOC_XSTACK8
        CFI CFA_XSP16 add(XSP16, 9)
        MOV     R7,#0x1
        LJMP    ?BANKED_LEAVE_XDATA
        CFI EndBlock cfiBlock17
// 1409     }
// 1410 }
// 1411 
// 1412 /**
// 1413  *  @brief      Get compass sampling rate.
// 1414  *  @param[out] rate    Current compass sampling rate (Hz).
// 1415  *  @return     0 if successful.
// 1416  */

        RSEG BANKED_CODE:CODE:NOROOT(0)
// 1417 int mpu_get_compass_sample_rate(unsigned short *rate)
mpu_get_compass_sample_rate:
        CFI Block cfiBlock18 Using cfiCommon0
        CFI Function mpu_get_compass_sample_rate
        CODE
// 1418 {
        PUSH    DPL
        CFI DPL0 Frame(CFA_SP, 4)
        CFI CFA_SP SP+-4
        PUSH    DPH
        CFI DPH0 Frame(CFA_SP, 5)
        CFI CFA_SP SP+-5
        ; Saved register size: 2
        ; Auto size: 0
// 1419 #ifdef AK89xx_SECONDARY
// 1420     rate[0] = st.chip_cfg.compass_sample_rate;
// 1421     return 0;
// 1422 #else
// 1423     rate[0] = 0;
        MOV     DPL,R2
        MOV     DPH,R3
        CLR     A
        MOVX    @DPTR,A
        INC     DPTR
        MOVX    @DPTR,A
// 1424     return -1;
        MOV     R2,#-0x1
        MOV     R3,#-0x1
        POP     DPH
        CFI DPH0 SameValue
        CFI CFA_SP SP+-4
        POP     DPL
        CFI DPL0 SameValue
        CFI CFA_SP SP+-3
        LJMP    ?BRET
        CFI EndBlock cfiBlock18
// 1425 #endif
// 1426 }
// 1427 
// 1428 /**
// 1429  *  @brief      Set compass sampling rate.
// 1430  *  The compass on the auxiliary I2C bus is read by the MPU hardware at a
// 1431  *  maximum of 100Hz. The actual rate can be set to a fraction of the gyro
// 1432  *  sampling rate.
// 1433  *
// 1434  *  \n WARNING: The new rate may be different than what was requested. Call
// 1435  *  mpu_get_compass_sample_rate to check the actual setting.
// 1436  *  @param[in]  rate    Desired compass sampling rate (Hz).
// 1437  *  @return     0 if successful.
// 1438  */

        RSEG BANKED_CODE:CODE:NOROOT(0)
// 1439 int mpu_set_compass_sample_rate(unsigned short rate)
mpu_set_compass_sample_rate:
        CFI Block cfiBlock19 Using cfiCommon0
        CFI Function mpu_set_compass_sample_rate
        CODE
// 1440 {
        ; Saved register size: 0
        ; Auto size: 0
// 1441 #ifdef AK89xx_SECONDARY
// 1442     unsigned char div;
// 1443     if (!rate || rate > st.chip_cfg.sample_rate || rate > MAX_COMPASS_SAMPLE_RATE)
// 1444         return -1;
// 1445 
// 1446     div = st.chip_cfg.sample_rate / rate - 1;
// 1447     if (i2c_write(st.hw->addr, st.reg->s4_ctrl, 1, &div))
// 1448         return -1;
// 1449     st.chip_cfg.compass_sample_rate = st.chip_cfg.sample_rate / (div + 1);
// 1450     return 0;
// 1451 #else
// 1452     return -1;
        MOV     R2,#-0x1
        MOV     R3,#-0x1
        LJMP    ?BRET
        CFI EndBlock cfiBlock19
// 1453 #endif
// 1454 }
// 1455 
// 1456 /**
// 1457  *  @brief      Get gyro sensitivity scale factor.
// 1458  *  @param[out] sens    Conversion from hardware units to dps.
// 1459  *  @return     0 if successful.
// 1460  */

        RSEG BANKED_CODE:CODE:NOROOT(0)
// 1461 int mpu_get_gyro_sens(float *sens)
mpu_get_gyro_sens:
        CFI Block cfiBlock20 Using cfiCommon0
        CFI Function mpu_get_gyro_sens
        CODE
// 1462 {
        MOV     A,#-0x9
        LCALL   ?BANKED_ENTER_XDATA
        CFI DPH0 load(1, XDATA, add(CFA_XSP16, literal(-1)))
        CFI DPL0 load(1, XDATA, add(CFA_XSP16, literal(-2)))
        CFI ?BRET_EXT load(1, XDATA, add(CFA_XSP16, literal(-3)))
        CFI ?RET_HIGH load(1, XDATA, add(CFA_XSP16, literal(-4)))
        CFI ?RET_LOW load(1, XDATA, add(CFA_XSP16, literal(-5)))
        CFI R7 load(1, XDATA, add(CFA_XSP16, literal(-6)))
        CFI V0 load(1, XDATA, add(CFA_XSP16, literal(-7)))
        CFI VB load(1, XDATA, add(CFA_XSP16, literal(-8)))
        CFI R6 load(1, XDATA, add(CFA_XSP16, literal(-9)))
        CFI CFA_SP SP+0
        CFI CFA_XSP16 add(XSP16, 9)
        ; Saved register size: 9
        ; Auto size: 0
        MOV     A,R2
        MOV     R0,A
        MOV     A,R3
        MOV     R1,A
// 1463     switch (st.chip_cfg.gyro_fsr) {
        MOV     DPTR,#st + 4
        MOVX    A,@DPTR
        JZ      ??mpu_get_gyro_sens_0
        DEC     A
        JZ      ??mpu_get_gyro_sens_1
        DEC     A
        JZ      ??mpu_get_gyro_sens_2
        DEC     A
        JZ      ??mpu_get_gyro_sens_3
        SJMP    ??mpu_get_gyro_sens_4
// 1464     case INV_FSR_250DPS:
// 1465         sens[0] = 131.f;
??mpu_get_gyro_sens_0:
        MOV     DPTR,#__Constant_43030000
??mpu_get_gyro_sens_5:
        LCALL   ?XLOAD_R2345
        MOV     DPL,R0
        MOV     DPH,R1
        LCALL   ?XSTORE_R2345
// 1466         break;
// 1467     case INV_FSR_500DPS:
// 1468         sens[0] = 65.5f;
// 1469         break;
// 1470     case INV_FSR_1000DPS:
// 1471         sens[0] = 32.8f;
// 1472         break;
// 1473     case INV_FSR_2000DPS:
// 1474         sens[0] = 16.4f;
// 1475         break;
// 1476     default:
// 1477         return -1;
// 1478     }
// 1479     return 0;
        MOV     R2,#0x0
        MOV     R3,#0x0
??mpu_get_gyro_sens_6:
        MOV     R7,#0x1
        LJMP    ?BANKED_LEAVE_XDATA
??mpu_get_gyro_sens_1:
        MOV     DPTR,#__Constant_42830000
        SJMP    ??mpu_get_gyro_sens_5
??mpu_get_gyro_sens_2:
        MOV     DPTR,#__Constant_42033333
        SJMP    ??mpu_get_gyro_sens_5
??mpu_get_gyro_sens_3:
        MOV     DPTR,#__Constant_41833333
        SJMP    ??mpu_get_gyro_sens_5
??mpu_get_gyro_sens_4:
        MOV     R2,#-0x1
        MOV     R3,#-0x1
        SJMP    ??mpu_get_gyro_sens_6
        CFI EndBlock cfiBlock20
// 1480 }
// 1481 
// 1482 /**
// 1483  *  @brief      Get accel sensitivity scale factor.
// 1484  *  @param[out] sens    Conversion from hardware units to g's.
// 1485  *  @return     0 if successful.
// 1486  */

        RSEG BANKED_CODE:CODE:NOROOT(0)
// 1487 int mpu_get_accel_sens(unsigned short *sens)
mpu_get_accel_sens:
        CFI Block cfiBlock21 Using cfiCommon0
        CFI Function mpu_get_accel_sens
        CODE
// 1488 {
        PUSH    DPL
        CFI DPL0 Frame(CFA_SP, 4)
        CFI CFA_SP SP+-4
        PUSH    DPH
        CFI DPH0 Frame(CFA_SP, 5)
        CFI CFA_SP SP+-5
        ; Saved register size: 2
        ; Auto size: 0
// 1489     switch (st.chip_cfg.accel_fsr) {
        MOV     DPTR,#st + 5
        MOVX    A,@DPTR
        JZ      ??mpu_get_accel_sens_0
        DEC     A
        JZ      ??mpu_get_accel_sens_1
        DEC     A
        JZ      ??mpu_get_accel_sens_2
        DEC     A
        JZ      ??mpu_get_accel_sens_3
        SJMP    ??mpu_get_accel_sens_4
// 1490     case INV_FSR_2G:
// 1491         sens[0] = 16384;
??mpu_get_accel_sens_0:
        MOV     DPL,R2
        MOV     DPH,R3
        CLR     A
        MOVX    @DPTR,A
        INC     DPTR
        MOV     A,#0x40
??mpu_get_accel_sens_5:
        MOVX    @DPTR,A
// 1492         break;
// 1493     case INV_FSR_4G:
// 1494         sens[0] = 8092;
// 1495         break;
// 1496     case INV_FSR_8G:
// 1497         sens[0] = 4096;
// 1498         break;
// 1499     case INV_FSR_16G:
// 1500         sens[0] = 2048;
// 1501         break;
// 1502     default:
// 1503         return -1;
// 1504     }
// 1505     if (st.chip_cfg.accel_half)
        MOV     DPTR,#st + 14
        MOVX    A,@DPTR
        JZ      ??mpu_get_accel_sens_6
// 1506         sens[0] >>= 1;
        MOV     DPL,R2
        MOV     DPH,R3
        MOVX    A,@DPTR
        MOV     R0,A
        INC     DPTR
        MOVX    A,@DPTR
        CLR     C
        RRC     A
        MOV     R1,A
        MOV     A,R0
        RRC     A
        MOV     DPL,R2
        MOV     DPH,R3
        MOVX    @DPTR,A
        INC     DPTR
        MOV     A,R1
        MOVX    @DPTR,A
// 1507     return 0;
??mpu_get_accel_sens_6:
        MOV     R2,#0x0
        MOV     R3,#0x0
??mpu_get_accel_sens_7:
        POP     DPH
        CFI DPH0 SameValue
        CFI CFA_SP SP+-4
        POP     DPL
        CFI DPL0 SameValue
        CFI CFA_SP SP+-3
        LJMP    ?BRET
        CFI DPL0 Frame(CFA_SP, 4)
        CFI DPH0 Frame(CFA_SP, 5)
        CFI CFA_SP SP+-5
??mpu_get_accel_sens_1:
        MOV     DPL,R2
        MOV     DPH,R3
        MOV     A,#-0x64
        MOVX    @DPTR,A
        INC     DPTR
        MOV     A,#0x1f
        SJMP    ??mpu_get_accel_sens_5
??mpu_get_accel_sens_2:
        MOV     DPL,R2
        MOV     DPH,R3
        CLR     A
        MOVX    @DPTR,A
        INC     DPTR
        MOV     A,#0x10
        SJMP    ??mpu_get_accel_sens_5
??mpu_get_accel_sens_3:
        MOV     DPL,R2
        MOV     DPH,R3
        CLR     A
        MOVX    @DPTR,A
        INC     DPTR
        MOV     A,#0x8
        SJMP    ??mpu_get_accel_sens_5
??mpu_get_accel_sens_4:
        MOV     R2,#-0x1
        MOV     R3,#-0x1
        SJMP    ??mpu_get_accel_sens_7
        CFI EndBlock cfiBlock21
// 1508 }
// 1509 
// 1510 /**
// 1511  *  @brief      Get current FIFO configuration.
// 1512  *  @e sensors can contain a combination of the following flags:
// 1513  *  \n INV_X_GYRO, INV_Y_GYRO, INV_Z_GYRO
// 1514  *  \n INV_XYZ_GYRO
// 1515  *  \n INV_XYZ_ACCEL
// 1516  *  @param[out] sensors Mask of sensors in FIFO.
// 1517  *  @return     0 if successful.
// 1518  */

        RSEG BANKED_CODE:CODE:NOROOT(0)
// 1519 int mpu_get_fifo_config(unsigned char *sensors)
mpu_get_fifo_config:
        CFI Block cfiBlock22 Using cfiCommon0
        CFI Function mpu_get_fifo_config
        CODE
// 1520 {
        PUSH    DPL
        CFI DPL0 Frame(CFA_SP, 4)
        CFI CFA_SP SP+-4
        PUSH    DPH
        CFI DPH0 Frame(CFA_SP, 5)
        CFI CFA_SP SP+-5
        ; Saved register size: 2
        ; Auto size: 0
// 1521     sensors[0] = st.chip_cfg.fifo_enable;
        MOV     DPTR,#st + 11
        MOVX    A,@DPTR
        MOV     DPL,R2
        MOV     DPH,R3
        MOVX    @DPTR,A
// 1522     return 0;
        MOV     R2,#0x0
        MOV     R3,#0x0
        POP     DPH
        CFI DPH0 SameValue
        CFI CFA_SP SP+-4
        POP     DPL
        CFI DPL0 SameValue
        CFI CFA_SP SP+-3
        LJMP    ?BRET
        CFI EndBlock cfiBlock22
// 1523 }
// 1524 
// 1525 /**
// 1526  *  @brief      Select which sensors are pushed to FIFO.
// 1527  *  @e sensors can contain a combination of the following flags:
// 1528  *  \n INV_X_GYRO, INV_Y_GYRO, INV_Z_GYRO
// 1529  *  \n INV_XYZ_GYRO
// 1530  *  \n INV_XYZ_ACCEL
// 1531  *  @param[in]  sensors Mask of sensors to push to FIFO.
// 1532  *  @return     0 if successful.
// 1533  */

        RSEG BANKED_CODE:CODE:NOROOT(0)
// 1534 int mpu_configure_fifo(unsigned char sensors)
mpu_configure_fifo:
        CFI Block cfiBlock23 Using cfiCommon0
        CFI Function mpu_configure_fifo
        CODE
// 1535 {
        FUNCALL mpu_configure_fifo, set_int_enable
        LOCFRAME ISTACK, 0, STACK
        LOCFRAME PSTACK, 0, STACK
        LOCFRAME XSTACK, 12, STACK
        LOCFRAME IOVERLAY, 0, STATIC
        LOCFRAME DOVERLAY, 0, STATIC
        ARGFRAME ISTACK, 0, STACK
        ARGFRAME PSTACK, 0, STACK
        ARGFRAME XSTACK, 12, STACK
        ARGFRAME IOVERLAY, 0, STATIC
        ARGFRAME DOVERLAY, 0, STATIC
        FUNCALL mpu_configure_fifo, set_int_enable
        LOCFRAME ISTACK, 0, STACK
        LOCFRAME PSTACK, 0, STACK
        LOCFRAME XSTACK, 12, STACK
        LOCFRAME IOVERLAY, 0, STATIC
        LOCFRAME DOVERLAY, 0, STATIC
        ARGFRAME ISTACK, 0, STACK
        ARGFRAME PSTACK, 0, STACK
        ARGFRAME XSTACK, 12, STACK
        ARGFRAME IOVERLAY, 0, STATIC
        ARGFRAME DOVERLAY, 0, STATIC
        FUNCALL mpu_configure_fifo, mpu_reset_fifo
        LOCFRAME ISTACK, 0, STACK
        LOCFRAME PSTACK, 0, STACK
        LOCFRAME XSTACK, 12, STACK
        LOCFRAME IOVERLAY, 0, STATIC
        LOCFRAME DOVERLAY, 0, STATIC
        ARGFRAME ISTACK, 0, STACK
        ARGFRAME PSTACK, 0, STACK
        ARGFRAME XSTACK, 12, STACK
        ARGFRAME IOVERLAY, 0, STATIC
        ARGFRAME DOVERLAY, 0, STATIC
        MOV     A,#-0xc
        LCALL   ?BANKED_ENTER_XDATA
        CFI DPH0 load(1, XDATA, add(CFA_XSP16, literal(-1)))
        CFI DPL0 load(1, XDATA, add(CFA_XSP16, literal(-2)))
        CFI ?BRET_EXT load(1, XDATA, add(CFA_XSP16, literal(-3)))
        CFI ?RET_HIGH load(1, XDATA, add(CFA_XSP16, literal(-4)))
        CFI ?RET_LOW load(1, XDATA, add(CFA_XSP16, literal(-5)))
        CFI R7 load(1, XDATA, add(CFA_XSP16, literal(-6)))
        CFI V3 load(1, XDATA, add(CFA_XSP16, literal(-7)))
        CFI V2 load(1, XDATA, add(CFA_XSP16, literal(-8)))
        CFI V1 load(1, XDATA, add(CFA_XSP16, literal(-9)))
        CFI V0 load(1, XDATA, add(CFA_XSP16, literal(-10)))
        CFI VB load(1, XDATA, add(CFA_XSP16, literal(-11)))
        CFI R6 load(1, XDATA, add(CFA_XSP16, literal(-12)))
        CFI CFA_SP SP+0
        CFI CFA_XSP16 add(XSP16, 12)
        ; Saved register size: 12
        ; Auto size: 0
// 1536     unsigned char prev;
// 1537     int result = 0;
// 1538 
// 1539     /* Compass data isn't going into the FIFO. Stop trying. */
// 1540     sensors &= ~INV_XYZ_COMPASS;
        MOV     A,R1
        CLR     0xE0 /* A   */.0
        MOV     ?V0 + 0,A
// 1541 
// 1542     if (st.chip_cfg.dmp_on)
        MOV     DPTR,#st + 29
        MOVX    A,@DPTR
        JZ      ??mpu_configure_fifo_0
// 1543         return 0;
        MOV     R2,#0x0
        MOV     R3,#0x0
        SJMP    ??mpu_configure_fifo_1
// 1544     else {
// 1545         if (!(st.chip_cfg.sensors))
??mpu_configure_fifo_0:
        MOV     DPTR,#st + 6
        MOVX    A,@DPTR
        MOV     R0,A
        JNZ     ??mpu_configure_fifo_2
// 1546             return -1;
??mpu_configure_fifo_3:
        MOV     R2,#-0x1
        MOV     R3,#-0x1
        SJMP    ??mpu_configure_fifo_1
// 1547         prev = st.chip_cfg.fifo_enable;
??mpu_configure_fifo_2:
        MOV     DPTR,#st + 11
        MOVX    A,@DPTR
        MOV     ?V0 + 1,A
// 1548         st.chip_cfg.fifo_enable = sensors & st.chip_cfg.sensors;
        MOV     A,?V0 + 0
        ANL     A,R0
        MOV     R0,A
        MOVX    @DPTR,A
// 1549         if (st.chip_cfg.fifo_enable != sensors)
        MOV     A,?V0 + 0
        XRL     A,R0
        JZ      ??mpu_configure_fifo_4
// 1550             /* You're not getting what you asked for. Some sensors are
// 1551              * asleep.
// 1552              */
// 1553             result = -1;
        MOV     R6,#-0x1
        MOV     R7,#-0x1
        SJMP    ??mpu_configure_fifo_5
// 1554         else
// 1555             result = 0;
??mpu_configure_fifo_4:
        MOV     R6,#0x0
        MOV     R7,#0x0
// 1556         if (sensors || st.chip_cfg.lp_accel_mode)
??mpu_configure_fifo_5:
        MOV     A,?V0 + 0
        JNZ     ??mpu_configure_fifo_6
        MOV     DPTR,#st + 15
        MOVX    A,@DPTR
        JZ      ??mpu_configure_fifo_7
// 1557             set_int_enable(1);
??mpu_configure_fifo_6:
        ; Setup parameters for call to function set_int_enable
        MOV     R1,#0x1
        SJMP    ??mpu_configure_fifo_8
// 1558         else
// 1559             set_int_enable(0);
??mpu_configure_fifo_7:
        ; Setup parameters for call to function set_int_enable
        MOV     R1,#0x0
??mpu_configure_fifo_8:
        LCALL   ??set_int_enable?relay
// 1560         if (sensors) {
        MOV     A,?V0 + 0
        JZ      ??mpu_configure_fifo_9
// 1561             if (mpu_reset_fifo()) {
        ; Setup parameters for call to function mpu_reset_fifo
        LCALL   ??mpu_reset_fifo?relay
        MOV     ?V0 + 3,R3
        MOV     A,R2
        ORL     A,?V0 + 3
        JZ      ??mpu_configure_fifo_9
// 1562                 st.chip_cfg.fifo_enable = prev;
        MOV     A,?V0 + 1
        MOV     DPTR,#st + 11
        MOVX    @DPTR,A
// 1563                 return -1;
        SJMP    ??mpu_configure_fifo_3
// 1564             }
// 1565         }
// 1566     }
// 1567 
// 1568     return result;
??mpu_configure_fifo_9:
        MOV     A,R6
        MOV     R2,A
        MOV     A,R7
        MOV     R3,A
??mpu_configure_fifo_1:
        MOV     R7,#0x4
        LJMP    ?BANKED_LEAVE_XDATA
        CFI EndBlock cfiBlock23
// 1569 }
// 1570 
// 1571 /**
// 1572  *  @brief      Get current power state.
// 1573  *  @param[in]  power_on    1 if turned on, 0 if suspended.
// 1574  *  @return     0 if successful.
// 1575  */

        RSEG BANKED_CODE:CODE:NOROOT(0)
// 1576 int mpu_get_power_state(unsigned char *power_on)
mpu_get_power_state:
        CFI Block cfiBlock24 Using cfiCommon0
        CFI Function mpu_get_power_state
        CODE
// 1577 {
        PUSH    DPL
        CFI DPL0 Frame(CFA_SP, 4)
        CFI CFA_SP SP+-4
        PUSH    DPH
        CFI DPH0 Frame(CFA_SP, 5)
        CFI CFA_SP SP+-5
        ; Saved register size: 2
        ; Auto size: 0
// 1578     if (st.chip_cfg.sensors)
        MOV     DPTR,#st + 6
        MOVX    A,@DPTR
        MOV     DPL,R2
        MOV     DPH,R3
        JZ      ??mpu_get_power_state_0
// 1579         power_on[0] = 1;
        MOV     A,#0x1
        SJMP    ??mpu_get_power_state_1
// 1580     else
// 1581         power_on[0] = 0;
??mpu_get_power_state_0:
        CLR     A
??mpu_get_power_state_1:
        MOVX    @DPTR,A
// 1582     return 0;
        MOV     R2,#0x0
        MOV     R3,#0x0
        POP     DPH
        CFI DPH0 SameValue
        CFI CFA_SP SP+-4
        POP     DPL
        CFI DPL0 SameValue
        CFI CFA_SP SP+-3
        LJMP    ?BRET
        CFI EndBlock cfiBlock24
// 1583 }
// 1584 
// 1585 /**
// 1586  *  @brief      Turn specific sensors on/off.
// 1587  *  @e sensors can contain a combination of the following flags:
// 1588  *  \n INV_X_GYRO, INV_Y_GYRO, INV_Z_GYRO
// 1589  *  \n INV_XYZ_GYRO
// 1590  *  \n INV_XYZ_ACCEL
// 1591  *  \n INV_XYZ_COMPASS
// 1592  *  @param[in]  sensors    Mask of sensors to wake.
// 1593  *  @return     0 if successful.
// 1594  */

        RSEG BANKED_CODE:CODE:NOROOT(0)
// 1595 int mpu_set_sensors(unsigned char sensors)
mpu_set_sensors:
        CFI Block cfiBlock25 Using cfiCommon0
        CFI Function mpu_set_sensors
        CODE
// 1596 {
        FUNCALL mpu_set_sensors, MPU_Write_Len
        LOCFRAME ISTACK, 0, STACK
        LOCFRAME PSTACK, 0, STACK
        LOCFRAME XSTACK, 10, STACK
        LOCFRAME IOVERLAY, 0, STATIC
        LOCFRAME DOVERLAY, 0, STATIC
        ARGFRAME ISTACK, 0, STACK
        ARGFRAME PSTACK, 0, STACK
        ARGFRAME XSTACK, 10, STACK
        ARGFRAME IOVERLAY, 0, STATIC
        ARGFRAME DOVERLAY, 0, STATIC
        FUNCALL mpu_set_sensors, MPU_Write_Len
        LOCFRAME ISTACK, 0, STACK
        LOCFRAME PSTACK, 0, STACK
        LOCFRAME XSTACK, 10, STACK
        LOCFRAME IOVERLAY, 0, STATIC
        LOCFRAME DOVERLAY, 0, STATIC
        ARGFRAME ISTACK, 0, STACK
        ARGFRAME PSTACK, 0, STACK
        ARGFRAME XSTACK, 10, STACK
        ARGFRAME IOVERLAY, 0, STATIC
        ARGFRAME DOVERLAY, 0, STATIC
        FUNCALL mpu_set_sensors, mpu_set_int_latched
        LOCFRAME ISTACK, 0, STACK
        LOCFRAME PSTACK, 0, STACK
        LOCFRAME XSTACK, 10, STACK
        LOCFRAME IOVERLAY, 0, STATIC
        LOCFRAME DOVERLAY, 0, STATIC
        ARGFRAME ISTACK, 0, STACK
        ARGFRAME PSTACK, 0, STACK
        ARGFRAME XSTACK, 10, STACK
        ARGFRAME IOVERLAY, 0, STATIC
        ARGFRAME DOVERLAY, 0, STATIC
        FUNCALL mpu_set_sensors, delay_ms
        LOCFRAME ISTACK, 0, STACK
        LOCFRAME PSTACK, 0, STACK
        LOCFRAME XSTACK, 10, STACK
        LOCFRAME IOVERLAY, 0, STATIC
        LOCFRAME DOVERLAY, 0, STATIC
        ARGFRAME ISTACK, 0, STACK
        ARGFRAME PSTACK, 0, STACK
        ARGFRAME XSTACK, 10, STACK
        ARGFRAME IOVERLAY, 0, STATIC
        ARGFRAME DOVERLAY, 0, STATIC
        MOV     A,#-0x9
        LCALL   ?BANKED_ENTER_XDATA
        CFI DPH0 load(1, XDATA, add(CFA_XSP16, literal(-1)))
        CFI DPL0 load(1, XDATA, add(CFA_XSP16, literal(-2)))
        CFI ?BRET_EXT load(1, XDATA, add(CFA_XSP16, literal(-3)))
        CFI ?RET_HIGH load(1, XDATA, add(CFA_XSP16, literal(-4)))
        CFI ?RET_LOW load(1, XDATA, add(CFA_XSP16, literal(-5)))
        CFI R7 load(1, XDATA, add(CFA_XSP16, literal(-6)))
        CFI V0 load(1, XDATA, add(CFA_XSP16, literal(-7)))
        CFI VB load(1, XDATA, add(CFA_XSP16, literal(-8)))
        CFI R6 load(1, XDATA, add(CFA_XSP16, literal(-9)))
        CFI CFA_SP SP+0
        CFI CFA_XSP16 add(XSP16, 9)
        ; Saved register size: 9
        ; Auto size: 1
        MOV     A,#-0x1
        LCALL   ?ALLOC_XSTACK8
        CFI CFA_XSP16 add(XSP16, 10)
        MOV     A,R1
        MOV     R6,A
// 1597     unsigned char data;
// 1598 #ifdef AK89xx_SECONDARY
// 1599     unsigned char user_ctrl;
// 1600 #endif
// 1601 
// 1602     if (sensors & INV_XYZ_GYRO)
        MOV     A,#0x70
        ANL     A,R6
        JZ      ??mpu_set_sensors_0
// 1603         data = INV_CLK_PLL;
        MOV     DPL,?XSP + 0
        MOV     DPH,?XSP + 1
        MOV     A,#0x1
        SJMP    ??mpu_set_sensors_1
// 1604     else if (sensors)
??mpu_set_sensors_0:
        MOV     A,R6
        MOV     DPL,?XSP + 0
        MOV     DPH,?XSP + 1
        JZ      ??mpu_set_sensors_2
// 1605         data = 0;
        CLR     A
        SJMP    ??mpu_set_sensors_1
// 1606     else
// 1607         data = BIT_SLEEP;
??mpu_set_sensors_2:
        MOV     A,#0x40
??mpu_set_sensors_1:
        MOVX    @DPTR,A
// 1608     if (i2c_write(st.hw->addr, st.reg->pwr_mgmt_1, 1, &data)) {
        ; Setup parameters for call to function MPU_Write_Len
        MOV     R4,DPL
        MOV     R5,DPH
        MOV     R3,#0x1
        MOV     DPTR,#st
        MOVX    A,@DPTR
        ADD     A,#0x12
        MOV     R0,A
        INC     DPTR
        MOVX    A,@DPTR
        ADDC    A,#0x0
        MOV     R1,A
        MOV     DPL,R0
        MOV     DPH,R1
        MOVX    A,@DPTR
        MOV     R2,A
        MOV     DPTR,#st + 2
        MOVX    A,@DPTR
        MOV     R0,A
        INC     DPTR
        MOVX    A,@DPTR
        MOV     DPH,A
        MOV     DPL,R0
        MOVX    A,@DPTR
        MOV     R1,A
        LCALL   ??MPU_Write_Len?relay
        MOV     A,R1
        JZ      ??mpu_set_sensors_3
// 1609         st.chip_cfg.sensors = 0;
??mpu_set_sensors_4:
        MOV     DPTR,#st + 6
        CLR     A
        MOVX    @DPTR,A
// 1610         return -1;
        MOV     R2,#-0x1
        MOV     R3,#-0x1
        LJMP    ??mpu_set_sensors_5 & 0xFFFF
// 1611     }
// 1612     st.chip_cfg.clk_src = data & ~BIT_SLEEP;
??mpu_set_sensors_3:
        MOV     DPL,?XSP + 0
        MOV     DPH,?XSP + 1
        MOVX    A,@DPTR
        ANL     A,#0xbf
        MOV     DPTR,#st + 8
        MOVX    @DPTR,A
// 1613 
// 1614     data = 0;
        MOV     DPL,?XSP + 0
        MOV     DPH,?XSP + 1
        CLR     A
        MOVX    @DPTR,A
// 1615     if (!(sensors & INV_X_GYRO))
        MOV     A,R6
        MOV     C,0xE0 /* A   */.6
        JC      ??mpu_set_sensors_6
// 1616         data |= BIT_STBY_XG;
        MOV     A,#0x4
        MOVX    @DPTR,A
// 1617     if (!(sensors & INV_Y_GYRO))
??mpu_set_sensors_6:
        MOV     A,R6
        MOV     C,0xE0 /* A   */.5
        JC      ??mpu_set_sensors_7
// 1618         data |= BIT_STBY_YG;
        MOVX    A,@DPTR
        SETB    0xE0 /* A   */.1
        MOVX    @DPTR,A
// 1619     if (!(sensors & INV_Z_GYRO))
??mpu_set_sensors_7:
        MOV     A,R6
        MOV     C,0xE0 /* A   */.4
        JC      ??mpu_set_sensors_8
// 1620         data |= BIT_STBY_ZG;
        MOVX    A,@DPTR
        SETB    0xE0 /* A   */.0
        MOVX    @DPTR,A
// 1621     if (!(sensors & INV_XYZ_ACCEL))
??mpu_set_sensors_8:
        MOV     A,R6
        MOV     C,0xE0 /* A   */.3
        JC      ??mpu_set_sensors_9
// 1622         data |= BIT_STBY_XYZA;
        MOVX    A,@DPTR
        ORL     A,#0x38
        MOVX    @DPTR,A
// 1623     if (i2c_write(st.hw->addr, st.reg->pwr_mgmt_2, 1, &data)) {
??mpu_set_sensors_9:
        ; Setup parameters for call to function MPU_Write_Len
        MOV     R4,DPL
        MOV     R5,DPH
        MOV     R3,#0x1
        MOV     DPTR,#st
        MOVX    A,@DPTR
        ADD     A,#0x13
        MOV     R0,A
        INC     DPTR
        MOVX    A,@DPTR
        ADDC    A,#0x0
        MOV     R1,A
        MOV     DPL,R0
        MOV     DPH,R1
        MOVX    A,@DPTR
        MOV     R2,A
        MOV     DPTR,#st + 2
        MOVX    A,@DPTR
        MOV     R0,A
        INC     DPTR
        MOVX    A,@DPTR
        MOV     DPH,A
        MOV     DPL,R0
        MOVX    A,@DPTR
        MOV     R1,A
        LCALL   ??MPU_Write_Len?relay
        MOV     A,R1
        JNZ     ??mpu_set_sensors_4
// 1624         st.chip_cfg.sensors = 0;
// 1625         return -1;
// 1626     }
// 1627 
// 1628     if (sensors && (sensors != INV_XYZ_ACCEL))
        MOV     A,R6
        JZ      ??mpu_set_sensors_10
        MOV     A,#0x8
        XRL     A,R6
        JZ      ??mpu_set_sensors_10
// 1629         /* Latched interrupts only used in LP accel mode. */
// 1630         mpu_set_int_latched(0);
        ; Setup parameters for call to function mpu_set_int_latched
        MOV     R1,#0x0
        LCALL   ??mpu_set_int_latched?relay
// 1631 
// 1632 #ifdef AK89xx_SECONDARY
// 1633 #ifdef AK89xx_BYPASS
// 1634     if (sensors & INV_XYZ_COMPASS)
// 1635         mpu_set_bypass(1);
// 1636     else
// 1637         mpu_set_bypass(0);
// 1638 #else
// 1639     if (i2c_read(st.hw->addr, st.reg->user_ctrl, 1, &user_ctrl))
// 1640         return -1;
// 1641     /* Handle AKM power management. */
// 1642     if (sensors & INV_XYZ_COMPASS) {
// 1643         data = AKM_SINGLE_MEASUREMENT;
// 1644         user_ctrl |= BIT_AUX_IF_EN;
// 1645     } else {
// 1646         data = AKM_POWER_DOWN;
// 1647         user_ctrl &= ~BIT_AUX_IF_EN;
// 1648     }
// 1649     if (st.chip_cfg.dmp_on)
// 1650         user_ctrl |= BIT_DMP_EN;
// 1651     else
// 1652         user_ctrl &= ~BIT_DMP_EN;
// 1653     if (i2c_write(st.hw->addr, st.reg->s1_do, 1, &data))
// 1654         return -1;
// 1655     /* Enable/disable I2C master mode. */
// 1656     if (i2c_write(st.hw->addr, st.reg->user_ctrl, 1, &user_ctrl))
// 1657         return -1;
// 1658 #endif
// 1659 #endif
// 1660 
// 1661     st.chip_cfg.sensors = sensors;
??mpu_set_sensors_10:
        MOV     A,R6
        MOV     DPTR,#st + 6
        MOVX    @DPTR,A
// 1662     st.chip_cfg.lp_accel_mode = 0;
        MOV     DPTR,#st + 15
        CLR     A
        MOVX    @DPTR,A
// 1663     delay_ms(50);
        ; Setup parameters for call to function delay_ms
        MOV     DPTR,#__Constant_32
        LCALL   ?XLOAD_R2345
        LCALL   ??delay_ms?relay
// 1664     return 0;
        MOV     R2,#0x0
        MOV     R3,#0x0
??mpu_set_sensors_5:
        MOV     A,#0x1
        LCALL   ?DEALLOC_XSTACK8
        CFI CFA_XSP16 add(XSP16, 9)
        MOV     R7,#0x1
        LJMP    ?BANKED_LEAVE_XDATA
        CFI EndBlock cfiBlock25
// 1665 }
// 1666 
// 1667 /**
// 1668  *  @brief      Read the MPU interrupt status registers.
// 1669  *  @param[out] status  Mask of interrupt bits.
// 1670  *  @return     0 if successful.
// 1671  */

        RSEG BANKED_CODE:CODE:NOROOT(0)
// 1672 int mpu_get_int_status(short *status)
mpu_get_int_status:
        CFI Block cfiBlock26 Using cfiCommon0
        CFI Function mpu_get_int_status
        CODE
// 1673 {
        FUNCALL mpu_get_int_status, MPU_Read_Len
        LOCFRAME ISTACK, 0, STACK
        LOCFRAME PSTACK, 0, STACK
        LOCFRAME XSTACK, 11, STACK
        LOCFRAME IOVERLAY, 0, STATIC
        LOCFRAME DOVERLAY, 0, STATIC
        ARGFRAME ISTACK, 0, STACK
        ARGFRAME PSTACK, 0, STACK
        ARGFRAME XSTACK, 11, STACK
        ARGFRAME IOVERLAY, 0, STATIC
        ARGFRAME DOVERLAY, 0, STATIC
        MOV     A,#-0x9
        LCALL   ?BANKED_ENTER_XDATA
        CFI DPH0 load(1, XDATA, add(CFA_XSP16, literal(-1)))
        CFI DPL0 load(1, XDATA, add(CFA_XSP16, literal(-2)))
        CFI ?BRET_EXT load(1, XDATA, add(CFA_XSP16, literal(-3)))
        CFI ?RET_HIGH load(1, XDATA, add(CFA_XSP16, literal(-4)))
        CFI ?RET_LOW load(1, XDATA, add(CFA_XSP16, literal(-5)))
        CFI R7 load(1, XDATA, add(CFA_XSP16, literal(-6)))
        CFI V0 load(1, XDATA, add(CFA_XSP16, literal(-7)))
        CFI VB load(1, XDATA, add(CFA_XSP16, literal(-8)))
        CFI R6 load(1, XDATA, add(CFA_XSP16, literal(-9)))
        CFI CFA_SP SP+0
        CFI CFA_XSP16 add(XSP16, 9)
        ; Saved register size: 9
        ; Auto size: 2
        MOV     A,#-0x2
        LCALL   ?ALLOC_XSTACK8
        CFI CFA_XSP16 add(XSP16, 11)
        MOV     A,R2
        MOV     R6,A
        MOV     A,R3
        MOV     R7,A
// 1674     unsigned char tmp[2];
// 1675     if (!st.chip_cfg.sensors)
        MOV     DPTR,#st + 6
        MOVX    A,@DPTR
        JNZ     ??mpu_get_int_status_0
// 1676         return -1;
??mpu_get_int_status_1:
        MOV     R2,#-0x1
        MOV     R3,#-0x1
        SJMP    ??mpu_get_int_status_2
// 1677     if (i2c_read(st.hw->addr, st.reg->dmp_int_status, 2, tmp))
??mpu_get_int_status_0:
        ; Setup parameters for call to function MPU_Read_Len
        MOV     DPL,?XSP + 0
        MOV     DPH,?XSP + 1
        MOV     R4,DPL
        MOV     R5,DPH
        MOV     R3,#0x2
        MOV     DPTR,#st
        MOVX    A,@DPTR
        ADD     A,#0x10
        MOV     R0,A
        INC     DPTR
        MOVX    A,@DPTR
        ADDC    A,#0x0
        MOV     R1,A
        MOV     DPL,R0
        MOV     DPH,R1
        MOVX    A,@DPTR
        MOV     R2,A
        MOV     DPTR,#st + 2
        MOVX    A,@DPTR
        MOV     R0,A
        INC     DPTR
        MOVX    A,@DPTR
        MOV     DPH,A
        MOV     DPL,R0
        MOVX    A,@DPTR
        MOV     R1,A
        LCALL   ??MPU_Read_Len?relay
        MOV     A,R1
        JNZ     ??mpu_get_int_status_1
// 1678         return -1;
// 1679     status[0] = (tmp[0] << 8) | tmp[1];
        MOV     DPL,?XSP + 0
        MOV     DPH,?XSP + 1
        MOVX    A,@DPTR
        MOV     R1,A
        MOV     A,#0x1
        LCALL   ?XSTACK_DISP0_8
        MOVX    A,@DPTR
        MOV     DPL,R6
        MOV     DPH,R7
        MOVX    @DPTR,A
        INC     DPTR
        MOV     A,R1
        MOVX    @DPTR,A
// 1680     return 0;
        MOV     R2,#0x0
        MOV     R3,#0x0
??mpu_get_int_status_2:
        MOV     A,#0x2
        LCALL   ?DEALLOC_XSTACK8
        CFI CFA_XSP16 add(XSP16, 9)
        MOV     R7,#0x1
        LJMP    ?BANKED_LEAVE_XDATA
        CFI EndBlock cfiBlock26
// 1681 }
// 1682 
// 1683 /**
// 1684  *  @brief      Get one packet from the FIFO.
// 1685  *  If @e sensors does not contain a particular sensor, disregard the data
// 1686  *  returned to that pointer.
// 1687  *  \n @e sensors can contain a combination of the following flags:
// 1688  *  \n INV_X_GYRO, INV_Y_GYRO, INV_Z_GYRO
// 1689  *  \n INV_XYZ_GYRO
// 1690  *  \n INV_XYZ_ACCEL
// 1691  *  \n If the FIFO has no new data, @e sensors will be zero.
// 1692  *  \n If the FIFO is disabled, @e sensors will be zero and this function will
// 1693  *  return a non-zero error code.
// 1694  *  @param[out] gyro        Gyro data in hardware units.
// 1695  *  @param[out] accel       Accel data in hardware units.
// 1696  *  @param[out] timestamp   Timestamp in milliseconds.
// 1697  *  @param[out] sensors     Mask of sensors read from FIFO.
// 1698  *  @param[out] more        Number of remaining packets.
// 1699  *  @return     0 if successful.
// 1700  */

        RSEG BANKED_CODE:CODE:NOROOT(0)
// 1701 int mpu_read_fifo(short *gyro, short *accel, unsigned long *timestamp,
mpu_read_fifo:
        CFI Block cfiBlock27 Using cfiCommon0
        CFI Function mpu_read_fifo
        CODE
// 1702         unsigned char *sensors, unsigned char *more)
// 1703 {
        FUNCALL mpu_read_fifo, MPU_Read_Len
        LOCFRAME ISTACK, 0, STACK
        LOCFRAME PSTACK, 0, STACK
        LOCFRAME XSTACK, 36, STACK
        LOCFRAME IOVERLAY, 0, STATIC
        LOCFRAME DOVERLAY, 0, STATIC
        ARGFRAME ISTACK, 0, STACK
        ARGFRAME PSTACK, 0, STACK
        ARGFRAME XSTACK, 36, STACK
        ARGFRAME IOVERLAY, 0, STATIC
        ARGFRAME DOVERLAY, 0, STATIC
        FUNCALL mpu_read_fifo, MPU_Read_Len
        LOCFRAME ISTACK, 0, STACK
        LOCFRAME PSTACK, 0, STACK
        LOCFRAME XSTACK, 36, STACK
        LOCFRAME IOVERLAY, 0, STATIC
        LOCFRAME DOVERLAY, 0, STATIC
        ARGFRAME ISTACK, 0, STACK
        ARGFRAME PSTACK, 0, STACK
        ARGFRAME XSTACK, 36, STACK
        ARGFRAME IOVERLAY, 0, STATIC
        ARGFRAME DOVERLAY, 0, STATIC
        FUNCALL mpu_read_fifo, mpu_reset_fifo
        LOCFRAME ISTACK, 0, STACK
        LOCFRAME PSTACK, 0, STACK
        LOCFRAME XSTACK, 36, STACK
        LOCFRAME IOVERLAY, 0, STATIC
        LOCFRAME DOVERLAY, 0, STATIC
        ARGFRAME ISTACK, 0, STACK
        ARGFRAME PSTACK, 0, STACK
        ARGFRAME XSTACK, 36, STACK
        ARGFRAME IOVERLAY, 0, STATIC
        ARGFRAME DOVERLAY, 0, STATIC
        FUNCALL mpu_read_fifo, mget_ms
        LOCFRAME ISTACK, 0, STACK
        LOCFRAME PSTACK, 0, STACK
        LOCFRAME XSTACK, 36, STACK
        LOCFRAME IOVERLAY, 0, STATIC
        LOCFRAME DOVERLAY, 0, STATIC
        ARGFRAME ISTACK, 0, STACK
        ARGFRAME PSTACK, 0, STACK
        ARGFRAME XSTACK, 36, STACK
        ARGFRAME IOVERLAY, 0, STATIC
        ARGFRAME DOVERLAY, 0, STATIC
        FUNCALL mpu_read_fifo, MPU_Read_Len
        LOCFRAME ISTACK, 0, STACK
        LOCFRAME PSTACK, 0, STACK
        LOCFRAME XSTACK, 36, STACK
        LOCFRAME IOVERLAY, 0, STATIC
        LOCFRAME DOVERLAY, 0, STATIC
        ARGFRAME ISTACK, 0, STACK
        ARGFRAME PSTACK, 0, STACK
        ARGFRAME XSTACK, 36, STACK
        ARGFRAME IOVERLAY, 0, STATIC
        ARGFRAME DOVERLAY, 0, STATIC
        MOV     A,#-0x18
        LCALL   ?BANKED_ENTER_XDATA
        CFI DPH0 load(1, XDATA, add(CFA_XSP16, literal(-1)))
        CFI DPL0 load(1, XDATA, add(CFA_XSP16, literal(-2)))
        CFI ?BRET_EXT load(1, XDATA, add(CFA_XSP16, literal(-3)))
        CFI ?RET_HIGH load(1, XDATA, add(CFA_XSP16, literal(-4)))
        CFI ?RET_LOW load(1, XDATA, add(CFA_XSP16, literal(-5)))
        CFI R7 load(1, XDATA, add(CFA_XSP16, literal(-6)))
        CFI V15 load(1, XDATA, add(CFA_XSP16, literal(-7)))
        CFI V14 load(1, XDATA, add(CFA_XSP16, literal(-8)))
        CFI V13 load(1, XDATA, add(CFA_XSP16, literal(-9)))
        CFI V12 load(1, XDATA, add(CFA_XSP16, literal(-10)))
        CFI V11 load(1, XDATA, add(CFA_XSP16, literal(-11)))
        CFI V10 load(1, XDATA, add(CFA_XSP16, literal(-12)))
        CFI V9 load(1, XDATA, add(CFA_XSP16, literal(-13)))
        CFI V8 load(1, XDATA, add(CFA_XSP16, literal(-14)))
        CFI V7 load(1, XDATA, add(CFA_XSP16, literal(-15)))
        CFI V6 load(1, XDATA, add(CFA_XSP16, literal(-16)))
        CFI V5 load(1, XDATA, add(CFA_XSP16, literal(-17)))
        CFI V4 load(1, XDATA, add(CFA_XSP16, literal(-18)))
        CFI V3 load(1, XDATA, add(CFA_XSP16, literal(-19)))
        CFI V2 load(1, XDATA, add(CFA_XSP16, literal(-20)))
        CFI V1 load(1, XDATA, add(CFA_XSP16, literal(-21)))
        CFI V0 load(1, XDATA, add(CFA_XSP16, literal(-22)))
        CFI VB load(1, XDATA, add(CFA_XSP16, literal(-23)))
        CFI R6 load(1, XDATA, add(CFA_XSP16, literal(-24)))
        CFI CFA_SP SP+0
        CFI CFA_XSP16 add(XSP16, 24)
        ; Saved register size: 24
        ; Auto size: 12
        MOV     A,#-0xc
        LCALL   ?ALLOC_XSTACK8
        CFI CFA_XSP16 add(XSP16, 36)
        MOV     ?V0 + 10,R2
        MOV     ?V0 + 11,R3
        MOV     ?V0 + 8,R4
        MOV     ?V0 + 9,R5
        MOV     A,#0x24
        LCALL   ?XSTACK_DISP0_8
        MOVX    A,@DPTR
        MOV     ?V0 + 12,A
        INC     DPTR
        MOVX    A,@DPTR
        MOV     ?V0 + 13,A
        MOV     A,#0x26
        LCALL   ?XSTACK_DISP0_8
        MOVX    A,@DPTR
        MOV     ?V0 + 6,A
        INC     DPTR
        MOVX    A,@DPTR
        MOV     ?V0 + 7,A
// 1704     /* Assumes maximum packet size is gyro (6) + accel (6). */
// 1705     unsigned char data[MAX_PACKET_LENGTH];
// 1706     unsigned char packet_size = 0;
        MOV     ?V0 + 0,#0x0
// 1707     unsigned short fifo_count, index = 0;
        MOV     ?V0 + 2,#0x0
        MOV     ?V0 + 3,#0x0
// 1708 
// 1709     if (st.chip_cfg.dmp_on)
        MOV     DPTR,#st + 29
        MOVX    A,@DPTR
        JZ      ??mpu_read_fifo_0
// 1710         return -1;
??mpu_read_fifo_1:
        MOV     R2,#-0x1
??mpu_read_fifo_2:
        MOV     R3,#-0x1
??mpu_read_fifo_3:
        MOV     A,#0xc
        LCALL   ?DEALLOC_XSTACK8
        CFI CFA_XSP16 add(XSP16, 24)
        MOV     R7,#0x10
        LJMP    ?BANKED_LEAVE_XDATA
        CFI CFA_XSP16 add(XSP16, 36)
// 1711 
// 1712     sensors[0] = 0;
??mpu_read_fifo_0:
        MOV     DPL,?V0 + 6
        MOV     DPH,?V0 + 7
        CLR     A
        MOVX    @DPTR,A
// 1713     if (!st.chip_cfg.sensors)
        MOV     DPTR,#st + 6
        MOVX    A,@DPTR
        JZ      ??mpu_read_fifo_1
// 1714         return -1;
// 1715     if (!st.chip_cfg.fifo_enable)
        MOV     DPTR,#st + 11
        MOVX    A,@DPTR
        JZ      ??mpu_read_fifo_1
// 1716         return -1;
// 1717 
// 1718     if (st.chip_cfg.fifo_enable & INV_X_GYRO)
        MOVX    A,@DPTR
        MOV     C,0xE0 /* A   */.6
        JNC     ??mpu_read_fifo_4
// 1719         packet_size += 2;
        MOV     ?V0 + 0,#0x2
// 1720     if (st.chip_cfg.fifo_enable & INV_Y_GYRO)
??mpu_read_fifo_4:
        MOVX    A,@DPTR
        MOV     C,0xE0 /* A   */.5
        JNC     ??mpu_read_fifo_5
// 1721         packet_size += 2;
        INC     ?V0 + 0
        INC     ?V0 + 0
// 1722     if (st.chip_cfg.fifo_enable & INV_Z_GYRO)
??mpu_read_fifo_5:
        MOVX    A,@DPTR
        MOV     C,0xE0 /* A   */.4
        JNC     ??mpu_read_fifo_6
// 1723         packet_size += 2;
        INC     ?V0 + 0
        INC     ?V0 + 0
// 1724     if (st.chip_cfg.fifo_enable & INV_XYZ_ACCEL)
??mpu_read_fifo_6:
        MOVX    A,@DPTR
        MOV     C,0xE0 /* A   */.3
        JNC     ??mpu_read_fifo_7
// 1725         packet_size += 6;
        MOV     A,#0x6
        ADD     A,?V0 + 0
        MOV     ?V0 + 0,A
// 1726 
// 1727     if (i2c_read(st.hw->addr, st.reg->fifo_count_h, 2, data))
??mpu_read_fifo_7:
        ; Setup parameters for call to function MPU_Read_Len
        MOV     DPL,?XSP + 0
        MOV     DPH,?XSP + 1
        MOV     R4,DPL
        MOV     R5,DPH
        MOV     R3,#0x2
        MOV     DPTR,#st
        MOVX    A,@DPTR
        MOV     R0,A
        INC     DPTR
        MOVX    A,@DPTR
        MOV     DPH,A
        MOV     DPL,R0
        INC     DPTR
        INC     DPTR
        INC     DPTR
        INC     DPTR
        INC     DPTR
        INC     DPTR
        INC     DPTR
        INC     DPTR
        INC     DPTR
        INC     DPTR
        MOVX    A,@DPTR
        MOV     R2,A
        MOV     DPTR,#st + 2
        MOVX    A,@DPTR
        MOV     R0,A
        INC     DPTR
        MOVX    A,@DPTR
        MOV     DPH,A
        MOV     DPL,R0
        MOVX    A,@DPTR
        MOV     R1,A
        LCALL   ??MPU_Read_Len?relay
        MOV     A,R1
        JNZ     ??mpu_read_fifo_1
// 1728         return -1;
