###############################################################################
#                                                                             #
# IAR C/C++ Compiler V8.10.3.10338/W32 for 8051         27/Feb/2019  10:09:44 #
# Copyright 2004-2011 IAR Systems AB.                                         #
#                                                                             #
#    Core               =  plain                                              #
#    Code model         =  banked                                             #
#    Data model         =  large                                              #
#    Calling convention =  xdata reentrant                                    #
#    Constant location  =  data_rom                                           #
#    Dptr setup         =  1,16                                               #
#    Source file        =  D:\ZigBee\KJXY-ZigBee\useful_code\ZigBee-Ext\group #
#                          -ext\Components\HARDWARE\MPU6050\eMPL\inv_mpu_dmp_ #
#                          motion_driver.c                                    #
#    Command line       =  -f D:\ZigBee\KJXY-ZigBee\useful_code\ZigBee-Ext\gr #
#                          oup-ext\Projects\zstack\Samples\SampleApp\CC2530DB #
#                          \..\..\..\Tools\CC2530DB\f8wEndev.cfg (-DCPU32MHZ  #
#                          -DROOT=__near_func -DBLINK_LEDS) -f                #
#                          D:\ZigBee\KJXY-ZigBee\useful_code\ZigBee-Ext\group #
#                          -ext\Projects\zstack\Samples\SampleApp\CC2530DB\.. #
#                          \..\..\Tools\CC2530DB\f8wConfig.cfg (-DSECURE=0    #
#                          -DZG_SECURE_DYNAMIC=0 -DREFLECTOR                  #
#                          -DDEFAULT_CHANLIST=0x00000800                      #
#                          -DZDAPP_CONFIG_PAN_ID=0xFF11                       #
#                          -DNWK_START_DELAY=100 -DEXTENDED_JOINING_RANDOM_MA #
#                          SK=0x007F -DBEACON_REQUEST_DELAY=100               #
#                          -DBEACON_REQ_DELAY_MASK=0x00FF                     #
#                          -DROUTE_EXPIRY_TIME=30 -DAPSC_ACK_WAIT_DURATION_PO #
#                          LLED=3000 -DNWK_INDIRECT_MSG_TIMEOUT=7             #
#                          -DMAX_RREQ_ENTRIES=8 -DAPSC_MAX_FRAME_RETRIES=3    #
#                          -DNWK_MAX_DATA_RETRIES=2                           #
#                          -DMAX_POLL_FAILURE_RETRIES=2 -DMAX_BCAST=9         #
#                          -DAPS_MAX_GROUPS=16 -DMAX_RTG_ENTRIES=40           #
#                          -DNWK_MAX_BINDING_ENTRIES=4                        #
#                          -DMAX_BINDING_CLUSTER_IDS=4 "-DDEFAULT_KEY={0x01,  #
#                          0x03, 0x05, 0x07, 0x09, 0x0B, 0x0D, 0x0F, 0x00,    #
#                          0x02, 0x04, 0x06, 0x08, 0x0A, 0x0C, 0x0D}"         #
#                          -DMAC_MAX_FRAME_SIZE=116 "-DCONST=const __code"    #
#                          -DGENERIC=__generic -DRFD_RCVC_ALWAYS_ON=TRUE      #
#                          -DPOLL_RATE=1000 -DQUEUED_POLL_RATE=100            #
#                          -DRESPONSE_POLL_RATE=100) -DREJOIN_POLL_RATE=440   #
#                          D:\ZigBee\KJXY-ZigBee\useful_code\ZigBee-Ext\group #
#                          -ext\Components\HARDWARE\MPU6050\eMPL\inv_mpu_dmp_ #
#                          motion_driver.c -D NWK_AUTO_POLL -D ZTOOL_P1 -D    #
#                          MT_SYS_FUNC -D MT_ZDO_FUNC -D LCD_SUPPORTED=DEBUG  #
#                          -lC D:\ZigBee\KJXY-ZigBee\useful_code\ZigBee-Ext\g #
#                          roup-ext\Projects\zstack\Samples\SampleApp\CC2530D #
#                          B\EndDeviceEB-MPU6050\List\ -lA                    #
#                          D:\ZigBee\KJXY-ZigBee\useful_code\ZigBee-Ext\group #
#                          -ext\Projects\zstack\Samples\SampleApp\CC2530DB\En #
#                          dDeviceEB-MPU6050\List\ --diag_suppress            #
#                          Pe001,Pa010 -o D:\ZigBee\KJXY-ZigBee\useful_code\Z #
#                          igBee-Ext\group-ext\Projects\zstack\Samples\Sample #
#                          App\CC2530DB\EndDeviceEB-MPU6050\Obj\ -e           #
#                          --no_unroll --no_inline --no_tbaa --debug          #
#                          --core=plain --dptr=16,1 --data_model=large        #
#                          --code_model=banked --calling_convention=xdata_ree #
#                          ntrant --place_constants=data_rom                  #
#                          --nr_virtual_regs 16 -I D:\ZigBee\KJXY-ZigBee\usef #
#                          ul_code\ZigBee-Ext\group-ext\Projects\zstack\Sampl #
#                          es\SampleApp\CC2530DB\ -I                          #
#                          D:\ZigBee\KJXY-ZigBee\useful_code\ZigBee-Ext\group #
#                          -ext\Projects\zstack\Samples\SampleApp\CC2530DB\.. #
#                          \SOURCE\ -I D:\ZigBee\KJXY-ZigBee\useful_code\ZigB #
#                          ee-Ext\group-ext\Projects\zstack\Samples\SampleApp #
#                          \CC2530DB\..\..\..\ZMAIN\TI2530DB\ -I              #
#                          D:\ZigBee\KJXY-ZigBee\useful_code\ZigBee-Ext\group #
#                          -ext\Projects\zstack\Samples\SampleApp\CC2530DB\.. #
#                          \..\..\..\..\COMPONENTS\MT\ -I                     #
#                          D:\ZigBee\KJXY-ZigBee\useful_code\ZigBee-Ext\group #
#                          -ext\Projects\zstack\Samples\SampleApp\CC2530DB\.. #
#                          \..\..\..\..\COMPONENTS\HAL\INCLUDE\ -I            #
#                          D:\ZigBee\KJXY-ZigBee\useful_code\ZigBee-Ext\group #
#                          -ext\Projects\zstack\Samples\SampleApp\CC2530DB\.. #
#                          \..\..\..\..\COMPONENTS\HAL\TARGET\CC2530EB\ -I    #
#                          D:\ZigBee\KJXY-ZigBee\useful_code\ZigBee-Ext\group #
#                          -ext\Projects\zstack\Samples\SampleApp\CC2530DB\.. #
#                          \..\..\..\..\COMPONENTS\OSAL\MCU\CCSOC\ -I         #
#                          D:\ZigBee\KJXY-ZigBee\useful_code\ZigBee-Ext\group #
#                          -ext\Projects\zstack\Samples\SampleApp\CC2530DB\.. #
#                          \..\..\..\..\COMPONENTS\OSAL\INCLUDE\ -I           #
#                          D:\ZigBee\KJXY-ZigBee\useful_code\ZigBee-Ext\group #
#                          -ext\Projects\zstack\Samples\SampleApp\CC2530DB\.. #
#                          \..\..\..\..\COMPONENTS\STACK\AF\ -I               #
#                          D:\ZigBee\KJXY-ZigBee\useful_code\ZigBee-Ext\group #
#                          -ext\Projects\zstack\Samples\SampleApp\CC2530DB\.. #
#                          \..\..\..\..\COMPONENTS\STACK\NWK\ -I              #
#                          D:\ZigBee\KJXY-ZigBee\useful_code\ZigBee-Ext\group #
#                          -ext\Projects\zstack\Samples\SampleApp\CC2530DB\.. #
#                          \..\..\..\..\COMPONENTS\STACK\SEC\ -I              #
#                          D:\ZigBee\KJXY-ZigBee\useful_code\ZigBee-Ext\group #
#                          -ext\Projects\zstack\Samples\SampleApp\CC2530DB\.. #
#                          \..\..\..\..\COMPONENTS\STACK\SAPI\ -I             #
#                          D:\ZigBee\KJXY-ZigBee\useful_code\ZigBee-Ext\group #
#                          -ext\Projects\zstack\Samples\SampleApp\CC2530DB\.. #
#                          \..\..\..\..\COMPONENTS\STACK\SYS\ -I              #
#                          D:\ZigBee\KJXY-ZigBee\useful_code\ZigBee-Ext\group #
#                          -ext\Projects\zstack\Samples\SampleApp\CC2530DB\.. #
#                          \..\..\..\..\COMPONENTS\STACK\ZDO\ -I              #
#                          D:\ZigBee\KJXY-ZigBee\useful_code\ZigBee-Ext\group #
#                          -ext\Projects\zstack\Samples\SampleApp\CC2530DB\.. #
#                          \..\..\..\..\COMPONENTS\ZMAC\F8W\ -I               #
#                          D:\ZigBee\KJXY-ZigBee\useful_code\ZigBee-Ext\group #
#                          -ext\Projects\zstack\Samples\SampleApp\CC2530DB\.. #
#                          \..\..\..\..\COMPONENTS\ZMAC\ -I                   #
#                          D:\ZigBee\KJXY-ZigBee\useful_code\ZigBee-Ext\group #
#                          -ext\Projects\zstack\Samples\SampleApp\CC2530DB\.. #
#                          \..\..\..\..\COMPONENTS\SERVICES\SADDR\ -I         #
#                          D:\ZigBee\KJXY-ZigBee\useful_code\ZigBee-Ext\group #
#                          -ext\Projects\zstack\Samples\SampleApp\CC2530DB\.. #
#                          \..\..\..\..\COMPONENTS\SERVICES\SDATA\ -I         #
#                          D:\ZigBee\KJXY-ZigBee\useful_code\ZigBee-Ext\group #
#                          -ext\Projects\zstack\Samples\SampleApp\CC2530DB\.. #
#                          \..\..\..\..\COMPONENTS\MAC\INCLUDE\ -I            #
#                          D:\ZigBee\KJXY-ZigBee\useful_code\ZigBee-Ext\group #
#                          -ext\Projects\zstack\Samples\SampleApp\CC2530DB\.. #
#                          \..\..\..\..\COMPONENTS\MAC\HIGH_LEVEL\ -I         #
#                          D:\ZigBee\KJXY-ZigBee\useful_code\ZigBee-Ext\group #
#                          -ext\Projects\zstack\Samples\SampleApp\CC2530DB\.. #
#                          \..\..\..\..\COMPONENTS\MAC\LOW_LEVEL\srf04\ -I    #
#                          D:\ZigBee\KJXY-ZigBee\useful_code\ZigBee-Ext\group #
#                          -ext\Projects\zstack\Samples\SampleApp\CC2530DB\.. #
#                          \..\..\..\..\COMPONENTS\MAC\LOW_LEVEL\srf04\SINGLE #
#                          _CHIP\ -I D:\ZigBee\KJXY-ZigBee\useful_code\ZigBee #
#                          -Ext\group-ext\Projects\zstack\Samples\SampleApp\C #
#                          C2530DB\..\..\..\..\..\COMPONENTS\HARDWARE\ -I     #
#                          D:\ZigBee\KJXY-ZigBee\useful_code\ZigBee-Ext\group #
#                          -ext\Projects\zstack\Samples\SampleApp\CC2530DB\.. #
#                          \..\..\..\..\COMPONENTS\HARDWARE\MPU6050\ -I       #
#                          D:\ZigBee\KJXY-ZigBee\useful_code\ZigBee-Ext\group #
#                          -ext\Projects\zstack\Samples\SampleApp\CC2530DB\.. #
#                          \..\..\..\..\COMPONENTS\HARDWARE\MPU6050\eMPL\ -Om #
#    List file          =  D:\ZigBee\KJXY-ZigBee\useful_code\ZigBee-Ext\group #
#                          -ext\Projects\zstack\Samples\SampleApp\CC2530DB\En #
#                          dDeviceEB-MPU6050\List\inv_mpu_dmp_motion_driver.l #
#                          st                                                 #
#    Object file        =  D:\ZigBee\KJXY-ZigBee\useful_code\ZigBee-Ext\group #
#                          -ext\Projects\zstack\Samples\SampleApp\CC2530DB\En #
#                          dDeviceEB-MPU6050\Obj\inv_mpu_dmp_motion_driver.r5 #
#                          1                                                  #
#                                                                             #
#                                                                             #
###############################################################################

D:\ZigBee\KJXY-ZigBee\useful_code\ZigBee-Ext\group-ext\Components\HARDWARE\MPU6050\eMPL\inv_mpu_dmp_motion_driver.c
      1          /*
      2           $License:
      3              Copyright (C) 2011-2012 InvenSense Corporation, All Rights Reserved.
      4              See included License.txt for License information.
      5           $
      6           */
      7          /**
      8           *  @addtogroup  DRIVERS Sensor Driver Layer
      9           *  @brief       Hardware drivers to communicate with sensors via I2C.
     10           *
     11           *  @{
     12           *      @file       inv_mpu_dmp_motion_driver.c
     13           *      @brief      DMP image and interface functions.
     14           *      @details    All functions are preceded by the dmp_ prefix to
     15           *                  differentiate among MPL and general driver function calls.
     16           */
     17          #include <stdio.h>
     18          #include <stdlib.h>
     19          #include <string.h>
     20          #include <math.h>
     21          #include "inv_mpu.h"
     22          #include "inv_mpu_dmp_motion_driver.h"
     23          #include "dmpKey.h"
     24          #include "dmpmap.h"
     25          #include "delay.h"
     26          
     27          //定义目标板采用MSP430
     28          #define  MOTION_DRIVER_TARGET_MSP430
     29          
     30          /* The following functions must be defined for this platform:
     31           * i2c_write(unsigned char slave_addr, unsigned char reg_addr,
     32           *      unsigned char length, unsigned char const *data)
     33           * i2c_read(unsigned char slave_addr, unsigned char reg_addr,
     34           *      unsigned char length, unsigned char *data)
     35           * delay_ms(unsigned long num_ms)
     36           * get_ms(unsigned long *count)
     37           */
     38          #if defined MOTION_DRIVER_TARGET_MSP430
     39          //#include "msp430.h"
     40          //#include "msp430_clock.h"
     41          #define delay_ms    delay_ms
     42          #define get_ms      mget_ms
     43          #define log_i 		printf
     44          #define log_e  		printf
     45          
     46          #elif defined EMPL_TARGET_MSP430
     47          #include "msp430.h"
     48          #include "msp430_clock.h"
     49          #include "log.h"
     50          #define delay_ms    msp430_delay_ms
     51          #define get_ms      msp430_get_clock_ms
     52          #define log_i       MPL_LOGI
     53          #define log_e       MPL_LOGE
     54          
     55          #elif defined EMPL_TARGET_UC3L0
     56          /* Instead of using the standard TWI driver from the ASF library, we're using
     57           * a TWI driver that follows the slave address + register address convention.
     58           */
     59          #include "delay.h"
     60          #include "sysclk.h"
     61          #include "log.h"
     62          #include "uc3l0_clock.h"
     63          /* delay_ms is a function already defined in ASF. */
     64          #define get_ms  uc3l0_get_clock_ms
     65          #define log_i       MPL_LOGI
     66          #define log_e       MPL_LOGE
     67          
     68          #else
     69          #error  Gyro driver is missing the system layer implementations.
     70          #endif
     71          
     72          /* These defines are copied from dmpDefaultMPU6050.c in the general MPL
     73           * releases. These defines may change for each DMP image, so be sure to modify
     74           * these values when switching to a new image.
     75           */
     76          #define CFG_LP_QUAT             (2712)
     77          #define END_ORIENT_TEMP         (1866)
     78          #define CFG_27                  (2742)
     79          #define CFG_20                  (2224)
     80          #define CFG_23                  (2745)
     81          #define CFG_FIFO_ON_EVENT       (2690)
     82          #define END_PREDICTION_UPDATE   (1761)
     83          #define CGNOTICE_INTR           (2620)
     84          #define X_GRT_Y_TMP             (1358)
     85          #define CFG_DR_INT              (1029)
     86          #define CFG_AUTH                (1035)
     87          #define UPDATE_PROP_ROT         (1835)
     88          #define END_COMPARE_Y_X_TMP2    (1455)
     89          #define SKIP_X_GRT_Y_TMP        (1359)
     90          #define SKIP_END_COMPARE        (1435)
     91          #define FCFG_3                  (1088)
     92          #define FCFG_2                  (1066)
     93          #define FCFG_1                  (1062)
     94          #define END_COMPARE_Y_X_TMP3    (1434)
     95          #define FCFG_7                  (1073)
     96          #define FCFG_6                  (1106)
     97          #define FLAT_STATE_END          (1713)
     98          #define SWING_END_4             (1616)
     99          #define SWING_END_2             (1565)
    100          #define SWING_END_3             (1587)
    101          #define SWING_END_1             (1550)
    102          #define CFG_8                   (2718)
    103          #define CFG_15                  (2727)
    104          #define CFG_16                  (2746)
    105          #define CFG_EXT_GYRO_BIAS       (1189)
    106          #define END_COMPARE_Y_X_TMP     (1407)
    107          #define DO_NOT_UPDATE_PROP_ROT  (1839)
    108          #define CFG_7                   (1205)
    109          #define FLAT_STATE_END_TEMP     (1683)
    110          #define END_COMPARE_Y_X         (1484)
    111          #define SKIP_SWING_END_1        (1551)
    112          #define SKIP_SWING_END_3        (1588)
    113          #define SKIP_SWING_END_2        (1566)
    114          #define TILTG75_START           (1672)
    115          #define CFG_6                   (2753)
    116          #define TILTL75_END             (1669)
    117          #define END_ORIENT              (1884)
    118          #define CFG_FLICK_IN            (2573)
    119          #define TILTL75_START           (1643)
    120          #define CFG_MOTION_BIAS         (1208)
    121          #define X_GRT_Y                 (1408)
    122          #define TEMPLABEL               (2324)
    123          #define CFG_ANDROID_ORIENT_INT  (1853)
    124          #define CFG_GYRO_RAW_DATA       (2722)
    125          #define X_GRT_Y_TMP2            (1379)
    126          
    127          #define D_0_22                  (22+512)
    128          #define D_0_24                  (24+512)
    129          
    130          #define D_0_36                  (36)
    131          #define D_0_52                  (52)
    132          #define D_0_96                  (96)
    133          #define D_0_104                 (104)
    134          #define D_0_108                 (108)
    135          #define D_0_163                 (163)
    136          #define D_0_188                 (188)
    137          #define D_0_192                 (192)
    138          #define D_0_224                 (224)
    139          #define D_0_228                 (228)
    140          #define D_0_232                 (232)
    141          #define D_0_236                 (236)
    142          
    143          #define D_1_2                   (256 + 2)
    144          #define D_1_4                   (256 + 4)
    145          #define D_1_8                   (256 + 8)
    146          #define D_1_10                  (256 + 10)
    147          #define D_1_24                  (256 + 24)
    148          #define D_1_28                  (256 + 28)
    149          #define D_1_36                  (256 + 36)
    150          #define D_1_40                  (256 + 40)
    151          #define D_1_44                  (256 + 44)
    152          #define D_1_72                  (256 + 72)
    153          #define D_1_74                  (256 + 74)
    154          #define D_1_79                  (256 + 79)
    155          #define D_1_88                  (256 + 88)
    156          #define D_1_90                  (256 + 90)
    157          #define D_1_92                  (256 + 92)
    158          #define D_1_96                  (256 + 96)
    159          #define D_1_98                  (256 + 98)
    160          #define D_1_106                 (256 + 106)
    161          #define D_1_108                 (256 + 108)
    162          #define D_1_112                 (256 + 112)
    163          #define D_1_128                 (256 + 144)
    164          #define D_1_152                 (256 + 12)
    165          #define D_1_160                 (256 + 160)
    166          #define D_1_176                 (256 + 176)
    167          #define D_1_178                 (256 + 178)
    168          #define D_1_218                 (256 + 218)
    169          #define D_1_232                 (256 + 232)
    170          #define D_1_236                 (256 + 236)
    171          #define D_1_240                 (256 + 240)
    172          #define D_1_244                 (256 + 244)
    173          #define D_1_250                 (256 + 250)
    174          #define D_1_252                 (256 + 252)
    175          #define D_2_12                  (512 + 12)
    176          #define D_2_96                  (512 + 96)
    177          #define D_2_108                 (512 + 108)
    178          #define D_2_208                 (512 + 208)
    179          #define D_2_224                 (512 + 224)
    180          #define D_2_236                 (512 + 236)
    181          #define D_2_244                 (512 + 244)
    182          #define D_2_248                 (512 + 248)
    183          #define D_2_252                 (512 + 252)
    184          
    185          #define CPASS_BIAS_X            (35 * 16 + 4)
    186          #define CPASS_BIAS_Y            (35 * 16 + 8)
    187          #define CPASS_BIAS_Z            (35 * 16 + 12)
    188          #define CPASS_MTX_00            (36 * 16)
    189          #define CPASS_MTX_01            (36 * 16 + 4)
    190          #define CPASS_MTX_02            (36 * 16 + 8)
    191          #define CPASS_MTX_10            (36 * 16 + 12)
    192          #define CPASS_MTX_11            (37 * 16)
    193          #define CPASS_MTX_12            (37 * 16 + 4)
    194          #define CPASS_MTX_20            (37 * 16 + 8)
    195          #define CPASS_MTX_21            (37 * 16 + 12)
    196          #define CPASS_MTX_22            (43 * 16 + 12)
    197          #define D_EXT_GYRO_BIAS_X       (61 * 16)
    198          #define D_EXT_GYRO_BIAS_Y       (61 * 16) + 4
    199          #define D_EXT_GYRO_BIAS_Z       (61 * 16) + 8
    200          #define D_ACT0                  (40 * 16)
    201          #define D_ACSX                  (40 * 16 + 4)
    202          #define D_ACSY                  (40 * 16 + 8)
    203          #define D_ACSZ                  (40 * 16 + 12)
    204          
    205          #define FLICK_MSG               (45 * 16 + 4)
    206          #define FLICK_COUNTER           (45 * 16 + 8)
    207          #define FLICK_LOWER             (45 * 16 + 12)
    208          #define FLICK_UPPER             (46 * 16 + 12)
    209          
    210          #define D_AUTH_OUT              (992)
    211          #define D_AUTH_IN               (996)
    212          #define D_AUTH_A                (1000)
    213          #define D_AUTH_B                (1004)
    214          
    215          #define D_PEDSTD_BP_B           (768 + 0x1C)
    216          #define D_PEDSTD_HP_A           (768 + 0x78)
    217          #define D_PEDSTD_HP_B           (768 + 0x7C)
    218          #define D_PEDSTD_BP_A4          (768 + 0x40)
    219          #define D_PEDSTD_BP_A3          (768 + 0x44)
    220          #define D_PEDSTD_BP_A2          (768 + 0x48)
    221          #define D_PEDSTD_BP_A1          (768 + 0x4C)
    222          #define D_PEDSTD_INT_THRSH      (768 + 0x68)
    223          #define D_PEDSTD_CLIP           (768 + 0x6C)
    224          #define D_PEDSTD_SB             (768 + 0x28)
    225          #define D_PEDSTD_SB_TIME        (768 + 0x2C)
    226          #define D_PEDSTD_PEAKTHRSH      (768 + 0x98)
    227          #define D_PEDSTD_TIML           (768 + 0x2A)
    228          #define D_PEDSTD_TIMH           (768 + 0x2E)
    229          #define D_PEDSTD_PEAK           (768 + 0X94)
    230          #define D_PEDSTD_STEPCTR        (768 + 0x60)
    231          #define D_PEDSTD_TIMECTR        (964)
    232          #define D_PEDSTD_DECI           (768 + 0xA0)
    233          
    234          #define D_HOST_NO_MOT           (976)
    235          #define D_ACCEL_BIAS            (660)
    236          
    237          #define D_ORIENT_GAP            (76)
    238          
    239          #define D_TILT0_H               (48)
    240          #define D_TILT0_L               (50)
    241          #define D_TILT1_H               (52)
    242          #define D_TILT1_L               (54)
    243          #define D_TILT2_H               (56)
    244          #define D_TILT2_L               (58)
    245          #define D_TILT3_H               (60)
    246          #define D_TILT3_L               (62)
    247          
    248          #define DMP_CODE_SIZE           (3062)
    249          

   \                                 In  segment XDATA_ROM_C, align 1
    250          static const unsigned char dmp_memory[DMP_CODE_SIZE] = {
   \                     dmp_memory:
   \   000000   00           DB 0
   \   000001   00           DB 0
   \   000002   70           DB 112
   \   000003   00           DB 0
   \   000004   00           DB 0
   \   000005   00           DB 0
   \   000006   00           DB 0
   \   000007   24           DB 36
   \   000008   00           DB 0
   \   000009   00           DB 0
   \   00000A   00           DB 0
   \   00000B   02           DB 2
   \   00000C   00           DB 0
   \   00000D   03           DB 3
   \   00000E   00           DB 0
   \   00000F   00           DB 0
   \   000010   00           DB 0
   \   000011   65           DB 101
   \   000012   00           DB 0
   \   000013   54           DB 84
   \   000014   FF           DB 255
   \   000015   EF           DB 239
   \   000016   00           DB 0
   \   000017   00           DB 0
   \   000018   FA           DB 250
   \   000019   80           DB 128
   \   00001A   00           DB 0
   \   00001B   0B           DB 11
   \   00001C   12           DB 18
   \   00001D   82           DB 130
   \   00001E   00           DB 0
   \   00001F   01           DB 1
   \   000020   03           DB 3
   \   000021   0C           DB 12
   \   000022   30           DB 48
   \   000023   C3           DB 195
   \   000024   0E           DB 14
   \   000025   8C           DB 140
   \   000026   8C           DB 140
   \   000027   E9           DB 233
   \   000028   14           DB 20
   \   000029   D5           DB 213
   \   00002A   40           DB 64
   \   00002B   02           DB 2
   \   00002C   13           DB 19
   \   00002D   71           DB 113
   \   00002E   0F           DB 15
   \   00002F   8E           DB 142
   \   000030   38           DB 56
   \   000031   83           DB 131
   \   000032   F8           DB 248
   \   000033   83           DB 131
   \   000034   30           DB 48
   \   000035   00           DB 0
   \   000036   F8           DB 248
   \   000037   83           DB 131
   \   000038   25           DB 37
   \   000039   8E           DB 142
   \   00003A   F8           DB 248
   \   00003B   83           DB 131
   \   00003C   30           DB 48
   \   00003D   00           DB 0
   \   00003E   F8           DB 248
   \   00003F   83           DB 131
   \   000040   FF           DB 255
   \   000041   FF           DB 255
   \   000042   FF           DB 255
   \   000043   FF           DB 255
   \   000044   0F           DB 15
   \   000045   FE           DB 254
   \   000046   A9           DB 169
   \   000047   D6           DB 214
   \   000048   24           DB 36
   \   000049   00           DB 0
   \   00004A   04           DB 4
   \   00004B   00           DB 0
   \   00004C   1A           DB 26
   \   00004D   82           DB 130
   \   00004E   79           DB 121
   \   00004F   A1           DB 161
   \   000050   00           DB 0
   \   000051   00           DB 0
   \   000052   00           DB 0
   \   000053   3C           DB 60
   \   000054   FF           DB 255
   \   000055   FF           DB 255
   \   000056   00           DB 0
   \   000057   00           DB 0
   \   000058   00           DB 0
   \   000059   10           DB 16
   \   00005A   00           DB 0
   \   00005B   00           DB 0
   \   00005C   38           DB 56
   \   00005D   83           DB 131
   \   00005E   6F           DB 111
   \   00005F   A2           DB 162
   \   000060   00           DB 0
   \   000061   3E           DB 62
   \   000062   03           DB 3
   \   000063   30           DB 48
   \   000064   40           DB 64
   \   000065   00           DB 0
   \   000066   00           DB 0
   \   000067   00           DB 0
   \   000068   02           DB 2
   \   000069   CA           DB 202
   \   00006A   E3           DB 227
   \   00006B   09           DB 9
   \   00006C   3E           DB 62
   \   00006D   80           DB 128
   \   00006E   00           DB 0
   \   00006F   00           DB 0
   \   000070   20           DB 32
   \   000071   00           DB 0
   \   000072   00           DB 0
   \   000073   00           DB 0
   \   000074   00           DB 0
   \   000075   00           DB 0
   \   000076   00           DB 0
   \   000077   00           DB 0
   \   000078   40           DB 64
   \   000079   00           DB 0
   \   00007A   00           DB 0
   \   00007B   00           DB 0
   \   00007C   60           DB 96
   \   00007D   00           DB 0
   \   00007E   00           DB 0
   \   00007F   00           DB 0
   \   000080   00           DB 0
   \   000081   0C           DB 12
   \   000082   00           DB 0
   \   000083   00           DB 0
   \   000084   00           DB 0
   \   000085   0C           DB 12
   \   000086   18           DB 24
   \   000087   6E           DB 110
   \   000088   00           DB 0
   \   000089   00           DB 0
   \   00008A   06           DB 6
   \   00008B   92           DB 146
   \   00008C   0A           DB 10
   \   00008D   16           DB 22
   \   00008E   C0           DB 192
   \   00008F   DF           DB 223
   \   000090   FF           DB 255
   \   000091   FF           DB 255
   \   000092   02           DB 2
   \   000093   56           DB 86
   \   000094   FD           DB 253
   \   000095   8C           DB 140
   \   000096   D3           DB 211
   \   000097   77           DB 119
   \   000098   FF           DB 255
   \   000099   E1           DB 225
   \   00009A   C4           DB 196
   \   00009B   96           DB 150
   \   00009C   E0           DB 224
   \   00009D   C5           DB 197
   \   00009E   BE           DB 190
   \   00009F   AA           DB 170
   \   0000A0   00           DB 0
   \   0000A1   00           DB 0
   \   0000A2   00           DB 0
   \   0000A3   00           DB 0
   \   0000A4   FF           DB 255
   \   0000A5   FF           DB 255
   \   0000A6   0B           DB 11
   \   0000A7   2B           DB 43
   \   0000A8   00           DB 0
   \   0000A9   00           DB 0
   \   0000AA   16           DB 22
   \   0000AB   57           DB 87
   \   0000AC   00           DB 0
   \   0000AD   00           DB 0
   \   0000AE   03           DB 3
   \   0000AF   59           DB 89
   \   0000B0   40           DB 64
   \   0000B1   00           DB 0
   \   0000B2   00           DB 0
   \   0000B3   00           DB 0
   \   0000B4   00           DB 0
   \   0000B5   00           DB 0
   \   0000B6   1D           DB 29
   \   0000B7   FA           DB 250
   \   0000B8   00           DB 0
   \   0000B9   02           DB 2
   \   0000BA   6C           DB 108
   \   0000BB   1D           DB 29
   \   0000BC   00           DB 0
   \   0000BD   00           DB 0
   \   0000BE   00           DB 0
   \   0000BF   00           DB 0
   \   0000C0   3F           DB 63
   \   0000C1   FF           DB 255
   \   0000C2   DF           DB 223
   \   0000C3   EB           DB 235
   \   0000C4   00           DB 0
   \   0000C5   3E           DB 62
   \   0000C6   B3           DB 179
   \   0000C7   B6           DB 182
   \   0000C8   00           DB 0
   \   0000C9   0D           DB 13
   \   0000CA   22           DB 34
   \   0000CB   78           DB 120
   \   0000CC   00           DB 0
   \   0000CD   00           DB 0
   \   0000CE   2F           DB 47
   \   0000CF   3C           DB 60
   \   0000D0   00           DB 0
   \   0000D1   00           DB 0
   \   0000D2   00           DB 0
   \   0000D3   00           DB 0
   \   0000D4   00           DB 0
   \   0000D5   19           DB 25
   \   0000D6   42           DB 66
   \   0000D7   B5           DB 181
   \   0000D8   00           DB 0
   \   0000D9   00           DB 0
   \   0000DA   39           DB 57
   \   0000DB   A2           DB 162
   \   0000DC   00           DB 0
   \   0000DD   00           DB 0
   \   0000DE   B3           DB 179
   \   0000DF   65           DB 101
   \   0000E0   D9           DB 217
   \   0000E1   0E           DB 14
   \   0000E2   9F           DB 159
   \   0000E3   C9           DB 201
   \   0000E4   1D           DB 29
   \   0000E5   CF           DB 207
   \   0000E6   4C           DB 76
   \   0000E7   34           DB 52
   \   0000E8   30           DB 48
   \   0000E9   00           DB 0
   \   0000EA   00           DB 0
   \   0000EB   00           DB 0
   \   0000EC   50           DB 80
   \   0000ED   00           DB 0
   \   0000EE   00           DB 0
   \   0000EF   00           DB 0
   \   0000F0   3B           DB 59
   \   0000F1   B6           DB 182
   \   0000F2   7A           DB 122
   \   0000F3   E8           DB 232
   \   0000F4   00           DB 0
   \   0000F5   64           DB 100
   \   0000F6   00           DB 0
   \   0000F7   00           DB 0
   \   0000F8   00           DB 0
   \   0000F9   C8           DB 200
   \   0000FA   00           DB 0
   \   0000FB   00           DB 0
   \   0000FC   00           DB 0
   \   0000FD   00           DB 0
   \   0000FE   00           DB 0
   \   0000FF   00           DB 0
   \   000100   10           DB 16
   \   000101   00           DB 0
   \   000102   00           DB 0
   \   000103   00           DB 0
   \   000104   10           DB 16
   \   000105   00           DB 0
   \   000106   FA           DB 250
   \   000107   92           DB 146
   \   000108   10           DB 16
   \   000109   00           DB 0
   \   00010A   22           DB 34
   \   00010B   5E           DB 94
   \   00010C   00           DB 0
   \   00010D   0D           DB 13
   \   00010E   22           DB 34
   \   00010F   9F           DB 159
   \   000110   00           DB 0
   \   000111   01           DB 1
   \   000112   00           DB 0
   \   000113   00           DB 0
   \   000114   00           DB 0
   \   000115   32           DB 50
   \   000116   00           DB 0
   \   000117   00           DB 0
   \   000118   FF           DB 255
   \   000119   46           DB 70
   \   00011A   00           DB 0
   \   00011B   00           DB 0
   \   00011C   63           DB 99
   \   00011D   D4           DB 212
   \   00011E   00           DB 0
   \   00011F   00           DB 0
   \   000120   10           DB 16
   \   000121   00           DB 0
   \   000122   00           DB 0
   \   000123   00           DB 0
   \   000124   04           DB 4
   \   000125   D6           DB 214
   \   000126   00           DB 0
   \   000127   00           DB 0
   \   000128   04           DB 4
   \   000129   CC           DB 204
   \   00012A   00           DB 0
   \   00012B   00           DB 0
   \   00012C   04           DB 4
   \   00012D   CC           DB 204
   \   00012E   00           DB 0
   \   00012F   00           DB 0
   \   000130   00           DB 0
   \   000131   00           DB 0
   \   000132   10           DB 16
   \   000133   72           DB 114
   \   000134   00           DB 0
   \   000135   00           DB 0
   \   000136   00           DB 0
   \   000137   40           DB 64
   \   000138   00           DB 0
   \   000139   00           DB 0
   \   00013A   00           DB 0
   \   00013B   00           DB 0
   \   00013C   00           DB 0
   \   00013D   00           DB 0
   \   00013E   00           DB 0
   \   00013F   00           DB 0
   \   000140   00           DB 0
   \   000141   06           DB 6
   \   000142   00           DB 0
   \   000143   02           DB 2
   \   000144   00           DB 0
   \   000145   05           DB 5
   \   000146   00           DB 0
   \   000147   07           DB 7
   \   000148   00           DB 0
   \   000149   00           DB 0
   \   00014A   00           DB 0
   \   00014B   00           DB 0
   \   00014C   00           DB 0
   \   00014D   64           DB 100
   \   00014E   00           DB 0
   \   00014F   00           DB 0
   \   000150   00           DB 0
   \   000151   00           DB 0
   \   000152   00           DB 0
   \   000153   00           DB 0
   \   000154   00           DB 0
   \   000155   00           DB 0
   \   000156   00           DB 0
   \   000157   05           DB 5
   \   000158   00           DB 0
   \   000159   05           DB 5
   \   00015A   00           DB 0
   \   00015B   64           DB 100
   \   00015C   00           DB 0
   \   00015D   20           DB 32
   \   00015E   00           DB 0
   \   00015F   00           DB 0
   \   000160   00           DB 0
   \   000161   00           DB 0
   \   000162   00           DB 0
   \   000163   00           DB 0
   \   000164   00           DB 0
   \   000165   00           DB 0
   \   000166   00           DB 0
   \   000167   00           DB 0
   \   000168   00           DB 0
   \   000169   00           DB 0
   \   00016A   40           DB 64
   \   00016B   00           DB 0
   \   00016C   00           DB 0
   \   00016D   00           DB 0
   \   00016E   03           DB 3
   \   00016F   00           DB 0
   \   000170   00           DB 0
   \   000171   00           DB 0
   \   000172   00           DB 0
   \   000173   32           DB 50
   \   000174   F8           DB 248
   \   000175   98           DB 152
   \   000176   00           DB 0
   \   000177   00           DB 0
   \   000178   FF           DB 255
   \   000179   65           DB 101
   \   00017A   00           DB 0
   \   00017B   00           DB 0
   \   00017C   83           DB 131
   \   00017D   0F           DB 15
   \   00017E   00           DB 0
   \   00017F   00           DB 0
   \   000180   FF           DB 255
   \   000181   9B           DB 155
   \   000182   FC           DB 252
   \   000183   00           DB 0
   \   000184   00           DB 0
   \   000185   00           DB 0
   \   000186   00           DB 0
   \   000187   00           DB 0
   \   000188   00           DB 0
   \   000189   00           DB 0
   \   00018A   00           DB 0
   \   00018B   00           DB 0
   \   00018C   00           DB 0
   \   00018D   00           DB 0
   \   00018E   00           DB 0
   \   00018F   00           DB 0
   \   000190   00           DB 0
   \   000191   00           DB 0
   \   000192   00           DB 0
   \   000193   00           DB 0
   \   000194   00           DB 0
   \   000195   00           DB 0
   \   000196   00           DB 0
   \   000197   00           DB 0
   \   000198   00           DB 0
   \   000199   00           DB 0
   \   00019A   00           DB 0
   \   00019B   00           DB 0
   \   00019C   00           DB 0
   \   00019D   00           DB 0
   \   00019E   00           DB 0
   \   00019F   00           DB 0
   \   0001A0   00           DB 0
   \   0001A1   00           DB 0
   \   0001A2   00           DB 0
   \   0001A3   00           DB 0
   \   0001A4   00           DB 0
   \   0001A5   00           DB 0
   \   0001A6   00           DB 0
   \   0001A7   00           DB 0
   \   0001A8   00           DB 0
   \   0001A9   00           DB 0
   \   0001AA   00           DB 0
   \   0001AB   00           DB 0
   \   0001AC   00           DB 0
   \   0001AD   00           DB 0
   \   0001AE   10           DB 16
   \   0001AF   00           DB 0
   \   0001B0   40           DB 64
   \   0001B1   00           DB 0
   \   0001B2   00           DB 0
   \   0001B3   00           DB 0
   \   0001B4   00           DB 0
   \   0001B5   00           DB 0
   \   0001B6   00           DB 0
   \   0001B7   06           DB 6
   \   0001B8   00           DB 0
   \   0001B9   00           DB 0
   \   0001BA   B2           DB 178
   \   0001BB   6A           DB 106
   \   0001BC   00           DB 0
   \   0001BD   02           DB 2
   \   0001BE   00           DB 0
   \   0001BF   00           DB 0
   \   0001C0   00           DB 0
   \   0001C1   01           DB 1
   \   0001C2   FB           DB 251
   \   0001C3   83           DB 131
   \   0001C4   00           DB 0
   \   0001C5   68           DB 104
   \   0001C6   00           DB 0
   \   0001C7   00           DB 0
   \   0001C8   00           DB 0
   \   0001C9   D9           DB 217
   \   0001CA   FC           DB 252
   \   0001CB   00           DB 0
   \   0001CC   7C           DB 124
   \   0001CD   F1           DB 241
   \   0001CE   FF           DB 255
   \   0001CF   83           DB 131
   \   0001D0   00           DB 0
   \   0001D1   00           DB 0
   \   0001D2   00           DB 0
   \   0001D3   00           DB 0
   \   0001D4   00           DB 0
   \   0001D5   65           DB 101
   \   0001D6   00           DB 0
   \   0001D7   00           DB 0
   \   0001D8   00           DB 0
   \   0001D9   64           DB 100
   \   0001DA   03           DB 3
   \   0001DB   E8           DB 232
   \   0001DC   00           DB 0
   \   0001DD   64           DB 100
   \   0001DE   00           DB 0
   \   0001DF   28           DB 40
   \   0001E0   00           DB 0
   \   0001E1   00           DB 0
   \   0001E2   00           DB 0
   \   0001E3   25           DB 37
   \   0001E4   00           DB 0
   \   0001E5   00           DB 0
   \   0001E6   00           DB 0
   \   0001E7   00           DB 0
   \   0001E8   16           DB 22
   \   0001E9   A0           DB 160
   \   0001EA   00           DB 0
   \   0001EB   00           DB 0
   \   0001EC   00           DB 0
   \   0001ED   00           DB 0
   \   0001EE   10           DB 16
   \   0001EF   00           DB 0
   \   0001F0   00           DB 0
   \   0001F1   00           DB 0
   \   0001F2   10           DB 16
   \   0001F3   00           DB 0
   \   0001F4   00           DB 0
   \   0001F5   2F           DB 47
   \   0001F6   00           DB 0
   \   0001F7   00           DB 0
   \   0001F8   00           DB 0
   \   0001F9   00           DB 0
   \   0001FA   01           DB 1
   \   0001FB   F4           DB 244
   \   0001FC   00           DB 0
   \   0001FD   00           DB 0
   \   0001FE   10           DB 16
   \   0001FF   00           DB 0
   \   000200   00           DB 0
   \   000201   28           DB 40
   \   000202   00           DB 0
   \   000203   00           DB 0
   \   000204   FF           DB 255
   \   000205   FF           DB 255
   \   000206   45           DB 69
   \   000207   81           DB 129
   \   000208   FF           DB 255
   \   000209   FF           DB 255
   \   00020A   FA           DB 250
   \   00020B   72           DB 114
   \   00020C   00           DB 0
   \   00020D   00           DB 0
   \   00020E   00           DB 0
   \   00020F   00           DB 0
   \   000210   00           DB 0
   \   000211   00           DB 0
   \   000212   00           DB 0
   \   000213   00           DB 0
   \   000214   00           DB 0
   \   000215   44           DB 68
   \   000216   00           DB 0
   \   000217   05           DB 5
   \   000218   00           DB 0
   \   000219   05           DB 5
   \   00021A   BA           DB 186
   \   00021B   C6           DB 198
   \   00021C   00           DB 0
   \   00021D   47           DB 71
   \   00021E   78           DB 120
   \   00021F   A2           DB 162
   \   000220   00           DB 0
   \   000221   00           DB 0
   \   000222   00           DB 0
   \   000223   01           DB 1
   \   000224   00           DB 0
   \   000225   00           DB 0
   \   000226   00           DB 0
   \   000227   00           DB 0
   \   000228   00           DB 0
   \   000229   00           DB 0
   \   00022A   06           DB 6
   \   00022B   00           DB 0
   \   00022C   00           DB 0
   \   00022D   00           DB 0
   \   00022E   00           DB 0
   \   00022F   14           DB 20
   \   000230   00           DB 0
   \   000231   00           DB 0
   \   000232   25           DB 37
   \   000233   4D           DB 77
   \   000234   00           DB 0
   \   000235   2F           DB 47
   \   000236   70           DB 112
   \   000237   6D           DB 109
   \   000238   00           DB 0
   \   000239   00           DB 0
   \   00023A   05           DB 5
   \   00023B   AE           DB 174
   \   00023C   00           DB 0
   \   00023D   0C           DB 12
   \   00023E   02           DB 2
   \   00023F   D0           DB 208
   \   000240   00           DB 0
   \   000241   00           DB 0
   \   000242   00           DB 0
   \   000243   00           DB 0
   \   000244   00           DB 0
   \   000245   00           DB 0
   \   000246   00           DB 0
   \   000247   00           DB 0
   \   000248   00           DB 0
   \   000249   00           DB 0
   \   00024A   00           DB 0
   \   00024B   00           DB 0
   \   00024C   00           DB 0
   \   00024D   00           DB 0
   \   00024E   00           DB 0
   \   00024F   00           DB 0
   \   000250   00           DB 0
   \   000251   1B           DB 27
   \   000252   00           DB 0
   \   000253   00           DB 0
   \   000254   00           DB 0
   \   000255   00           DB 0
   \   000256   00           DB 0
   \   000257   00           DB 0
   \   000258   00           DB 0
   \   000259   00           DB 0
   \   00025A   00           DB 0
   \   00025B   00           DB 0
   \   00025C   00           DB 0
   \   00025D   00           DB 0
   \   00025E   00           DB 0
   \   00025F   00           DB 0
   \   000260   00           DB 0
   \   000261   64           DB 100
   \   000262   00           DB 0
   \   000263   00           DB 0
   \   000264   00           DB 0
   \   000265   08           DB 8
   \   000266   00           DB 0
   \   000267   00           DB 0
   \   000268   00           DB 0
   \   000269   00           DB 0
   \   00026A   00           DB 0
   \   00026B   00           DB 0
   \   00026C   00           DB 0
   \   00026D   00           DB 0
   \   00026E   00           DB 0
   \   00026F   00           DB 0
   \   000270   00           DB 0
   \   000271   00           DB 0
   \   000272   00           DB 0
   \   000273   00           DB 0
   \   000274   00           DB 0
   \   000275   00           DB 0
   \   000276   00           DB 0
   \   000277   00           DB 0
   \   000278   00           DB 0
   \   000279   00           DB 0
   \   00027A   00           DB 0
   \   00027B   00           DB 0
   \   00027C   00           DB 0
   \   00027D   00           DB 0
   \   00027E   00           DB 0
   \   00027F   00           DB 0
   \   000280   00           DB 0
   \   000281   00           DB 0
   \   000282   00           DB 0
   \   000283   00           DB 0
   \   000284   00           DB 0
   \   000285   00           DB 0
   \   000286   00           DB 0
   \   000287   00           DB 0
   \   000288   00           DB 0
   \   000289   00           DB 0
   \   00028A   00           DB 0
   \   00028B   00           DB 0
   \   00028C   00           DB 0
   \   00028D   00           DB 0
   \   00028E   00           DB 0
   \   00028F   00           DB 0
   \   000290   00           DB 0
   \   000291   00           DB 0
   \   000292   00           DB 0
   \   000293   00           DB 0
   \   000294   00           DB 0
   \   000295   00           DB 0
   \   000296   00           DB 0
   \   000297   00           DB 0
   \   000298   00           DB 0
   \   000299   00           DB 0
   \   00029A   00           DB 0
   \   00029B   00           DB 0
   \   00029C   00           DB 0
   \   00029D   00           DB 0
   \   00029E   00           DB 0
   \   00029F   00           DB 0
   \   0002A0   00           DB 0
   \   0002A1   00           DB 0
   \   0002A2   00           DB 0
   \   0002A3   00           DB 0
   \   0002A4   00           DB 0
   \   0002A5   00           DB 0
   \   0002A6   00           DB 0
   \   0002A7   00           DB 0
   \   0002A8   00           DB 0
   \   0002A9   00           DB 0
   \   0002AA   00           DB 0
   \   0002AB   00           DB 0
   \   0002AC   00           DB 0
   \   0002AD   00           DB 0
   \   0002AE   00           DB 0
   \   0002AF   00           DB 0
   \   0002B0   00           DB 0
   \   0002B1   00           DB 0
   \   0002B2   00           DB 0
   \   0002B3   00           DB 0
   \   0002B4   00           DB 0
   \   0002B5   00           DB 0
   \   0002B6   00           DB 0
   \   0002B7   00           DB 0
   \   0002B8   00           DB 0
   \   0002B9   00           DB 0
   \   0002BA   00           DB 0
   \   0002BB   00           DB 0
   \   0002BC   00           DB 0
   \   0002BD   00           DB 0
   \   0002BE   00           DB 0
   \   0002BF   00           DB 0
   \   0002C0   00           DB 0
   \   0002C1   1B           DB 27
   \   0002C2   00           DB 0
   \   0002C3   00           DB 0
   \   0002C4   00           DB 0
   \   0002C5   00           DB 0
   \   0002C6   00           DB 0
   \   0002C7   00           DB 0
   \   0002C8   00           DB 0
   \   0002C9   00           DB 0
   \   0002CA   00           DB 0
   \   0002CB   00           DB 0
   \   0002CC   00           DB 0
   \   0002CD   0E           DB 14
   \   0002CE   00           DB 0
   \   0002CF   0E           DB 14
   \   0002D0   00           DB 0
   \   0002D1   00           DB 0
   \   0002D2   0A           DB 10
   \   0002D3   C7           DB 199
   \   0002D4   00           DB 0
   \   0002D5   04           DB 4
   \   0002D6   00           DB 0
   \   0002D7   00           DB 0
   \   0002D8   00           DB 0
   \   0002D9   00           DB 0
   \   0002DA   00           DB 0
   \   0002DB   32           DB 50
   \   0002DC   FF           DB 255
   \   0002DD   FF           DB 255
   \   0002DE   FF           DB 255
   \   0002DF   9C           DB 156
   \   0002E0   00           DB 0
   \   0002E1   00           DB 0
   \   0002E2   0B           DB 11
   \   0002E3   2B           DB 43
   \   0002E4   00           DB 0
   \   0002E5   00           DB 0
   \   0002E6   00           DB 0
   \   0002E7   02           DB 2
   \   0002E8   00           DB 0
   \   0002E9   00           DB 0
   \   0002EA   00           DB 0
   \   0002EB   01           DB 1
   \   0002EC   00           DB 0
   \   0002ED   00           DB 0
   \   0002EE   00           DB 0
   \   0002EF   64           DB 100
   \   0002F0   FF           DB 255
   \   0002F1   E5           DB 229
   \   0002F2   00           DB 0
   \   0002F3   00           DB 0
   \   0002F4   00           DB 0
   \   0002F5   00           DB 0
   \   0002F6   00           DB 0
   \   0002F7   00           DB 0
   \   0002F8   00           DB 0
   \   0002F9   00           DB 0
   \   0002FA   00           DB 0
   \   0002FB   00           DB 0
   \   0002FC   00           DB 0
   \   0002FD   00           DB 0
   \   0002FE   00           DB 0
   \   0002FF   00           DB 0
   \   000300   00           DB 0
   \   000301   00           DB 0
   \   000302   00           DB 0
   \   000303   01           DB 1
   \   000304   00           DB 0
   \   000305   00           DB 0
   \   000306   00           DB 0
   \   000307   00           DB 0
   \   000308   00           DB 0
   \   000309   01           DB 1
   \   00030A   00           DB 0
   \   00030B   00           DB 0
   \   00030C   00           DB 0
   \   00030D   00           DB 0
   \   00030E   00           DB 0
   \   00030F   00           DB 0
   \   000310   00           DB 0
   \   000311   01           DB 1
   \   000312   80           DB 128
   \   000313   00           DB 0
   \   000314   00           DB 0
   \   000315   01           DB 1
   \   000316   80           DB 128
   \   000317   00           DB 0
   \   000318   00           DB 0
   \   000319   01           DB 1
   \   00031A   80           DB 128
   \   00031B   00           DB 0
   \   00031C   00           DB 0
   \   00031D   24           DB 36
   \   00031E   26           DB 38
   \   00031F   D3           DB 211
   \   000320   00           DB 0
   \   000321   00           DB 0
   \   000322   00           DB 0
   \   000323   00           DB 0
   \   000324   00           DB 0
   \   000325   00           DB 0
   \   000326   00           DB 0
   \   000327   00           DB 0
   \   000328   00           DB 0
   \   000329   06           DB 6
   \   00032A   00           DB 0
   \   00032B   10           DB 16
   \   00032C   00           DB 0
   \   00032D   96           DB 150
   \   00032E   00           DB 0
   \   00032F   3C           DB 60
   \   000330   00           DB 0
   \   000331   00           DB 0
   \   000332   00           DB 0
   \   000333   00           DB 0
   \   000334   00           DB 0
   \   000335   00           DB 0
   \   000336   00           DB 0
   \   000337   00           DB 0
   \   000338   00           DB 0
   \   000339   00           DB 0
   \   00033A   00           DB 0
   \   00033B   00           DB 0
   \   00033C   00           DB 0
   \   00033D   00           DB 0
   \   00033E   00           DB 0
   \   00033F   00           DB 0
   \   000340   0C           DB 12
   \   000341   0A           DB 10
   \   000342   4E           DB 78
   \   000343   68           DB 104
   \   000344   CD           DB 205
   \   000345   CF           DB 207
   \   000346   77           DB 119
   \   000347   09           DB 9
   \   000348   50           DB 80
   \   000349   16           DB 22
   \   00034A   67           DB 103
   \   00034B   59           DB 89
   \   00034C   C6           DB 198
   \   00034D   19           DB 25
   \   00034E   CE           DB 206
   \   00034F   82           DB 130
   \   000350   00           DB 0
   \   000351   00           DB 0
   \   000352   00           DB 0
   \   000353   00           DB 0
   \   000354   00           DB 0
   \   000355   00           DB 0
   \   000356   00           DB 0
   \   000357   00           DB 0
   \   000358   00           DB 0
   \   000359   00           DB 0
   \   00035A   00           DB 0
   \   00035B   00           DB 0
   \   00035C   00           DB 0
   \   00035D   00           DB 0
   \   00035E   00           DB 0
   \   00035F   00           DB 0
   \   000360   00           DB 0
   \   000361   00           DB 0
   \   000362   00           DB 0
   \   000363   00           DB 0
   \   000364   00           DB 0
   \   000365   00           DB 0
   \   000366   00           DB 0
   \   000367   00           DB 0
   \   000368   17           DB 23
   \   000369   D7           DB 215
   \   00036A   84           DB 132
   \   00036B   00           DB 0
   \   00036C   03           DB 3
   \   00036D   00           DB 0
   \   00036E   00           DB 0
   \   00036F   00           DB 0
   \   000370   00           DB 0
   \   000371   00           DB 0
   \   000372   00           DB 0
   \   000373   00           DB 0
   \   000374   00           DB 0
   \   000375   00           DB 0
   \   000376   00           DB 0
   \   000377   00           DB 0
   \   000378   C7           DB 199
   \   000379   93           DB 147
   \   00037A   8F           DB 143
   \   00037B   9D           DB 157
   \   00037C   1E           DB 30
   \   00037D   1B           DB 27
   \   00037E   1C           DB 28
   \   00037F   19           DB 25
   \   000380   00           DB 0
   \   000381   00           DB 0
   \   000382   00           DB 0
   \   000383   00           DB 0
   \   000384   00           DB 0
   \   000385   00           DB 0
   \   000386   00           DB 0
   \   000387   00           DB 0
   \   000388   00           DB 0
   \   000389   00           DB 0
   \   00038A   00           DB 0
   \   00038B   00           DB 0
   \   00038C   00           DB 0
   \   00038D   00           DB 0
   \   00038E   00           DB 0
   \   00038F   00           DB 0
   \   000390   00           DB 0
   \   000391   00           DB 0
   \   000392   00           DB 0
   \   000393   00           DB 0
   \   000394   00           DB 0
   \   000395   00           DB 0
   \   000396   00           DB 0
   \   000397   00           DB 0
   \   000398   02           DB 2
   \   000399   03           DB 3
   \   00039A   18           DB 24
   \   00039B   85           DB 133
   \   00039C   00           DB 0
   \   00039D   00           DB 0
   \   00039E   40           DB 64
   \   00039F   00           DB 0
   \   0003A0   00           DB 0
   \   0003A1   00           DB 0
   \   0003A2   00           DB 0
   \   0003A3   03           DB 3
   \   0003A4   00           DB 0
   \   0003A5   00           DB 0
   \   0003A6   00           DB 0
   \   0003A7   03           DB 3
   \   0003A8   00           DB 0
   \   0003A9   00           DB 0
   \   0003AA   00           DB 0
   \   0003AB   00           DB 0
   \   0003AC   00           DB 0
   \   0003AD   00           DB 0
   \   0003AE   00           DB 0
   \   0003AF   00           DB 0
   \   0003B0   40           DB 64
   \   0003B1   00           DB 0
   \   0003B2   00           DB 0
   \   0003B3   00           DB 0
   \   0003B4   00           DB 0
   \   0003B5   00           DB 0
   \   0003B6   00           DB 0
   \   0003B7   00           DB 0
   \   0003B8   00           DB 0
   \   0003B9   00           DB 0
   \   0003BA   00           DB 0
   \   0003BB   00           DB 0
   \   0003BC   00           DB 0
   \   0003BD   00           DB 0
   \   0003BE   00           DB 0
   \   0003BF   00           DB 0
   \   0003C0   00           DB 0
   \   0003C1   00           DB 0
   \   0003C2   00           DB 0
   \   0003C3   00           DB 0
   \   0003C4   00           DB 0
   \   0003C5   00           DB 0
   \   0003C6   00           DB 0
   \   0003C7   00           DB 0
   \   0003C8   00           DB 0
   \   0003C9   00           DB 0
   \   0003CA   00           DB 0
   \   0003CB   00           DB 0
   \   0003CC   00           DB 0
   \   0003CD   00           DB 0
   \   0003CE   00           DB 0
   \   0003CF   00           DB 0
   \   0003D0   00           DB 0
   \   0003D1   00           DB 0
   \   0003D2   00           DB 0
   \   0003D3   00           DB 0
   \   0003D4   00           DB 0
   \   0003D5   00           DB 0
   \   0003D6   00           DB 0
   \   0003D7   00           DB 0
   \   0003D8   00           DB 0
   \   0003D9   00           DB 0
   \   0003DA   00           DB 0
   \   0003DB   00           DB 0
   \   0003DC   00           DB 0
   \   0003DD   00           DB 0
   \   0003DE   00           DB 0
   \   0003DF   00           DB 0
   \   0003E0   00           DB 0
   \   0003E1   00           DB 0
   \   0003E2   00           DB 0
   \   0003E3   00           DB 0
   \   0003E4   67           DB 103
   \   0003E5   7D           DB 125
   \   0003E6   DF           DB 223
   \   0003E7   7E           DB 126
   \   0003E8   72           DB 114
   \   0003E9   90           DB 144
   \   0003EA   2E           DB 46
   \   0003EB   55           DB 85
   \   0003EC   4C           DB 76
   \   0003ED   F6           DB 246
   \   0003EE   E6           DB 230
   \   0003EF   88           DB 136
   \   0003F0   00           DB 0
   \   0003F1   00           DB 0
   \   0003F2   00           DB 0
   \   0003F3   00           DB 0
   \   0003F4   00           DB 0
   \   0003F5   00           DB 0
   \   0003F6   00           DB 0
   \   0003F7   00           DB 0
   \   0003F8   00           DB 0
   \   0003F9   00           DB 0
   \   0003FA   00           DB 0
   \   0003FB   00           DB 0
   \   0003FC   00           DB 0
   \   0003FD   00           DB 0
   \   0003FE   00           DB 0
   \   0003FF   00           DB 0
   \   000400   D8           DB 216
   \   000401   DC           DB 220
   \   000402   B4           DB 180
   \   000403   B8           DB 184
   \   000404   B0           DB 176
   \   000405   D8           DB 216
   \   000406   B9           DB 185
   \   000407   AB           DB 171
   \   000408   F3           DB 243
   \   000409   F8           DB 248
   \   00040A   FA           DB 250
   \   00040B   B3           DB 179
   \   00040C   B7           DB 183
   \   00040D   BB           DB 187
   \   00040E   8E           DB 142
   \   00040F   9E           DB 158
   \   000410   AE           DB 174
   \   000411   F1           DB 241
   \   000412   32           DB 50
   \   000413   F5           DB 245
   \   000414   1B           DB 27
   \   000415   F1           DB 241
   \   000416   B4           DB 180
   \   000417   B8           DB 184
   \   000418   B0           DB 176
   \   000419   80           DB 128
   \   00041A   97           DB 151
   \   00041B   F1           DB 241
   \   00041C   A9           DB 169
   \   00041D   DF           DB 223
   \   00041E   DF           DB 223
   \   00041F   DF           DB 223
   \   000420   AA           DB 170
   \   000421   DF           DB 223
   \   000422   DF           DB 223
   \   000423   DF           DB 223
   \   000424   F2           DB 242
   \   000425   AA           DB 170
   \   000426   C5           DB 197
   \   000427   CD           DB 205
   \   000428   C7           DB 199
   \   000429   A9           DB 169
   \   00042A   0C           DB 12
   \   00042B   C9           DB 201
   \   00042C   2C           DB 44
   \   00042D   97           DB 151
   \   00042E   F1           DB 241
   \   00042F   A9           DB 169
   \   000430   89           DB 137
   \   000431   26           DB 38
   \   000432   46           DB 70
   \   000433   66           DB 102
   \   000434   B2           DB 178
   \   000435   89           DB 137
   \   000436   99           DB 153
   \   000437   A9           DB 169
   \   000438   2D           DB 45
   \   000439   55           DB 85
   \   00043A   7D           DB 125
   \   00043B   B0           DB 176
   \   00043C   B0           DB 176
   \   00043D   8A           DB 138
   \   00043E   A8           DB 168
   \   00043F   96           DB 150
   \   000440   36           DB 54
   \   000441   56           DB 86
   \   000442   76           DB 118
   \   000443   F1           DB 241
   \   000444   BA           DB 186
   \   000445   A3           DB 163
   \   000446   B4           DB 180
   \   000447   B2           DB 178
   \   000448   80           DB 128
   \   000449   C0           DB 192
   \   00044A   B8           DB 184
   \   00044B   A8           DB 168
   \   00044C   97           DB 151
   \   00044D   11           DB 17
   \   00044E   B2           DB 178
   \   00044F   83           DB 131
   \   000450   98           DB 152
   \   000451   BA           DB 186
   \   000452   A3           DB 163
   \   000453   F0           DB 240
   \   000454   24           DB 36
   \   000455   08           DB 8
   \   000456   44           DB 68
   \   000457   10           DB 16
   \   000458   64           DB 100
   \   000459   18           DB 24
   \   00045A   B2           DB 178
   \   00045B   B9           DB 185
   \   00045C   B4           DB 180
   \   00045D   98           DB 152
   \   00045E   83           DB 131
   \   00045F   F1           DB 241
   \   000460   A3           DB 163
   \   000461   29           DB 41
   \   000462   55           DB 85
   \   000463   7D           DB 125
   \   000464   BA           DB 186
   \   000465   B5           DB 181
   \   000466   B1           DB 177
   \   000467   A3           DB 163
   \   000468   83           DB 131
   \   000469   93           DB 147
   \   00046A   F0           DB 240
   \   00046B   00           DB 0
   \   00046C   28           DB 40
   \   00046D   50           DB 80
   \   00046E   F5           DB 245
   \   00046F   B2           DB 178
   \   000470   B6           DB 182
   \   000471   AA           DB 170
   \   000472   83           DB 131
   \   000473   93           DB 147
   \   000474   28           DB 40
   \   000475   54           DB 84
   \   000476   7C           DB 124
   \   000477   F1           DB 241
   \   000478   B9           DB 185
   \   000479   A3           DB 163
   \   00047A   82           DB 130
   \   00047B   93           DB 147
   \   00047C   61           DB 97
   \   00047D   BA           DB 186
   \   00047E   A2           DB 162
   \   00047F   DA           DB 218
   \   000480   DE           DB 222
   \   000481   DF           DB 223
   \   000482   DB           DB 219
   \   000483   81           DB 129
   \   000484   9A           DB 154
   \   000485   B9           DB 185
   \   000486   AE           DB 174
   \   000487   F5           DB 245
   \   000488   60           DB 96
   \   000489   68           DB 104
   \   00048A   70           DB 112
   \   00048B   F1           DB 241
   \   00048C   DA           DB 218
   \   00048D   BA           DB 186
   \   00048E   A2           DB 162
   \   00048F   DF           DB 223
   \   000490   D9           DB 217
   \   000491   BA           DB 186
   \   000492   A2           DB 162
   \   000493   FA           DB 250
   \   000494   B9           DB 185
   \   000495   A3           DB 163
   \   000496   82           DB 130
   \   000497   92           DB 146
   \   000498   DB           DB 219
   \   000499   31           DB 49
   \   00049A   BA           DB 186
   \   00049B   A2           DB 162
   \   00049C   D9           DB 217
   \   00049D   BA           DB 186
   \   00049E   A2           DB 162
   \   00049F   F8           DB 248
   \   0004A0   DF           DB 223
   \   0004A1   85           DB 133
   \   0004A2   A4           DB 164
   \   0004A3   D0           DB 208
   \   0004A4   C1           DB 193
   \   0004A5   BB           DB 187
   \   0004A6   AD           DB 173
   \   0004A7   83           DB 131
   \   0004A8   C2           DB 194
   \   0004A9   C5           DB 197
   \   0004AA   C7           DB 199
   \   0004AB   B8           DB 184
   \   0004AC   A2           DB 162
   \   0004AD   DF           DB 223
   \   0004AE   DF           DB 223
   \   0004AF   DF           DB 223
   \   0004B0   BA           DB 186
   \   0004B1   A0           DB 160
   \   0004B2   DF           DB 223
   \   0004B3   DF           DB 223
   \   0004B4   DF           DB 223
   \   0004B5   D8           DB 216
   \   0004B6   D8           DB 216
   \   0004B7   F1           DB 241
   \   0004B8   B8           DB 184
   \   0004B9   AA           DB 170
   \   0004BA   B3           DB 179
   \   0004BB   8D           DB 141
   \   0004BC   B4           DB 180
   \   0004BD   98           DB 152
   \   0004BE   0D           DB 13
   \   0004BF   35           DB 53
   \   0004C0   5D           DB 93
   \   0004C1   B2           DB 178
   \   0004C2   B6           DB 182
   \   0004C3   BA           DB 186
   \   0004C4   AF           DB 175
   \   0004C5   8C           DB 140
   \   0004C6   96           DB 150
   \   0004C7   19           DB 25
   \   0004C8   8F           DB 143
   \   0004C9   9F           DB 159
   \   0004CA   A7           DB 167
   \   0004CB   0E           DB 14
   \   0004CC   16           DB 22
   \   0004CD   1E           DB 30
   \   0004CE   B4           DB 180
   \   0004CF   9A           DB 154
   \   0004D0   B8           DB 184
   \   0004D1   AA           DB 170
   \   0004D2   87           DB 135
   \   0004D3   2C           DB 44
   \   0004D4   54           DB 84
   \   0004D5   7C           DB 124
   \   0004D6   BA           DB 186
   \   0004D7   A4           DB 164
   \   0004D8   B0           DB 176
   \   0004D9   8A           DB 138
   \   0004DA   B6           DB 182
   \   0004DB   91           DB 145
   \   0004DC   32           DB 50
   \   0004DD   56           DB 86
   \   0004DE   76           DB 118
   \   0004DF   B2           DB 178
   \   0004E0   84           DB 132
   \   0004E1   94           DB 148
   \   0004E2   A4           DB 164
   \   0004E3   C8           DB 200
   \   0004E4   08           DB 8
   \   0004E5   CD           DB 205
   \   0004E6   D8           DB 216
   \   0004E7   B8           DB 184
   \   0004E8   B4           DB 180
   \   0004E9   B0           DB 176
   \   0004EA   F1           DB 241
   \   0004EB   99           DB 153
   \   0004EC   82           DB 130
   \   0004ED   A8           DB 168
   \   0004EE   2D           DB 45
   \   0004EF   55           DB 85
   \   0004F0   7D           DB 125
   \   0004F1   98           DB 152
   \   0004F2   A8           DB 168
   \   0004F3   0E           DB 14
   \   0004F4   16           DB 22
   \   0004F5   1E           DB 30
   \   0004F6   A2           DB 162
   \   0004F7   2C           DB 44
   \   0004F8   54           DB 84
   \   0004F9   7C           DB 124
   \   0004FA   92           DB 146
   \   0004FB   A4           DB 164
   \   0004FC   F0           DB 240
   \   0004FD   2C           DB 44
   \   0004FE   50           DB 80
   \   0004FF   78           DB 120
   \   000500   F1           DB 241
   \   000501   84           DB 132
   \   000502   A8           DB 168
   \   000503   98           DB 152
   \   000504   C4           DB 196
   \   000505   CD           DB 205
   \   000506   FC           DB 252
   \   000507   D8           DB 216
   \   000508   0D           DB 13
   \   000509   DB           DB 219
   \   00050A   A8           DB 168
   \   00050B   FC           DB 252
   \   00050C   2D           DB 45
   \   00050D   F3           DB 243
   \   00050E   D9           DB 217
   \   00050F   BA           DB 186
   \   000510   A6           DB 166
   \   000511   F8           DB 248
   \   000512   DA           DB 218
   \   000513   BA           DB 186
   \   000514   A6           DB 166
   \   000515   DE           DB 222
   \   000516   D8           DB 216
   \   000517   BA           DB 186
   \   000518   B2           DB 178
   \   000519   B6           DB 182
   \   00051A   86           DB 134
   \   00051B   96           DB 150
   \   00051C   A6           DB 166
   \   00051D   D0           DB 208
   \   00051E   F3           DB 243
   \   00051F   C8           DB 200
   \   000520   41           DB 65
   \   000521   DA           DB 218
   \   000522   A6           DB 166
   \   000523   C8           DB 200
   \   000524   F8           DB 248
   \   000525   D8           DB 216
   \   000526   B0           DB 176
   \   000527   B4           DB 180
   \   000528   B8           DB 184
   \   000529   82           DB 130
   \   00052A   A8           DB 168
   \   00052B   92           DB 146
   \   00052C   F5           DB 245
   \   00052D   2C           DB 44
   \   00052E   54           DB 84
   \   00052F   88           DB 136
   \   000530   98           DB 152
   \   000531   F1           DB 241
   \   000532   35           DB 53
   \   000533   D9           DB 217
   \   000534   F4           DB 244
   \   000535   18           DB 24
   \   000536   D8           DB 216
   \   000537   F1           DB 241
   \   000538   A2           DB 162
   \   000539   D0           DB 208
   \   00053A   F8           DB 248
   \   00053B   F9           DB 249
   \   00053C   A8           DB 168
   \   00053D   84           DB 132
   \   00053E   D9           DB 217
   \   00053F   C7           DB 199
   \   000540   DF           DB 223
   \   000541   F8           DB 248
   \   000542   F8           DB 248
   \   000543   83           DB 131
   \   000544   C5           DB 197
   \   000545   DA           DB 218
   \   000546   DF           DB 223
   \   000547   69           DB 105
   \   000548   DF           DB 223
   \   000549   83           DB 131
   \   00054A   C1           DB 193
   \   00054B   D8           DB 216
   \   00054C   F4           DB 244
   \   00054D   01           DB 1
   \   00054E   14           DB 20
   \   00054F   F1           DB 241
   \   000550   A8           DB 168
   \   000551   82           DB 130
   \   000552   4E           DB 78
   \   000553   A8           DB 168
   \   000554   84           DB 132
   \   000555   F3           DB 243
   \   000556   11           DB 17
   \   000557   D1           DB 209
   \   000558   82           DB 130
   \   000559   F5           DB 245
   \   00055A   D9           DB 217
   \   00055B   92           DB 146
   \   00055C   28           DB 40
   \   00055D   97           DB 151
   \   00055E   88           DB 136
   \   00055F   F1           DB 241
   \   000560   09           DB 9
   \   000561   F4           DB 244
   \   000562   1C           DB 28
   \   000563   1C           DB 28
   \   000564   D8           DB 216
   \   000565   84           DB 132
   \   000566   A8           DB 168
   \   000567   F3           DB 243
   \   000568   C0           DB 192
   \   000569   F9           DB 249
   \   00056A   D1           DB 209
   \   00056B   D9           DB 217
   \   00056C   97           DB 151
   \   00056D   82           DB 130
   \   00056E   F1           DB 241
   \   00056F   29           DB 41
   \   000570   F4           DB 244
   \   000571   0D           DB 13
   \   000572   D8           DB 216
   \   000573   F3           DB 243
   \   000574   F9           DB 249
   \   000575   F9           DB 249
   \   000576   D1           DB 209
   \   000577   D9           DB 217
   \   000578   82           DB 130
   \   000579   F4           DB 244
   \   00057A   C2           DB 194
   \   00057B   03           DB 3
   \   00057C   D8           DB 216
   \   00057D   DE           DB 222
   \   00057E   DF           DB 223
   \   00057F   1A           DB 26
   \   000580   D8           DB 216
   \   000581   F1           DB 241
   \   000582   A2           DB 162
   \   000583   FA           DB 250
   \   000584   F9           DB 249
   \   000585   A8           DB 168
   \   000586   84           DB 132
   \   000587   98           DB 152
   \   000588   D9           DB 217
   \   000589   C7           DB 199
   \   00058A   DF           DB 223
   \   00058B   F8           DB 248
   \   00058C   F8           DB 248
   \   00058D   F8           DB 248
   \   00058E   83           DB 131
   \   00058F   C7           DB 199
   \   000590   DA           DB 218
   \   000591   DF           DB 223
   \   000592   69           DB 105
   \   000593   DF           DB 223
   \   000594   F8           DB 248
   \   000595   83           DB 131
   \   000596   C3           DB 195
   \   000597   D8           DB 216
   \   000598   F4           DB 244
   \   000599   01           DB 1
   \   00059A   14           DB 20
   \   00059B   F1           DB 241
   \   00059C   98           DB 152
   \   00059D   A8           DB 168
   \   00059E   82           DB 130
   \   00059F   2E           DB 46
   \   0005A0   A8           DB 168
   \   0005A1   84           DB 132
   \   0005A2   F3           DB 243
   \   0005A3   11           DB 17
   \   0005A4   D1           DB 209
   \   0005A5   82           DB 130
   \   0005A6   F5           DB 245
   \   0005A7   D9           DB 217
   \   0005A8   92           DB 146
   \   0005A9   50           DB 80
   \   0005AA   97           DB 151
   \   0005AB   88           DB 136
   \   0005AC   F1           DB 241
   \   0005AD   09           DB 9
   \   0005AE   F4           DB 244
   \   0005AF   1C           DB 28
   \   0005B0   D8           DB 216
   \   0005B1   84           DB 132
   \   0005B2   A8           DB 168
   \   0005B3   F3           DB 243
   \   0005B4   C0           DB 192
   \   0005B5   F8           DB 248
   \   0005B6   F9           DB 249
   \   0005B7   D1           DB 209
   \   0005B8   D9           DB 217
   \   0005B9   97           DB 151
   \   0005BA   82           DB 130
   \   0005BB   F1           DB 241
   \   0005BC   49           DB 73
   \   0005BD   F4           DB 244
   \   0005BE   0D           DB 13
   \   0005BF   D8           DB 216
   \   0005C0   F3           DB 243
   \   0005C1   F9           DB 249
   \   0005C2   F9           DB 249
   \   0005C3   D1           DB 209
   \   0005C4   D9           DB 217
   \   0005C5   82           DB 130
   \   0005C6   F4           DB 244
   \   0005C7   C4           DB 196
   \   0005C8   03           DB 3
   \   0005C9   D8           DB 216
   \   0005CA   DE           DB 222
   \   0005CB   DF           DB 223
   \   0005CC   D8           DB 216
   \   0005CD   F1           DB 241
   \   0005CE   AD           DB 173
   \   0005CF   88           DB 136
   \   0005D0   98           DB 152
   \   0005D1   CC           DB 204
   \   0005D2   A8           DB 168
   \   0005D3   09           DB 9
   \   0005D4   F9           DB 249
   \   0005D5   D9           DB 217
   \   0005D6   82           DB 130
   \   0005D7   92           DB 146
   \   0005D8   A8           DB 168
   \   0005D9   F5           DB 245
   \   0005DA   7C           DB 124
   \   0005DB   F1           DB 241
   \   0005DC   88           DB 136
   \   0005DD   3A           DB 58
   \   0005DE   CF           DB 207
   \   0005DF   94           DB 148
   \   0005E0   4A           DB 74
   \   0005E1   6E           DB 110
   \   0005E2   98           DB 152
   \   0005E3   DB           DB 219
   \   0005E4   69           DB 105
   \   0005E5   31           DB 49
   \   0005E6   DA           DB 218
   \   0005E7   AD           DB 173
   \   0005E8   F2           DB 242
   \   0005E9   DE           DB 222
   \   0005EA   F9           DB 249
   \   0005EB   D8           DB 216
   \   0005EC   87           DB 135
   \   0005ED   95           DB 149
   \   0005EE   A8           DB 168
   \   0005EF   F2           DB 242
   \   0005F0   21           DB 33
   \   0005F1   D1           DB 209
   \   0005F2   DA           DB 218
   \   0005F3   A5           DB 165
   \   0005F4   F9           DB 249
   \   0005F5   F4           DB 244
   \   0005F6   17           DB 23
   \   0005F7   D9           DB 217
   \   0005F8   F1           DB 241
   \   0005F9   AE           DB 174
   \   0005FA   8E           DB 142
   \   0005FB   D0           DB 208
   \   0005FC   C0           DB 192
   \   0005FD   C3           DB 195
   \   0005FE   AE           DB 174
   \   0005FF   82           DB 130
   \   000600   C6           DB 198
   \   000601   84           DB 132
   \   000602   C3           DB 195
   \   000603   A8           DB 168
   \   000604   85           DB 133
   \   000605   95           DB 149
   \   000606   C8           DB 200
   \   000607   A5           DB 165
   \   000608   88           DB 136
   \   000609   F2           DB 242
   \   00060A   C0           DB 192
   \   00060B   F1           DB 241
   \   00060C   F4           DB 244
   \   00060D   01           DB 1
   \   00060E   0E           DB 14
   \   00060F   F1           DB 241
   \   000610   8E           DB 142
   \   000611   9E           DB 158
   \   000612   A8           DB 168
   \   000613   C6           DB 198
   \   000614   3E           DB 62
   \   000615   56           DB 86
   \   000616   F5           DB 245
   \   000617   54           DB 84
   \   000618   F1           DB 241
   \   000619   88           DB 136
   \   00061A   72           DB 114
   \   00061B   F4           DB 244
   \   00061C   01           DB 1
   \   00061D   15           DB 21
   \   00061E   F1           DB 241
   \   00061F   98           DB 152
   \   000620   45           DB 69
   \   000621   85           DB 133
   \   000622   6E           DB 110
   \   000623   F5           DB 245
   \   000624   8E           DB 142
   \   000625   9E           DB 158
   \   000626   04           DB 4
   \   000627   88           DB 136
   \   000628   F1           DB 241
   \   000629   42           DB 66
   \   00062A   98           DB 152
   \   00062B   5A           DB 90
   \   00062C   8E           DB 142
   \   00062D   9E           DB 158
   \   00062E   06           DB 6
   \   00062F   88           DB 136
   \   000630   69           DB 105
   \   000631   F4           DB 244
   \   000632   01           DB 1
   \   000633   1C           DB 28
   \   000634   F1           DB 241
   \   000635   98           DB 152
   \   000636   1E           DB 30
   \   000637   11           DB 17
   \   000638   08           DB 8
   \   000639   D0           DB 208
   \   00063A   F5           DB 245
   \   00063B   04           DB 4
   \   00063C   F1           DB 241
   \   00063D   1E           DB 30
   \   00063E   97           DB 151
   \   00063F   02           DB 2
   \   000640   02           DB 2
   \   000641   98           DB 152
   \   000642   36           DB 54
   \   000643   25           DB 37
   \   000644   DB           DB 219
   \   000645   F9           DB 249
   \   000646   D9           DB 217
   \   000647   85           DB 133
   \   000648   A5           DB 165
   \   000649   F3           DB 243
   \   00064A   C1           DB 193
   \   00064B   DA           DB 218
   \   00064C   85           DB 133
   \   00064D   A5           DB 165
   \   00064E   F3           DB 243
   \   00064F   DF           DB 223
   \   000650   D8           DB 216
   \   000651   85           DB 133
   \   000652   95           DB 149
   \   000653   A8           DB 168
   \   000654   F3           DB 243
   \   000655   09           DB 9
   \   000656   DA           DB 218
   \   000657   A5           DB 165
   \   000658   FA           DB 250
   \   000659   D8           DB 216
   \   00065A   82           DB 130
   \   00065B   92           DB 146
   \   00065C   A8           DB 168
   \   00065D   F5           DB 245
   \   00065E   78           DB 120
   \   00065F   F1           DB 241
   \   000660   88           DB 136
   \   000661   1A           DB 26
   \   000662   84           DB 132
   \   000663   9F           DB 159
   \   000664   26           DB 38
   \   000665   88           DB 136
   \   000666   98           DB 152
   \   000667   21           DB 33
   \   000668   DA           DB 218
   \   000669   F4           DB 244
   \   00066A   1D           DB 29
   \   00066B   F3           DB 243
   \   00066C   D8           DB 216
   \   00066D   87           DB 135
   \   00066E   9F           DB 159
   \   00066F   39           DB 57
   \   000670   D1           DB 209
   \   000671   AF           DB 175
   \   000672   D9           DB 217
   \   000673   DF           DB 223
   \   000674   DF           DB 223
   \   000675   FB           DB 251
   \   000676   F9           DB 249
   \   000677   F4           DB 244
   \   000678   0C           DB 12
   \   000679   F3           DB 243
   \   00067A   D8           DB 216
   \   00067B   FA           DB 250
   \   00067C   D0           DB 208
   \   00067D   F8           DB 248
   \   00067E   DA           DB 218
   \   00067F   F9           DB 249
   \   000680   F9           DB 249
   \   000681   D0           DB 208
   \   000682   DF           DB 223
   \   000683   D9           DB 217
   \   000684   F9           DB 249
   \   000685   D8           DB 216
   \   000686   F4           DB 244
   \   000687   0B           DB 11
   \   000688   D8           DB 216
   \   000689   F3           DB 243
   \   00068A   87           DB 135
   \   00068B   9F           DB 159
   \   00068C   39           DB 57
   \   00068D   D1           DB 209
   \   00068E   AF           DB 175
   \   00068F   D9           DB 217
   \   000690   DF           DB 223
   \   000691   DF           DB 223
   \   000692   F4           DB 244
   \   000693   1D           DB 29
   \   000694   F3           DB 243
   \   000695   D8           DB 216
   \   000696   FA           DB 250
   \   000697   FC           DB 252
   \   000698   A8           DB 168
   \   000699   69           DB 105
   \   00069A   F9           DB 249
   \   00069B   F9           DB 249
   \   00069C   AF           DB 175
   \   00069D   D0           DB 208
   \   00069E   DA           DB 218
   \   00069F   DE           DB 222
   \   0006A0   FA           DB 250
   \   0006A1   D9           DB 217
   \   0006A2   F8           DB 248
   \   0006A3   8F           DB 143
   \   0006A4   9F           DB 159
   \   0006A5   A8           DB 168
   \   0006A6   F1           DB 241
   \   0006A7   CC           DB 204
   \   0006A8   F3           DB 243
   \   0006A9   98           DB 152
   \   0006AA   DB           DB 219
   \   0006AB   45           DB 69
   \   0006AC   D9           DB 217
   \   0006AD   AF           DB 175
   \   0006AE   DF           DB 223
   \   0006AF   D0           DB 208
   \   0006B0   F8           DB 248
   \   0006B1   D8           DB 216
   \   0006B2   F1           DB 241
   \   0006B3   8F           DB 143
   \   0006B4   9F           DB 159
   \   0006B5   A8           DB 168
   \   0006B6   CA           DB 202
   \   0006B7   F3           DB 243
   \   0006B8   88           DB 136
   \   0006B9   09           DB 9
   \   0006BA   DA           DB 218
   \   0006BB   AF           DB 175
   \   0006BC   8F           DB 143
   \   0006BD   CB           DB 203
   \   0006BE   F8           DB 248
   \   0006BF   D8           DB 216
   \   0006C0   F2           DB 242
   \   0006C1   AD           DB 173
   \   0006C2   97           DB 151
   \   0006C3   8D           DB 141
   \   0006C4   0C           DB 12
   \   0006C5   D9           DB 217
   \   0006C6   A5           DB 165
   \   0006C7   DF           DB 223
   \   0006C8   F9           DB 249
   \   0006C9   BA           DB 186
   \   0006CA   A6           DB 166
   \   0006CB   F3           DB 243
   \   0006CC   FA           DB 250
   \   0006CD   F4           DB 244
   \   0006CE   12           DB 18
   \   0006CF   F2           DB 242
   \   0006D0   D8           DB 216
   \   0006D1   95           DB 149
   \   0006D2   0D           DB 13
   \   0006D3   D1           DB 209
   \   0006D4   D9           DB 217
   \   0006D5   BA           DB 186
   \   0006D6   A6           DB 166
   \   0006D7   F3           DB 243
   \   0006D8   FA           DB 250
   \   0006D9   DA           DB 218
   \   0006DA   A5           DB 165
   \   0006DB   F2           DB 242
   \   0006DC   C1           DB 193
   \   0006DD   BA           DB 186
   \   0006DE   A6           DB 166
   \   0006DF   F3           DB 243
   \   0006E0   DF           DB 223
   \   0006E1   D8           DB 216
   \   0006E2   F1           DB 241
   \   0006E3   BA           DB 186
   \   0006E4   B2           DB 178
   \   0006E5   B6           DB 182
   \   0006E6   86           DB 134
   \   0006E7   96           DB 150
   \   0006E8   A6           DB 166
   \   0006E9   D0           DB 208
   \   0006EA   CA           DB 202
   \   0006EB   F3           DB 243
   \   0006EC   49           DB 73
   \   0006ED   DA           DB 218
   \   0006EE   A6           DB 166
   \   0006EF   CB           DB 203
   \   0006F0   F8           DB 248
   \   0006F1   D8           DB 216
   \   0006F2   B0           DB 176
   \   0006F3   B4           DB 180
   \   0006F4   B8           DB 184
   \   0006F5   D8           DB 216
   \   0006F6   AD           DB 173
   \   0006F7   84           DB 132
   \   0006F8   F2           DB 242
   \   0006F9   C0           DB 192
   \   0006FA   DF           DB 223
   \   0006FB   F1           DB 241
   \   0006FC   8F           DB 143
   \   0006FD   CB           DB 203
   \   0006FE   C3           DB 195
   \   0006FF   A8           DB 168
   \   000700   B2           DB 178
   \   000701   B6           DB 182
   \   000702   86           DB 134
   \   000703   96           DB 150
   \   000704   C8           DB 200
   \   000705   C1           DB 193
   \   000706   CB           DB 203
   \   000707   C3           DB 195
   \   000708   F3           DB 243
   \   000709   B0           DB 176
   \   00070A   B4           DB 180
   \   00070B   88           DB 136
   \   00070C   98           DB 152
   \   00070D   A8           DB 168
   \   00070E   21           DB 33
   \   00070F   DB           DB 219
   \   000710   71           DB 113
   \   000711   8D           DB 141
   \   000712   9D           DB 157
   \   000713   71           DB 113
   \   000714   85           DB 133
   \   000715   95           DB 149
   \   000716   21           DB 33
   \   000717   D9           DB 217
   \   000718   AD           DB 173
   \   000719   F2           DB 242
   \   00071A   FA           DB 250
   \   00071B   D8           DB 216
   \   00071C   85           DB 133
   \   00071D   97           DB 151
   \   00071E   A8           DB 168
   \   00071F   28           DB 40
   \   000720   D9           DB 217
   \   000721   F4           DB 244
   \   000722   08           DB 8
   \   000723   D8           DB 216
   \   000724   F2           DB 242
   \   000725   8D           DB 141
   \   000726   29           DB 41
   \   000727   DA           DB 218
   \   000728   F4           DB 244
   \   000729   05           DB 5
   \   00072A   D9           DB 217
   \   00072B   F2           DB 242
   \   00072C   85           DB 133
   \   00072D   A4           DB 164
   \   00072E   C2           DB 194
   \   00072F   F2           DB 242
   \   000730   D8           DB 216
   \   000731   A8           DB 168
   \   000732   8D           DB 141
   \   000733   94           DB 148
   \   000734   01           DB 1
   \   000735   D1           DB 209
   \   000736   D9           DB 217
   \   000737   F4           DB 244
   \   000738   11           DB 17
   \   000739   F2           DB 242
   \   00073A   D8           DB 216
   \   00073B   87           DB 135
   \   00073C   21           DB 33
   \   00073D   D8           DB 216
   \   00073E   F4           DB 244
   \   00073F   0A           DB 10
   \   000740   D8           DB 216
   \   000741   F2           DB 242
   \   000742   84           DB 132
   \   000743   98           DB 152
   \   000744   A8           DB 168
   \   000745   C8           DB 200
   \   000746   01           DB 1
   \   000747   D1           DB 209
   \   000748   D9           DB 217
   \   000749   F4           DB 244
   \   00074A   11           DB 17
   \   00074B   D8           DB 216
   \   00074C   F3           DB 243
   \   00074D   A4           DB 164
   \   00074E   C8           DB 200
   \   00074F   BB           DB 187
   \   000750   AF           DB 175
   \   000751   D0           DB 208
   \   000752   F2           DB 242
   \   000753   DE           DB 222
   \   000754   F8           DB 248
   \   000755   F8           DB 248
   \   000756   F8           DB 248
   \   000757   F8           DB 248
   \   000758   F8           DB 248
   \   000759   F8           DB 248
   \   00075A   F8           DB 248
   \   00075B   F8           DB 248
   \   00075C   D8           DB 216
   \   00075D   F1           DB 241
   \   00075E   B8           DB 184
   \   00075F   F6           DB 246
   \   000760   B5           DB 181
   \   000761   B9           DB 185
   \   000762   B0           DB 176
   \   000763   8A           DB 138
   \   000764   95           DB 149
   \   000765   A3           DB 163
   \   000766   DE           DB 222
   \   000767   3C           DB 60
   \   000768   A3           DB 163
   \   000769   D9           DB 217
   \   00076A   F8           DB 248
   \   00076B   D8           DB 216
   \   00076C   5C           DB 92
   \   00076D   A3           DB 163
   \   00076E   D9           DB 217
   \   00076F   F8           DB 248
   \   000770   D8           DB 216
   \   000771   7C           DB 124
   \   000772   A3           DB 163
   \   000773   D9           DB 217
   \   000774   F8           DB 248
   \   000775   D8           DB 216
   \   000776   F8           DB 248
   \   000777   F9           DB 249
   \   000778   D1           DB 209
   \   000779   A5           DB 165
   \   00077A   D9           DB 217
   \   00077B   DF           DB 223
   \   00077C   DA           DB 218
   \   00077D   FA           DB 250
   \   00077E   D8           DB 216
   \   00077F   B1           DB 177
   \   000780   85           DB 133
   \   000781   30           DB 48
   \   000782   F7           DB 247
   \   000783   D9           DB 217
   \   000784   DE           DB 222
   \   000785   D8           DB 216
   \   000786   F8           DB 248
   \   000787   30           DB 48
   \   000788   AD           DB 173
   \   000789   DA           DB 218
   \   00078A   DE           DB 222
   \   00078B   D8           DB 216
   \   00078C   F2           DB 242
   \   00078D   B4           DB 180
   \   00078E   8C           DB 140
   \   00078F   99           DB 153
   \   000790   A3           DB 163
   \   000791   2D           DB 45
   \   000792   55           DB 85
   \   000793   7D           DB 125
   \   000794   A0           DB 160
   \   000795   83           DB 131
   \   000796   DF           DB 223
   \   000797   DF           DB 223
   \   000798   DF           DB 223
   \   000799   B5           DB 181
   \   00079A   91           DB 145
   \   00079B   A0           DB 160
   \   00079C   F6           DB 246
   \   00079D   29           DB 41
   \   00079E   D9           DB 217
   \   00079F   FB           DB 251
   \   0007A0   D8           DB 216
   \   0007A1   A0           DB 160
   \   0007A2   FC           DB 252
   \   0007A3   29           DB 41
   \   0007A4   D9           DB 217
   \   0007A5   FA           DB 250
   \   0007A6   D8           DB 216
   \   0007A7   A0           DB 160
   \   0007A8   D0           DB 208
   \   0007A9   51           DB 81
   \   0007AA   D9           DB 217
   \   0007AB   F8           DB 248
   \   0007AC   D8           DB 216
   \   0007AD   FC           DB 252
   \   0007AE   51           DB 81
   \   0007AF   D9           DB 217
   \   0007B0   F9           DB 249
   \   0007B1   D8           DB 216
   \   0007B2   79           DB 121
   \   0007B3   D9           DB 217
   \   0007B4   FB           DB 251
   \   0007B5   D8           DB 216
   \   0007B6   A0           DB 160
   \   0007B7   D0           DB 208
   \   0007B8   FC           DB 252
   \   0007B9   79           DB 121
   \   0007BA   D9           DB 217
   \   0007BB   FA           DB 250
   \   0007BC   D8           DB 216
   \   0007BD   A1           DB 161
   \   0007BE   F9           DB 249
   \   0007BF   F9           DB 249
   \   0007C0   F9           DB 249
   \   0007C1   F9           DB 249
   \   0007C2   F9           DB 249
   \   0007C3   A0           DB 160
   \   0007C4   DA           DB 218
   \   0007C5   DF           DB 223
   \   0007C6   DF           DB 223
   \   0007C7   DF           DB 223
   \   0007C8   D8           DB 216
   \   0007C9   A1           DB 161
   \   0007CA   F8           DB 248
   \   0007CB   F8           DB 248
   \   0007CC   F8           DB 248
   \   0007CD   F8           DB 248
   \   0007CE   F8           DB 248
   \   0007CF   AC           DB 172
   \   0007D0   DE           DB 222
   \   0007D1   F8           DB 248
   \   0007D2   AD           DB 173
   \   0007D3   DE           DB 222
   \   0007D4   83           DB 131
   \   0007D5   93           DB 147
   \   0007D6   AC           DB 172
   \   0007D7   2C           DB 44
   \   0007D8   54           DB 84
   \   0007D9   7C           DB 124
   \   0007DA   F1           DB 241
   \   0007DB   A8           DB 168
   \   0007DC   DF           DB 223
   \   0007DD   DF           DB 223
   \   0007DE   DF           DB 223
   \   0007DF   F6           DB 246
   \   0007E0   9D           DB 157
   \   0007E1   2C           DB 44
   \   0007E2   DA           DB 218
   \   0007E3   A0           DB 160
   \   0007E4   DF           DB 223
   \   0007E5   D9           DB 217
   \   0007E6   FA           DB 250
   \   0007E7   DB           DB 219
   \   0007E8   2D           DB 45
   \   0007E9   F8           DB 248
   \   0007EA   D8           DB 216
   \   0007EB   A8           DB 168
   \   0007EC   50           DB 80
   \   0007ED   DA           DB 218
   \   0007EE   A0           DB 160
   \   0007EF   D0           DB 208
   \   0007F0   DE           DB 222
   \   0007F1   D9           DB 217
   \   0007F2   D0           DB 208
   \   0007F3   F8           DB 248
   \   0007F4   F8           DB 248
   \   0007F5   F8           DB 248
   \   0007F6   DB           DB 219
   \   0007F7   55           DB 85
   \   0007F8   F8           DB 248
   \   0007F9   D8           DB 216
   \   0007FA   A8           DB 168
   \   0007FB   78           DB 120
   \   0007FC   DA           DB 218
   \   0007FD   A0           DB 160
   \   0007FE   D0           DB 208
   \   0007FF   DF           DB 223
   \   000800   D9           DB 217
   \   000801   D0           DB 208
   \   000802   FA           DB 250
   \   000803   F8           DB 248
   \   000804   F8           DB 248
   \   000805   F8           DB 248
   \   000806   F8           DB 248
   \   000807   DB           DB 219
   \   000808   7D           DB 125
   \   000809   F8           DB 248
   \   00080A   D8           DB 216
   \   00080B   9C           DB 156
   \   00080C   A8           DB 168
   \   00080D   8C           DB 140
   \   00080E   F5           DB 245
   \   00080F   30           DB 48
   \   000810   DB           DB 219
   \   000811   38           DB 56
   \   000812   D9           DB 217
   \   000813   D0           DB 208
   \   000814   DE           DB 222
   \   000815   DF           DB 223
   \   000816   A0           DB 160
   \   000817   D0           DB 208
   \   000818   DE           DB 222
   \   000819   DF           DB 223
   \   00081A   D8           DB 216
   \   00081B   A8           DB 168
   \   00081C   48           DB 72
   \   00081D   DB           DB 219
   \   00081E   58           DB 88
   \   00081F   D9           DB 217
   \   000820   DF           DB 223
   \   000821   D0           DB 208
   \   000822   DE           DB 222
   \   000823   A0           DB 160
   \   000824   DF           DB 223
   \   000825   D0           DB 208
   \   000826   DE           DB 222
   \   000827   D8           DB 216
   \   000828   A8           DB 168
   \   000829   68           DB 104
   \   00082A   DB           DB 219
   \   00082B   70           DB 112
   \   00082C   D9           DB 217
   \   00082D   DF           DB 223
   \   00082E   DF           DB 223
   \   00082F   A0           DB 160
   \   000830   DF           DB 223
   \   000831   DF           DB 223
   \   000832   D8           DB 216
   \   000833   F1           DB 241
   \   000834   A8           DB 168
   \   000835   88           DB 136
   \   000836   90           DB 144
   \   000837   2C           DB 44
   \   000838   54           DB 84
   \   000839   7C           DB 124
   \   00083A   98           DB 152
   \   00083B   A8           DB 168
   \   00083C   D0           DB 208
   \   00083D   5C           DB 92
   \   00083E   38           DB 56
   \   00083F   D1           DB 209
   \   000840   DA           DB 218
   \   000841   F2           DB 242
   \   000842   AE           DB 174
   \   000843   8C           DB 140
   \   000844   DF           DB 223
   \   000845   F9           DB 249
   \   000846   D8           DB 216
   \   000847   B0           DB 176
   \   000848   87           DB 135
   \   000849   A8           DB 168
   \   00084A   C1           DB 193
   \   00084B   C1           DB 193
   \   00084C   B1           DB 177
   \   00084D   88           DB 136
   \   00084E   A8           DB 168
   \   00084F   C6           DB 198
   \   000850   F9           DB 249
   \   000851   F9           DB 249
   \   000852   DA           DB 218
   \   000853   36           DB 54
   \   000854   D8           DB 216
   \   000855   A8           DB 168
   \   000856   F9           DB 249
   \   000857   DA           DB 218
   \   000858   36           DB 54
   \   000859   D8           DB 216
   \   00085A   A8           DB 168
   \   00085B   F9           DB 249
   \   00085C   DA           DB 218
   \   00085D   36           DB 54
   \   00085E   D8           DB 216
   \   00085F   A8           DB 168
   \   000860   F9           DB 249
   \   000861   DA           DB 218
   \   000862   36           DB 54
   \   000863   D8           DB 216
   \   000864   A8           DB 168
   \   000865   F9           DB 249
   \   000866   DA           DB 218
   \   000867   36           DB 54
   \   000868   D8           DB 216
   \   000869   F7           DB 247
   \   00086A   8D           DB 141
   \   00086B   9D           DB 157
   \   00086C   AD           DB 173
   \   00086D   F8           DB 248
   \   00086E   18           DB 24
   \   00086F   DA           DB 218
   \   000870   F2           DB 242
   \   000871   AE           DB 174
   \   000872   DF           DB 223
   \   000873   D8           DB 216
   \   000874   F7           DB 247
   \   000875   AD           DB 173
   \   000876   FA           DB 250
   \   000877   30           DB 48
   \   000878   D9           DB 217
   \   000879   A4           DB 164
   \   00087A   DE           DB 222
   \   00087B   F9           DB 249
   \   00087C   D8           DB 216
   \   00087D   F2           DB 242
   \   00087E   AE           DB 174
   \   00087F   DE           DB 222
   \   000880   FA           DB 250
   \   000881   F9           DB 249
   \   000882   83           DB 131
   \   000883   A7           DB 167
   \   000884   D9           DB 217
   \   000885   C3           DB 195
   \   000886   C5           DB 197
   \   000887   C7           DB 199
   \   000888   F1           DB 241
   \   000889   88           DB 136
   \   00088A   9B           DB 155
   \   00088B   A7           DB 167
   \   00088C   7A           DB 122
   \   00088D   AD           DB 173
   \   00088E   F7           DB 247
   \   00088F   DE           DB 222
   \   000890   DF           DB 223
   \   000891   A4           DB 164
   \   000892   F8           DB 248
   \   000893   84           DB 132
   \   000894   94           DB 148
   \   000895   08           DB 8
   \   000896   A7           DB 167
   \   000897   97           DB 151
   \   000898   F3           DB 243
   \   000899   00           DB 0
   \   00089A   AE           DB 174
   \   00089B   F2           DB 242
   \   00089C   98           DB 152
   \   00089D   19           DB 25
   \   00089E   A4           DB 164
   \   00089F   88           DB 136
   \   0008A0   C6           DB 198
   \   0008A1   A3           DB 163
   \   0008A2   94           DB 148
   \   0008A3   88           DB 136
   \   0008A4   F6           DB 246
   \   0008A5   32           DB 50
   \   0008A6   DF           DB 223
   \   0008A7   F2           DB 242
   \   0008A8   83           DB 131
   \   0008A9   93           DB 147
   \   0008AA   DB           DB 219
   \   0008AB   09           DB 9
   \   0008AC   D9           DB 217
   \   0008AD   F2           DB 242
   \   0008AE   AA           DB 170
   \   0008AF   DF           DB 223
   \   0008B0   D8           DB 216
   \   0008B1   D8           DB 216
   \   0008B2   AE           DB 174
   \   0008B3   F8           DB 248
   \   0008B4   F9           DB 249
   \   0008B5   D1           DB 209
   \   0008B6   DA           DB 218
   \   0008B7   F3           DB 243
   \   0008B8   A4           DB 164
   \   0008B9   DE           DB 222
   \   0008BA   A7           DB 167
   \   0008BB   F1           DB 241
   \   0008BC   88           DB 136
   \   0008BD   9B           DB 155
   \   0008BE   7A           DB 122
   \   0008BF   D8           DB 216
   \   0008C0   F3           DB 243
   \   0008C1   84           DB 132
   \   0008C2   94           DB 148
   \   0008C3   AE           DB 174
   \   0008C4   19           DB 25
   \   0008C5   F9           DB 249
   \   0008C6   DA           DB 218
   \   0008C7   AA           DB 170
   \   0008C8   F1           DB 241
   \   0008C9   DF           DB 223
   \   0008CA   D8           DB 216
   \   0008CB   A8           DB 168
   \   0008CC   81           DB 129
   \   0008CD   C0           DB 192
   \   0008CE   C3           DB 195
   \   0008CF   C5           DB 197
   \   0008D0   C7           DB 199
   \   0008D1   A3           DB 163
   \   0008D2   92           DB 146
   \   0008D3   83           DB 131
   \   0008D4   F6           DB 246
   \   0008D5   28           DB 40
   \   0008D6   AD           DB 173
   \   0008D7   DE           DB 222
   \   0008D8   D9           DB 217
   \   0008D9   F8           DB 248
   \   0008DA   D8           DB 216
   \   0008DB   A3           DB 163
   \   0008DC   50           DB 80
   \   0008DD   AD           DB 173
   \   0008DE   D9           DB 217
   \   0008DF   F8           DB 248
   \   0008E0   D8           DB 216
   \   0008E1   A3           DB 163
   \   0008E2   78           DB 120
   \   0008E3   AD           DB 173
   \   0008E4   D9           DB 217
   \   0008E5   F8           DB 248
   \   0008E6   D8           DB 216
   \   0008E7   F8           DB 248
   \   0008E8   F9           DB 249
   \   0008E9   D1           DB 209
   \   0008EA   A1           DB 161
   \   0008EB   DA           DB 218
   \   0008EC   DE           DB 222
   \   0008ED   C3           DB 195
   \   0008EE   C5           DB 197
   \   0008EF   C7           DB 199
   \   0008F0   D8           DB 216
   \   0008F1   A1           DB 161
   \   0008F2   81           DB 129
   \   0008F3   94           DB 148
   \   0008F4   F8           DB 248
   \   0008F5   18           DB 24
   \   0008F6   F2           DB 242
   \   0008F7   B0           DB 176
   \   0008F8   89           DB 137
   \   0008F9   AC           DB 172
   \   0008FA   C3           DB 195
   \   0008FB   C5           DB 197
   \   0008FC   C7           DB 199
   \   0008FD   F1           DB 241
   \   0008FE   D8           DB 216
   \   0008FF   B8           DB 184
   \   000900   B4           DB 180
   \   000901   B0           DB 176
   \   000902   97           DB 151
   \   000903   86           DB 134
   \   000904   A8           DB 168
   \   000905   31           DB 49
   \   000906   9B           DB 155
   \   000907   06           DB 6
   \   000908   99           DB 153
   \   000909   07           DB 7
   \   00090A   AB           DB 171
   \   00090B   97           DB 151
   \   00090C   28           DB 40
   \   00090D   88           DB 136
   \   00090E   9B           DB 155
   \   00090F   F0           DB 240
   \   000910   0C           DB 12
   \   000911   20           DB 32
   \   000912   14           DB 20
   \   000913   40           DB 64
   \   000914   B0           DB 176
   \   000915   B4           DB 180
   \   000916   B8           DB 184
   \   000917   F0           DB 240
   \   000918   A8           DB 168
   \   000919   8A           DB 138
   \   00091A   9A           DB 154
   \   00091B   28           DB 40
   \   00091C   50           DB 80
   \   00091D   78           DB 120
   \   00091E   B7           DB 183
   \   00091F   9B           DB 155
   \   000920   A8           DB 168
   \   000921   29           DB 41
   \   000922   51           DB 81
   \   000923   79           DB 121
   \   000924   24           DB 36
   \   000925   70           DB 112
   \   000926   59           DB 89
   \   000927   44           DB 68
   \   000928   69           DB 105
   \   000929   38           DB 56
   \   00092A   64           DB 100
   \   00092B   48           DB 72
   \   00092C   31           DB 49
   \   00092D   F1           DB 241
   \   00092E   BB           DB 187
   \   00092F   AB           DB 171
   \   000930   88           DB 136
   \   000931   00           DB 0
   \   000932   2C           DB 44
   \   000933   54           DB 84
   \   000934   7C           DB 124
   \   000935   F0           DB 240
   \   000936   B3           DB 179
   \   000937   8B           DB 139
   \   000938   B8           DB 184
   \   000939   A8           DB 168
   \   00093A   04           DB 4
   \   00093B   28           DB 40
   \   00093C   50           DB 80
   \   00093D   78           DB 120
   \   00093E   F1           DB 241
   \   00093F   B0           DB 176
   \   000940   88           DB 136
   \   000941   B4           DB 180
   \   000942   97           DB 151
   \   000943   26           DB 38
   \   000944   A8           DB 168
   \   000945   59           DB 89
   \   000946   98           DB 152
   \   000947   BB           DB 187
   \   000948   AB           DB 171
   \   000949   B3           DB 179
   \   00094A   8B           DB 139
   \   00094B   02           DB 2
   \   00094C   26           DB 38
   \   00094D   46           DB 70
   \   00094E   66           DB 102
   \   00094F   B0           DB 176
   \   000950   B8           DB 184
   \   000951   F0           DB 240
   \   000952   8A           DB 138
   \   000953   9C           DB 156
   \   000954   A8           DB 168
   \   000955   29           DB 41
   \   000956   51           DB 81
   \   000957   79           DB 121
   \   000958   8B           DB 139
   \   000959   29           DB 41
   \   00095A   51           DB 81
   \   00095B   79           DB 121
   \   00095C   8A           DB 138
   \   00095D   24           DB 36
   \   00095E   70           DB 112
   \   00095F   59           DB 89
   \   000960   8B           DB 139
   \   000961   20           DB 32
   \   000962   58           DB 88
   \   000963   71           DB 113
   \   000964   8A           DB 138
   \   000965   44           DB 68
   \   000966   69           DB 105
   \   000967   38           DB 56
   \   000968   8B           DB 139
   \   000969   39           DB 57
   \   00096A   40           DB 64
   \   00096B   68           DB 104
   \   00096C   8A           DB 138
   \   00096D   64           DB 100
   \   00096E   48           DB 72
   \   00096F   31           DB 49
   \   000970   8B           DB 139
   \   000971   30           DB 48
   \   000972   49           DB 73
   \   000973   60           DB 96
   \   000974   88           DB 136
   \   000975   F1           DB 241
   \   000976   AC           DB 172
   \   000977   00           DB 0
   \   000978   2C           DB 44
   \   000979   54           DB 84
   \   00097A   7C           DB 124
   \   00097B   F0           DB 240
   \   00097C   8C           DB 140
   \   00097D   A8           DB 168
   \   00097E   04           DB 4
   \   00097F   28           DB 40
   \   000980   50           DB 80
   \   000981   78           DB 120
   \   000982   F1           DB 241
   \   000983   88           DB 136
   \   000984   97           DB 151
   \   000985   26           DB 38
   \   000986   A8           DB 168
   \   000987   59           DB 89
   \   000988   98           DB 152
   \   000989   AC           DB 172
   \   00098A   8C           DB 140
   \   00098B   02           DB 2
   \   00098C   26           DB 38
   \   00098D   46           DB 70
   \   00098E   66           DB 102
   \   00098F   F0           DB 240
   \   000990   89           DB 137
   \   000991   9C           DB 156
   \   000992   A8           DB 168
   \   000993   29           DB 41
   \   000994   51           DB 81
   \   000995   79           DB 121
   \   000996   24           DB 36
   \   000997   70           DB 112
   \   000998   59           DB 89
   \   000999   44           DB 68
   \   00099A   69           DB 105
   \   00099B   38           DB 56
   \   00099C   64           DB 100
   \   00099D   48           DB 72
   \   00099E   31           DB 49
   \   00099F   A9           DB 169
   \   0009A0   88           DB 136
   \   0009A1   09           DB 9
   \   0009A2   20           DB 32
   \   0009A3   59           DB 89
   \   0009A4   70           DB 112
   \   0009A5   AB           DB 171
   \   0009A6   11           DB 17
   \   0009A7   38           DB 56
   \   0009A8   40           DB 64
   \   0009A9   69           DB 105
   \   0009AA   A8           DB 168
   \   0009AB   19           DB 25
   \   0009AC   31           DB 49
   \   0009AD   48           DB 72
   \   0009AE   60           DB 96
   \   0009AF   8C           DB 140
   \   0009B0   A8           DB 168
   \   0009B1   3C           DB 60
   \   0009B2   41           DB 65
   \   0009B3   5C           DB 92
   \   0009B4   20           DB 32
   \   0009B5   7C           DB 124
   \   0009B6   00           DB 0
   \   0009B7   F1           DB 241
   \   0009B8   87           DB 135
   \   0009B9   98           DB 152
   \   0009BA   19           DB 25
   \   0009BB   86           DB 134
   \   0009BC   A8           DB 168
   \   0009BD   6E           DB 110
   \   0009BE   76           DB 118
   \   0009BF   7E           DB 126
   \   0009C0   A9           DB 169
   \   0009C1   99           DB 153
   \   0009C2   88           DB 136
   \   0009C3   2D           DB 45
   \   0009C4   55           DB 85
   \   0009C5   7D           DB 125
   \   0009C6   D8           DB 216
   \   0009C7   B1           DB 177
   \   0009C8   B5           DB 181
   \   0009C9   B9           DB 185
   \   0009CA   A3           DB 163
   \   0009CB   DF           DB 223
   \   0009CC   DF           DB 223
   \   0009CD   DF           DB 223
   \   0009CE   AE           DB 174
   \   0009CF   D0           DB 208
   \   0009D0   DF           DB 223
   \   0009D1   AA           DB 170
   \   0009D2   D0           DB 208
   \   0009D3   DE           DB 222
   \   0009D4   F2           DB 242
   \   0009D5   AB           DB 171
   \   0009D6   F8           DB 248
   \   0009D7   F9           DB 249
   \   0009D8   D9           DB 217
   \   0009D9   B0           DB 176
   \   0009DA   87           DB 135
   \   0009DB   C4           DB 196
   \   0009DC   AA           DB 170
   \   0009DD   F1           DB 241
   \   0009DE   DF           DB 223
   \   0009DF   DF           DB 223
   \   0009E0   BB           DB 187
   \   0009E1   AF           DB 175
   \   0009E2   DF           DB 223
   \   0009E3   DF           DB 223
   \   0009E4   B9           DB 185
   \   0009E5   D8           DB 216
   \   0009E6   B1           DB 177
   \   0009E7   F1           DB 241
   \   0009E8   A3           DB 163
   \   0009E9   97           DB 151
   \   0009EA   8E           DB 142
   \   0009EB   60           DB 96
   \   0009EC   DF           DB 223
   \   0009ED   B0           DB 176
   \   0009EE   84           DB 132
   \   0009EF   F2           DB 242
   \   0009F0   C8           DB 200
   \   0009F1   F8           DB 248
   \   0009F2   F9           DB 249
   \   0009F3   D9           DB 217
   \   0009F4   DE           DB 222
   \   0009F5   D8           DB 216
   \   0009F6   93           DB 147
   \   0009F7   85           DB 133
   \   0009F8   F1           DB 241
   \   0009F9   4A           DB 74
   \   0009FA   B1           DB 177
   \   0009FB   83           DB 131
   \   0009FC   A3           DB 163
   \   0009FD   08           DB 8
   \   0009FE   B5           DB 181
   \   0009FF   83           DB 131
   \   000A00   9A           DB 154
   \   000A01   08           DB 8
   \   000A02   10           DB 16
   \   000A03   B7           DB 183
   \   000A04   9F           DB 159
   \   000A05   10           DB 16
   \   000A06   D8           DB 216
   \   000A07   F1           DB 241
   \   000A08   B0           DB 176
   \   000A09   BA           DB 186
   \   000A0A   AE           DB 174
   \   000A0B   B0           DB 176
   \   000A0C   8A           DB 138
   \   000A0D   C2           DB 194
   \   000A0E   B2           DB 178
   \   000A0F   B6           DB 182
   \   000A10   8E           DB 142
   \   000A11   9E           DB 158
   \   000A12   F1           DB 241
   \   000A13   FB           DB 251
   \   000A14   D9           DB 217
   \   000A15   F4           DB 244
   \   000A16   1D           DB 29
   \   000A17   D8           DB 216
   \   000A18   F9           DB 249
   \   000A19   D9           DB 217
   \   000A1A   0C           DB 12
   \   000A1B   F1           DB 241
   \   000A1C   D8           DB 216
   \   000A1D   F8           DB 248
   \   000A1E   F8           DB 248
   \   000A1F   AD           DB 173
   \   000A20   61           DB 97
   \   000A21   D9           DB 217
   \   000A22   AE           DB 174
   \   000A23   FB           DB 251
   \   000A24   D8           DB 216
   \   000A25   F4           DB 244
   \   000A26   0C           DB 12
   \   000A27   F1           DB 241
   \   000A28   D8           DB 216
   \   000A29   F8           DB 248
   \   000A2A   F8           DB 248
   \   000A2B   AD           DB 173
   \   000A2C   19           DB 25
   \   000A2D   D9           DB 217
   \   000A2E   AE           DB 174
   \   000A2F   FB           DB 251
   \   000A30   DF           DB 223
   \   000A31   D8           DB 216
   \   000A32   F4           DB 244
   \   000A33   16           DB 22
   \   000A34   F1           DB 241
   \   000A35   D8           DB 216
   \   000A36   F8           DB 248
   \   000A37   AD           DB 173
   \   000A38   8D           DB 141
   \   000A39   61           DB 97
   \   000A3A   D9           DB 217
   \   000A3B   F4           DB 244
   \   000A3C   F4           DB 244
   \   000A3D   AC           DB 172
   \   000A3E   F5           DB 245
   \   000A3F   9C           DB 156
   \   000A40   9C           DB 156
   \   000A41   8D           DB 141
   \   000A42   DF           DB 223
   \   000A43   2B           DB 43
   \   000A44   BA           DB 186
   \   000A45   B6           DB 182
   \   000A46   AE           DB 174
   \   000A47   FA           DB 250
   \   000A48   F8           DB 248
   \   000A49   F4           DB 244
   \   000A4A   0B           DB 11
   \   000A4B   D8           DB 216
   \   000A4C   F1           DB 241
   \   000A4D   AE           DB 174
   \   000A4E   D0           DB 208
   \   000A4F   F8           DB 248
   \   000A50   AD           DB 173
   \   000A51   51           DB 81
   \   000A52   DA           DB 218
   \   000A53   AE           DB 174
   \   000A54   FA           DB 250
   \   000A55   F8           DB 248
   \   000A56   F1           DB 241
   \   000A57   D8           DB 216
   \   000A58   B9           DB 185
   \   000A59   B1           DB 177
   \   000A5A   B6           DB 182
   \   000A5B   A3           DB 163
   \   000A5C   83           DB 131
   \   000A5D   9C           DB 156
   \   000A5E   08           DB 8
   \   000A5F   B9           DB 185
   \   000A60   B1           DB 177
   \   000A61   83           DB 131
   \   000A62   9A           DB 154
   \   000A63   B5           DB 181
   \   000A64   AA           DB 170
   \   000A65   C0           DB 192
   \   000A66   FD           DB 253
   \   000A67   30           DB 48
   \   000A68   83           DB 131
   \   000A69   B7           DB 183
   \   000A6A   9F           DB 159
   \   000A6B   10           DB 16
   \   000A6C   B5           DB 181
   \   000A6D   8B           DB 139
   \   000A6E   93           DB 147
   \   000A6F   F2           DB 242
   \   000A70   02           DB 2
   \   000A71   02           DB 2
   \   000A72   D1           DB 209
   \   000A73   AB           DB 171
   \   000A74   DA           DB 218
   \   000A75   DE           DB 222
   \   000A76   D8           DB 216
   \   000A77   F1           DB 241
   \   000A78   B0           DB 176
   \   000A79   80           DB 128
   \   000A7A   BA           DB 186
   \   000A7B   AB           DB 171
   \   000A7C   C0           DB 192
   \   000A7D   C3           DB 195
   \   000A7E   B2           DB 178
   \   000A7F   84           DB 132
   \   000A80   C1           DB 193
   \   000A81   C3           DB 195
   \   000A82   D8           DB 216
   \   000A83   B1           DB 177
   \   000A84   B9           DB 185
   \   000A85   F3           DB 243
   \   000A86   8B           DB 139
   \   000A87   A3           DB 163
   \   000A88   91           DB 145
   \   000A89   B6           DB 182
   \   000A8A   09           DB 9
   \   000A8B   B4           DB 180
   \   000A8C   D9           DB 217
   \   000A8D   AB           DB 171
   \   000A8E   DE           DB 222
   \   000A8F   B0           DB 176
   \   000A90   87           DB 135
   \   000A91   9C           DB 156
   \   000A92   B9           DB 185
   \   000A93   A3           DB 163
   \   000A94   DD           DB 221
   \   000A95   F1           DB 241
   \   000A96   B3           DB 179
   \   000A97   8B           DB 139
   \   000A98   8B           DB 139
   \   000A99   8B           DB 139
   \   000A9A   8B           DB 139
   \   000A9B   8B           DB 139
   \   000A9C   B0           DB 176
   \   000A9D   87           DB 135
   \   000A9E   A3           DB 163
   \   000A9F   A3           DB 163
   \   000AA0   A3           DB 163
   \   000AA1   A3           DB 163
   \   000AA2   B2           DB 178
   \   000AA3   8B           DB 139
   \   000AA4   B6           DB 182
   \   000AA5   9B           DB 155
   \   000AA6   F2           DB 242
   \   000AA7   A3           DB 163
   \   000AA8   A3           DB 163
   \   000AA9   A3           DB 163
   \   000AAA   A3           DB 163
   \   000AAB   A3           DB 163
   \   000AAC   A3           DB 163
   \   000AAD   A3           DB 163
   \   000AAE   A3           DB 163
   \   000AAF   A3           DB 163
   \   000AB0   A3           DB 163
   \   000AB1   F1           DB 241
   \   000AB2   B0           DB 176
   \   000AB3   87           DB 135
   \   000AB4   B5           DB 181
   \   000AB5   9A           DB 154
   \   000AB6   A3           DB 163
   \   000AB7   F3           DB 243
   \   000AB8   9B           DB 155
   \   000AB9   A3           DB 163
   \   000ABA   A3           DB 163
   \   000ABB   DC           DB 220
   \   000ABC   BA           DB 186
   \   000ABD   AC           DB 172
   \   000ABE   DF           DB 223
   \   000ABF   B9           DB 185
   \   000AC0   A3           DB 163
   \   000AC1   A3           DB 163
   \   000AC2   A3           DB 163
   \   000AC3   A3           DB 163
   \   000AC4   A3           DB 163
   \   000AC5   A3           DB 163
   \   000AC6   A3           DB 163
   \   000AC7   A3           DB 163
   \   000AC8   A3           DB 163
   \   000AC9   A3           DB 163
   \   000ACA   A3           DB 163
   \   000ACB   A3           DB 163
   \   000ACC   A3           DB 163
   \   000ACD   A3           DB 163
   \   000ACE   A3           DB 163
   \   000ACF   A3           DB 163
   \   000AD0   D8           DB 216
   \   000AD1   D8           DB 216
   \   000AD2   D8           DB 216
   \   000AD3   BB           DB 187
   \   000AD4   B3           DB 179
   \   000AD5   B7           DB 183
   \   000AD6   F1           DB 241
   \   000AD7   AA           DB 170
   \   000AD8   F9           DB 249
   \   000AD9   DA           DB 218
   \   000ADA   FF           DB 255
   \   000ADB   D9           DB 217
   \   000ADC   80           DB 128
   \   000ADD   9A           DB 154
   \   000ADE   AA           DB 170
   \   000ADF   28           DB 40
   \   000AE0   B4           DB 180
   \   000AE1   80           DB 128
   \   000AE2   98           DB 152
   \   000AE3   A7           DB 167
   \   000AE4   20           DB 32
   \   000AE5   B7           DB 183
   \   000AE6   97           DB 151
   \   000AE7   87           DB 135
   \   000AE8   A8           DB 168
   \   000AE9   66           DB 102
   \   000AEA   88           DB 136
   \   000AEB   F0           DB 240
   \   000AEC   79           DB 121
   \   000AED   51           DB 81
   \   000AEE   F1           DB 241
   \   000AEF   90           DB 144
   \   000AF0   2C           DB 44
   \   000AF1   87           DB 135
   \   000AF2   0C           DB 12
   \   000AF3   A7           DB 167
   \   000AF4   81           DB 129
   \   000AF5   97           DB 151
   \   000AF6   62           DB 98
   \   000AF7   93           DB 147
   \   000AF8   F0           DB 240
   \   000AF9   71           DB 113
   \   000AFA   71           DB 113
   \   000AFB   60           DB 96
   \   000AFC   85           DB 133
   \   000AFD   94           DB 148
   \   000AFE   01           DB 1
   \   000AFF   29           DB 41
   \   000B00   51           DB 81
   \   000B01   79           DB 121
   \   000B02   90           DB 144
   \   000B03   A5           DB 165
   \   000B04   F1           DB 241
   \   000B05   28           DB 40
   \   000B06   4C           DB 76
   \   000B07   6C           DB 108
   \   000B08   87           DB 135
   \   000B09   0C           DB 12
   \   000B0A   95           DB 149
   \   000B0B   18           DB 24
   \   000B0C   85           DB 133
   \   000B0D   78           DB 120
   \   000B0E   A3           DB 163
   \   000B0F   83           DB 131
   \   000B10   90           DB 144
   \   000B11   28           DB 40
   \   000B12   4C           DB 76
   \   000B13   6C           DB 108
   \   000B14   88           DB 136
   \   000B15   6C           DB 108
   \   000B16   D8           DB 216
   \   000B17   F3           DB 243
   \   000B18   A2           DB 162
   \   000B19   82           DB 130
   \   000B1A   00           DB 0
   \   000B1B   F2           DB 242
   \   000B1C   10           DB 16
   \   000B1D   A8           DB 168
   \   000B1E   92           DB 146
   \   000B1F   19           DB 25
   \   000B20   80           DB 128
   \   000B21   A2           DB 162
   \   000B22   F2           DB 242
   \   000B23   D9           DB 217
   \   000B24   26           DB 38
   \   000B25   D8           DB 216
   \   000B26   F1           DB 241
   \   000B27   88           DB 136
   \   000B28   A8           DB 168
   \   000B29   4D           DB 77
   \   000B2A   D9           DB 217
   \   000B2B   48           DB 72
   \   000B2C   D8           DB 216
   \   000B2D   96           DB 150
   \   000B2E   A8           DB 168
   \   000B2F   39           DB 57
   \   000B30   80           DB 128
   \   000B31   D9           DB 217
   \   000B32   3C           DB 60
   \   000B33   D8           DB 216
   \   000B34   95           DB 149
   \   000B35   80           DB 128
   \   000B36   A8           DB 168
   \   000B37   39           DB 57
   \   000B38   A6           DB 166
   \   000B39   86           DB 134
   \   000B3A   98           DB 152
   \   000B3B   D9           DB 217
   \   000B3C   2C           DB 44
   \   000B3D   DA           DB 218
   \   000B3E   87           DB 135
   \   000B3F   A7           DB 167
   \   000B40   2C           DB 44
   \   000B41   D8           DB 216
   \   000B42   A8           DB 168
   \   000B43   89           DB 137
   \   000B44   95           DB 149
   \   000B45   19           DB 25
   \   000B46   A9           DB 169
   \   000B47   80           DB 128
   \   000B48   D9           DB 217
   \   000B49   38           DB 56
   \   000B4A   D8           DB 216
   \   000B4B   A8           DB 168
   \   000B4C   89           DB 137
   \   000B4D   39           DB 57
   \   000B4E   A9           DB 169
   \   000B4F   80           DB 128
   \   000B50   DA           DB 218
   \   000B51   3C           DB 60
   \   000B52   D8           DB 216
   \   000B53   A8           DB 168
   \   000B54   2E           DB 46
   \   000B55   A8           DB 168
   \   000B56   39           DB 57
   \   000B57   90           DB 144
   \   000B58   D9           DB 217
   \   000B59   0C           DB 12
   \   000B5A   D8           DB 216
   \   000B5B   A8           DB 168
   \   000B5C   95           DB 149
   \   000B5D   31           DB 49
   \   000B5E   98           DB 152
   \   000B5F   D9           DB 217
   \   000B60   0C           DB 12
   \   000B61   D8           DB 216
   \   000B62   A8           DB 168
   \   000B63   09           DB 9
   \   000B64   D9           DB 217
   \   000B65   FF           DB 255
   \   000B66   D8           DB 216
   \   000B67   01           DB 1
   \   000B68   DA           DB 218
   \   000B69   FF           DB 255
   \   000B6A   D8           DB 216
   \   000B6B   95           DB 149
   \   000B6C   39           DB 57
   \   000B6D   A9           DB 169
   \   000B6E   DA           DB 218
   \   000B6F   26           DB 38
   \   000B70   FF           DB 255
   \   000B71   D8           DB 216
   \   000B72   90           DB 144
   \   000B73   A8           DB 168
   \   000B74   0D           DB 13
   \   000B75   89           DB 137
   \   000B76   99           DB 153
   \   000B77   A8           DB 168
   \   000B78   10           DB 16
   \   000B79   80           DB 128
   \   000B7A   98           DB 152
   \   000B7B   21           DB 33
   \   000B7C   DA           DB 218
   \   000B7D   2E           DB 46
   \   000B7E   D8           DB 216
   \   000B7F   89           DB 137
   \   000B80   99           DB 153
   \   000B81   A8           DB 168
   \   000B82   31           DB 49
   \   000B83   80           DB 128
   \   000B84   DA           DB 218
   \   000B85   2E           DB 46
   \   000B86   D8           DB 216
   \   000B87   A8           DB 168
   \   000B88   86           DB 134
   \   000B89   96           DB 150
   \   000B8A   31           DB 49
   \   000B8B   80           DB 128
   \   000B8C   DA           DB 218
   \   000B8D   2E           DB 46
   \   000B8E   D8           DB 216
   \   000B8F   A8           DB 168
   \   000B90   87           DB 135
   \   000B91   31           DB 49
   \   000B92   80           DB 128
   \   000B93   DA           DB 218
   \   000B94   2E           DB 46
   \   000B95   D8           DB 216
   \   000B96   A8           DB 168
   \   000B97   82           DB 130
   \   000B98   92           DB 146
   \   000B99   F3           DB 243
   \   000B9A   41           DB 65
   \   000B9B   80           DB 128
   \   000B9C   F1           DB 241
   \   000B9D   D9           DB 217
   \   000B9E   2E           DB 46
   \   000B9F   D8           DB 216
   \   000BA0   A8           DB 168
   \   000BA1   82           DB 130
   \   000BA2   F3           DB 243
   \   000BA3   19           DB 25
   \   000BA4   80           DB 128
   \   000BA5   F1           DB 241
   \   000BA6   D9           DB 217
   \   000BA7   2E           DB 46
   \   000BA8   D8           DB 216
   \   000BA9   82           DB 130
   \   000BAA   AC           DB 172
   \   000BAB   F3           DB 243
   \   000BAC   C0           DB 192
   \   000BAD   A2           DB 162
   \   000BAE   80           DB 128
   \   000BAF   22           DB 34
   \   000BB0   F1           DB 241
   \   000BB1   A6           DB 166
   \   000BB2   2E           DB 46
   \   000BB3   A7           DB 167
   \   000BB4   2E           DB 46
   \   000BB5   A9           DB 169
   \   000BB6   22           DB 34
   \   000BB7   98           DB 152
   \   000BB8   A8           DB 168
   \   000BB9   29           DB 41
   \   000BBA   DA           DB 218
   \   000BBB   AC           DB 172
   \   000BBC   DE           DB 222
   \   000BBD   FF           DB 255
   \   000BBE   D8           DB 216
   \   000BBF   A2           DB 162
   \   000BC0   F2           DB 242
   \   000BC1   2A           DB 42
   \   000BC2   F1           DB 241
   \   000BC3   A9           DB 169
   \   000BC4   2E           DB 46
   \   000BC5   82           DB 130
   \   000BC6   92           DB 146
   \   000BC7   A8           DB 168
   \   000BC8   F2           DB 242
   \   000BC9   31           DB 49
   \   000BCA   80           DB 128
   \   000BCB   A6           DB 166
   \   000BCC   96           DB 150
   \   000BCD   F1           DB 241
   \   000BCE   D9           DB 217
   \   000BCF   00           DB 0
   \   000BD0   AC           DB 172
   \   000BD1   8C           DB 140
   \   000BD2   9C           DB 156
   \   000BD3   0C           DB 12
   \   000BD4   30           DB 48
   \   000BD5   AC           DB 172
   \   000BD6   DE           DB 222
   \   000BD7   D0           DB 208
   \   000BD8   DE           DB 222
   \   000BD9   FF           DB 255
   \   000BDA   D8           DB 216
   \   000BDB   8C           DB 140
   \   000BDC   9C           DB 156
   \   000BDD   AC           DB 172
   \   000BDE   D0           DB 208
   \   000BDF   10           DB 16
   \   000BE0   AC           DB 172
   \   000BE1   DE           DB 222
   \   000BE2   80           DB 128
   \   000BE3   92           DB 146
   \   000BE4   A2           DB 162
   \   000BE5   F2           DB 242
   \   000BE6   4C           DB 76
   \   000BE7   82           DB 130
   \   000BE8   A8           DB 168
   \   000BE9   F1           DB 241
   \   000BEA   CA           DB 202
   \   000BEB   F2           DB 242
   \   000BEC   35           DB 53
   \   000BED   F1           DB 241
   \   000BEE   96           DB 150
   \   000BEF   88           DB 136
   \   000BF0   A6           DB 166
   \   000BF1   D9           DB 217
   \   000BF2   00           DB 0
   \   000BF3   D8           DB 216
   \   000BF4   F1           DB 241
   \   000BF5   FF           DB 255
    251              /* bank # 0 */
    252              0x00, 0x00, 0x70, 0x00, 0x00, 0x00, 0x00, 0x24, 0x00, 0x00, 0x00, 0x02, 0x00, 0x03, 0x00, 0x00,
    253              0x00, 0x65, 0x00, 0x54, 0xff, 0xef, 0x00, 0x00, 0xfa, 0x80, 0x00, 0x0b, 0x12, 0x82, 0x00, 0x01,
    254              0x03, 0x0c, 0x30, 0xc3, 0x0e, 0x8c, 0x8c, 0xe9, 0x14, 0xd5, 0x40, 0x02, 0x13, 0x71, 0x0f, 0x8e,
    255              0x38, 0x83, 0xf8, 0x83, 0x30, 0x00, 0xf8, 0x83, 0x25, 0x8e, 0xf8, 0x83, 0x30, 0x00, 0xf8, 0x83,
    256              0xff, 0xff, 0xff, 0xff, 0x0f, 0xfe, 0xa9, 0xd6, 0x24, 0x00, 0x04, 0x00, 0x1a, 0x82, 0x79, 0xa1,
    257              0x00, 0x00, 0x00, 0x3c, 0xff, 0xff, 0x00, 0x00, 0x00, 0x10, 0x00, 0x00, 0x38, 0x83, 0x6f, 0xa2,
    258              0x00, 0x3e, 0x03, 0x30, 0x40, 0x00, 0x00, 0x00, 0x02, 0xca, 0xe3, 0x09, 0x3e, 0x80, 0x00, 0x00,
    259              0x20, 0x00, 0x00, 0x00, 0x00, 0x00, 0x00, 0x00, 0x40, 0x00, 0x00, 0x00, 0x60, 0x00, 0x00, 0x00,
    260              0x00, 0x0c, 0x00, 0x00, 0x00, 0x0c, 0x18, 0x6e, 0x00, 0x00, 0x06, 0x92, 0x0a, 0x16, 0xc0, 0xdf,
    261              0xff, 0xff, 0x02, 0x56, 0xfd, 0x8c, 0xd3, 0x77, 0xff, 0xe1, 0xc4, 0x96, 0xe0, 0xc5, 0xbe, 0xaa,
    262              0x00, 0x00, 0x00, 0x00, 0xff, 0xff, 0x0b, 0x2b, 0x00, 0x00, 0x16, 0x57, 0x00, 0x00, 0x03, 0x59,
    263              0x40, 0x00, 0x00, 0x00, 0x00, 0x00, 0x1d, 0xfa, 0x00, 0x02, 0x6c, 0x1d, 0x00, 0x00, 0x00, 0x00,
    264              0x3f, 0xff, 0xdf, 0xeb, 0x00, 0x3e, 0xb3, 0xb6, 0x00, 0x0d, 0x22, 0x78, 0x00, 0x00, 0x2f, 0x3c,
    265              0x00, 0x00, 0x00, 0x00, 0x00, 0x19, 0x42, 0xb5, 0x00, 0x00, 0x39, 0xa2, 0x00, 0x00, 0xb3, 0x65,
    266              0xd9, 0x0e, 0x9f, 0xc9, 0x1d, 0xcf, 0x4c, 0x34, 0x30, 0x00, 0x00, 0x00, 0x50, 0x00, 0x00, 0x00,
    267              0x3b, 0xb6, 0x7a, 0xe8, 0x00, 0x64, 0x00, 0x00, 0x00, 0xc8, 0x00, 0x00, 0x00, 0x00, 0x00, 0x00,
    268              /* bank # 1 */
    269              0x10, 0x00, 0x00, 0x00, 0x10, 0x00, 0xfa, 0x92, 0x10, 0x00, 0x22, 0x5e, 0x00, 0x0d, 0x22, 0x9f,
    270              0x00, 0x01, 0x00, 0x00, 0x00, 0x32, 0x00, 0x00, 0xff, 0x46, 0x00, 0x00, 0x63, 0xd4, 0x00, 0x00,
    271              0x10, 0x00, 0x00, 0x00, 0x04, 0xd6, 0x00, 0x00, 0x04, 0xcc, 0x00, 0x00, 0x04, 0xcc, 0x00, 0x00,
    272              0x00, 0x00, 0x10, 0x72, 0x00, 0x00, 0x00, 0x40, 0x00, 0x00, 0x00, 0x00, 0x00, 0x00, 0x00, 0x00,
    273              0x00, 0x06, 0x00, 0x02, 0x00, 0x05, 0x00, 0x07, 0x00, 0x00, 0x00, 0x00, 0x00, 0x64, 0x00, 0x00,
    274              0x00, 0x00, 0x00, 0x00, 0x00, 0x00, 0x00, 0x05, 0x00, 0x05, 0x00, 0x64, 0x00, 0x20, 0x00, 0x00,
    275              0x00, 0x00, 0x00, 0x00, 0x00, 0x00, 0x00, 0x00, 0x00, 0x00, 0x40, 0x00, 0x00, 0x00, 0x03, 0x00,
    276              0x00, 0x00, 0x00, 0x32, 0xf8, 0x98, 0x00, 0x00, 0xff, 0x65, 0x00, 0x00, 0x83, 0x0f, 0x00, 0x00,
    277              0xff, 0x9b, 0xfc, 0x00, 0x00, 0x00, 0x00, 0x00, 0x00, 0x00, 0x00, 0x00, 0x00, 0x00, 0x00, 0x00,
    278              0x00, 0x00, 0x00, 0x00, 0x00, 0x00, 0x00, 0x00, 0x00, 0x00, 0x00, 0x00, 0x00, 0x00, 0x00, 0x00,
    279              0x00, 0x00, 0x00, 0x00, 0x00, 0x00, 0x00, 0x00, 0x00, 0x00, 0x00, 0x00, 0x00, 0x00, 0x10, 0x00,
    280              0x40, 0x00, 0x00, 0x00, 0x00, 0x00, 0x00, 0x06, 0x00, 0x00, 0xb2, 0x6a, 0x00, 0x02, 0x00, 0x00,
    281              0x00, 0x01, 0xfb, 0x83, 0x00, 0x68, 0x00, 0x00, 0x00, 0xd9, 0xfc, 0x00, 0x7c, 0xf1, 0xff, 0x83,
    282              0x00, 0x00, 0x00, 0x00, 0x00, 0x65, 0x00, 0x00, 0x00, 0x64, 0x03, 0xe8, 0x00, 0x64, 0x00, 0x28,
    283              0x00, 0x00, 0x00, 0x25, 0x00, 0x00, 0x00, 0x00, 0x16, 0xa0, 0x00, 0x00, 0x00, 0x00, 0x10, 0x00,
    284              0x00, 0x00, 0x10, 0x00, 0x00, 0x2f, 0x00, 0x00, 0x00, 0x00, 0x01, 0xf4, 0x00, 0x00, 0x10, 0x00,
    285              /* bank # 2 */
    286              0x00, 0x28, 0x00, 0x00, 0xff, 0xff, 0x45, 0x81, 0xff, 0xff, 0xfa, 0x72, 0x00, 0x00, 0x00, 0x00,
    287              0x00, 0x00, 0x00, 0x00, 0x00, 0x44, 0x00, 0x05, 0x00, 0x05, 0xba, 0xc6, 0x00, 0x47, 0x78, 0xa2,
    288              0x00, 0x00, 0x00, 0x01, 0x00, 0x00, 0x00, 0x00, 0x00, 0x00, 0x06, 0x00, 0x00, 0x00, 0x00, 0x14,
    289              0x00, 0x00, 0x25, 0x4d, 0x00, 0x2f, 0x70, 0x6d, 0x00, 0x00, 0x05, 0xae, 0x00, 0x0c, 0x02, 0xd0,
    290              0x00, 0x00, 0x00, 0x00, 0x00, 0x00, 0x00, 0x00, 0x00, 0x00, 0x00, 0x00, 0x00, 0x00, 0x00, 0x00,
    291              0x00, 0x1b, 0x00, 0x00, 0x00, 0x00, 0x00, 0x00, 0x00, 0x00, 0x00, 0x00, 0x00, 0x00, 0x00, 0x00,
    292              0x00, 0x64, 0x00, 0x00, 0x00, 0x08, 0x00, 0x00, 0x00, 0x00, 0x00, 0x00, 0x00, 0x00, 0x00, 0x00,
    293              0x00, 0x00, 0x00, 0x00, 0x00, 0x00, 0x00, 0x00, 0x00, 0x00, 0x00, 0x00, 0x00, 0x00, 0x00, 0x00,
    294              0x00, 0x00, 0x00, 0x00, 0x00, 0x00, 0x00, 0x00, 0x00, 0x00, 0x00, 0x00, 0x00, 0x00, 0x00, 0x00,
    295              0x00, 0x00, 0x00, 0x00, 0x00, 0x00, 0x00, 0x00, 0x00, 0x00, 0x00, 0x00, 0x00, 0x00, 0x00, 0x00,
    296              0x00, 0x00, 0x00, 0x00, 0x00, 0x00, 0x00, 0x00, 0x00, 0x00, 0x00, 0x00, 0x00, 0x00, 0x00, 0x00,
    297              0x00, 0x00, 0x00, 0x00, 0x00, 0x00, 0x00, 0x00, 0x00, 0x00, 0x00, 0x00, 0x00, 0x00, 0x00, 0x00,
    298              0x00, 0x1b, 0x00, 0x00, 0x00, 0x00, 0x00, 0x00, 0x00, 0x00, 0x00, 0x00, 0x00, 0x0e, 0x00, 0x0e,
    299              0x00, 0x00, 0x0a, 0xc7, 0x00, 0x04, 0x00, 0x00, 0x00, 0x00, 0x00, 0x32, 0xff, 0xff, 0xff, 0x9c,
    300              0x00, 0x00, 0x0b, 0x2b, 0x00, 0x00, 0x00, 0x02, 0x00, 0x00, 0x00, 0x01, 0x00, 0x00, 0x00, 0x64,
    301              0xff, 0xe5, 0x00, 0x00, 0x00, 0x00, 0x00, 0x00, 0x00, 0x00, 0x00, 0x00, 0x00, 0x00, 0x00, 0x00,
    302              /* bank # 3 */
    303              0x00, 0x00, 0x00, 0x01, 0x00, 0x00, 0x00, 0x00, 0x00, 0x01, 0x00, 0x00, 0x00, 0x00, 0x00, 0x00,
    304              0x00, 0x01, 0x80, 0x00, 0x00, 0x01, 0x80, 0x00, 0x00, 0x01, 0x80, 0x00, 0x00, 0x24, 0x26, 0xd3,
    305              0x00, 0x00, 0x00, 0x00, 0x00, 0x00, 0x00, 0x00, 0x00, 0x06, 0x00, 0x10, 0x00, 0x96, 0x00, 0x3c,
    306              0x00, 0x00, 0x00, 0x00, 0x00, 0x00, 0x00, 0x00, 0x00, 0x00, 0x00, 0x00, 0x00, 0x00, 0x00, 0x00,
    307              0x0c, 0x0a, 0x4e, 0x68, 0xcd, 0xcf, 0x77, 0x09, 0x50, 0x16, 0x67, 0x59, 0xc6, 0x19, 0xce, 0x82,
    308              0x00, 0x00, 0x00, 0x00, 0x00, 0x00, 0x00, 0x00, 0x00, 0x00, 0x00, 0x00, 0x00, 0x00, 0x00, 0x00,
    309              0x00, 0x00, 0x00, 0x00, 0x00, 0x00, 0x00, 0x00, 0x17, 0xd7, 0x84, 0x00, 0x03, 0x00, 0x00, 0x00,
    310              0x00, 0x00, 0x00, 0x00, 0x00, 0x00, 0x00, 0x00, 0xc7, 0x93, 0x8f, 0x9d, 0x1e, 0x1b, 0x1c, 0x19,
    311              0x00, 0x00, 0x00, 0x00, 0x00, 0x00, 0x00, 0x00, 0x00, 0x00, 0x00, 0x00, 0x00, 0x00, 0x00, 0x00,
    312              0x00, 0x00, 0x00, 0x00, 0x00, 0x00, 0x00, 0x00, 0x02, 0x03, 0x18, 0x85, 0x00, 0x00, 0x40, 0x00,
    313              0x00, 0x00, 0x00, 0x03, 0x00, 0x00, 0x00, 0x03, 0x00, 0x00, 0x00, 0x00, 0x00, 0x00, 0x00, 0x00,
    314              0x40, 0x00, 0x00, 0x00, 0x00, 0x00, 0x00, 0x00, 0x00, 0x00, 0x00, 0x00, 0x00, 0x00, 0x00, 0x00,
    315              0x00, 0x00, 0x00, 0x00, 0x00, 0x00, 0x00, 0x00, 0x00, 0x00, 0x00, 0x00, 0x00, 0x00, 0x00, 0x00,
    316              0x00, 0x00, 0x00, 0x00, 0x00, 0x00, 0x00, 0x00, 0x00, 0x00, 0x00, 0x00, 0x00, 0x00, 0x00, 0x00,
    317              0x00, 0x00, 0x00, 0x00, 0x67, 0x7d, 0xdf, 0x7e, 0x72, 0x90, 0x2e, 0x55, 0x4c, 0xf6, 0xe6, 0x88,
    318              0x00, 0x00, 0x00, 0x00, 0x00, 0x00, 0x00, 0x00, 0x00, 0x00, 0x00, 0x00, 0x00, 0x00, 0x00, 0x00,
    319          
    320              /* bank # 4 */
    321              0xd8, 0xdc, 0xb4, 0xb8, 0xb0, 0xd8, 0xb9, 0xab, 0xf3, 0xf8, 0xfa, 0xb3, 0xb7, 0xbb, 0x8e, 0x9e,
    322              0xae, 0xf1, 0x32, 0xf5, 0x1b, 0xf1, 0xb4, 0xb8, 0xb0, 0x80, 0x97, 0xf1, 0xa9, 0xdf, 0xdf, 0xdf,
    323              0xaa, 0xdf, 0xdf, 0xdf, 0xf2, 0xaa, 0xc5, 0xcd, 0xc7, 0xa9, 0x0c, 0xc9, 0x2c, 0x97, 0xf1, 0xa9,
    324              0x89, 0x26, 0x46, 0x66, 0xb2, 0x89, 0x99, 0xa9, 0x2d, 0x55, 0x7d, 0xb0, 0xb0, 0x8a, 0xa8, 0x96,
    325              0x36, 0x56, 0x76, 0xf1, 0xba, 0xa3, 0xb4, 0xb2, 0x80, 0xc0, 0xb8, 0xa8, 0x97, 0x11, 0xb2, 0x83,
    326              0x98, 0xba, 0xa3, 0xf0, 0x24, 0x08, 0x44, 0x10, 0x64, 0x18, 0xb2, 0xb9, 0xb4, 0x98, 0x83, 0xf1,
    327              0xa3, 0x29, 0x55, 0x7d, 0xba, 0xb5, 0xb1, 0xa3, 0x83, 0x93, 0xf0, 0x00, 0x28, 0x50, 0xf5, 0xb2,
    328              0xb6, 0xaa, 0x83, 0x93, 0x28, 0x54, 0x7c, 0xf1, 0xb9, 0xa3, 0x82, 0x93, 0x61, 0xba, 0xa2, 0xda,
    329              0xde, 0xdf, 0xdb, 0x81, 0x9a, 0xb9, 0xae, 0xf5, 0x60, 0x68, 0x70, 0xf1, 0xda, 0xba, 0xa2, 0xdf,
    330              0xd9, 0xba, 0xa2, 0xfa, 0xb9, 0xa3, 0x82, 0x92, 0xdb, 0x31, 0xba, 0xa2, 0xd9, 0xba, 0xa2, 0xf8,
    331              0xdf, 0x85, 0xa4, 0xd0, 0xc1, 0xbb, 0xad, 0x83, 0xc2, 0xc5, 0xc7, 0xb8, 0xa2, 0xdf, 0xdf, 0xdf,
    332              0xba, 0xa0, 0xdf, 0xdf, 0xdf, 0xd8, 0xd8, 0xf1, 0xb8, 0xaa, 0xb3, 0x8d, 0xb4, 0x98, 0x0d, 0x35,
    333              0x5d, 0xb2, 0xb6, 0xba, 0xaf, 0x8c, 0x96, 0x19, 0x8f, 0x9f, 0xa7, 0x0e, 0x16, 0x1e, 0xb4, 0x9a,
    334              0xb8, 0xaa, 0x87, 0x2c, 0x54, 0x7c, 0xba, 0xa4, 0xb0, 0x8a, 0xb6, 0x91, 0x32, 0x56, 0x76, 0xb2,
    335              0x84, 0x94, 0xa4, 0xc8, 0x08, 0xcd, 0xd8, 0xb8, 0xb4, 0xb0, 0xf1, 0x99, 0x82, 0xa8, 0x2d, 0x55,
    336              0x7d, 0x98, 0xa8, 0x0e, 0x16, 0x1e, 0xa2, 0x2c, 0x54, 0x7c, 0x92, 0xa4, 0xf0, 0x2c, 0x50, 0x78,
    337              /* bank # 5 */
    338              0xf1, 0x84, 0xa8, 0x98, 0xc4, 0xcd, 0xfc, 0xd8, 0x0d, 0xdb, 0xa8, 0xfc, 0x2d, 0xf3, 0xd9, 0xba,
    339              0xa6, 0xf8, 0xda, 0xba, 0xa6, 0xde, 0xd8, 0xba, 0xb2, 0xb6, 0x86, 0x96, 0xa6, 0xd0, 0xf3, 0xc8,
    340              0x41, 0xda, 0xa6, 0xc8, 0xf8, 0xd8, 0xb0, 0xb4, 0xb8, 0x82, 0xa8, 0x92, 0xf5, 0x2c, 0x54, 0x88,
    341              0x98, 0xf1, 0x35, 0xd9, 0xf4, 0x18, 0xd8, 0xf1, 0xa2, 0xd0, 0xf8, 0xf9, 0xa8, 0x84, 0xd9, 0xc7,
    342              0xdf, 0xf8, 0xf8, 0x83, 0xc5, 0xda, 0xdf, 0x69, 0xdf, 0x83, 0xc1, 0xd8, 0xf4, 0x01, 0x14, 0xf1,
    343              0xa8, 0x82, 0x4e, 0xa8, 0x84, 0xf3, 0x11, 0xd1, 0x82, 0xf5, 0xd9, 0x92, 0x28, 0x97, 0x88, 0xf1,
    344              0x09, 0xf4, 0x1c, 0x1c, 0xd8, 0x84, 0xa8, 0xf3, 0xc0, 0xf9, 0xd1, 0xd9, 0x97, 0x82, 0xf1, 0x29,
    345              0xf4, 0x0d, 0xd8, 0xf3, 0xf9, 0xf9, 0xd1, 0xd9, 0x82, 0xf4, 0xc2, 0x03, 0xd8, 0xde, 0xdf, 0x1a,
    346              0xd8, 0xf1, 0xa2, 0xfa, 0xf9, 0xa8, 0x84, 0x98, 0xd9, 0xc7, 0xdf, 0xf8, 0xf8, 0xf8, 0x83, 0xc7,
    347              0xda, 0xdf, 0x69, 0xdf, 0xf8, 0x83, 0xc3, 0xd8, 0xf4, 0x01, 0x14, 0xf1, 0x98, 0xa8, 0x82, 0x2e,
    348              0xa8, 0x84, 0xf3, 0x11, 0xd1, 0x82, 0xf5, 0xd9, 0x92, 0x50, 0x97, 0x88, 0xf1, 0x09, 0xf4, 0x1c,
    349              0xd8, 0x84, 0xa8, 0xf3, 0xc0, 0xf8, 0xf9, 0xd1, 0xd9, 0x97, 0x82, 0xf1, 0x49, 0xf4, 0x0d, 0xd8,
    350              0xf3, 0xf9, 0xf9, 0xd1, 0xd9, 0x82, 0xf4, 0xc4, 0x03, 0xd8, 0xde, 0xdf, 0xd8, 0xf1, 0xad, 0x88,
    351              0x98, 0xcc, 0xa8, 0x09, 0xf9, 0xd9, 0x82, 0x92, 0xa8, 0xf5, 0x7c, 0xf1, 0x88, 0x3a, 0xcf, 0x94,
    352              0x4a, 0x6e, 0x98, 0xdb, 0x69, 0x31, 0xda, 0xad, 0xf2, 0xde, 0xf9, 0xd8, 0x87, 0x95, 0xa8, 0xf2,
    353              0x21, 0xd1, 0xda, 0xa5, 0xf9, 0xf4, 0x17, 0xd9, 0xf1, 0xae, 0x8e, 0xd0, 0xc0, 0xc3, 0xae, 0x82,
    354              /* bank # 6 */
    355              0xc6, 0x84, 0xc3, 0xa8, 0x85, 0x95, 0xc8, 0xa5, 0x88, 0xf2, 0xc0, 0xf1, 0xf4, 0x01, 0x0e, 0xf1,
    356              0x8e, 0x9e, 0xa8, 0xc6, 0x3e, 0x56, 0xf5, 0x54, 0xf1, 0x88, 0x72, 0xf4, 0x01, 0x15, 0xf1, 0x98,
    357              0x45, 0x85, 0x6e, 0xf5, 0x8e, 0x9e, 0x04, 0x88, 0xf1, 0x42, 0x98, 0x5a, 0x8e, 0x9e, 0x06, 0x88,
    358              0x69, 0xf4, 0x01, 0x1c, 0xf1, 0x98, 0x1e, 0x11, 0x08, 0xd0, 0xf5, 0x04, 0xf1, 0x1e, 0x97, 0x02,
    359              0x02, 0x98, 0x36, 0x25, 0xdb, 0xf9, 0xd9, 0x85, 0xa5, 0xf3, 0xc1, 0xda, 0x85, 0xa5, 0xf3, 0xdf,
    360              0xd8, 0x85, 0x95, 0xa8, 0xf3, 0x09, 0xda, 0xa5, 0xfa, 0xd8, 0x82, 0x92, 0xa8, 0xf5, 0x78, 0xf1,
    361              0x88, 0x1a, 0x84, 0x9f, 0x26, 0x88, 0x98, 0x21, 0xda, 0xf4, 0x1d, 0xf3, 0xd8, 0x87, 0x9f, 0x39,
    362              0xd1, 0xaf, 0xd9, 0xdf, 0xdf, 0xfb, 0xf9, 0xf4, 0x0c, 0xf3, 0xd8, 0xfa, 0xd0, 0xf8, 0xda, 0xf9,
    363              0xf9, 0xd0, 0xdf, 0xd9, 0xf9, 0xd8, 0xf4, 0x0b, 0xd8, 0xf3, 0x87, 0x9f, 0x39, 0xd1, 0xaf, 0xd9,
    364              0xdf, 0xdf, 0xf4, 0x1d, 0xf3, 0xd8, 0xfa, 0xfc, 0xa8, 0x69, 0xf9, 0xf9, 0xaf, 0xd0, 0xda, 0xde,
    365              0xfa, 0xd9, 0xf8, 0x8f, 0x9f, 0xa8, 0xf1, 0xcc, 0xf3, 0x98, 0xdb, 0x45, 0xd9, 0xaf, 0xdf, 0xd0,
    366              0xf8, 0xd8, 0xf1, 0x8f, 0x9f, 0xa8, 0xca, 0xf3, 0x88, 0x09, 0xda, 0xaf, 0x8f, 0xcb, 0xf8, 0xd8,
    367              0xf2, 0xad, 0x97, 0x8d, 0x0c, 0xd9, 0xa5, 0xdf, 0xf9, 0xba, 0xa6, 0xf3, 0xfa, 0xf4, 0x12, 0xf2,
    368              0xd8, 0x95, 0x0d, 0xd1, 0xd9, 0xba, 0xa6, 0xf3, 0xfa, 0xda, 0xa5, 0xf2, 0xc1, 0xba, 0xa6, 0xf3,
    369              0xdf, 0xd8, 0xf1, 0xba, 0xb2, 0xb6, 0x86, 0x96, 0xa6, 0xd0, 0xca, 0xf3, 0x49, 0xda, 0xa6, 0xcb,
    370              0xf8, 0xd8, 0xb0, 0xb4, 0xb8, 0xd8, 0xad, 0x84, 0xf2, 0xc0, 0xdf, 0xf1, 0x8f, 0xcb, 0xc3, 0xa8,
    371              /* bank # 7 */
    372              0xb2, 0xb6, 0x86, 0x96, 0xc8, 0xc1, 0xcb, 0xc3, 0xf3, 0xb0, 0xb4, 0x88, 0x98, 0xa8, 0x21, 0xdb,
    373              0x71, 0x8d, 0x9d, 0x71, 0x85, 0x95, 0x21, 0xd9, 0xad, 0xf2, 0xfa, 0xd8, 0x85, 0x97, 0xa8, 0x28,
    374              0xd9, 0xf4, 0x08, 0xd8, 0xf2, 0x8d, 0x29, 0xda, 0xf4, 0x05, 0xd9, 0xf2, 0x85, 0xa4, 0xc2, 0xf2,
    375              0xd8, 0xa8, 0x8d, 0x94, 0x01, 0xd1, 0xd9, 0xf4, 0x11, 0xf2, 0xd8, 0x87, 0x21, 0xd8, 0xf4, 0x0a,
    376              0xd8, 0xf2, 0x84, 0x98, 0xa8, 0xc8, 0x01, 0xd1, 0xd9, 0xf4, 0x11, 0xd8, 0xf3, 0xa4, 0xc8, 0xbb,
    377              0xaf, 0xd0, 0xf2, 0xde, 0xf8, 0xf8, 0xf8, 0xf8, 0xf8, 0xf8, 0xf8, 0xf8, 0xd8, 0xf1, 0xb8, 0xf6,
    378              0xb5, 0xb9, 0xb0, 0x8a, 0x95, 0xa3, 0xde, 0x3c, 0xa3, 0xd9, 0xf8, 0xd8, 0x5c, 0xa3, 0xd9, 0xf8,
    379              0xd8, 0x7c, 0xa3, 0xd9, 0xf8, 0xd8, 0xf8, 0xf9, 0xd1, 0xa5, 0xd9, 0xdf, 0xda, 0xfa, 0xd8, 0xb1,
    380              0x85, 0x30, 0xf7, 0xd9, 0xde, 0xd8, 0xf8, 0x30, 0xad, 0xda, 0xde, 0xd8, 0xf2, 0xb4, 0x8c, 0x99,
    381              0xa3, 0x2d, 0x55, 0x7d, 0xa0, 0x83, 0xdf, 0xdf, 0xdf, 0xb5, 0x91, 0xa0, 0xf6, 0x29, 0xd9, 0xfb,
    382              0xd8, 0xa0, 0xfc, 0x29, 0xd9, 0xfa, 0xd8, 0xa0, 0xd0, 0x51, 0xd9, 0xf8, 0xd8, 0xfc, 0x51, 0xd9,
    383              0xf9, 0xd8, 0x79, 0xd9, 0xfb, 0xd8, 0xa0, 0xd0, 0xfc, 0x79, 0xd9, 0xfa, 0xd8, 0xa1, 0xf9, 0xf9,
    384              0xf9, 0xf9, 0xf9, 0xa0, 0xda, 0xdf, 0xdf, 0xdf, 0xd8, 0xa1, 0xf8, 0xf8, 0xf8, 0xf8, 0xf8, 0xac,
    385              0xde, 0xf8, 0xad, 0xde, 0x83, 0x93, 0xac, 0x2c, 0x54, 0x7c, 0xf1, 0xa8, 0xdf, 0xdf, 0xdf, 0xf6,
    386              0x9d, 0x2c, 0xda, 0xa0, 0xdf, 0xd9, 0xfa, 0xdb, 0x2d, 0xf8, 0xd8, 0xa8, 0x50, 0xda, 0xa0, 0xd0,
    387              0xde, 0xd9, 0xd0, 0xf8, 0xf8, 0xf8, 0xdb, 0x55, 0xf8, 0xd8, 0xa8, 0x78, 0xda, 0xa0, 0xd0, 0xdf,
    388              /* bank # 8 */
    389              0xd9, 0xd0, 0xfa, 0xf8, 0xf8, 0xf8, 0xf8, 0xdb, 0x7d, 0xf8, 0xd8, 0x9c, 0xa8, 0x8c, 0xf5, 0x30,
    390              0xdb, 0x38, 0xd9, 0xd0, 0xde, 0xdf, 0xa0, 0xd0, 0xde, 0xdf, 0xd8, 0xa8, 0x48, 0xdb, 0x58, 0xd9,
    391              0xdf, 0xd0, 0xde, 0xa0, 0xdf, 0xd0, 0xde, 0xd8, 0xa8, 0x68, 0xdb, 0x70, 0xd9, 0xdf, 0xdf, 0xa0,
    392              0xdf, 0xdf, 0xd8, 0xf1, 0xa8, 0x88, 0x90, 0x2c, 0x54, 0x7c, 0x98, 0xa8, 0xd0, 0x5c, 0x38, 0xd1,
    393              0xda, 0xf2, 0xae, 0x8c, 0xdf, 0xf9, 0xd8, 0xb0, 0x87, 0xa8, 0xc1, 0xc1, 0xb1, 0x88, 0xa8, 0xc6,
    394              0xf9, 0xf9, 0xda, 0x36, 0xd8, 0xa8, 0xf9, 0xda, 0x36, 0xd8, 0xa8, 0xf9, 0xda, 0x36, 0xd8, 0xa8,
    395              0xf9, 0xda, 0x36, 0xd8, 0xa8, 0xf9, 0xda, 0x36, 0xd8, 0xf7, 0x8d, 0x9d, 0xad, 0xf8, 0x18, 0xda,
    396              0xf2, 0xae, 0xdf, 0xd8, 0xf7, 0xad, 0xfa, 0x30, 0xd9, 0xa4, 0xde, 0xf9, 0xd8, 0xf2, 0xae, 0xde,
    397              0xfa, 0xf9, 0x83, 0xa7, 0xd9, 0xc3, 0xc5, 0xc7, 0xf1, 0x88, 0x9b, 0xa7, 0x7a, 0xad, 0xf7, 0xde,
    398              0xdf, 0xa4, 0xf8, 0x84, 0x94, 0x08, 0xa7, 0x97, 0xf3, 0x00, 0xae, 0xf2, 0x98, 0x19, 0xa4, 0x88,
    399              0xc6, 0xa3, 0x94, 0x88, 0xf6, 0x32, 0xdf, 0xf2, 0x83, 0x93, 0xdb, 0x09, 0xd9, 0xf2, 0xaa, 0xdf,
    400              0xd8, 0xd8, 0xae, 0xf8, 0xf9, 0xd1, 0xda, 0xf3, 0xa4, 0xde, 0xa7, 0xf1, 0x88, 0x9b, 0x7a, 0xd8,
    401              0xf3, 0x84, 0x94, 0xae, 0x19, 0xf9, 0xda, 0xaa, 0xf1, 0xdf, 0xd8, 0xa8, 0x81, 0xc0, 0xc3, 0xc5,
    402              0xc7, 0xa3, 0x92, 0x83, 0xf6, 0x28, 0xad, 0xde, 0xd9, 0xf8, 0xd8, 0xa3, 0x50, 0xad, 0xd9, 0xf8,
    403              0xd8, 0xa3, 0x78, 0xad, 0xd9, 0xf8, 0xd8, 0xf8, 0xf9, 0xd1, 0xa1, 0xda, 0xde, 0xc3, 0xc5, 0xc7,
    404              0xd8, 0xa1, 0x81, 0x94, 0xf8, 0x18, 0xf2, 0xb0, 0x89, 0xac, 0xc3, 0xc5, 0xc7, 0xf1, 0xd8, 0xb8,
    405              /* bank # 9 */
    406              0xb4, 0xb0, 0x97, 0x86, 0xa8, 0x31, 0x9b, 0x06, 0x99, 0x07, 0xab, 0x97, 0x28, 0x88, 0x9b, 0xf0,
    407              0x0c, 0x20, 0x14, 0x40, 0xb0, 0xb4, 0xb8, 0xf0, 0xa8, 0x8a, 0x9a, 0x28, 0x50, 0x78, 0xb7, 0x9b,
    408              0xa8, 0x29, 0x51, 0x79, 0x24, 0x70, 0x59, 0x44, 0x69, 0x38, 0x64, 0x48, 0x31, 0xf1, 0xbb, 0xab,
    409              0x88, 0x00, 0x2c, 0x54, 0x7c, 0xf0, 0xb3, 0x8b, 0xb8, 0xa8, 0x04, 0x28, 0x50, 0x78, 0xf1, 0xb0,
    410              0x88, 0xb4, 0x97, 0x26, 0xa8, 0x59, 0x98, 0xbb, 0xab, 0xb3, 0x8b, 0x02, 0x26, 0x46, 0x66, 0xb0,
    411              0xb8, 0xf0, 0x8a, 0x9c, 0xa8, 0x29, 0x51, 0x79, 0x8b, 0x29, 0x51, 0x79, 0x8a, 0x24, 0x70, 0x59,
    412              0x8b, 0x20, 0x58, 0x71, 0x8a, 0x44, 0x69, 0x38, 0x8b, 0x39, 0x40, 0x68, 0x8a, 0x64, 0x48, 0x31,
    413              0x8b, 0x30, 0x49, 0x60, 0x88, 0xf1, 0xac, 0x00, 0x2c, 0x54, 0x7c, 0xf0, 0x8c, 0xa8, 0x04, 0x28,
    414              0x50, 0x78, 0xf1, 0x88, 0x97, 0x26, 0xa8, 0x59, 0x98, 0xac, 0x8c, 0x02, 0x26, 0x46, 0x66, 0xf0,
    415              0x89, 0x9c, 0xa8, 0x29, 0x51, 0x79, 0x24, 0x70, 0x59, 0x44, 0x69, 0x38, 0x64, 0x48, 0x31, 0xa9,
    416              0x88, 0x09, 0x20, 0x59, 0x70, 0xab, 0x11, 0x38, 0x40, 0x69, 0xa8, 0x19, 0x31, 0x48, 0x60, 0x8c,
    417              0xa8, 0x3c, 0x41, 0x5c, 0x20, 0x7c, 0x00, 0xf1, 0x87, 0x98, 0x19, 0x86, 0xa8, 0x6e, 0x76, 0x7e,
    418              0xa9, 0x99, 0x88, 0x2d, 0x55, 0x7d, 0xd8, 0xb1, 0xb5, 0xb9, 0xa3, 0xdf, 0xdf, 0xdf, 0xae, 0xd0,
    419              0xdf, 0xaa, 0xd0, 0xde, 0xf2, 0xab, 0xf8, 0xf9, 0xd9, 0xb0, 0x87, 0xc4, 0xaa, 0xf1, 0xdf, 0xdf,
    420              0xbb, 0xaf, 0xdf, 0xdf, 0xb9, 0xd8, 0xb1, 0xf1, 0xa3, 0x97, 0x8e, 0x60, 0xdf, 0xb0, 0x84, 0xf2,
    421              0xc8, 0xf8, 0xf9, 0xd9, 0xde, 0xd8, 0x93, 0x85, 0xf1, 0x4a, 0xb1, 0x83, 0xa3, 0x08, 0xb5, 0x83,
    422              /* bank # 10 */
    423              0x9a, 0x08, 0x10, 0xb7, 0x9f, 0x10, 0xd8, 0xf1, 0xb0, 0xba, 0xae, 0xb0, 0x8a, 0xc2, 0xb2, 0xb6,
    424              0x8e, 0x9e, 0xf1, 0xfb, 0xd9, 0xf4, 0x1d, 0xd8, 0xf9, 0xd9, 0x0c, 0xf1, 0xd8, 0xf8, 0xf8, 0xad,
    425              0x61, 0xd9, 0xae, 0xfb, 0xd8, 0xf4, 0x0c, 0xf1, 0xd8, 0xf8, 0xf8, 0xad, 0x19, 0xd9, 0xae, 0xfb,
    426              0xdf, 0xd8, 0xf4, 0x16, 0xf1, 0xd8, 0xf8, 0xad, 0x8d, 0x61, 0xd9, 0xf4, 0xf4, 0xac, 0xf5, 0x9c,
    427              0x9c, 0x8d, 0xdf, 0x2b, 0xba, 0xb6, 0xae, 0xfa, 0xf8, 0xf4, 0x0b, 0xd8, 0xf1, 0xae, 0xd0, 0xf8,
    428              0xad, 0x51, 0xda, 0xae, 0xfa, 0xf8, 0xf1, 0xd8, 0xb9, 0xb1, 0xb6, 0xa3, 0x83, 0x9c, 0x08, 0xb9,
    429              0xb1, 0x83, 0x9a, 0xb5, 0xaa, 0xc0, 0xfd, 0x30, 0x83, 0xb7, 0x9f, 0x10, 0xb5, 0x8b, 0x93, 0xf2,
    430              0x02, 0x02, 0xd1, 0xab, 0xda, 0xde, 0xd8, 0xf1, 0xb0, 0x80, 0xba, 0xab, 0xc0, 0xc3, 0xb2, 0x84,
    431              0xc1, 0xc3, 0xd8, 0xb1, 0xb9, 0xf3, 0x8b, 0xa3, 0x91, 0xb6, 0x09, 0xb4, 0xd9, 0xab, 0xde, 0xb0,
    432              0x87, 0x9c, 0xb9, 0xa3, 0xdd, 0xf1, 0xb3, 0x8b, 0x8b, 0x8b, 0x8b, 0x8b, 0xb0, 0x87, 0xa3, 0xa3,
    433              0xa3, 0xa3, 0xb2, 0x8b, 0xb6, 0x9b, 0xf2, 0xa3, 0xa3, 0xa3, 0xa3, 0xa3, 0xa3, 0xa3, 0xa3, 0xa3,
    434              0xa3, 0xf1, 0xb0, 0x87, 0xb5, 0x9a, 0xa3, 0xf3, 0x9b, 0xa3, 0xa3, 0xdc, 0xba, 0xac, 0xdf, 0xb9,
    435              0xa3, 0xa3, 0xa3, 0xa3, 0xa3, 0xa3, 0xa3, 0xa3, 0xa3, 0xa3, 0xa3, 0xa3, 0xa3, 0xa3, 0xa3, 0xa3,
    436              0xd8, 0xd8, 0xd8, 0xbb, 0xb3, 0xb7, 0xf1, 0xaa, 0xf9, 0xda, 0xff, 0xd9, 0x80, 0x9a, 0xaa, 0x28,
    437              0xb4, 0x80, 0x98, 0xa7, 0x20, 0xb7, 0x97, 0x87, 0xa8, 0x66, 0x88, 0xf0, 0x79, 0x51, 0xf1, 0x90,
    438              0x2c, 0x87, 0x0c, 0xa7, 0x81, 0x97, 0x62, 0x93, 0xf0, 0x71, 0x71, 0x60, 0x85, 0x94, 0x01, 0x29,
    439              /* bank # 11 */
    440              0x51, 0x79, 0x90, 0xa5, 0xf1, 0x28, 0x4c, 0x6c, 0x87, 0x0c, 0x95, 0x18, 0x85, 0x78, 0xa3, 0x83,
    441              0x90, 0x28, 0x4c, 0x6c, 0x88, 0x6c, 0xd8, 0xf3, 0xa2, 0x82, 0x00, 0xf2, 0x10, 0xa8, 0x92, 0x19,
    442              0x80, 0xa2, 0xf2, 0xd9, 0x26, 0xd8, 0xf1, 0x88, 0xa8, 0x4d, 0xd9, 0x48, 0xd8, 0x96, 0xa8, 0x39,
    443              0x80, 0xd9, 0x3c, 0xd8, 0x95, 0x80, 0xa8, 0x39, 0xa6, 0x86, 0x98, 0xd9, 0x2c, 0xda, 0x87, 0xa7,
    444              0x2c, 0xd8, 0xa8, 0x89, 0x95, 0x19, 0xa9, 0x80, 0xd9, 0x38, 0xd8, 0xa8, 0x89, 0x39, 0xa9, 0x80,
    445              0xda, 0x3c, 0xd8, 0xa8, 0x2e, 0xa8, 0x39, 0x90, 0xd9, 0x0c, 0xd8, 0xa8, 0x95, 0x31, 0x98, 0xd9,
    446              0x0c, 0xd8, 0xa8, 0x09, 0xd9, 0xff, 0xd8, 0x01, 0xda, 0xff, 0xd8, 0x95, 0x39, 0xa9, 0xda, 0x26,
    447              0xff, 0xd8, 0x90, 0xa8, 0x0d, 0x89, 0x99, 0xa8, 0x10, 0x80, 0x98, 0x21, 0xda, 0x2e, 0xd8, 0x89,
    448              0x99, 0xa8, 0x31, 0x80, 0xda, 0x2e, 0xd8, 0xa8, 0x86, 0x96, 0x31, 0x80, 0xda, 0x2e, 0xd8, 0xa8,
    449              0x87, 0x31, 0x80, 0xda, 0x2e, 0xd8, 0xa8, 0x82, 0x92, 0xf3, 0x41, 0x80, 0xf1, 0xd9, 0x2e, 0xd8,
    450              0xa8, 0x82, 0xf3, 0x19, 0x80, 0xf1, 0xd9, 0x2e, 0xd8, 0x82, 0xac, 0xf3, 0xc0, 0xa2, 0x80, 0x22,
    451              0xf1, 0xa6, 0x2e, 0xa7, 0x2e, 0xa9, 0x22, 0x98, 0xa8, 0x29, 0xda, 0xac, 0xde, 0xff, 0xd8, 0xa2,
    452              0xf2, 0x2a, 0xf1, 0xa9, 0x2e, 0x82, 0x92, 0xa8, 0xf2, 0x31, 0x80, 0xa6, 0x96, 0xf1, 0xd9, 0x00,
    453              0xac, 0x8c, 0x9c, 0x0c, 0x30, 0xac, 0xde, 0xd0, 0xde, 0xff, 0xd8, 0x8c, 0x9c, 0xac, 0xd0, 0x10,
    454              0xac, 0xde, 0x80, 0x92, 0xa2, 0xf2, 0x4c, 0x82, 0xa8, 0xf1, 0xca, 0xf2, 0x35, 0xf1, 0x96, 0x88,
    455              0xa6, 0xd9, 0x00, 0xd8, 0xf1, 0xff
    456          };
    457          
    458          static const unsigned short sStartAddress = 0x0400;
    459          
    460          /* END OF SECTION COPIED FROM dmpDefaultMPU6050.c */
    461          
    462          #define INT_SRC_TAP             (0x01)
    463          #define INT_SRC_ANDROID_ORIENT  (0x08)
    464          
    465          #define DMP_FEATURE_SEND_ANY_GYRO   (DMP_FEATURE_SEND_RAW_GYRO | \
    466                                               DMP_FEATURE_SEND_CAL_GYRO)
    467          
    468          #define MAX_PACKET_LENGTH   (32)
    469          
    470          #define DMP_SAMPLE_RATE     (200)
    471          #define GYRO_SF             (((uint32)46850825LL * 200 / DMP_SAMPLE_RATE))
    472          
    473          #define FIFO_CORRUPTION_CHECK
    474          #ifdef  FIFO_CORRUPTION_CHECK
    475          #define QUAT_ERROR_THRESH       (1L<<24)
    476          #define QUAT_MAG_SQ_NORMALIZED  (1L<<28)
    477          
    478          #define QUAT_MAG_SQ_MIN         (QUAT_MAG_SQ_NORMALIZED - QUAT_ERROR_THRESH)
    479          #define QUAT_MAG_SQ_MAX         (QUAT_MAG_SQ_NORMALIZED + QUAT_ERROR_THRESH)
    480          #endif
    481          
    482          struct dmp_s {
    483              void (*tap_cb)(unsigned char count, unsigned char direction);
    484              void (*android_orient_cb)(unsigned char orientation);
    485              unsigned short orient;
    486              unsigned short feature_mask;
    487              unsigned short fifo_rate;
    488              unsigned char packet_length;
    489          };
    490          
    491          //static struct dmp_s dmp = {
    492          //    .tap_cb = NULL,
    493          //    .android_orient_cb = NULL,
    494          //    .orient = 0,
    495          //    .feature_mask = 0,
    496          //    .fifo_rate = 0,
    497          //    .packet_length = 0
    498          //};
    499          

   \                                 In  segment XDATA_Z, align 1, keep-with-next
    500          static struct dmp_s dmp={
   \                     dmp:
   \   000000                DS 11
   \   00000B                REQUIRE __INIT_XDATA_Z
    501            NULL,
    502            NULL,
    503            0,
    504            0,
    505            0,
    506            0
    507          };
    508          
    509          /**
    510           *  @brief  Load the DMP with this image.
    511           *  @return 0 if successful.
    512           */

   \                                 In  segment BANKED_CODE, align 1, keep-with-next
    513          int dmp_load_motion_driver_firmware(void)
   \                     dmp_load_motion_driver_firmware:
    514          {
   \   000000   74F6         MOV     A,#-0xa
   \   000002   12....       LCALL   ?BANKED_ENTER_XDATA
   \   000005                ; Saved register size: 10
   \   000005                ; Auto size: 0
    515              return mpu_load_firmware(DMP_CODE_SIZE, dmp_memory, sStartAddress,
    516                  DMP_SAMPLE_RATE);
   \   000005                ; Setup parameters for call to function mpu_load_firmware
   \   000005   75..C8       MOV     ?V0 + 0,#-0x38
   \   000008   75..00       MOV     ?V0 + 1,#0x0
   \   00000B   78..         MOV     R0,#?V0 + 0
   \   00000D   12....       LCALL   ?PUSH_XSTACK_I_TWO
   \   000010   75..00       MOV     ?V0 + 0,#0x0
   \   000013   75..04       MOV     ?V0 + 1,#0x4
   \   000016   78..         MOV     R0,#?V0 + 0
   \   000018   12....       LCALL   ?PUSH_XSTACK_I_TWO
   \   00001B   7C..         MOV     R4,#dmp_memory & 0xff
   \   00001D   7D..         MOV     R5,#(dmp_memory >> 8) & 0xff
   \   00001F   7AF6         MOV     R2,#-0xa
   \   000021   7B0B         MOV     R3,#0xb
   \   000023   12....       LCALL   ??mpu_load_firmware?relay
   \   000026   7404         MOV     A,#0x4
   \   000028   12....       LCALL   ?DEALLOC_XSTACK8
   \   00002B   7F02         MOV     R7,#0x2
   \   00002D   02....       LJMP    ?BANKED_LEAVE_XDATA
    517          }
    518          
    519          /**
    520           *  @brief      Push gyro and accel orientation to the DMP.
    521           *  The orientation is represented here as the output of
    522           *  @e inv_orientation_matrix_to_scalar.
    523           *  @param[in]  orient  Gyro and accel orientation in body frame.
    524           *  @return     0 if successful.
    525           */

   \                                 In  segment BANKED_CODE, align 1, keep-with-next
    526          int dmp_set_orientation(unsigned short orient)
   \                     dmp_set_orientation:
    527          {
   \   000000   74F6         MOV     A,#-0xa
   \   000002   12....       LCALL   ?BANKED_ENTER_XDATA
   \   000005                ; Saved register size: 10
   \   000005                ; Auto size: 18
   \   000005   74EE         MOV     A,#-0x12
   \   000007   12....       LCALL   ?ALLOC_XSTACK8
   \   00000A   EA           MOV     A,R2
   \   00000B   FE           MOV     R6,A
   \   00000C   EB           MOV     A,R3
   \   00000D   FF           MOV     R7,A
    528              unsigned char gyro_regs[3], accel_regs[3];
    529              const unsigned char gyro_axes[3] = {DINA4C, DINACD, DINA6C};
   \   00000E   90....       MOV     DPTR,#`?<Constant {76, 205, 108}>`
   \   000011   C082         PUSH    DPL
   \   000013   C083         PUSH    DPH
   \   000015   7409         MOV     A,#0x9
   \   000017   12....       LCALL   ?XSTACK_DISP0_8
   \   00001A   AC82         MOV     R4,DPL
   \   00001C   AD83         MOV     R5,DPH
   \   00001E   D083         POP     DPH
   \   000020   D082         POP     DPL
   \   000022   7403         MOV     A,#0x3
   \   000024   12....       LCALL   ?MOVE_LONG8_XDATA_XDATA
    530              const unsigned char accel_axes[3] = {DINA0C, DINAC9, DINA2C};
   \   000027   90....       MOV     DPTR,#`?<Constant {12, 201, 44}>`
   \   00002A   C082         PUSH    DPL
   \   00002C   C083         PUSH    DPH
   \   00002E   7406         MOV     A,#0x6
   \   000030   12....       LCALL   ?XSTACK_DISP0_8
   \   000033   AC82         MOV     R4,DPL
   \   000035   AD83         MOV     R5,DPH
   \   000037   D083         POP     DPH
   \   000039   D082         POP     DPL
   \   00003B   7403         MOV     A,#0x3
   \   00003D   12....       LCALL   ?MOVE_LONG8_XDATA_XDATA
    531              const unsigned char gyro_sign[3] = {DINA36, DINA56, DINA76};
   \   000040   90....       MOV     DPTR,#`?<Constant {54, 86, 118}>`
   \   000043   C082         PUSH    DPL
   \   000045   C083         PUSH    DPH
   \   000047   740F         MOV     A,#0xf
   \   000049   12....       LCALL   ?XSTACK_DISP0_8
   \   00004C   AC82         MOV     R4,DPL
   \   00004E   AD83         MOV     R5,DPH
   \   000050   D083         POP     DPH
   \   000052   D082         POP     DPL
   \   000054   7403         MOV     A,#0x3
   \   000056   12....       LCALL   ?MOVE_LONG8_XDATA_XDATA
    532              const unsigned char accel_sign[3] = {DINA26, DINA46, DINA66};
   \   000059   90....       MOV     DPTR,#`?<Constant {38, 70, 102}>`
   \   00005C   C082         PUSH    DPL
   \   00005E   C083         PUSH    DPH
   \   000060   740C         MOV     A,#0xc
   \   000062   12....       LCALL   ?XSTACK_DISP0_8
   \   000065   AC82         MOV     R4,DPL
   \   000067   AD83         MOV     R5,DPH
   \   000069   D083         POP     DPH
   \   00006B   D082         POP     DPL
   \   00006D   7403         MOV     A,#0x3
   \   00006F   12....       LCALL   ?MOVE_LONG8_XDATA_XDATA
   \   000072   EE           MOV     A,R6
   \   000073   5403         ANL     A,#0x3
   \   000075   FA           MOV     R2,A
   \   000076   7409         MOV     A,#0x9
   \   000078   12....       LCALL   ?XSTACK_DISP0_8
   \   00007B   E582         MOV     A,DPL
   \   00007D   2A           ADD     A,R2
   \   00007E   F582         MOV     DPL,A
   \   000080   E583         MOV     A,DPH
   \   000082   3400         ADDC    A,#0x0
   \   000084   F583         MOV     DPH,A
   \   000086   E0           MOVX    A,@DPTR
   \   000087   C0E0         PUSH    A
   \   000089   7403         MOV     A,#0x3
   \   00008B   12....       LCALL   ?XSTACK_DISP0_8
   \   00008E   D0E0         POP     A
   \   000090   F0           MOVX    @DPTR,A
    533          
    534              gyro_regs[0] = gyro_axes[orient & 3];
    535              gyro_regs[1] = gyro_axes[(orient >> 3) & 3];
   \   000091   EE           MOV     A,R6
   \   000092   13           RRC     A
   \   000093   13           RRC     A
   \   000094   13           RRC     A
   \   000095   541F         ANL     A,#0x1f
   \   000097   5403         ANL     A,#0x3
   \   000099   F8           MOV     R0,A
   \   00009A   7409         MOV     A,#0x9
   \   00009C   12....       LCALL   ?XSTACK_DISP0_8
   \   00009F   E582         MOV     A,DPL
   \   0000A1   28           ADD     A,R0
   \   0000A2   F582         MOV     DPL,A
   \   0000A4   E583         MOV     A,DPH
   \   0000A6   3400         ADDC    A,#0x0
   \   0000A8   F583         MOV     DPH,A
   \   0000AA   E0           MOVX    A,@DPTR
   \   0000AB   C0E0         PUSH    A
   \   0000AD   7404         MOV     A,#0x4
   \   0000AF   12....       LCALL   ?XSTACK_DISP0_8
   \   0000B2   D0E0         POP     A
   \   0000B4   F0           MOVX    @DPTR,A
    536              gyro_regs[2] = gyro_axes[(orient >> 6) & 3];
   \   0000B5   EE           MOV     A,R6
   \   0000B6   C4           SWAP    A
   \   0000B7   13           RRC     A
   \   0000B8   13           RRC     A
   \   0000B9   5403         ANL     A,#0x3
   \   0000BB   FC           MOV     R4,A
   \   0000BC   7409         MOV     A,#0x9
   \   0000BE   12....       LCALL   ?XSTACK_DISP0_8
   \   0000C1   E582         MOV     A,DPL
   \   0000C3   2C           ADD     A,R4
   \   0000C4   F582         MOV     DPL,A
   \   0000C6   E583         MOV     A,DPH
   \   0000C8   3400         ADDC    A,#0x0
   \   0000CA   F583         MOV     DPH,A
   \   0000CC   E0           MOVX    A,@DPTR
   \   0000CD   C0E0         PUSH    A
   \   0000CF   7405         MOV     A,#0x5
   \   0000D1   12....       LCALL   ?XSTACK_DISP0_8
   \   0000D4   D0E0         POP     A
   \   0000D6   F0           MOVX    @DPTR,A
    537              accel_regs[0] = accel_axes[orient & 3];
   \   0000D7   7406         MOV     A,#0x6
   \   0000D9   12....       LCALL   ?XSTACK_DISP0_8
   \   0000DC   E582         MOV     A,DPL
   \   0000DE   2A           ADD     A,R2
   \   0000DF   F582         MOV     DPL,A
   \   0000E1   E583         MOV     A,DPH
   \   0000E3   3400         ADDC    A,#0x0
   \   0000E5   F583         MOV     DPH,A
   \   0000E7   E0           MOVX    A,@DPTR
   \   0000E8   85..82       MOV     DPL,?XSP + 0
   \   0000EB   85..83       MOV     DPH,?XSP + 1
   \   0000EE   F0           MOVX    @DPTR,A
    538              accel_regs[1] = accel_axes[(orient >> 3) & 3];
   \   0000EF   7406         MOV     A,#0x6
   \   0000F1   12....       LCALL   ?XSTACK_DISP0_8
   \   0000F4   E582         MOV     A,DPL
   \   0000F6   28           ADD     A,R0
   \   0000F7   F582         MOV     DPL,A
   \   0000F9   E583         MOV     A,DPH
   \   0000FB   3400         ADDC    A,#0x0
   \   0000FD   F583         MOV     DPH,A
   \   0000FF   E0           MOVX    A,@DPTR
   \   000100   C0E0         PUSH    A
   \   000102   7401         MOV     A,#0x1
   \   000104   12....       LCALL   ?XSTACK_DISP0_8
   \   000107   D0E0         POP     A
   \   000109   F0           MOVX    @DPTR,A
    539              accel_regs[2] = accel_axes[(orient >> 6) & 3];
   \   00010A   7406         MOV     A,#0x6
   \   00010C   12....       LCALL   ?XSTACK_DISP0_8
   \   00010F   E582         MOV     A,DPL
   \   000111   2C           ADD     A,R4
   \   000112   F582         MOV     DPL,A
   \   000114   E583         MOV     A,DPH
   \   000116   3400         ADDC    A,#0x0
   \   000118   F583         MOV     DPH,A
   \   00011A   E0           MOVX    A,@DPTR
   \   00011B   C0E0         PUSH    A
   \   00011D   7402         MOV     A,#0x2
   \   00011F   12....       LCALL   ?XSTACK_DISP0_8
   \   000122   D0E0         POP     A
   \   000124   F0           MOVX    @DPTR,A
    540          
    541              /* Chip-to-body, axes only. */
    542              if (mpu_write_mem(FCFG_1, 3, gyro_regs))
   \   000125                ; Setup parameters for call to function mpu_write_mem
   \   000125   7403         MOV     A,#0x3
   \   000127   12....       LCALL   ?XSTACK_DISP0_8
   \   00012A   8582..       MOV     ?V0 + 0,DPL
   \   00012D   8583..       MOV     ?V0 + 1,DPH
   \   000130   78..         MOV     R0,#?V0 + 0
   \   000132   12....       LCALL   ?PUSH_XSTACK_I_TWO
   \   000135   7C03         MOV     R4,#0x3
   \   000137   7D00         MOV     R5,#0x0
   \   000139   7A26         MOV     R2,#0x26
   \   00013B   7B04         MOV     R3,#0x4
   \   00013D   12....       LCALL   ??mpu_write_mem?relay
   \   000140   7402         MOV     A,#0x2
   \   000142   12....       LCALL   ?DEALLOC_XSTACK8
   \   000145   8B..         MOV     ?V0 + 1,R3
   \   000147   EA           MOV     A,R2
   \   000148   45..         ORL     A,?V0 + 1
   \   00014A   6007         JZ      ??dmp_set_orientation_0
    543                  return -1;
   \                     ??dmp_set_orientation_1:
   \   00014C   7AFF         MOV     R2,#-0x1
   \   00014E   7BFF         MOV     R3,#-0x1
   \   000150   02....       LJMP    ??dmp_set_orientation_2 & 0xFFFF
    544              if (mpu_write_mem(FCFG_2, 3, accel_regs))
   \                     ??dmp_set_orientation_0:
   \   000153                ; Setup parameters for call to function mpu_write_mem
   \   000153   85..82       MOV     DPL,?XSP + 0
   \   000156   85..83       MOV     DPH,?XSP + 1
   \   000159   8582..       MOV     ?V0 + 0,DPL
   \   00015C   8583..       MOV     ?V0 + 1,DPH
   \   00015F   78..         MOV     R0,#?V0 + 0
   \   000161   12....       LCALL   ?PUSH_XSTACK_I_TWO
   \   000164   7C03         MOV     R4,#0x3
   \   000166   7D00         MOV     R5,#0x0
   \   000168   7A2A         MOV     R2,#0x2a
   \   00016A   7B04         MOV     R3,#0x4
   \   00016C   12....       LCALL   ??mpu_write_mem?relay
   \   00016F   7402         MOV     A,#0x2
   \   000171   12....       LCALL   ?DEALLOC_XSTACK8
   \   000174   8B..         MOV     ?V0 + 1,R3
   \   000176   EA           MOV     A,R2
   \   000177   45..         ORL     A,?V0 + 1
   \   000179   70D1         JNZ     ??dmp_set_orientation_1
    545                  return -1;
    546          
    547              memcpy(gyro_regs, gyro_sign, 3);
   \   00017B                ; Setup parameters for call to function memcpy
   \   00017B   75..03       MOV     ?V0 + 0,#0x3
   \   00017E   75..00       MOV     ?V0 + 1,#0x0
   \   000181   78..         MOV     R0,#?V0 + 0
   \   000183   12....       LCALL   ?PUSH_XSTACK_I_TWO
   \   000186   7411         MOV     A,#0x11
   \   000188   12....       LCALL   ?XSTACK_DISP0_8
   \   00018B   AC82         MOV     R4,DPL
   \   00018D   AD83         MOV     R5,DPH
   \   00018F   7405         MOV     A,#0x5
   \   000191   12....       LCALL   ?XSTACK_DISP0_8
   \   000194   AA82         MOV     R2,DPL
   \   000196   AB83         MOV     R3,DPH
   \   000198   12....       LCALL   ??memcpy?relay
   \   00019B   7402         MOV     A,#0x2
   \   00019D   12....       LCALL   ?DEALLOC_XSTACK8
    548              memcpy(accel_regs, accel_sign, 3);
   \   0001A0                ; Setup parameters for call to function memcpy
   \   0001A0   78..         MOV     R0,#?V0 + 0
   \   0001A2   12....       LCALL   ?PUSH_XSTACK_I_TWO
   \   0001A5   740E         MOV     A,#0xe
   \   0001A7   12....       LCALL   ?XSTACK_DISP0_8
   \   0001AA   AC82         MOV     R4,DPL
   \   0001AC   AD83         MOV     R5,DPH
   \   0001AE   7402         MOV     A,#0x2
   \   0001B0   12....       LCALL   ?XSTACK_DISP0_8
   \   0001B3   AA82         MOV     R2,DPL
   \   0001B5   AB83         MOV     R3,DPH
   \   0001B7   12....       LCALL   ??memcpy?relay
   \   0001BA   7402         MOV     A,#0x2
   \   0001BC   12....       LCALL   ?DEALLOC_XSTACK8
    549              if (orient & 4) {
   \   0001BF   EE           MOV     A,R6
   \   0001C0   5404         ANL     A,#0x4
   \   0001C2   6013         JZ      ??dmp_set_orientation_3
    550                  gyro_regs[0] |= 1;
   \   0001C4   7403         MOV     A,#0x3
   \   0001C6   12....       LCALL   ?XSTACK_DISP0_8
   \   0001C9   E0           MOVX    A,@DPTR
   \   0001CA   D2E0         SETB    0xE0 /* A   */.0
   \   0001CC   F0           MOVX    @DPTR,A
    551                  accel_regs[0] |= 1;
   \   0001CD   85..82       MOV     DPL,?XSP + 0
   \   0001D0   85..83       MOV     DPH,?XSP + 1
   \   0001D3   E0           MOVX    A,@DPTR
   \   0001D4   D2E0         SETB    0xE0 /* A   */.0
   \   0001D6   F0           MOVX    @DPTR,A
    552              }
    553              if (orient & 0x20) {
   \                     ??dmp_set_orientation_3:
   \   0001D7   EE           MOV     A,R6
   \   0001D8   5420         ANL     A,#0x20
   \   0001DA   6012         JZ      ??dmp_set_orientation_4
    554                  gyro_regs[1] |= 1;
   \   0001DC   7404         MOV     A,#0x4
   \   0001DE   12....       LCALL   ?XSTACK_DISP0_8
   \   0001E1   E0           MOVX    A,@DPTR
   \   0001E2   D2E0         SETB    0xE0 /* A   */.0
   \   0001E4   F0           MOVX    @DPTR,A
    555                  accel_regs[1] |= 1;
   \   0001E5   7401         MOV     A,#0x1
   \   0001E7   12....       LCALL   ?XSTACK_DISP0_8
   \   0001EA   E0           MOVX    A,@DPTR
   \   0001EB   D2E0         SETB    0xE0 /* A   */.0
   \   0001ED   F0           MOVX    @DPTR,A
    556              }
    557              if (orient & 0x100) {
   \                     ??dmp_set_orientation_4:
   \   0001EE   EF           MOV     A,R7
   \   0001EF   5401         ANL     A,#0x1
   \   0001F1   6012         JZ      ??dmp_set_orientation_5
    558                  gyro_regs[2] |= 1;
   \   0001F3   7405         MOV     A,#0x5
   \   0001F5   12....       LCALL   ?XSTACK_DISP0_8
   \   0001F8   E0           MOVX    A,@DPTR
   \   0001F9   D2E0         SETB    0xE0 /* A   */.0
   \   0001FB   F0           MOVX    @DPTR,A
    559                  accel_regs[2] |= 1;
   \   0001FC   7402         MOV     A,#0x2
   \   0001FE   12....       LCALL   ?XSTACK_DISP0_8
   \   000201   E0           MOVX    A,@DPTR
   \   000202   D2E0         SETB    0xE0 /* A   */.0
   \   000204   F0           MOVX    @DPTR,A
    560              }
    561          
    562              /* Chip-to-body, sign only. */
    563              if (mpu_write_mem(FCFG_3, 3, gyro_regs))
   \                     ??dmp_set_orientation_5:
   \   000205                ; Setup parameters for call to function mpu_write_mem
   \   000205   7403         MOV     A,#0x3
   \   000207   12....       LCALL   ?XSTACK_DISP0_8
   \   00020A   8582..       MOV     ?V0 + 0,DPL
   \   00020D   8583..       MOV     ?V0 + 1,DPH
   \   000210   78..         MOV     R0,#?V0 + 0
   \   000212   12....       LCALL   ?PUSH_XSTACK_I_TWO
   \   000215   7C03         MOV     R4,#0x3
   \   000217   7D00         MOV     R5,#0x0
   \   000219   7A40         MOV     R2,#0x40
   \   00021B   7B04         MOV     R3,#0x4
   \   00021D   12....       LCALL   ??mpu_write_mem?relay
   \   000220   7402         MOV     A,#0x2
   \   000222   12....       LCALL   ?DEALLOC_XSTACK8
   \   000225   8B..         MOV     ?V0 + 1,R3
   \   000227   EA           MOV     A,R2
   \   000228   45..         ORL     A,?V0 + 1
   \   00022A   6003         JZ      $+5
   \   00022C   02....       LJMP    ??dmp_set_orientation_1 & 0xFFFF
    564                  return -1;
    565              if (mpu_write_mem(FCFG_7, 3, accel_regs))
   \   00022F                ; Setup parameters for call to function mpu_write_mem
   \   00022F   85..82       MOV     DPL,?XSP + 0
   \   000232   85..83       MOV     DPH,?XSP + 1
   \   000235   8582..       MOV     ?V0 + 0,DPL
   \   000238   8583..       MOV     ?V0 + 1,DPH
   \   00023B   78..         MOV     R0,#?V0 + 0
   \   00023D   12....       LCALL   ?PUSH_XSTACK_I_TWO
   \   000240   7C03         MOV     R4,#0x3
   \   000242   7D00         MOV     R5,#0x0
   \   000244   7A31         MOV     R2,#0x31
   \   000246   7B04         MOV     R3,#0x4
   \   000248   12....       LCALL   ??mpu_write_mem?relay
   \   00024B   7402         MOV     A,#0x2
   \   00024D   12....       LCALL   ?DEALLOC_XSTACK8
   \   000250   8B..         MOV     ?V0 + 1,R3
   \   000252   EA           MOV     A,R2
   \   000253   45..         ORL     A,?V0 + 1
   \   000255   6003         JZ      $+5
   \   000257   02....       LJMP    ??dmp_set_orientation_1 & 0xFFFF
    566                  return -1;
    567              dmp.orient = orient;
   \   00025A   90....       MOV     DPTR,#dmp + 4
   \   00025D   EE           MOV     A,R6
   \   00025E   F0           MOVX    @DPTR,A
   \   00025F   A3           INC     DPTR
   \   000260   EF           MOV     A,R7
   \   000261   F0           MOVX    @DPTR,A
    568              return 0;
   \   000262   7A00         MOV     R2,#0x0
   \   000264   7B00         MOV     R3,#0x0
   \                     ??dmp_set_orientation_2:
   \   000266   7412         MOV     A,#0x12
   \   000268   12....       LCALL   ?DEALLOC_XSTACK8
   \   00026B   7F02         MOV     R7,#0x2
   \   00026D   02....       LJMP    ?BANKED_LEAVE_XDATA
    569          }
    570          
    571          /**
    572           *  @brief      Push gyro biases to the DMP.
    573           *  Because the gyro integration is handled in the DMP, any gyro biases
    574           *  calculated by the MPL should be pushed down to DMP memory to remove
    575           *  3-axis quaternion drift.
    576           *  \n NOTE: If the DMP-based gyro calibration is enabled, the DMP will
    577           *  overwrite the biases written to this location once a new one is computed.
    578           *  @param[in]  bias    Gyro biases in q16.
    579           *  @return     0 if successful.
    580           */

   \                                 In  segment BANKED_CODE, align 1, keep-with-next
    581          int dmp_set_gyro_bias(long *bias)
   \                     dmp_set_gyro_bias:
    582          {
   \   000000   74F0         MOV     A,#-0x10
   \   000002   12....       LCALL   ?BANKED_ENTER_XDATA
   \   000005                ; Saved register size: 16
   \   000005                ; Auto size: 16
   \   000005   74F0         MOV     A,#-0x10
   \   000007   12....       LCALL   ?ALLOC_XSTACK8
   \   00000A   8A..         MOV     ?V0 + 0,R2
   \   00000C   8B..         MOV     ?V0 + 1,R3
    583              long gyro_bias_body[3];
    584              unsigned char regs[4];
    585          
    586              gyro_bias_body[0] = bias[dmp.orient & 3];
   \   00000E   90....       MOV     DPTR,#dmp + 4
   \   000011   E0           MOVX    A,@DPTR
   \   000012   FE           MOV     R6,A
   \   000013   A3           INC     DPTR
   \   000014   E0           MOVX    A,@DPTR
   \   000015   FF           MOV     R7,A
   \   000016   EE           MOV     A,R6
   \   000017   5403         ANL     A,#0x3
   \   000019   F5..         MOV     ?V0 + 2,A
   \   00001B   75..00       MOV     ?V0 + 3,#0x0
   \   00001E   7402         MOV     A,#0x2
   \   000020   78..         MOV     R0,#?V0 + 2
   \   000022   12....       LCALL   ?S_SHL
   \   000025   EA           MOV     A,R2
   \   000026   25..         ADD     A,?V0 + 2
   \   000028   F582         MOV     DPL,A
   \   00002A   EB           MOV     A,R3
   \   00002B   3400         ADDC    A,#0x0
   \   00002D   F583         MOV     DPH,A
   \   00002F   12....       LCALL   ?XLOAD_R2345
   \   000032   7404         MOV     A,#0x4
   \   000034   12....       LCALL   ?XSTACK_DISP0_8
   \   000037   12....       LCALL   ?XSTORE_R2345
    587              if (dmp.orient & 4)
   \   00003A   EE           MOV     A,R6
   \   00003B   5404         ANL     A,#0x4
   \   00003D   6019         JZ      ??dmp_set_gyro_bias_0
    588                  gyro_bias_body[0] *= -1;
   \   00003F   7404         MOV     A,#0x4
   \   000041   12....       LCALL   ?XSTACK_DISP0_8
   \   000044   78..         MOV     R0,#?V0 + 4
   \   000046   12....       LCALL   ?L_MOV_X
   \   000049   78..         MOV     R0,#?V0 + 4
   \   00004B   12....       LCALL   ?L_NEG
   \   00004E   7404         MOV     A,#0x4
   \   000050   12....       LCALL   ?XSTACK_DISP0_8
   \   000053   78..         MOV     R0,#?V0 + 4
   \   000055   12....       LCALL   ?L_MOV_TO_X
    589              gyro_bias_body[1] = bias[(dmp.orient >> 3) & 3];
   \                     ??dmp_set_gyro_bias_0:
   \   000058   EE           MOV     A,R6
   \   000059   13           RRC     A
   \   00005A   13           RRC     A
   \   00005B   13           RRC     A
   \   00005C   541F         ANL     A,#0x1f
   \   00005E   5403         ANL     A,#0x3
   \   000060   F5..         MOV     ?V0 + 2,A
   \   000062   7402         MOV     A,#0x2
   \   000064   78..         MOV     R0,#?V0 + 2
   \   000066   12....       LCALL   ?S_SHL
   \   000069   E5..         MOV     A,?V0 + 0
   \   00006B   25..         ADD     A,?V0 + 2
   \   00006D   F582         MOV     DPL,A
   \   00006F   E5..         MOV     A,?V0 + 1
   \   000071   3400         ADDC    A,#0x0
   \   000073   F583         MOV     DPH,A
   \   000075   78..         MOV     R0,#?V0 + 4
   \   000077   12....       LCALL   ?L_MOV_X
   \   00007A   7408         MOV     A,#0x8
   \   00007C   12....       LCALL   ?XSTACK_DISP0_8
   \   00007F   78..         MOV     R0,#?V0 + 4
   \   000081   12....       LCALL   ?L_MOV_TO_X
    590              if (dmp.orient & 0x20)
   \   000084   EE           MOV     A,R6
   \   000085   5420         ANL     A,#0x20
   \   000087   600F         JZ      ??dmp_set_gyro_bias_1
    591                  gyro_bias_body[1] *= -1;
   \   000089   78..         MOV     R0,#?V0 + 4
   \   00008B   12....       LCALL   ?L_NEG
   \   00008E   7408         MOV     A,#0x8
   \   000090   12....       LCALL   ?XSTACK_DISP0_8
   \   000093   78..         MOV     R0,#?V0 + 4
   \   000095   12....       LCALL   ?L_MOV_TO_X
    592              gyro_bias_body[2] = bias[(dmp.orient >> 6) & 3];
   \                     ??dmp_set_gyro_bias_1:
   \   000098   EE           MOV     A,R6
   \   000099   C4           SWAP    A
   \   00009A   540F         ANL     A,#0xf
   \   00009C   54FC         ANL     A,#0xfc
   \   00009E   F8           MOV     R0,A
   \   00009F   E5..         MOV     A,?V0 + 0
   \   0000A1   28           ADD     A,R0
   \   0000A2   F582         MOV     DPL,A
   \   0000A4   E5..         MOV     A,?V0 + 1
   \   0000A6   3400         ADDC    A,#0x0
   \   0000A8   F583         MOV     DPH,A
   \   0000AA   78..         MOV     R0,#?V0 + 0
   \   0000AC   12....       LCALL   ?L_MOV_X
   \   0000AF   740C         MOV     A,#0xc
   \   0000B1   12....       LCALL   ?XSTACK_DISP0_8
   \   0000B4   78..         MOV     R0,#?V0 + 0
   \   0000B6   12....       LCALL   ?L_MOV_TO_X
    593              if (dmp.orient & 0x100)
   \   0000B9   EF           MOV     A,R7
   \   0000BA   5401         ANL     A,#0x1
   \   0000BC   600F         JZ      ??dmp_set_gyro_bias_2
    594                  gyro_bias_body[2] *= -1;
   \   0000BE   78..         MOV     R0,#?V0 + 0
   \   0000C0   12....       LCALL   ?L_NEG
   \   0000C3   740C         MOV     A,#0xc
   \   0000C5   12....       LCALL   ?XSTACK_DISP0_8
   \   0000C8   78..         MOV     R0,#?V0 + 0
   \   0000CA   12....       LCALL   ?L_MOV_TO_X
    595          
    596          #ifdef EMPL_NO_64BIT
    597              gyro_bias_body[0] = (long)(((float)gyro_bias_body[0] * GYRO_SF) / 1073741824.f);
    598              gyro_bias_body[1] = (long)(((float)gyro_bias_body[1] * GYRO_SF) / 1073741824.f);
    599              gyro_bias_body[2] = (long)(((float)gyro_bias_body[2] * GYRO_SF) / 1073741824.f);
    600          #else
    601              gyro_bias_body[0] = (long)(((long long)gyro_bias_body[0] * GYRO_SF) >> 30);
   \                     ??dmp_set_gyro_bias_2:
   \   0000CD   7404         MOV     A,#0x4
   \   0000CF   12....       LCALL   ?XSTACK_DISP0_8
   \   0000D2   78..         MOV     R0,#?V0 + 0
   \   0000D4   12....       LCALL   ?L_MOV_X
   \   0000D7   90....       MOV     DPTR,#__Constant_3b86e0
   \   0000DA   78..         MOV     R0,#?V0 + 4
   \   0000DC   12....       LCALL   ?L_MOV_X
   \   0000DF   78..         MOV     R0,#?V0 + 0
   \   0000E1   79..         MOV     R1,#?V0 + 4
   \   0000E3   12....       LCALL   ?L_MUL
   \   0000E6   741E         MOV     A,#0x1e
   \   0000E8   78..         MOV     R0,#?V0 + 0
   \   0000EA   12....       LCALL   ?UL_SHR
   \   0000ED   7404         MOV     A,#0x4
   \   0000EF   12....       LCALL   ?XSTACK_DISP0_8
   \   0000F2   78..         MOV     R0,#?V0 + 0
   \   0000F4   12....       LCALL   ?L_MOV_TO_X
    602              gyro_bias_body[1] = (long)(((long long)gyro_bias_body[1] * GYRO_SF) >> 30);
   \   0000F7   7408         MOV     A,#0x8
   \   0000F9   12....       LCALL   ?XSTACK_DISP0_8
   \   0000FC   78..         MOV     R0,#?V0 + 0
   \   0000FE   12....       LCALL   ?L_MOV_X
   \   000101   90....       MOV     DPTR,#__Constant_3b86e0
   \   000104   78..         MOV     R0,#?V0 + 4
   \   000106   12....       LCALL   ?L_MOV_X
   \   000109   78..         MOV     R0,#?V0 + 0
   \   00010B   79..         MOV     R1,#?V0 + 4
   \   00010D   12....       LCALL   ?L_MUL
   \   000110   741E         MOV     A,#0x1e
   \   000112   78..         MOV     R0,#?V0 + 0
   \   000114   12....       LCALL   ?UL_SHR
   \   000117   7408         MOV     A,#0x8
   \   000119   12....       LCALL   ?XSTACK_DISP0_8
   \   00011C   78..         MOV     R0,#?V0 + 0
   \   00011E   12....       LCALL   ?L_MOV_TO_X
    603              gyro_bias_body[2] = (long)(((long long)gyro_bias_body[2] * GYRO_SF) >> 30);
   \   000121   740C         MOV     A,#0xc
   \   000123   12....       LCALL   ?XSTACK_DISP0_8
   \   000126   78..         MOV     R0,#?V0 + 0
   \   000128   12....       LCALL   ?L_MOV_X
   \   00012B   90....       MOV     DPTR,#__Constant_3b86e0
   \   00012E   78..         MOV     R0,#?V0 + 4
   \   000130   12....       LCALL   ?L_MOV_X
   \   000133   78..         MOV     R0,#?V0 + 0
   \   000135   79..         MOV     R1,#?V0 + 4
   \   000137   12....       LCALL   ?L_MUL
   \   00013A   741E         MOV     A,#0x1e
   \   00013C   78..         MOV     R0,#?V0 + 0
   \   00013E   12....       LCALL   ?UL_SHR
   \   000141   740C         MOV     A,#0xc
   \   000143   12....       LCALL   ?XSTACK_DISP0_8
   \   000146   78..         MOV     R0,#?V0 + 0
   \   000148   12....       LCALL   ?L_MOV_TO_X
    604          #endif
    605          
    606              regs[0] = (unsigned char)((gyro_bias_body[0] >> 24) & 0xFF);
   \   00014B   7404         MOV     A,#0x4
   \   00014D   12....       LCALL   ?XSTACK_DISP0_8
   \   000150   78..         MOV     R0,#?V0 + 0
   \   000152   12....       LCALL   ?L_MOV_X
   \   000155   7418         MOV     A,#0x18
   \   000157   78..         MOV     R0,#?V0 + 0
   \   000159   12....       LCALL   ?SL_SHR
   \   00015C   85..82       MOV     DPL,?XSP + 0
   \   00015F   85..83       MOV     DPH,?XSP + 1
   \   000162   E5..         MOV     A,?V0 + 0
   \   000164   F0           MOVX    @DPTR,A
    607              regs[1] = (unsigned char)((gyro_bias_body[0] >> 16) & 0xFF);
   \   000165   7404         MOV     A,#0x4
   \   000167   12....       LCALL   ?XSTACK_DISP0_8
   \   00016A   78..         MOV     R0,#?V0 + 0
   \   00016C   12....       LCALL   ?L_MOV_X
   \   00016F   7410         MOV     A,#0x10
   \   000171   78..         MOV     R0,#?V0 + 0
   \   000173   12....       LCALL   ?SL_SHR
   \   000176   04           INC     A
   \   000177   12....       LCALL   ?XSTACK_DISP0_8
   \   00017A   E5..         MOV     A,?V0 + 0
   \   00017C   F0           MOVX    @DPTR,A
    608              regs[2] = (unsigned char)((gyro_bias_body[0] >> 8) & 0xFF);
   \   00017D   7404         MOV     A,#0x4
   \   00017F   12....       LCALL   ?XSTACK_DISP0_8
   \   000182   78..         MOV     R0,#?V0 + 0
   \   000184   12....       LCALL   ?L_MOV_X
   \   000187   7408         MOV     A,#0x8
   \   000189   78..         MOV     R0,#?V0 + 0
   \   00018B   12....       LCALL   ?SS_SHR
   \   00018E   7402         MOV     A,#0x2
   \   000190   12....       LCALL   ?XSTACK_DISP0_8
   \   000193   E5..         MOV     A,?V0 + 0
   \   000195   F0           MOVX    @DPTR,A
    609              regs[3] = (unsigned char)(gyro_bias_body[0] & 0xFF);
   \   000196   7404         MOV     A,#0x4
   \   000198   12....       LCALL   ?XSTACK_DISP0_8
   \   00019B   78..         MOV     R0,#?V0 + 0
   \   00019D   12....       LCALL   ?L_MOV_X
   \   0001A0   7403         MOV     A,#0x3
   \   0001A2   12....       LCALL   ?XSTACK_DISP0_8
   \   0001A5   E5..         MOV     A,?V0 + 0
   \   0001A7   F0           MOVX    @DPTR,A
    610              if (mpu_write_mem(D_EXT_GYRO_BIAS_X, 4, regs))
   \   0001A8                ; Setup parameters for call to function mpu_write_mem
   \   0001A8   85..82       MOV     DPL,?XSP + 0
   \   0001AB   85..83       MOV     DPH,?XSP + 1
   \   0001AE   8582..       MOV     ?V0 + 0,DPL
   \   0001B1   8583..       MOV     ?V0 + 1,DPH
   \   0001B4   78..         MOV     R0,#?V0 + 0
   \   0001B6   12....       LCALL   ?PUSH_XSTACK_I_TWO
   \   0001B9   7C04         MOV     R4,#0x4
   \   0001BB   7D00         MOV     R5,#0x0
   \   0001BD   7AD0         MOV     R2,#-0x30
   \   0001BF   7B03         MOV     R3,#0x3
   \   0001C1   12....       LCALL   ??mpu_write_mem?relay
   \   0001C4   7402         MOV     A,#0x2
   \   0001C6   12....       LCALL   ?DEALLOC_XSTACK8
   \   0001C9   8B..         MOV     ?V0 + 1,R3
   \   0001CB   EA           MOV     A,R2
   \   0001CC   45..         ORL     A,?V0 + 1
   \   0001CE   6007         JZ      ??dmp_set_gyro_bias_3
    611                  return -1;
   \                     ??dmp_set_gyro_bias_4:
   \   0001D0   7AFF         MOV     R2,#-0x1
   \   0001D2   7BFF         MOV     R3,#-0x1
   \   0001D4   02....       LJMP    ??dmp_set_gyro_bias_5 & 0xFFFF
    612          
    613              regs[0] = (unsigned char)((gyro_bias_body[1] >> 24) & 0xFF);
   \                     ??dmp_set_gyro_bias_3:
   \   0001D7   7408         MOV     A,#0x8
   \   0001D9   12....       LCALL   ?XSTACK_DISP0_8
   \   0001DC   78..         MOV     R0,#?V0 + 4
   \   0001DE   12....       LCALL   ?L_MOV_X
   \   0001E1   85....       MOV     ?V0 + 0,?V0 + 4
   \   0001E4   85....       MOV     ?V0 + 1,?V0 + 5
   \   0001E7   85....       MOV     ?V0 + 2,?V0 + 6
   \   0001EA   85....       MOV     ?V0 + 3,?V0 + 7
   \   0001ED   7418         MOV     A,#0x18
   \   0001EF   78..         MOV     R0,#?V0 + 0
   \   0001F1   12....       LCALL   ?SL_SHR
   \   0001F4   85..82       MOV     DPL,?XSP + 0
   \   0001F7   85..83       MOV     DPH,?XSP + 1
   \   0001FA   E5..         MOV     A,?V0 + 0
   \   0001FC   F0           MOVX    @DPTR,A
    614              regs[1] = (unsigned char)((gyro_bias_body[1] >> 16) & 0xFF);
   \   0001FD   85....       MOV     ?V0 + 0,?V0 + 4
   \   000200   85....       MOV     ?V0 + 1,?V0 + 5
   \   000203   85....       MOV     ?V0 + 2,?V0 + 6
   \   000206   85....       MOV     ?V0 + 3,?V0 + 7
   \   000209   7410         MOV     A,#0x10
   \   00020B   78..         MOV     R0,#?V0 + 0
   \   00020D   12....       LCALL   ?SL_SHR
   \   000210   04           INC     A
   \   000211   12....       LCALL   ?XSTACK_DISP0_8
   \   000214   E5..         MOV     A,?V0 + 0
   \   000216   F0           MOVX    @DPTR,A
    615              regs[2] = (unsigned char)((gyro_bias_body[1] >> 8) & 0xFF);
   \   000217   85....       MOV     ?V0 + 0,?V0 + 4
   \   00021A   85....       MOV     ?V0 + 1,?V0 + 5
   \   00021D   7408         MOV     A,#0x8
   \   00021F   78..         MOV     R0,#?V0 + 0
   \   000221   12....       LCALL   ?SS_SHR
   \   000224   7402         MOV     A,#0x2
   \   000226   12....       LCALL   ?XSTACK_DISP0_8
   \   000229   E5..         MOV     A,?V0 + 0
   \   00022B   F0           MOVX    @DPTR,A
    616              regs[3] = (unsigned char)(gyro_bias_body[1] & 0xFF);
   \   00022C   7403         MOV     A,#0x3
   \   00022E   12....       LCALL   ?XSTACK_DISP0_8
   \   000231   E5..         MOV     A,?V0 + 4
   \   000233   F0           MOVX    @DPTR,A
    617              if (mpu_write_mem(D_EXT_GYRO_BIAS_Y, 4, regs))
   \   000234                ; Setup parameters for call to function mpu_write_mem
   \   000234   85..82       MOV     DPL,?XSP + 0
   \   000237   85..83       MOV     DPH,?XSP + 1
   \   00023A   8582..       MOV     ?V0 + 0,DPL
   \   00023D   8583..       MOV     ?V0 + 1,DPH
   \   000240   78..         MOV     R0,#?V0 + 0
   \   000242   12....       LCALL   ?PUSH_XSTACK_I_TWO
   \   000245   7C04         MOV     R4,#0x4
   \   000247   7D00         MOV     R5,#0x0
   \   000249   7AD4         MOV     R2,#-0x2c
   \   00024B   7B03         MOV     R3,#0x3
   \   00024D   12....       LCALL   ??mpu_write_mem?relay
   \   000250   7402         MOV     A,#0x2
   \   000252   12....       LCALL   ?DEALLOC_XSTACK8
   \   000255   8B..         MOV     ?V0 + 1,R3
   \   000257   EA           MOV     A,R2
   \   000258   45..         ORL     A,?V0 + 1
   \   00025A   6003         JZ      $+5
   \   00025C   02....       LJMP    ??dmp_set_gyro_bias_4 & 0xFFFF
    618                  return -1;
    619          
    620              regs[0] = (unsigned char)((gyro_bias_body[2] >> 24) & 0xFF);
   \   00025F   740C         MOV     A,#0xc
   \   000261   12....       LCALL   ?XSTACK_DISP0_8
   \   000264   78..         MOV     R0,#?V0 + 4
   \   000266   12....       LCALL   ?L_MOV_X
   \   000269   85....       MOV     ?V0 + 0,?V0 + 4
   \   00026C   85....       MOV     ?V0 + 1,?V0 + 5
   \   00026F   85....       MOV     ?V0 + 2,?V0 + 6
   \   000272   85....       MOV     ?V0 + 3,?V0 + 7
   \   000275   7418         MOV     A,#0x18
   \   000277   78..         MOV     R0,#?V0 + 0
   \   000279   12....       LCALL   ?SL_SHR
   \   00027C   85..82       MOV     DPL,?XSP + 0
   \   00027F   85..83       MOV     DPH,?XSP + 1
   \   000282   E5..         MOV     A,?V0 + 0
   \   000284   F0           MOVX    @DPTR,A
    621              regs[1] = (unsigned char)((gyro_bias_body[2] >> 16) & 0xFF);
   \   000285   85....       MOV     ?V0 + 0,?V0 + 4
   \   000288   85....       MOV     ?V0 + 1,?V0 + 5
   \   00028B   85....       MOV     ?V0 + 2,?V0 + 6
   \   00028E   85....       MOV     ?V0 + 3,?V0 + 7
   \   000291   7410         MOV     A,#0x10
   \   000293   78..         MOV     R0,#?V0 + 0
   \   000295   12....       LCALL   ?SL_SHR
   \   000298   04           INC     A
   \   000299   12....       LCALL   ?XSTACK_DISP0_8
   \   00029C   E5..         MOV     A,?V0 + 0
   \   00029E   F0           MOVX    @DPTR,A
    622              regs[2] = (unsigned char)((gyro_bias_body[2] >> 8) & 0xFF);
   \   00029F   85....       MOV     ?V0 + 0,?V0 + 4
   \   0002A2   85....       MOV     ?V0 + 1,?V0 + 5
   \   0002A5   7408         MOV     A,#0x8
   \   0002A7   78..         MOV     R0,#?V0 + 0
   \   0002A9   12....       LCALL   ?SS_SHR
   \   0002AC   7402         MOV     A,#0x2
   \   0002AE   12....       LCALL   ?XSTACK_DISP0_8
   \   0002B1   E5..         MOV     A,?V0 + 0
   \   0002B3   F0           MOVX    @DPTR,A
    623              regs[3] = (unsigned char)(gyro_bias_body[2] & 0xFF);
   \   0002B4   7403         MOV     A,#0x3
   \   0002B6   12....       LCALL   ?XSTACK_DISP0_8
   \   0002B9   E5..         MOV     A,?V0 + 4
   \   0002BB   F0           MOVX    @DPTR,A
    624              return mpu_write_mem(D_EXT_GYRO_BIAS_Z, 4, regs);
   \   0002BC                ; Setup parameters for call to function mpu_write_mem
   \   0002BC   85..82       MOV     DPL,?XSP + 0
   \   0002BF   85..83       MOV     DPH,?XSP + 1
   \   0002C2   8582..       MOV     ?V0 + 0,DPL
   \   0002C5   8583..       MOV     ?V0 + 1,DPH
   \   0002C8   78..         MOV     R0,#?V0 + 0
   \   0002CA   12....       LCALL   ?PUSH_XSTACK_I_TWO
   \   0002CD   7C04         MOV     R4,#0x4
   \   0002CF   7D00         MOV     R5,#0x0
   \   0002D1   7AD8         MOV     R2,#-0x28
   \   0002D3   7B03         MOV     R3,#0x3
   \   0002D5   12....       LCALL   ??mpu_write_mem?relay
   \   0002D8   7402         MOV     A,#0x2
   \   0002DA   12....       LCALL   ?DEALLOC_XSTACK8
   \                     ??dmp_set_gyro_bias_5:
   \   0002DD   7410         MOV     A,#0x10
   \   0002DF   12....       LCALL   ?DEALLOC_XSTACK8
   \   0002E2   7F08         MOV     R7,#0x8
   \   0002E4   02....       LJMP    ?BANKED_LEAVE_XDATA
    625          }
    626          
    627          /**
    628           *  @brief      Push accel biases to the DMP.
    629           *  These biases will be removed from the DMP 6-axis quaternion.
    630           *  @param[in]  bias    Accel biases in q16.
    631           *  @return     0 if successful.
    632           */

   \                                 In  segment BANKED_CODE, align 1, keep-with-next
    633          int dmp_set_accel_bias(long *bias)
   \                     dmp_set_accel_bias:
    634          {
   \   000000   74EC         MOV     A,#-0x14
   \   000002   12....       LCALL   ?BANKED_ENTER_XDATA
   \   000005                ; Saved register size: 20
   \   000005                ; Auto size: 26
   \   000005   74E6         MOV     A,#-0x1a
   \   000007   12....       LCALL   ?ALLOC_XSTACK8
   \   00000A   8A..         MOV     ?V0 + 0,R2
   \   00000C   8B..         MOV     ?V0 + 1,R3
    635              long accel_bias_body[3];
    636              unsigned char regs[12];
    637              long long accel_sf;
    638              unsigned short accel_sens;
    639          
    640              mpu_get_accel_sens(&accel_sens);
   \   00000E                ; Setup parameters for call to function mpu_get_accel_sens
   \   00000E   85..82       MOV     DPL,?XSP + 0
   \   000011   85..83       MOV     DPH,?XSP + 1
   \   000014   AA82         MOV     R2,DPL
   \   000016   AB83         MOV     R3,DPH
   \   000018   12....       LCALL   ??mpu_get_accel_sens?relay
    641              accel_sf = (long long)accel_sens << 15;
   \   00001B   85..82       MOV     DPL,?XSP + 0
   \   00001E   85..83       MOV     DPH,?XSP + 1
   \   000021   E0           MOVX    A,@DPTR
   \   000022   F5..         MOV     ?V0 + 4,A
   \   000024   A3           INC     DPTR
   \   000025   E0           MOVX    A,@DPTR
   \   000026   F5..         MOV     ?V0 + 5,A
   \   000028   E4           CLR     A
   \   000029   F5..         MOV     ?V0 + 6,A
   \   00002B   F5..         MOV     ?V0 + 7,A
   \   00002D   740F         MOV     A,#0xf
   \   00002F   78..         MOV     R0,#?V0 + 4
   \   000031   12....       LCALL   ?L_SHL
    642              //__no_operation();
    643          
    644              accel_bias_body[0] = bias[dmp.orient & 3];
   \   000034   90....       MOV     DPTR,#dmp + 4
   \   000037   E0           MOVX    A,@DPTR
   \   000038   FE           MOV     R6,A
   \   000039   A3           INC     DPTR
   \   00003A   E0           MOVX    A,@DPTR
   \   00003B   FF           MOV     R7,A
   \   00003C   EE           MOV     A,R6
   \   00003D   5403         ANL     A,#0x3
   \   00003F   F5..         MOV     ?V0 + 2,A
   \   000041   75..00       MOV     ?V0 + 3,#0x0
   \   000044   7402         MOV     A,#0x2
   \   000046   78..         MOV     R0,#?V0 + 2
   \   000048   12....       LCALL   ?S_SHL
   \   00004B   E5..         MOV     A,?V0 + 0
   \   00004D   25..         ADD     A,?V0 + 2
   \   00004F   F582         MOV     DPL,A
   \   000051   E5..         MOV     A,?V0 + 1
   \   000053   3400         ADDC    A,#0x0
   \   000055   F583         MOV     DPH,A
   \   000057   12....       LCALL   ?XLOAD_R2345
   \   00005A   7402         MOV     A,#0x2
   \   00005C   12....       LCALL   ?XSTACK_DISP0_8
   \   00005F   12....       LCALL   ?XSTORE_R2345
    645              if (dmp.orient & 4)
   \   000062   EE           MOV     A,R6
   \   000063   5404         ANL     A,#0x4
   \   000065   6019         JZ      ??dmp_set_accel_bias_0
    646                  accel_bias_body[0] *= -1;
   \   000067   7402         MOV     A,#0x2
   \   000069   12....       LCALL   ?XSTACK_DISP0_8
   \   00006C   78..         MOV     R0,#?V0 + 8
   \   00006E   12....       LCALL   ?L_MOV_X
   \   000071   78..         MOV     R0,#?V0 + 8
   \   000073   12....       LCALL   ?L_NEG
   \   000076   7402         MOV     A,#0x2
   \   000078   12....       LCALL   ?XSTACK_DISP0_8
   \   00007B   78..         MOV     R0,#?V0 + 8
   \   00007D   12....       LCALL   ?L_MOV_TO_X
    647              accel_bias_body[1] = bias[(dmp.orient >> 3) & 3];
   \                     ??dmp_set_accel_bias_0:
   \   000080   EE           MOV     A,R6
   \   000081   13           RRC     A
   \   000082   13           RRC     A
   \   000083   13           RRC     A
   \   000084   541F         ANL     A,#0x1f
   \   000086   5403         ANL     A,#0x3
   \   000088   F5..         MOV     ?V0 + 2,A
   \   00008A   7402         MOV     A,#0x2
   \   00008C   78..         MOV     R0,#?V0 + 2
   \   00008E   12....       LCALL   ?S_SHL
   \   000091   E5..         MOV     A,?V0 + 0
   \   000093   25..         ADD     A,?V0 + 2
   \   000095   F582         MOV     DPL,A
   \   000097   E5..         MOV     A,?V0 + 1
   \   000099   3400         ADDC    A,#0x0
   \   00009B   F583         MOV     DPH,A
   \   00009D   78..         MOV     R0,#?V0 + 8
   \   00009F   12....       LCALL   ?L_MOV_X
   \   0000A2   7406         MOV     A,#0x6
   \   0000A4   12....       LCALL   ?XSTACK_DISP0_8
   \   0000A7   78..         MOV     R0,#?V0 + 8
   \   0000A9   12....       LCALL   ?L_MOV_TO_X
    648              if (dmp.orient & 0x20)
   \   0000AC   EE           MOV     A,R6
   \   0000AD   5420         ANL     A,#0x20
   \   0000AF   600F         JZ      ??dmp_set_accel_bias_1
    649                  accel_bias_body[1] *= -1;
   \   0000B1   78..         MOV     R0,#?V0 + 8
   \   0000B3   12....       LCALL   ?L_NEG
   \   0000B6   7406         MOV     A,#0x6
   \   0000B8   12....       LCALL   ?XSTACK_DISP0_8
   \   0000BB   78..         MOV     R0,#?V0 + 8
   \   0000BD   12....       LCALL   ?L_MOV_TO_X
    650              accel_bias_body[2] = bias[(dmp.orient >> 6) & 3];
   \                     ??dmp_set_accel_bias_1:
   \   0000C0   EE           MOV     A,R6
   \   0000C1   C4           SWAP    A
   \   0000C2   540F         ANL     A,#0xf
   \   0000C4   54FC         ANL     A,#0xfc
   \   0000C6   F8           MOV     R0,A
   \   0000C7   E5..         MOV     A,?V0 + 0
   \   0000C9   28           ADD     A,R0
   \   0000CA   F582         MOV     DPL,A
   \   0000CC   E5..         MOV     A,?V0 + 1
   \   0000CE   3400         ADDC    A,#0x0
   \   0000D0   F583         MOV     DPH,A
   \   0000D2   78..         MOV     R0,#?V0 + 0
   \   0000D4   12....       LCALL   ?L_MOV_X
   \   0000D7   740A         MOV     A,#0xa
   \   0000D9   12....       LCALL   ?XSTACK_DISP0_8
   \   0000DC   78..         MOV     R0,#?V0 + 0
   \   0000DE   12....       LCALL   ?L_MOV_TO_X
    651              if (dmp.orient & 0x100)
   \   0000E1   EF           MOV     A,R7
   \   0000E2   5401         ANL     A,#0x1
   \   0000E4   600F         JZ      ??dmp_set_accel_bias_2
    652                  accel_bias_body[2] *= -1;
   \   0000E6   78..         MOV     R0,#?V0 + 0
   \   0000E8   12....       LCALL   ?L_NEG
   \   0000EB   740A         MOV     A,#0xa
   \   0000ED   12....       LCALL   ?XSTACK_DISP0_8
   \   0000F0   78..         MOV     R0,#?V0 + 0
   \   0000F2   12....       LCALL   ?L_MOV_TO_X
    653          
    654          #ifdef EMPL_NO_64BIT
    655              accel_bias_body[0] = (long)(((float)accel_bias_body[0] * accel_sf) / 1073741824.f);
    656              accel_bias_body[1] = (long)(((float)accel_bias_body[1] * accel_sf) / 1073741824.f);
    657              accel_bias_body[2] = (long)(((float)accel_bias_body[2] * accel_sf) / 1073741824.f);
    658          #else
    659              accel_bias_body[0] = (long)(((long long)accel_bias_body[0] * accel_sf) >> 30);
   \                     ??dmp_set_accel_bias_2:
   \   0000F5   7402         MOV     A,#0x2
   \   0000F7   12....       LCALL   ?XSTACK_DISP0_8
   \   0000FA   78..         MOV     R0,#?V0 + 0
   \   0000FC   12....       LCALL   ?L_MOV_X
   \   0000FF   78..         MOV     R0,#?V0 + 0
   \   000101   79..         MOV     R1,#?V0 + 4
   \   000103   12....       LCALL   ?L_MUL
   \   000106   741E         MOV     A,#0x1e
   \   000108   78..         MOV     R0,#?V0 + 0
   \   00010A   12....       LCALL   ?SL_SHR
   \   00010D   7402         MOV     A,#0x2
   \   00010F   12....       LCALL   ?XSTACK_DISP0_8
   \   000112   78..         MOV     R0,#?V0 + 0
   \   000114   12....       LCALL   ?L_MOV_TO_X
    660              accel_bias_body[1] = (long)(((long long)accel_bias_body[1] * accel_sf) >> 30);
   \   000117   7406         MOV     A,#0x6
   \   000119   12....       LCALL   ?XSTACK_DISP0_8
   \   00011C   78..         MOV     R0,#?V0 + 0
   \   00011E   12....       LCALL   ?L_MOV_X
   \   000121   78..         MOV     R0,#?V0 + 0
   \   000123   79..         MOV     R1,#?V0 + 4
   \   000125   12....       LCALL   ?L_MUL
   \   000128   741E         MOV     A,#0x1e
   \   00012A   78..         MOV     R0,#?V0 + 0
   \   00012C   12....       LCALL   ?SL_SHR
   \   00012F   7406         MOV     A,#0x6
   \   000131   12....       LCALL   ?XSTACK_DISP0_8
   \   000134   78..         MOV     R0,#?V0 + 0
   \   000136   12....       LCALL   ?L_MOV_TO_X
    661              accel_bias_body[2] = (long)(((long long)accel_bias_body[2] * accel_sf) >> 30);
   \   000139   740A         MOV     A,#0xa
   \   00013B   12....       LCALL   ?XSTACK_DISP0_8
   \   00013E   78..         MOV     R0,#?V0 + 8
   \   000140   12....       LCALL   ?L_MOV_X
   \   000143   78..         MOV     R0,#?V0 + 8
   \   000145   79..         MOV     R1,#?V0 + 4
   \   000147   12....       LCALL   ?L_MUL
   \   00014A   741E         MOV     A,#0x1e
   \   00014C   78..         MOV     R0,#?V0 + 8
   \   00014E   12....       LCALL   ?SL_SHR
   \   000151   740A         MOV     A,#0xa
   \   000153   12....       LCALL   ?XSTACK_DISP0_8
   \   000156   78..         MOV     R0,#?V0 + 8
   \   000158   12....       LCALL   ?L_MOV_TO_X
    662          #endif
    663          
    664              regs[0] = (unsigned char)((accel_bias_body[0] >> 24) & 0xFF);
   \   00015B   7402         MOV     A,#0x2
   \   00015D   12....       LCALL   ?XSTACK_DISP0_8
   \   000160   78..         MOV     R0,#?V0 + 4
   \   000162   12....       LCALL   ?L_MOV_X
   \   000165   7418         MOV     A,#0x18
   \   000167   78..         MOV     R0,#?V0 + 4
   \   000169   12....       LCALL   ?SL_SHR
   \   00016C   740E         MOV     A,#0xe
   \   00016E   12....       LCALL   ?XSTACK_DISP0_8
   \   000171   E5..         MOV     A,?V0 + 4
   \   000173   F0           MOVX    @DPTR,A
    665              regs[1] = (unsigned char)((accel_bias_body[0] >> 16) & 0xFF);
   \   000174   7402         MOV     A,#0x2
   \   000176   12....       LCALL   ?XSTACK_DISP0_8
   \   000179   78..         MOV     R0,#?V0 + 4
   \   00017B   12....       LCALL   ?L_MOV_X
   \   00017E   7410         MOV     A,#0x10
   \   000180   78..         MOV     R0,#?V0 + 4
   \   000182   12....       LCALL   ?SL_SHR
   \   000185   740F         MOV     A,#0xf
   \   000187   12....       LCALL   ?XSTACK_DISP0_8
   \   00018A   E5..         MOV     A,?V0 + 4
   \   00018C   F0           MOVX    @DPTR,A
    666              regs[2] = (unsigned char)((accel_bias_body[0] >> 8) & 0xFF);
   \   00018D   7402         MOV     A,#0x2
   \   00018F   12....       LCALL   ?XSTACK_DISP0_8
   \   000192   78..         MOV     R0,#?V0 + 4
   \   000194   12....       LCALL   ?L_MOV_X
   \   000197   7408         MOV     A,#0x8
   \   000199   78..         MOV     R0,#?V0 + 4
   \   00019B   12....       LCALL   ?SS_SHR
   \   00019E   7410         MOV     A,#0x10
   \   0001A0   12....       LCALL   ?XSTACK_DISP0_8
   \   0001A3   E5..         MOV     A,?V0 + 4
   \   0001A5   F0           MOVX    @DPTR,A
    667              regs[3] = (unsigned char)(accel_bias_body[0] & 0xFF);
   \   0001A6   7402         MOV     A,#0x2
   \   0001A8   12....       LCALL   ?XSTACK_DISP0_8
   \   0001AB   78..         MOV     R0,#?V0 + 4
   \   0001AD   12....       LCALL   ?L_MOV_X
   \   0001B0   7411         MOV     A,#0x11
   \   0001B2   12....       LCALL   ?XSTACK_DISP0_8
   \   0001B5   E5..         MOV     A,?V0 + 4
   \   0001B7   F0           MOVX    @DPTR,A
    668              regs[4] = (unsigned char)((accel_bias_body[1] >> 24) & 0xFF);
   \   0001B8   85....       MOV     ?V0 + 4,?V0 + 0
   \   0001BB   85....       MOV     ?V0 + 5,?V0 + 1
   \   0001BE   85....       MOV     ?V0 + 6,?V0 + 2
   \   0001C1   85....       MOV     ?V0 + 7,?V0 + 3
   \   0001C4   7418         MOV     A,#0x18
   \   0001C6   78..         MOV     R0,#?V0 + 4
   \   0001C8   12....       LCALL   ?SL_SHR
   \   0001CB   7412         MOV     A,#0x12
   \   0001CD   12....       LCALL   ?XSTACK_DISP0_8
   \   0001D0   E5..         MOV     A,?V0 + 4
   \   0001D2   F0           MOVX    @DPTR,A
    669              regs[5] = (unsigned char)((accel_bias_body[1] >> 16) & 0xFF);
   \   0001D3   85....       MOV     ?V0 + 4,?V0 + 0
   \   0001D6   85....       MOV     ?V0 + 5,?V0 + 1
   \   0001D9   85....       MOV     ?V0 + 6,?V0 + 2
   \   0001DC   85....       MOV     ?V0 + 7,?V0 + 3
   \   0001DF   7410         MOV     A,#0x10
   \   0001E1   78..         MOV     R0,#?V0 + 4
   \   0001E3   12....       LCALL   ?SL_SHR
   \   0001E6   7413         MOV     A,#0x13
   \   0001E8   12....       LCALL   ?XSTACK_DISP0_8
   \   0001EB   E5..         MOV     A,?V0 + 4
   \   0001ED   F0           MOVX    @DPTR,A
    670              regs[6] = (unsigned char)((accel_bias_body[1] >> 8) & 0xFF);
   \   0001EE   85....       MOV     ?V0 + 4,?V0 + 0
   \   0001F1   85....       MOV     ?V0 + 5,?V0 + 1
   \   0001F4   7408         MOV     A,#0x8
   \   0001F6   78..         MOV     R0,#?V0 + 4
   \   0001F8   12....       LCALL   ?SS_SHR
   \   0001FB   7414         MOV     A,#0x14
   \   0001FD   12....       LCALL   ?XSTACK_DISP0_8
   \   000200   E5..         MOV     A,?V0 + 4
   \   000202   F0           MOVX    @DPTR,A
    671              regs[7] = (unsigned char)(accel_bias_body[1] & 0xFF);
   \   000203   7415         MOV     A,#0x15
   \   000205   12....       LCALL   ?XSTACK_DISP0_8
   \   000208   E5..         MOV     A,?V0 + 0
   \   00020A   F0           MOVX    @DPTR,A
    672              regs[8] = (unsigned char)((accel_bias_body[2] >> 24) & 0xFF);
   \   00020B   85....       MOV     ?V0 + 0,?V0 + 8
   \   00020E   85....       MOV     ?V0 + 1,?V0 + 9
   \   000211   85....       MOV     ?V0 + 2,?V0 + 10
   \   000214   85....       MOV     ?V0 + 3,?V0 + 11
   \   000217   7418         MOV     A,#0x18
   \   000219   78..         MOV     R0,#?V0 + 0
   \   00021B   12....       LCALL   ?SL_SHR
   \   00021E   7416         MOV     A,#0x16
   \   000220   12....       LCALL   ?XSTACK_DISP0_8
   \   000223   E5..         MOV     A,?V0 + 0
   \   000225   F0           MOVX    @DPTR,A
    673              regs[9] = (unsigned char)((accel_bias_body[2] >> 16) & 0xFF);
   \   000226   85....       MOV     ?V0 + 0,?V0 + 8
   \   000229   85....       MOV     ?V0 + 1,?V0 + 9
   \   00022C   85....       MOV     ?V0 + 2,?V0 + 10
   \   00022F   85....       MOV     ?V0 + 3,?V0 + 11
   \   000232   7410         MOV     A,#0x10
   \   000234   78..         MOV     R0,#?V0 + 0
   \   000236   12....       LCALL   ?SL_SHR
   \   000239   7417         MOV     A,#0x17
   \   00023B   12....       LCALL   ?XSTACK_DISP0_8
   \   00023E   E5..         MOV     A,?V0 + 0
   \   000240   F0           MOVX    @DPTR,A
    674              regs[10] = (unsigned char)((accel_bias_body[2] >> 8) & 0xFF);
   \   000241   85....       MOV     ?V0 + 0,?V0 + 8
   \   000244   85....       MOV     ?V0 + 1,?V0 + 9
   \   000247   7408         MOV     A,#0x8
   \   000249   78..         MOV     R0,#?V0 + 0
   \   00024B   12....       LCALL   ?SS_SHR
   \   00024E   7418         MOV     A,#0x18
   \   000250   12....       LCALL   ?XSTACK_DISP0_8
   \   000253   E5..         MOV     A,?V0 + 0
   \   000255   F0           MOVX    @DPTR,A
    675              regs[11] = (unsigned char)(accel_bias_body[2] & 0xFF);
   \   000256   7419         MOV     A,#0x19
   \   000258   12....       LCALL   ?XSTACK_DISP0_8
   \   00025B   E5..         MOV     A,?V0 + 8
   \   00025D   F0           MOVX    @DPTR,A
    676              return mpu_write_mem(D_ACCEL_BIAS, 12, regs);
   \   00025E                ; Setup parameters for call to function mpu_write_mem
   \   00025E   740E         MOV     A,#0xe
   \   000260   12....       LCALL   ?XSTACK_DISP0_8
   \   000263   8582..       MOV     ?V0 + 0,DPL
   \   000266   8583..       MOV     ?V0 + 1,DPH
   \   000269   78..         MOV     R0,#?V0 + 0
   \   00026B   12....       LCALL   ?PUSH_XSTACK_I_TWO
   \   00026E   7C0C         MOV     R4,#0xc
   \   000270   7D00         MOV     R5,#0x0
   \   000272   7A94         MOV     R2,#-0x6c
   \   000274   7B02         MOV     R3,#0x2
   \   000276   12....       LCALL   ??mpu_write_mem?relay
   \   000279   7402         MOV     A,#0x2
   \   00027B   12....       LCALL   ?DEALLOC_XSTACK8
   \   00027E   741A         MOV     A,#0x1a
   \   000280   12....       LCALL   ?DEALLOC_XSTACK8
   \   000283   7F0C         MOV     R7,#0xc
   \   000285   02....       LJMP    ?BANKED_LEAVE_XDATA
    677          }
    678          
    679          /**
    680           *  @brief      Set DMP output rate.
    681           *  Only used when DMP is on.
    682           *  @param[in]  rate    Desired fifo rate (Hz).
    683           *  @return     0 if successful.
    684           */

   \                                 In  segment BANKED_CODE, align 1, keep-with-next
    685          int dmp_set_fifo_rate(unsigned short rate)
   \                     dmp_set_fifo_rate:
    686          {
   \   000000   74F6         MOV     A,#-0xa
   \   000002   12....       LCALL   ?BANKED_ENTER_XDATA
   \   000005                ; Saved register size: 10
   \   000005                ; Auto size: 20
   \   000005   74EC         MOV     A,#-0x14
   \   000007   12....       LCALL   ?ALLOC_XSTACK8
   \   00000A   EA           MOV     A,R2
   \   00000B   FE           MOV     R6,A
   \   00000C   EB           MOV     A,R3
   \   00000D   FF           MOV     R7,A
    687              const unsigned char regs_end[12] = {DINAFE, DINAF2, DINAAB,
    688                  0xc4, DINAAA, DINAF1, DINADF, DINADF, 0xBB, 0xAF, DINADF, DINADF};
   \   00000E   90....       MOV     DPTR,#`?<Constant {254, 242, 171, 196, 170, 241, 223,`
   \   000011   C082         PUSH    DPL
   \   000013   C083         PUSH    DPH
   \   000015   7408         MOV     A,#0x8
   \   000017   12....       LCALL   ?XSTACK_DISP0_8
   \   00001A   AC82         MOV     R4,DPL
   \   00001C   AD83         MOV     R5,DPH
   \   00001E   D083         POP     DPH
   \   000020   D082         POP     DPL
   \   000022   740C         MOV     A,#0xc
   \   000024   12....       LCALL   ?MOVE_LONG8_XDATA_XDATA
    689              unsigned short div;
    690              unsigned char tmp[8];
    691          
    692              if (rate > DMP_SAMPLE_RATE)
   \   000027   C3           CLR     C
   \   000028   EE           MOV     A,R6
   \   000029   94C9         SUBB    A,#-0x37
   \   00002B   EF           MOV     A,R7
   \   00002C   9400         SUBB    A,#0x0
   \   00002E   4006         JC      ??dmp_set_fifo_rate_0
    693                  return -1;
   \                     ??dmp_set_fifo_rate_1:
   \   000030   7AFF         MOV     R2,#-0x1
   \   000032   7BFF         MOV     R3,#-0x1
   \   000034   807B         SJMP    ??dmp_set_fifo_rate_2
    694              div = DMP_SAMPLE_RATE / rate - 1;
   \                     ??dmp_set_fifo_rate_0:
   \   000036   78C8         MOV     R0,#-0x38
   \   000038   7900         MOV     R1,#0x0
   \   00003A   12....       LCALL   ?US_DIV_MOD
   \   00003D   E8           MOV     A,R0
   \   00003E   24FF         ADD     A,#-0x1
   \   000040   18           DEC     R0
   \   000041   E9           MOV     A,R1
   \   000042   34FF         ADDC    A,#-0x1
    695              tmp[0] = (unsigned char)((div >> 8) & 0xFF);
   \   000044   85..82       MOV     DPL,?XSP + 0
   \   000047   85..83       MOV     DPH,?XSP + 1
   \   00004A   F0           MOVX    @DPTR,A
    696              tmp[1] = (unsigned char)(div & 0xFF);
   \   00004B   E8           MOV     A,R0
   \   00004C   C0E0         PUSH    A
   \   00004E   7401         MOV     A,#0x1
   \   000050   12....       LCALL   ?XSTACK_DISP0_8
   \   000053   D0E0         POP     A
   \   000055   F0           MOVX    @DPTR,A
    697              if (mpu_write_mem(D_0_22, 2, tmp))
   \   000056                ; Setup parameters for call to function mpu_write_mem
   \   000056   85..82       MOV     DPL,?XSP + 0
   \   000059   85..83       MOV     DPH,?XSP + 1
   \   00005C   8582..       MOV     ?V0 + 0,DPL
   \   00005F   8583..       MOV     ?V0 + 1,DPH
   \   000062   78..         MOV     R0,#?V0 + 0
   \   000064   12....       LCALL   ?PUSH_XSTACK_I_TWO
   \   000067   7C02         MOV     R4,#0x2
   \   000069   7D00         MOV     R5,#0x0
   \   00006B   7A16         MOV     R2,#0x16
   \   00006D   7B02         MOV     R3,#0x2
   \   00006F   12....       LCALL   ??mpu_write_mem?relay
   \   000072   7402         MOV     A,#0x2
   \   000074   12....       LCALL   ?DEALLOC_XSTACK8
   \   000077   8B..         MOV     ?V0 + 1,R3
   \   000079   EA           MOV     A,R2
   \   00007A   45..         ORL     A,?V0 + 1
   \   00007C   70B2         JNZ     ??dmp_set_fifo_rate_1
    698                  return -1;
    699              if (mpu_write_mem(CFG_6, 12, (unsigned char*)regs_end))
   \   00007E                ; Setup parameters for call to function mpu_write_mem
   \   00007E   7408         MOV     A,#0x8
   \   000080   12....       LCALL   ?XSTACK_DISP0_8
   \   000083   8582..       MOV     ?V0 + 0,DPL
   \   000086   8583..       MOV     ?V0 + 1,DPH
   \   000089   78..         MOV     R0,#?V0 + 0
   \   00008B   12....       LCALL   ?PUSH_XSTACK_I_TWO
   \   00008E   7C0C         MOV     R4,#0xc
   \   000090   7D00         MOV     R5,#0x0
   \   000092   7AC1         MOV     R2,#-0x3f
   \   000094   7B0A         MOV     R3,#0xa
   \   000096   12....       LCALL   ??mpu_write_mem?relay
   \   000099   7402         MOV     A,#0x2
   \   00009B   12....       LCALL   ?DEALLOC_XSTACK8
   \   00009E   8B..         MOV     ?V0 + 1,R3
   \   0000A0   EA           MOV     A,R2
   \   0000A1   45..         ORL     A,?V0 + 1
   \   0000A3   708B         JNZ     ??dmp_set_fifo_rate_1
    700                  return -1;
    701          
    702              dmp.fifo_rate = rate;
   \   0000A5   90....       MOV     DPTR,#dmp + 8
   \   0000A8   EE           MOV     A,R6
   \   0000A9   F0           MOVX    @DPTR,A
   \   0000AA   A3           INC     DPTR
   \   0000AB   EF           MOV     A,R7
   \   0000AC   F0           MOVX    @DPTR,A
    703              return 0;
   \   0000AD   7A00         MOV     R2,#0x0
   \   0000AF   7B00         MOV     R3,#0x0
   \                     ??dmp_set_fifo_rate_2:
   \   0000B1   7414         MOV     A,#0x14
   \   0000B3   12....       LCALL   ?DEALLOC_XSTACK8
   \   0000B6   7F02         MOV     R7,#0x2
   \   0000B8   02....       LJMP    ?BANKED_LEAVE_XDATA
    704          }
    705          
    706          /**
    707           *  @brief      Get DMP output rate.
    708           *  @param[out] rate    Current fifo rate (Hz).
    709           *  @return     0 if successful.
    710           */

   \                                 In  segment BANKED_CODE, align 1, keep-with-next
    711          int dmp_get_fifo_rate(unsigned short *rate)
   \                     dmp_get_fifo_rate:
    712          {
   \   000000   C082         PUSH    DPL
   \   000002   C083         PUSH    DPH
   \   000004                ; Saved register size: 2
   \   000004                ; Auto size: 0
    713              rate[0] = dmp.fifo_rate;
   \   000004   90....       MOV     DPTR,#dmp + 8
   \   000007   E0           MOVX    A,@DPTR
   \   000008   F8           MOV     R0,A
   \   000009   A3           INC     DPTR
   \   00000A   E0           MOVX    A,@DPTR
   \   00000B   F9           MOV     R1,A
   \   00000C   8A82         MOV     DPL,R2
   \   00000E   8B83         MOV     DPH,R3
   \   000010   E8           MOV     A,R0
   \   000011   F0           MOVX    @DPTR,A
   \   000012   A3           INC     DPTR
   \   000013   E9           MOV     A,R1
   \   000014   F0           MOVX    @DPTR,A
    714              return 0;
   \   000015   7A00         MOV     R2,#0x0
   \   000017   7B00         MOV     R3,#0x0
   \   000019   D083         POP     DPH
   \   00001B   D082         POP     DPL
   \   00001D   02....       LJMP    ?BRET
    715          }
    716          
    717          /**
    718           *  @brief      Set tap threshold for a specific axis.
    719           *  @param[in]  axis    1, 2, and 4 for XYZ accel, respectively.
    720           *  @param[in]  thresh  Tap threshold, in mg/ms.
    721           *  @return     0 if successful.
    722           */

   \                                 In  segment BANKED_CODE, align 1, keep-with-next
    723          int dmp_set_tap_thresh(unsigned char axis, unsigned short thresh)
   \                     dmp_set_tap_thresh:
    724          {
   \   000000   74EC         MOV     A,#-0x14
   \   000002   12....       LCALL   ?BANKED_ENTER_XDATA
   \   000005                ; Saved register size: 20
   \   000005                ; Auto size: 5
   \   000005   74FB         MOV     A,#-0x5
   \   000007   12....       LCALL   ?ALLOC_XSTACK8
   \   00000A   E9           MOV     A,R1
   \   00000B   FE           MOV     R6,A
    725              unsigned char tmp[4], accel_fsr;
    726              float scaled_thresh;
    727              unsigned short dmp_thresh, dmp_thresh_2;
    728              if (!(axis & TAP_XYZ) || thresh > 1600)
   \   00000C   7407         MOV     A,#0x7
   \   00000E   5E           ANL     A,R6
   \   00000F   6009         JZ      ??dmp_set_tap_thresh_0
   \   000011   C3           CLR     C
   \   000012   EA           MOV     A,R2
   \   000013   9441         SUBB    A,#0x41
   \   000015   EB           MOV     A,R3
   \   000016   9406         SUBB    A,#0x6
   \   000018   4007         JC      ??dmp_set_tap_thresh_1
    729                  return -1;
   \                     ??dmp_set_tap_thresh_0:
   \   00001A   7AFF         MOV     R2,#-0x1
   \   00001C   7BFF         MOV     R3,#-0x1
   \   00001E   02....       LJMP    ??dmp_set_tap_thresh_2 & 0xFFFF
    730          
    731              scaled_thresh = (float)thresh / DMP_SAMPLE_RATE;
   \                     ??dmp_set_tap_thresh_1:
   \   000021   8A..         MOV     ?V0 + 4,R2
   \   000023   8B..         MOV     ?V0 + 5,R3
   \   000025   E4           CLR     A
   \   000026   F5..         MOV     ?V0 + 6,A
   \   000028   F5..         MOV     ?V0 + 7,A
   \   00002A   78..         MOV     R0,#?V0 + 4
   \   00002C   12....       LCALL   ?UL_TO_FLT
   \   00002F   90....       MOV     DPTR,#__Constant_43480000
   \   000032   78..         MOV     R0,#?V0 + 0
   \   000034   12....       LCALL   ?L_MOV_X
   \   000037   78..         MOV     R0,#?V0 + 4
   \   000039   79..         MOV     R1,#?V0 + 0
   \   00003B   12....       LCALL   ?FLT_DIV
    732          
    733              mpu_get_accel_fsr(&accel_fsr);
   \   00003E                ; Setup parameters for call to function mpu_get_accel_fsr
   \   00003E   85..82       MOV     DPL,?XSP + 0
   \   000041   85..83       MOV     DPH,?XSP + 1
   \   000044   AA82         MOV     R2,DPL
   \   000046   AB83         MOV     R3,DPH
   \   000048   12....       LCALL   ??mpu_get_accel_fsr?relay
    734              switch (accel_fsr) {
   \   00004B   85..82       MOV     DPL,?XSP + 0
   \   00004E   85..83       MOV     DPH,?XSP + 1
   \   000051   E0           MOVX    A,@DPTR
   \   000052   24FE         ADD     A,#-0x2
   \   000054   600E         JZ      ??dmp_set_tap_thresh_3
   \   000056   24FE         ADD     A,#-0x2
   \   000058   6033         JZ      ??dmp_set_tap_thresh_4
   \   00005A   24FC         ADD     A,#-0x4
   \   00005C   6058         JZ      ??dmp_set_tap_thresh_5
   \   00005E   24F8         ADD     A,#-0x8
   \   000060   607D         JZ      ??dmp_set_tap_thresh_6
   \   000062   80B6         SJMP    ??dmp_set_tap_thresh_0
    735              case 2:
    736                  dmp_thresh = (unsigned short)(scaled_thresh * 16384);
   \                     ??dmp_set_tap_thresh_3:
   \   000064   85....       MOV     ?V0 + 0,?V0 + 4
   \   000067   85....       MOV     ?V0 + 1,?V0 + 5
   \   00006A   85....       MOV     ?V0 + 2,?V0 + 6
   \   00006D   85....       MOV     ?V0 + 3,?V0 + 7
   \   000070   90....       MOV     DPTR,#__Constant_46800000
   \   000073   78..         MOV     R0,#?V0 + 8
   \   000075   12....       LCALL   ?L_MOV_X
   \   000078   78..         MOV     R0,#?V0 + 0
   \   00007A   79..         MOV     R1,#?V0 + 8
   \   00007C   12....       LCALL   ?FLT_MUL
   \   00007F   78..         MOV     R0,#?V0 + 0
   \   000081   12....       LCALL   ?FLT_TO_L
   \   000084   AA..         MOV     R2,?V0 + 0
   \   000086   AB..         MOV     R3,?V0 + 1
    737                  /* dmp_thresh * 0.75 */
    738                  dmp_thresh_2 = (unsigned short)(scaled_thresh * 12288);
   \   000088   90....       MOV     DPTR,#__Constant_46400000
   \   00008B   8079         SJMP    ??dmp_set_tap_thresh_7
    739                  break;
    740              case 4:
    741                  dmp_thresh = (unsigned short)(scaled_thresh * 8192);
   \                     ??dmp_set_tap_thresh_4:
   \   00008D   85....       MOV     ?V0 + 0,?V0 + 4
   \   000090   85....       MOV     ?V0 + 1,?V0 + 5
   \   000093   85....       MOV     ?V0 + 2,?V0 + 6
   \   000096   85....       MOV     ?V0 + 3,?V0 + 7
   \   000099   90....       MOV     DPTR,#__Constant_46000000
   \   00009C   78..         MOV     R0,#?V0 + 8
   \   00009E   12....       LCALL   ?L_MOV_X
   \   0000A1   78..         MOV     R0,#?V0 + 0
   \   0000A3   79..         MOV     R1,#?V0 + 8
   \   0000A5   12....       LCALL   ?FLT_MUL
   \   0000A8   78..         MOV     R0,#?V0 + 0
   \   0000AA   12....       LCALL   ?FLT_TO_L
   \   0000AD   AA..         MOV     R2,?V0 + 0
   \   0000AF   AB..         MOV     R3,?V0 + 1
    742                  /* dmp_thresh * 0.75 */
    743                  dmp_thresh_2 = (unsigned short)(scaled_thresh * 6144);
   \   0000B1   90....       MOV     DPTR,#__Constant_45c00000
   \   0000B4   8050         SJMP    ??dmp_set_tap_thresh_7
    744                  break;
    745              case 8:
    746                  dmp_thresh = (unsigned short)(scaled_thresh * 4096);
   \                     ??dmp_set_tap_thresh_5:
   \   0000B6   85....       MOV     ?V0 + 0,?V0 + 4
   \   0000B9   85....       MOV     ?V0 + 1,?V0 + 5
   \   0000BC   85....       MOV     ?V0 + 2,?V0 + 6
   \   0000BF   85....       MOV     ?V0 + 3,?V0 + 7
   \   0000C2   90....       MOV     DPTR,#__Constant_45800000
   \   0000C5   78..         MOV     R0,#?V0 + 8
   \   0000C7   12....       LCALL   ?L_MOV_X
   \   0000CA   78..         MOV     R0,#?V0 + 0
   \   0000CC   79..         MOV     R1,#?V0 + 8
   \   0000CE   12....       LCALL   ?FLT_MUL
   \   0000D1   78..         MOV     R0,#?V0 + 0
   \   0000D3   12....       LCALL   ?FLT_TO_L
   \   0000D6   AA..         MOV     R2,?V0 + 0
   \   0000D8   AB..         MOV     R3,?V0 + 1
    747                  /* dmp_thresh * 0.75 */
    748                  dmp_thresh_2 = (unsigned short)(scaled_thresh * 3072);
   \   0000DA   90....       MOV     DPTR,#__Constant_45400000
   \   0000DD   8027         SJMP    ??dmp_set_tap_thresh_7
    749                  break;
    750              case 16:
    751                  dmp_thresh = (unsigned short)(scaled_thresh * 2048);
   \                     ??dmp_set_tap_thresh_6:
   \   0000DF   85....       MOV     ?V0 + 0,?V0 + 4
   \   0000E2   85....       MOV     ?V0 + 1,?V0 + 5
   \   0000E5   85....       MOV     ?V0 + 2,?V0 + 6
   \   0000E8   85....       MOV     ?V0 + 3,?V0 + 7
   \   0000EB   90....       MOV     DPTR,#__Constant_45000000
   \   0000EE   78..         MOV     R0,#?V0 + 8
   \   0000F0   12....       LCALL   ?L_MOV_X
   \   0000F3   78..         MOV     R0,#?V0 + 0
   \   0000F5   79..         MOV     R1,#?V0 + 8
   \   0000F7   12....       LCALL   ?FLT_MUL
   \   0000FA   78..         MOV     R0,#?V0 + 0
   \   0000FC   12....       LCALL   ?FLT_TO_L
   \   0000FF   AA..         MOV     R2,?V0 + 0
   \   000101   AB..         MOV     R3,?V0 + 1
    752                  /* dmp_thresh * 0.75 */
    753                  dmp_thresh_2 = (unsigned short)(scaled_thresh * 1536);
   \   000103   90....       MOV     DPTR,#__Constant_44c00000
   \                     ??dmp_set_tap_thresh_7:
   \   000106   78..         MOV     R0,#?V0 + 0
   \   000108   12....       LCALL   ?L_MOV_X
   \   00010B   78..         MOV     R0,#?V0 + 4
   \   00010D   79..         MOV     R1,#?V0 + 0
   \   00010F   12....       LCALL   ?FLT_MUL
   \   000112   78..         MOV     R0,#?V0 + 4
   \   000114   12....       LCALL   ?FLT_TO_L
   \   000117   AC..         MOV     R4,?V0 + 4
   \   000119   AD..         MOV     R5,?V0 + 5
    754                  break;
    755              default:
    756                  return -1;
    757              }
    758              tmp[0] = (unsigned char)(dmp_thresh >> 8);
   \   00011B   EB           MOV     A,R3
   \   00011C   C0E0         PUSH    A
   \   00011E   7401         MOV     A,#0x1
   \   000120   12....       LCALL   ?XSTACK_DISP0_8
   \   000123   D0E0         POP     A
   \   000125   F0           MOVX    @DPTR,A
    759              tmp[1] = (unsigned char)(dmp_thresh & 0xFF);
   \   000126   EA           MOV     A,R2
   \   000127   C0E0         PUSH    A
   \   000129   7402         MOV     A,#0x2
   \   00012B   12....       LCALL   ?XSTACK_DISP0_8
   \   00012E   D0E0         POP     A
   \   000130   F0           MOVX    @DPTR,A
    760              tmp[2] = (unsigned char)(dmp_thresh_2 >> 8);
   \   000131   ED           MOV     A,R5
   \   000132   C0E0         PUSH    A
   \   000134   7403         MOV     A,#0x3
   \   000136   12....       LCALL   ?XSTACK_DISP0_8
   \   000139   D0E0         POP     A
   \   00013B   F0           MOVX    @DPTR,A
    761              tmp[3] = (unsigned char)(dmp_thresh_2 & 0xFF);
   \   00013C   EC           MOV     A,R4
   \   00013D   C0E0         PUSH    A
   \   00013F   7404         MOV     A,#0x4
   \   000141   12....       LCALL   ?XSTACK_DISP0_8
   \   000144   D0E0         POP     A
   \   000146   F0           MOVX    @DPTR,A
    762          
    763              if (axis & TAP_X) {
   \   000147   EE           MOV     A,R6
   \   000148   A2E0         MOV     C,0xE0 /* A   */.0
   \   00014A   5054         JNC     ??dmp_set_tap_thresh_8
    764                  if (mpu_write_mem(DMP_TAP_THX, 2, tmp))
   \   00014C                ; Setup parameters for call to function mpu_write_mem
   \   00014C   7401         MOV     A,#0x1
   \   00014E   12....       LCALL   ?XSTACK_DISP0_8
   \   000151   8582..       MOV     ?V0 + 0,DPL
   \   000154   8583..       MOV     ?V0 + 1,DPH
   \   000157   78..         MOV     R0,#?V0 + 0
   \   000159   12....       LCALL   ?PUSH_XSTACK_I_TWO
   \   00015C   7C02         MOV     R4,#0x2
   \   00015E   7D00         MOV     R5,#0x0
   \   000160   7AD4         MOV     R2,#-0x2c
   \   000162   7B01         MOV     R3,#0x1
   \   000164   12....       LCALL   ??mpu_write_mem?relay
   \   000167   7402         MOV     A,#0x2
   \   000169   12....       LCALL   ?DEALLOC_XSTACK8
   \   00016C   8B..         MOV     ?V0 + 1,R3
   \   00016E   EA           MOV     A,R2
   \   00016F   45..         ORL     A,?V0 + 1
   \   000171   6003         JZ      $+5
   \   000173   02....       LJMP    ??dmp_set_tap_thresh_0 & 0xFFFF
    765                      return -1;
    766                  if (mpu_write_mem(D_1_36, 2, tmp+2))
   \   000176                ; Setup parameters for call to function mpu_write_mem
   \   000176   7403         MOV     A,#0x3
   \   000178   12....       LCALL   ?XSTACK_DISP0_8
   \   00017B   8582..       MOV     ?V0 + 0,DPL
   \   00017E   8583..       MOV     ?V0 + 1,DPH
   \   000181   78..         MOV     R0,#?V0 + 0
   \   000183   12....       LCALL   ?PUSH_XSTACK_I_TWO
   \   000186   7C02         MOV     R4,#0x2
   \   000188   7D00         MOV     R5,#0x0
   \   00018A   7A24         MOV     R2,#0x24
   \   00018C   7B01         MOV     R3,#0x1
   \   00018E   12....       LCALL   ??mpu_write_mem?relay
   \   000191   7402         MOV     A,#0x2
   \   000193   12....       LCALL   ?DEALLOC_XSTACK8
   \   000196   8B..         MOV     ?V0 + 1,R3
   \   000198   EA           MOV     A,R2
   \   000199   45..         ORL     A,?V0 + 1
   \   00019B   6003         JZ      $+5
   \   00019D   02....       LJMP    ??dmp_set_tap_thresh_0 & 0xFFFF
    767                      return -1;
    768              }
    769              if (axis & TAP_Y) {
   \                     ??dmp_set_tap_thresh_8:
   \   0001A0   EE           MOV     A,R6
   \   0001A1   A2E1         MOV     C,0xE0 /* A   */.1
   \   0001A3   5054         JNC     ??dmp_set_tap_thresh_9
    770                  if (mpu_write_mem(DMP_TAP_THY, 2, tmp))
   \   0001A5                ; Setup parameters for call to function mpu_write_mem
   \   0001A5   7401         MOV     A,#0x1
   \   0001A7   12....       LCALL   ?XSTACK_DISP0_8
   \   0001AA   8582..       MOV     ?V0 + 0,DPL
   \   0001AD   8583..       MOV     ?V0 + 1,DPH
   \   0001B0   78..         MOV     R0,#?V0 + 0
   \   0001B2   12....       LCALL   ?PUSH_XSTACK_I_TWO
   \   0001B5   7C02         MOV     R4,#0x2
   \   0001B7   7D00         MOV     R5,#0x0
   \   0001B9   7AD8         MOV     R2,#-0x28
   \   0001BB   7B01         MOV     R3,#0x1
   \   0001BD   12....       LCALL   ??mpu_write_mem?relay
   \   0001C0   7402         MOV     A,#0x2
   \   0001C2   12....       LCALL   ?DEALLOC_XSTACK8
   \   0001C5   8B..         MOV     ?V0 + 1,R3
   \   0001C7   EA           MOV     A,R2
   \   0001C8   45..         ORL     A,?V0 + 1
   \   0001CA   6003         JZ      $+5
   \   0001CC   02....       LJMP    ??dmp_set_tap_thresh_0 & 0xFFFF
    771                      return -1;
    772                  if (mpu_write_mem(D_1_40, 2, tmp+2))
   \   0001CF                ; Setup parameters for call to function mpu_write_mem
   \   0001CF   7403         MOV     A,#0x3
   \   0001D1   12....       LCALL   ?XSTACK_DISP0_8
   \   0001D4   8582..       MOV     ?V0 + 0,DPL
   \   0001D7   8583..       MOV     ?V0 + 1,DPH
   \   0001DA   78..         MOV     R0,#?V0 + 0
   \   0001DC   12....       LCALL   ?PUSH_XSTACK_I_TWO
   \   0001DF   7C02         MOV     R4,#0x2
   \   0001E1   7D00         MOV     R5,#0x0
   \   0001E3   7A28         MOV     R2,#0x28
   \   0001E5   7B01         MOV     R3,#0x1
   \   0001E7   12....       LCALL   ??mpu_write_mem?relay
   \   0001EA   7402         MOV     A,#0x2
   \   0001EC   12....       LCALL   ?DEALLOC_XSTACK8
   \   0001EF   8B..         MOV     ?V0 + 1,R3
   \   0001F1   EA           MOV     A,R2
   \   0001F2   45..         ORL     A,?V0 + 1
   \   0001F4   6003         JZ      $+5
   \   0001F6   02....       LJMP    ??dmp_set_tap_thresh_0 & 0xFFFF
    773                      return -1;
    774              }
    775              if (axis & TAP_Z) {
   \                     ??dmp_set_tap_thresh_9:
   \   0001F9   EE           MOV     A,R6
   \   0001FA   A2E2         MOV     C,0xE0 /* A   */.2
   \   0001FC   5054         JNC     ??dmp_set_tap_thresh_10
    776                  if (mpu_write_mem(DMP_TAP_THZ, 2, tmp))
   \   0001FE                ; Setup parameters for call to function mpu_write_mem
   \   0001FE   7401         MOV     A,#0x1
   \   000200   12....       LCALL   ?XSTACK_DISP0_8
   \   000203   8582..       MOV     ?V0 + 0,DPL
   \   000206   8583..       MOV     ?V0 + 1,DPH
   \   000209   78..         MOV     R0,#?V0 + 0
   \   00020B   12....       LCALL   ?PUSH_XSTACK_I_TWO
   \   00020E   7C02         MOV     R4,#0x2
   \   000210   7D00         MOV     R5,#0x0
   \   000212   7ADC         MOV     R2,#-0x24
   \   000214   7B01         MOV     R3,#0x1
   \   000216   12....       LCALL   ??mpu_write_mem?relay
   \   000219   7402         MOV     A,#0x2
   \   00021B   12....       LCALL   ?DEALLOC_XSTACK8
   \   00021E   8B..         MOV     ?V0 + 1,R3
   \   000220   EA           MOV     A,R2
   \   000221   45..         ORL     A,?V0 + 1
   \   000223   6003         JZ      $+5
   \   000225   02....       LJMP    ??dmp_set_tap_thresh_0 & 0xFFFF
    777                      return -1;
    778                  if (mpu_write_mem(D_1_44, 2, tmp+2))
   \   000228                ; Setup parameters for call to function mpu_write_mem
   \   000228   7403         MOV     A,#0x3
   \   00022A   12....       LCALL   ?XSTACK_DISP0_8
   \   00022D   8582..       MOV     ?V0 + 0,DPL
   \   000230   8583..       MOV     ?V0 + 1,DPH
   \   000233   78..         MOV     R0,#?V0 + 0
   \   000235   12....       LCALL   ?PUSH_XSTACK_I_TWO
   \   000238   7C02         MOV     R4,#0x2
   \   00023A   7D00         MOV     R5,#0x0
   \   00023C   7A2C         MOV     R2,#0x2c
   \   00023E   7B01         MOV     R3,#0x1
   \   000240   12....       LCALL   ??mpu_write_mem?relay
   \   000243   7402         MOV     A,#0x2
   \   000245   12....       LCALL   ?DEALLOC_XSTACK8
   \   000248   8B..         MOV     ?V0 + 1,R3
   \   00024A   EA           MOV     A,R2
   \   00024B   45..         ORL     A,?V0 + 1
   \   00024D   6003         JZ      $+5
   \   00024F   02....       LJMP    ??dmp_set_tap_thresh_0 & 0xFFFF
    779                      return -1;
    780              }
    781              return 0;
   \                     ??dmp_set_tap_thresh_10:
   \   000252   7A00         MOV     R2,#0x0
   \   000254   7B00         MOV     R3,#0x0
   \                     ??dmp_set_tap_thresh_2:
   \   000256   7405         MOV     A,#0x5
   \   000258   12....       LCALL   ?DEALLOC_XSTACK8
   \   00025B   7F0C         MOV     R7,#0xc
   \   00025D   02....       LJMP    ?BANKED_LEAVE_XDATA
    782          }
    783          
    784          /**
    785           *  @brief      Set which axes will register a tap.
    786           *  @param[in]  axis    1, 2, and 4 for XYZ, respectively.
    787           *  @return     0 if successful.
    788           */

   \                                 In  segment BANKED_CODE, align 1, keep-with-next
    789          int dmp_set_tap_axes(unsigned char axis)
   \                     dmp_set_tap_axes:
    790          {
   \   000000   74F6         MOV     A,#-0xa
   \   000002   12....       LCALL   ?BANKED_ENTER_XDATA
   \   000005                ; Saved register size: 10
   \   000005                ; Auto size: 1
   \   000005   74FF         MOV     A,#-0x1
   \   000007   12....       LCALL   ?ALLOC_XSTACK8
   \   00000A   E9           MOV     A,R1
   \   00000B   FE           MOV     R6,A
    791              unsigned char tmp = 0;
   \   00000C   85..82       MOV     DPL,?XSP + 0
   \   00000F   85..83       MOV     DPH,?XSP + 1
   \   000012   E4           CLR     A
   \   000013   F0           MOVX    @DPTR,A
    792          
    793              if (axis & TAP_X)
   \   000014   EE           MOV     A,R6
   \   000015   A2E0         MOV     C,0xE0 /* A   */.0
   \   000017   5003         JNC     ??dmp_set_tap_axes_0
    794                  tmp |= 0x30;
   \   000019   7430         MOV     A,#0x30
   \   00001B   F0           MOVX    @DPTR,A
    795              if (axis & TAP_Y)
   \                     ??dmp_set_tap_axes_0:
   \   00001C   EE           MOV     A,R6
   \   00001D   A2E1         MOV     C,0xE0 /* A   */.1
   \   00001F   5004         JNC     ??dmp_set_tap_axes_1
    796                  tmp |= 0x0C;
   \   000021   E0           MOVX    A,@DPTR
   \   000022   440C         ORL     A,#0xc
   \   000024   F0           MOVX    @DPTR,A
    797              if (axis & TAP_Z)
   \                     ??dmp_set_tap_axes_1:
   \   000025   EE           MOV     A,R6
   \   000026   A2E2         MOV     C,0xE0 /* A   */.2
   \   000028   5004         JNC     ??dmp_set_tap_axes_2
    798                  tmp |= 0x03;
   \   00002A   E0           MOVX    A,@DPTR
   \   00002B   4403         ORL     A,#0x3
   \   00002D   F0           MOVX    @DPTR,A
    799              return mpu_write_mem(D_1_72, 1, &tmp);
   \                     ??dmp_set_tap_axes_2:
   \   00002E                ; Setup parameters for call to function mpu_write_mem
   \   00002E   8582..       MOV     ?V0 + 0,DPL
   \   000031   8583..       MOV     ?V0 + 1,DPH
   \   000034   78..         MOV     R0,#?V0 + 0
   \   000036   12....       LCALL   ?PUSH_XSTACK_I_TWO
   \   000039   7C01         MOV     R4,#0x1
   \   00003B   7D00         MOV     R5,#0x0
   \   00003D   7A48         MOV     R2,#0x48
   \   00003F   7B01         MOV     R3,#0x1
   \   000041   12....       LCALL   ??mpu_write_mem?relay
   \   000044   7402         MOV     A,#0x2
   \   000046   12....       LCALL   ?DEALLOC_XSTACK8
   \   000049   7401         MOV     A,#0x1
   \   00004B   12....       LCALL   ?DEALLOC_XSTACK8
   \   00004E   7F02         MOV     R7,#0x2
   \   000050   02....       LJMP    ?BANKED_LEAVE_XDATA
    800          }
    801          
    802          /**
    803           *  @brief      Set minimum number of taps needed for an interrupt.
    804           *  @param[in]  min_taps    Minimum consecutive taps (1-4).
    805           *  @return     0 if successful.
    806           */

   \                                 In  segment BANKED_CODE, align 1, keep-with-next
    807          int dmp_set_tap_count(unsigned char min_taps)
   \                     dmp_set_tap_count:
    808          {
   \   000000   74F6         MOV     A,#-0xa
   \   000002   12....       LCALL   ?BANKED_ENTER_XDATA
   \   000005                ; Saved register size: 10
   \   000005                ; Auto size: 1
   \   000005   74FF         MOV     A,#-0x1
   \   000007   12....       LCALL   ?ALLOC_XSTACK8
   \   00000A   E9           MOV     A,R1
   \   00000B   FE           MOV     R6,A
    809              unsigned char tmp;
    810          
    811              if (min_taps < 1)
   \   00000C   7004         JNZ     ??dmp_set_tap_count_0
    812                  min_taps = 1;
   \   00000E   7E01         MOV     R6,#0x1
   \   000010   8007         SJMP    ??dmp_set_tap_count_1
    813              else if (min_taps > 4)
   \                     ??dmp_set_tap_count_0:
   \   000012   C3           CLR     C
   \   000013   9405         SUBB    A,#0x5
   \   000015   4002         JC      ??dmp_set_tap_count_1
    814                  min_taps = 4;
   \   000017   7E04         MOV     R6,#0x4
    815          
    816              tmp = min_taps - 1;
   \                     ??dmp_set_tap_count_1:
   \   000019   74FF         MOV     A,#-0x1
   \   00001B   2E           ADD     A,R6
   \   00001C   85..82       MOV     DPL,?XSP + 0
   \   00001F   85..83       MOV     DPH,?XSP + 1
   \   000022   F0           MOVX    @DPTR,A
    817              return mpu_write_mem(D_1_79, 1, &tmp);
   \   000023                ; Setup parameters for call to function mpu_write_mem
   \   000023   8582..       MOV     ?V0 + 0,DPL
   \   000026   8583..       MOV     ?V0 + 1,DPH
   \   000029   78..         MOV     R0,#?V0 + 0
   \   00002B   12....       LCALL   ?PUSH_XSTACK_I_TWO
   \   00002E   7C01         MOV     R4,#0x1
   \   000030   7D00         MOV     R5,#0x0
   \   000032   7A4F         MOV     R2,#0x4f
   \   000034   7B01         MOV     R3,#0x1
   \   000036   12....       LCALL   ??mpu_write_mem?relay
   \   000039   7402         MOV     A,#0x2
   \   00003B   12....       LCALL   ?DEALLOC_XSTACK8
   \   00003E   7401         MOV     A,#0x1
   \   000040   12....       LCALL   ?DEALLOC_XSTACK8
   \   000043   7F02         MOV     R7,#0x2
   \   000045   02....       LJMP    ?BANKED_LEAVE_XDATA
    818          }
    819          
    820          /**
    821           *  @brief      Set length between valid taps.
    822           *  @param[in]  time    Milliseconds between taps.
    823           *  @return     0 if successful.
    824           */

   \                                 In  segment BANKED_CODE, align 1, keep-with-next
    825          int dmp_set_tap_time(unsigned short time)
   \                     dmp_set_tap_time:
    826          {
   \   000000   74F6         MOV     A,#-0xa
   \   000002   12....       LCALL   ?BANKED_ENTER_XDATA
   \   000005                ; Saved register size: 10
   \   000005                ; Auto size: 2
   \   000005   74FE         MOV     A,#-0x2
   \   000007   12....       LCALL   ?ALLOC_XSTACK8
    827              unsigned short dmp_time;
    828              unsigned char tmp[2];
    829          
    830              dmp_time = time / (1000 / DMP_SAMPLE_RATE);
   \   00000A   EA           MOV     A,R2
   \   00000B   F8           MOV     R0,A
   \   00000C   EB           MOV     A,R3
   \   00000D   F9           MOV     R1,A
   \   00000E   7A05         MOV     R2,#0x5
   \   000010   7B00         MOV     R3,#0x0
   \   000012   12....       LCALL   ?US_DIV_MOD
    831              tmp[0] = (unsigned char)(dmp_time >> 8);
   \   000015   85..82       MOV     DPL,?XSP + 0
   \   000018   85..83       MOV     DPH,?XSP + 1
   \   00001B   E9           MOV     A,R1
   \   00001C   F0           MOVX    @DPTR,A
    832              tmp[1] = (unsigned char)(dmp_time & 0xFF);
   \   00001D   7401         MOV     A,#0x1
   \   00001F   12....       LCALL   ?XSTACK_DISP0_8
   \   000022   E8           MOV     A,R0
   \   000023   F0           MOVX    @DPTR,A
    833              return mpu_write_mem(DMP_TAPW_MIN, 2, tmp);
   \   000024                ; Setup parameters for call to function mpu_write_mem
   \   000024   85..82       MOV     DPL,?XSP + 0
   \   000027   85..83       MOV     DPH,?XSP + 1
   \   00002A   8582..       MOV     ?V0 + 0,DPL
   \   00002D   8583..       MOV     ?V0 + 1,DPH
   \   000030   78..         MOV     R0,#?V0 + 0
   \   000032   12....       LCALL   ?PUSH_XSTACK_I_TWO
   \   000035   7C02         MOV     R4,#0x2
   \   000037   7D00         MOV     R5,#0x0
   \   000039   7ADE         MOV     R2,#-0x22
   \   00003B   7B01         MOV     R3,#0x1
   \   00003D   12....       LCALL   ??mpu_write_mem?relay
   \   000040   7402         MOV     A,#0x2
   \   000042   12....       LCALL   ?DEALLOC_XSTACK8
   \   000045   7402         MOV     A,#0x2
   \   000047   12....       LCALL   ?DEALLOC_XSTACK8
   \   00004A   7F02         MOV     R7,#0x2
   \   00004C   02....       LJMP    ?BANKED_LEAVE_XDATA
    834          }
    835          
    836          /**
    837           *  @brief      Set max time between taps to register as a multi-tap.
    838           *  @param[in]  time    Max milliseconds between taps.
    839           *  @return     0 if successful.
    840           */

   \                                 In  segment BANKED_CODE, align 1, keep-with-next
    841          int dmp_set_tap_time_multi(unsigned short time)
   \                     dmp_set_tap_time_multi:
    842          {
   \   000000   74F6         MOV     A,#-0xa
   \   000002   12....       LCALL   ?BANKED_ENTER_XDATA
   \   000005                ; Saved register size: 10
   \   000005                ; Auto size: 2
   \   000005   74FE         MOV     A,#-0x2
   \   000007   12....       LCALL   ?ALLOC_XSTACK8
    843              unsigned short dmp_time;
    844              unsigned char tmp[2];
    845          
    846              dmp_time = time / (1000 / DMP_SAMPLE_RATE);
   \   00000A   EA           MOV     A,R2
   \   00000B   F8           MOV     R0,A
   \   00000C   EB           MOV     A,R3
   \   00000D   F9           MOV     R1,A
   \   00000E   7A05         MOV     R2,#0x5
   \   000010   7B00         MOV     R3,#0x0
   \   000012   12....       LCALL   ?US_DIV_MOD
    847              tmp[0] = (unsigned char)(dmp_time >> 8);
   \   000015   85..82       MOV     DPL,?XSP + 0
   \   000018   85..83       MOV     DPH,?XSP + 1
   \   00001B   E9           MOV     A,R1
   \   00001C   F0           MOVX    @DPTR,A
    848              tmp[1] = (unsigned char)(dmp_time & 0xFF);
   \   00001D   7401         MOV     A,#0x1
   \   00001F   12....       LCALL   ?XSTACK_DISP0_8
   \   000022   E8           MOV     A,R0
   \   000023   F0           MOVX    @DPTR,A
    849              return mpu_write_mem(D_1_218, 2, tmp);
   \   000024                ; Setup parameters for call to function mpu_write_mem
   \   000024   85..82       MOV     DPL,?XSP + 0
   \   000027   85..83       MOV     DPH,?XSP + 1
   \   00002A   8582..       MOV     ?V0 + 0,DPL
   \   00002D   8583..       MOV     ?V0 + 1,DPH
   \   000030   78..         MOV     R0,#?V0 + 0
   \   000032   12....       LCALL   ?PUSH_XSTACK_I_TWO
   \   000035   7C02         MOV     R4,#0x2
   \   000037   7D00         MOV     R5,#0x0
   \   000039   7ADA         MOV     R2,#-0x26
   \   00003B   7B01         MOV     R3,#0x1
   \   00003D   12....       LCALL   ??mpu_write_mem?relay
   \   000040   7402         MOV     A,#0x2
   \   000042   12....       LCALL   ?DEALLOC_XSTACK8
   \   000045   7402         MOV     A,#0x2
   \   000047   12....       LCALL   ?DEALLOC_XSTACK8
   \   00004A   7F02         MOV     R7,#0x2
   \   00004C   02....       LJMP    ?BANKED_LEAVE_XDATA
    850          }
    851          
    852          /**
    853           *  @brief      Set shake rejection threshold.
    854           *  If the DMP detects a gyro sample larger than @e thresh, taps are rejected.
    855           *  @param[in]  sf      Gyro scale factor.
    856           *  @param[in]  thresh  Gyro threshold in dps.
    857           *  @return     0 if successful.
    858           */

   \                                 In  segment BANKED_CODE, align 1, keep-with-next
    859          int dmp_set_shake_reject_thresh(long sf, unsigned short thresh)
   \                     dmp_set_shake_reject_thresh:
    860          {
   \   000000   74EC         MOV     A,#-0x14
   \   000002   12....       LCALL   ?BANKED_ENTER_XDATA
   \   000005                ; Saved register size: 20
   \   000005                ; Auto size: 4
   \   000005   74FC         MOV     A,#-0x4
   \   000007   12....       LCALL   ?ALLOC_XSTACK8
   \   00000A   8A..         MOV     ?V0 + 4,R2
   \   00000C   8B..         MOV     ?V0 + 5,R3
   \   00000E   8C..         MOV     ?V0 + 6,R4
   \   000010   8D..         MOV     ?V0 + 7,R5
   \   000012   7418         MOV     A,#0x18
   \   000014   12....       LCALL   ?XSTACK_DISP0_8
   \   000017   E0           MOVX    A,@DPTR
   \   000018   F5..         MOV     ?V0 + 0,A
   \   00001A   A3           INC     DPTR
   \   00001B   E0           MOVX    A,@DPTR
   \   00001C   F5..         MOV     ?V0 + 1,A
    861              unsigned char tmp[4];
    862              long thresh_scaled = sf / 1000 * thresh;
   \   00001E   90....       MOV     DPTR,#__Constant_3e8
   \   000021   78..         MOV     R0,#?V0 + 8
   \   000023   12....       LCALL   ?L_MOV_X
   \   000026   78..         MOV     R0,#?V0 + 4
   \   000028   79..         MOV     R1,#?V0 + 8
   \   00002A   12....       LCALL   ?L_DIV_MOD
   \   00002D   E4           CLR     A
   \   00002E   F5..         MOV     ?V0 + 2,A
   \   000030   F5..         MOV     ?V0 + 3,A
   \   000032   78..         MOV     R0,#?V0 + 4
   \   000034   79..         MOV     R1,#?V0 + 0
   \   000036   12....       LCALL   ?L_MUL
    863              tmp[0] = (unsigned char)(((long)thresh_scaled >> 24) & 0xFF);
   \   000039   85....       MOV     ?V0 + 0,?V0 + 4
   \   00003C   85....       MOV     ?V0 + 1,?V0 + 5
   \   00003F   85....       MOV     ?V0 + 2,?V0 + 6
   \   000042   85....       MOV     ?V0 + 3,?V0 + 7
   \   000045   7418         MOV     A,#0x18
   \   000047   78..         MOV     R0,#?V0 + 0
   \   000049   12....       LCALL   ?SL_SHR
   \   00004C   85..82       MOV     DPL,?XSP + 0
   \   00004F   85..83       MOV     DPH,?XSP + 1
   \   000052   E5..         MOV     A,?V0 + 0
   \   000054   F0           MOVX    @DPTR,A
    864              tmp[1] = (unsigned char)(((long)thresh_scaled >> 16) & 0xFF);
   \   000055   85....       MOV     ?V0 + 0,?V0 + 4
   \   000058   85....       MOV     ?V0 + 1,?V0 + 5
   \   00005B   85....       MOV     ?V0 + 2,?V0 + 6
   \   00005E   85....       MOV     ?V0 + 3,?V0 + 7
   \   000061   7410         MOV     A,#0x10
   \   000063   78..         MOV     R0,#?V0 + 0
   \   000065   12....       LCALL   ?SL_SHR
   \   000068   04           INC     A
   \   000069   12....       LCALL   ?XSTACK_DISP0_8
   \   00006C   E5..         MOV     A,?V0 + 0
   \   00006E   F0           MOVX    @DPTR,A
    865              tmp[2] = (unsigned char)(((long)thresh_scaled >> 8) & 0xFF);
   \   00006F   85....       MOV     ?V0 + 0,?V0 + 4
   \   000072   85....       MOV     ?V0 + 1,?V0 + 5
   \   000075   7408         MOV     A,#0x8
   \   000077   78..         MOV     R0,#?V0 + 0
   \   000079   12....       LCALL   ?SS_SHR
   \   00007C   7402         MOV     A,#0x2
   \   00007E   12....       LCALL   ?XSTACK_DISP0_8
   \   000081   E5..         MOV     A,?V0 + 0
   \   000083   F0           MOVX    @DPTR,A
    866              tmp[3] = (unsigned char)((long)thresh_scaled & 0xFF);
   \   000084   7403         MOV     A,#0x3
   \   000086   12....       LCALL   ?XSTACK_DISP0_8
   \   000089   E5..         MOV     A,?V0 + 4
   \   00008B   F0           MOVX    @DPTR,A
    867              return mpu_write_mem(D_1_92, 4, tmp);
   \   00008C                ; Setup parameters for call to function mpu_write_mem
   \   00008C   85..82       MOV     DPL,?XSP + 0
   \   00008F   85..83       MOV     DPH,?XSP + 1
   \   000092   8582..       MOV     ?V0 + 0,DPL
   \   000095   8583..       MOV     ?V0 + 1,DPH
   \   000098   78..         MOV     R0,#?V0 + 0
   \   00009A   12....       LCALL   ?PUSH_XSTACK_I_TWO
   \   00009D   7C04         MOV     R4,#0x4
   \   00009F   7D00         MOV     R5,#0x0
   \   0000A1   7A5C         MOV     R2,#0x5c
   \   0000A3   7B01         MOV     R3,#0x1
   \   0000A5   12....       LCALL   ??mpu_write_mem?relay
   \   0000A8   7402         MOV     A,#0x2
   \   0000AA   12....       LCALL   ?DEALLOC_XSTACK8
   \   0000AD   7404         MOV     A,#0x4
   \   0000AF   12....       LCALL   ?DEALLOC_XSTACK8
   \   0000B2   7F0C         MOV     R7,#0xc
   \   0000B4   02....       LJMP    ?BANKED_LEAVE_XDATA
    868          }
    869          
    870          /**
    871           *  @brief      Set shake rejection time.
    872           *  Sets the length of time that the gyro must be outside of the threshold set
    873           *  by @e gyro_set_shake_reject_thresh before taps are rejected. A mandatory
    874           *  60 ms is added to this parameter.
    875           *  @param[in]  time    Time in milliseconds.
    876           *  @return     0 if successful.
    877           */

   \                                 In  segment BANKED_CODE, align 1, keep-with-next
    878          int dmp_set_shake_reject_time(unsigned short time)
   \                     dmp_set_shake_reject_time:
    879          {
   \   000000   74F6         MOV     A,#-0xa
   \   000002   12....       LCALL   ?BANKED_ENTER_XDATA
   \   000005                ; Saved register size: 10
   \   000005                ; Auto size: 2
   \   000005   74FE         MOV     A,#-0x2
   \   000007   12....       LCALL   ?ALLOC_XSTACK8
    880              unsigned char tmp[2];
    881          
    882              time /= (1000 / DMP_SAMPLE_RATE);
   \   00000A   EA           MOV     A,R2
   \   00000B   F8           MOV     R0,A
   \   00000C   EB           MOV     A,R3
   \   00000D   F9           MOV     R1,A
   \   00000E   7A05         MOV     R2,#0x5
   \   000010   7B00         MOV     R3,#0x0
   \   000012   12....       LCALL   ?US_DIV_MOD
    883              tmp[0] = time >> 8;
   \   000015   85..82       MOV     DPL,?XSP + 0
   \   000018   85..83       MOV     DPH,?XSP + 1
   \   00001B   E9           MOV     A,R1
   \   00001C   F0           MOVX    @DPTR,A
    884              tmp[1] = time & 0xFF;
   \   00001D   7401         MOV     A,#0x1
   \   00001F   12....       LCALL   ?XSTACK_DISP0_8
   \   000022   E8           MOV     A,R0
   \   000023   F0           MOVX    @DPTR,A
    885              return mpu_write_mem(D_1_90,2,tmp);
   \   000024                ; Setup parameters for call to function mpu_write_mem
   \   000024   85..82       MOV     DPL,?XSP + 0
   \   000027   85..83       MOV     DPH,?XSP + 1
   \   00002A   8582..       MOV     ?V0 + 0,DPL
   \   00002D   8583..       MOV     ?V0 + 1,DPH
   \   000030   78..         MOV     R0,#?V0 + 0
   \   000032   12....       LCALL   ?PUSH_XSTACK_I_TWO
   \   000035   7C02         MOV     R4,#0x2
   \   000037   7D00         MOV     R5,#0x0
   \   000039   7A5A         MOV     R2,#0x5a
   \   00003B   7B01         MOV     R3,#0x1
   \   00003D   12....       LCALL   ??mpu_write_mem?relay
   \   000040   7402         MOV     A,#0x2
   \   000042   12....       LCALL   ?DEALLOC_XSTACK8
   \   000045   7402         MOV     A,#0x2
   \   000047   12....       LCALL   ?DEALLOC_XSTACK8
   \   00004A   7F02         MOV     R7,#0x2
   \   00004C   02....       LJMP    ?BANKED_LEAVE_XDATA
    886          }
    887          
    888          /**
    889           *  @brief      Set shake rejection timeout.
    890           *  Sets the length of time after a shake rejection that the gyro must stay
    891           *  inside of the threshold before taps can be detected again. A mandatory
    892           *  60 ms is added to this parameter.
    893           *  @param[in]  time    Time in milliseconds.
    894           *  @return     0 if successful.
    895           */

   \                                 In  segment BANKED_CODE, align 1, keep-with-next
    896          int dmp_set_shake_reject_timeout(unsigned short time)
   \                     dmp_set_shake_reject_timeout:
    897          {
   \   000000   74F6         MOV     A,#-0xa
   \   000002   12....       LCALL   ?BANKED_ENTER_XDATA
   \   000005                ; Saved register size: 10
   \   000005                ; Auto size: 2
   \   000005   74FE         MOV     A,#-0x2
   \   000007   12....       LCALL   ?ALLOC_XSTACK8
    898              unsigned char tmp[2];
    899          
    900              time /= (1000 / DMP_SAMPLE_RATE);
   \   00000A   EA           MOV     A,R2
   \   00000B   F8           MOV     R0,A
   \   00000C   EB           MOV     A,R3
   \   00000D   F9           MOV     R1,A
   \   00000E   7A05         MOV     R2,#0x5
   \   000010   7B00         MOV     R3,#0x0
   \   000012   12....       LCALL   ?US_DIV_MOD
    901              tmp[0] = time >> 8;
   \   000015   85..82       MOV     DPL,?XSP + 0
   \   000018   85..83       MOV     DPH,?XSP + 1
   \   00001B   E9           MOV     A,R1
   \   00001C   F0           MOVX    @DPTR,A
    902              tmp[1] = time & 0xFF;
   \   00001D   7401         MOV     A,#0x1
   \   00001F   12....       LCALL   ?XSTACK_DISP0_8
   \   000022   E8           MOV     A,R0
   \   000023   F0           MOVX    @DPTR,A
    903              return mpu_write_mem(D_1_88,2,tmp);
   \   000024                ; Setup parameters for call to function mpu_write_mem
   \   000024   85..82       MOV     DPL,?XSP + 0
   \   000027   85..83       MOV     DPH,?XSP + 1
   \   00002A   8582..       MOV     ?V0 + 0,DPL
   \   00002D   8583..       MOV     ?V0 + 1,DPH
   \   000030   78..         MOV     R0,#?V0 + 0
   \   000032   12....       LCALL   ?PUSH_XSTACK_I_TWO
   \   000035   7C02         MOV     R4,#0x2
   \   000037   7D00         MOV     R5,#0x0
   \   000039   7A58         MOV     R2,#0x58
   \   00003B   7B01         MOV     R3,#0x1
   \   00003D   12....       LCALL   ??mpu_write_mem?relay
   \   000040   7402         MOV     A,#0x2
   \   000042   12....       LCALL   ?DEALLOC_XSTACK8
   \   000045   7402         MOV     A,#0x2
   \   000047   12....       LCALL   ?DEALLOC_XSTACK8
   \   00004A   7F02         MOV     R7,#0x2
   \   00004C   02....       LJMP    ?BANKED_LEAVE_XDATA
    904          }
    905          
    906          /**
    907           *  @brief      Get current step count.
    908           *  @param[out] count   Number of steps detected.
    909           *  @return     0 if successful.
    910           */

   \                                 In  segment BANKED_CODE, align 1, keep-with-next
    911          int dmp_get_pedometer_step_count(unsigned long *count)
   \                     dmp_get_pedometer_step_count:
    912          {
   \   000000   74F0         MOV     A,#-0x10
   \   000002   12....       LCALL   ?BANKED_ENTER_XDATA
   \   000005                ; Saved register size: 16
   \   000005                ; Auto size: 4
   \   000005   74FC         MOV     A,#-0x4
   \   000007   12....       LCALL   ?ALLOC_XSTACK8
   \   00000A   EA           MOV     A,R2
   \   00000B   FE           MOV     R6,A
   \   00000C   EB           MOV     A,R3
   \   00000D   FF           MOV     R7,A
    913              unsigned char tmp[4];
    914              if (!count)
   \   00000E   EE           MOV     A,R6
   \   00000F   4F           ORL     A,R7
   \   000010   7007         JNZ     ??dmp_get_pedometer_step_count_0
    915                  return -1;
   \                     ??dmp_get_pedometer_step_count_1:
   \   000012   7AFF         MOV     R2,#-0x1
   \   000014   7BFF         MOV     R3,#-0x1
   \   000016   02....       LJMP    ??dmp_get_pedometer_step_count_2 & 0xFFFF
    916          
    917              if (mpu_read_mem(D_PEDSTD_STEPCTR, 4, tmp))
   \                     ??dmp_get_pedometer_step_count_0:
   \   000019                ; Setup parameters for call to function mpu_read_mem
   \   000019   85..82       MOV     DPL,?XSP + 0
   \   00001C   85..83       MOV     DPH,?XSP + 1
   \   00001F   8582..       MOV     ?V0 + 0,DPL
   \   000022   8583..       MOV     ?V0 + 1,DPH
   \   000025   78..         MOV     R0,#?V0 + 0
   \   000027   12....       LCALL   ?PUSH_XSTACK_I_TWO
   \   00002A   7C04         MOV     R4,#0x4
   \   00002C   7D00         MOV     R5,#0x0
   \   00002E   7A60         MOV     R2,#0x60
   \   000030   7B03         MOV     R3,#0x3
   \   000032   12....       LCALL   ??mpu_read_mem?relay
   \   000035   7402         MOV     A,#0x2
   \   000037   12....       LCALL   ?DEALLOC_XSTACK8
   \   00003A   8B..         MOV     ?V0 + 1,R3
   \   00003C   EA           MOV     A,R2
   \   00003D   45..         ORL     A,?V0 + 1
   \   00003F   70D1         JNZ     ??dmp_get_pedometer_step_count_1
    918                  return -1;
    919          
    920              count[0] = ((unsigned long)tmp[0] << 24) | ((unsigned long)tmp[1] << 16) |
    921                  ((unsigned long)tmp[2] << 8) | tmp[3];
   \   000041   85..82       MOV     DPL,?XSP + 0
   \   000044   85..83       MOV     DPH,?XSP + 1
   \   000047   E0           MOVX    A,@DPTR
   \   000048   F5..         MOV     ?V0 + 0,A
   \   00004A   E4           CLR     A
   \   00004B   F5..         MOV     ?V0 + 1,A
   \   00004D   F5..         MOV     ?V0 + 2,A
   \   00004F   F5..         MOV     ?V0 + 3,A
   \   000051   7418         MOV     A,#0x18
   \   000053   78..         MOV     R0,#?V0 + 0
   \   000055   12....       LCALL   ?L_SHL
   \   000058   04           INC     A
   \   000059   12....       LCALL   ?XSTACK_DISP0_8
   \   00005C   E0           MOVX    A,@DPTR
   \   00005D   F5..         MOV     ?V0 + 4,A
   \   00005F   E4           CLR     A
   \   000060   F5..         MOV     ?V0 + 5,A
   \   000062   F5..         MOV     ?V0 + 6,A
   \   000064   F5..         MOV     ?V0 + 7,A
   \   000066   7410         MOV     A,#0x10
   \   000068   78..         MOV     R0,#?V0 + 4
   \   00006A   12....       LCALL   ?L_SHL
   \   00006D   78..         MOV     R0,#?V0 + 0
   \   00006F   79..         MOV     R1,#?V0 + 4
   \   000071   12....       LCALL   ?L_IOR
   \   000074   7402         MOV     A,#0x2
   \   000076   12....       LCALL   ?XSTACK_DISP0_8
   \   000079   E0           MOVX    A,@DPTR
   \   00007A   F5..         MOV     ?V0 + 4,A
   \   00007C   E4           CLR     A
   \   00007D   F5..         MOV     ?V0 + 6,A
   \   00007F   7408         MOV     A,#0x8
   \   000081   78..         MOV     R0,#?V0 + 4
   \   000083   12....       LCALL   ?L_SHL
   \   000086   78..         MOV     R0,#?V0 + 0
   \   000088   79..         MOV     R1,#?V0 + 4
   \   00008A   12....       LCALL   ?L_IOR
   \   00008D   7403         MOV     A,#0x3
   \   00008F   12....       LCALL   ?XSTACK_DISP0_8
   \   000092   E0           MOVX    A,@DPTR
   \   000093   F5..         MOV     ?V0 + 4,A
   \   000095   E4           CLR     A
   \   000096   F5..         MOV     ?V0 + 5,A
   \   000098   78..         MOV     R0,#?V0 + 0
   \   00009A   79..         MOV     R1,#?V0 + 4
   \   00009C   12....       LCALL   ?L_IOR
   \   00009F   8E82         MOV     DPL,R6
   \   0000A1   8F83         MOV     DPH,R7
   \   0000A3   78..         MOV     R0,#?V0 + 0
   \   0000A5   12....       LCALL   ?L_MOV_TO_X
    922              return 0;
   \   0000A8   7A00         MOV     R2,#0x0
   \   0000AA   7B00         MOV     R3,#0x0
   \                     ??dmp_get_pedometer_step_count_2:
   \   0000AC   7404         MOV     A,#0x4
   \   0000AE   12....       LCALL   ?DEALLOC_XSTACK8
   \   0000B1   7F08         MOV     R7,#0x8
   \   0000B3   02....       LJMP    ?BANKED_LEAVE_XDATA
    923          }
    924          
    925          /**
    926           *  @brief      Overwrite current step count.
    927           *  WARNING: This function writes to DMP memory and could potentially encounter
    928           *  a race condition if called while the pedometer is enabled.
    929           *  @param[in]  count   New step count.
    930           *  @return     0 if successful.
    931           */

   \                                 In  segment BANKED_CODE, align 1, keep-with-next
    932          int dmp_set_pedometer_step_count(unsigned long count)
   \                     dmp_set_pedometer_step_count:
    933          {
   \   000000   74F0         MOV     A,#-0x10
   \   000002   12....       LCALL   ?BANKED_ENTER_XDATA
   \   000005                ; Saved register size: 16
   \   000005                ; Auto size: 4
   \   000005   74FC         MOV     A,#-0x4
   \   000007   12....       LCALL   ?ALLOC_XSTACK8
    934              unsigned char tmp[4];
    935          
    936              tmp[0] = (unsigned char)((count >> 24) & 0xFF);
   \   00000A   85..82       MOV     DPL,?XSP + 0
   \   00000D   85..83       MOV     DPH,?XSP + 1
   \   000010   ED           MOV     A,R5
   \   000011   F0           MOVX    @DPTR,A
    937              tmp[1] = (unsigned char)((count >> 16) & 0xFF);
   \   000012   8A..         MOV     ?V0 + 0,R2
   \   000014   8B..         MOV     ?V0 + 1,R3
   \   000016   8C..         MOV     ?V0 + 2,R4
   \   000018   F5..         MOV     ?V0 + 3,A
   \   00001A   7410         MOV     A,#0x10
   \   00001C   78..         MOV     R0,#?V0 + 0
   \   00001E   12....       LCALL   ?UL_SHR
   \   000021   04           INC     A
   \   000022   12....       LCALL   ?XSTACK_DISP0_8
   \   000025   EC           MOV     A,R4
   \   000026   F0           MOVX    @DPTR,A
    938              tmp[2] = (unsigned char)((count >> 8) & 0xFF);
   \   000027   7402         MOV     A,#0x2
   \   000029   12....       LCALL   ?XSTACK_DISP0_8
   \   00002C   EB           MOV     A,R3
   \   00002D   F0           MOVX    @DPTR,A
    939              tmp[3] = (unsigned char)(count & 0xFF);
   \   00002E   7403         MOV     A,#0x3
   \   000030   12....       LCALL   ?XSTACK_DISP0_8
   \   000033   EA           MOV     A,R2
   \   000034   F0           MOVX    @DPTR,A
    940              return mpu_write_mem(D_PEDSTD_STEPCTR, 4, tmp);
   \   000035                ; Setup parameters for call to function mpu_write_mem
   \   000035   85..82       MOV     DPL,?XSP + 0
   \   000038   85..83       MOV     DPH,?XSP + 1
   \   00003B   8582..       MOV     ?V0 + 0,DPL
   \   00003E   8583..       MOV     ?V0 + 1,DPH
   \   000041   78..         MOV     R0,#?V0 + 0
   \   000043   12....       LCALL   ?PUSH_XSTACK_I_TWO
   \   000046   7C04         MOV     R4,#0x4
   \   000048   7D00         MOV     R5,#0x0
   \   00004A   7A60         MOV     R2,#0x60
   \   00004C   7B03         MOV     R3,#0x3
   \   00004E   12....       LCALL   ??mpu_write_mem?relay
   \   000051   7402         MOV     A,#0x2
   \   000053   12....       LCALL   ?DEALLOC_XSTACK8
   \   000056   7404         MOV     A,#0x4
   \   000058   12....       LCALL   ?DEALLOC_XSTACK8
   \   00005B   7F08         MOV     R7,#0x8
   \   00005D   02....       LJMP    ?BANKED_LEAVE_XDATA
    941          }
    942          
    943          /**
    944           *  @brief      Get duration of walking time.
    945           *  @param[in]  time    Walk time in milliseconds.
    946           *  @return     0 if successful.
    947           */

   \                                 In  segment BANKED_CODE, align 1, keep-with-next
    948          int dmp_get_pedometer_walk_time(unsigned long *time)
   \                     dmp_get_pedometer_walk_time:
    949          {
   \   000000   74F0         MOV     A,#-0x10
   \   000002   12....       LCALL   ?BANKED_ENTER_XDATA
   \   000005                ; Saved register size: 16
   \   000005                ; Auto size: 4
   \   000005   74FC         MOV     A,#-0x4
   \   000007   12....       LCALL   ?ALLOC_XSTACK8
   \   00000A   EA           MOV     A,R2
   \   00000B   FE           MOV     R6,A
   \   00000C   EB           MOV     A,R3
   \   00000D   FF           MOV     R7,A
    950              unsigned char tmp[4];
    951              if (!time)
   \   00000E   EE           MOV     A,R6
   \   00000F   4F           ORL     A,R7
   \   000010   7007         JNZ     ??dmp_get_pedometer_walk_time_0
    952                  return -1;
   \                     ??dmp_get_pedometer_walk_time_1:
   \   000012   7AFF         MOV     R2,#-0x1
   \   000014   7BFF         MOV     R3,#-0x1
   \   000016   02....       LJMP    ??dmp_get_pedometer_walk_time_2 & 0xFFFF
    953          
    954              if (mpu_read_mem(D_PEDSTD_TIMECTR, 4, tmp))
   \                     ??dmp_get_pedometer_walk_time_0:
   \   000019                ; Setup parameters for call to function mpu_read_mem
   \   000019   85..82       MOV     DPL,?XSP + 0
   \   00001C   85..83       MOV     DPH,?XSP + 1
   \   00001F   8582..       MOV     ?V0 + 0,DPL
   \   000022   8583..       MOV     ?V0 + 1,DPH
   \   000025   78..         MOV     R0,#?V0 + 0
   \   000027   12....       LCALL   ?PUSH_XSTACK_I_TWO
   \   00002A   7C04         MOV     R4,#0x4
   \   00002C   7D00         MOV     R5,#0x0
   \   00002E   7AC4         MOV     R2,#-0x3c
   \   000030   7B03         MOV     R3,#0x3
   \   000032   12....       LCALL   ??mpu_read_mem?relay
   \   000035   7402         MOV     A,#0x2
   \   000037   12....       LCALL   ?DEALLOC_XSTACK8
   \   00003A   8B..         MOV     ?V0 + 1,R3
   \   00003C   EA           MOV     A,R2
   \   00003D   45..         ORL     A,?V0 + 1
   \   00003F   70D1         JNZ     ??dmp_get_pedometer_walk_time_1
    955                  return -1;
    956          
    957              time[0] = (((unsigned long)tmp[0] << 24) | ((unsigned long)tmp[1] << 16) |
    958                  ((unsigned long)tmp[2] << 8) | tmp[3]) * 20;
   \   000041   85..82       MOV     DPL,?XSP + 0
   \   000044   85..83       MOV     DPH,?XSP + 1
   \   000047   E0           MOVX    A,@DPTR
   \   000048   F5..         MOV     ?V0 + 0,A
   \   00004A   E4           CLR     A
   \   00004B   F5..         MOV     ?V0 + 1,A
   \   00004D   F5..         MOV     ?V0 + 2,A
   \   00004F   F5..         MOV     ?V0 + 3,A
   \   000051   7418         MOV     A,#0x18
   \   000053   78..         MOV     R0,#?V0 + 0
   \   000055   12....       LCALL   ?L_SHL
   \   000058   04           INC     A
   \   000059   12....       LCALL   ?XSTACK_DISP0_8
   \   00005C   E0           MOVX    A,@DPTR
   \   00005D   F5..         MOV     ?V0 + 4,A
   \   00005F   E4           CLR     A
   \   000060   F5..         MOV     ?V0 + 5,A
   \   000062   F5..         MOV     ?V0 + 6,A
   \   000064   F5..         MOV     ?V0 + 7,A
   \   000066   7410         MOV     A,#0x10
   \   000068   78..         MOV     R0,#?V0 + 4
   \   00006A   12....       LCALL   ?L_SHL
   \   00006D   78..         MOV     R0,#?V0 + 0
   \   00006F   79..         MOV     R1,#?V0 + 4
   \   000071   12....       LCALL   ?L_IOR
   \   000074   7402         MOV     A,#0x2
   \   000076   12....       LCALL   ?XSTACK_DISP0_8
   \   000079   E0           MOVX    A,@DPTR
   \   00007A   F5..         MOV     ?V0 + 4,A
   \   00007C   E4           CLR     A
   \   00007D   F5..         MOV     ?V0 + 6,A
   \   00007F   7408         MOV     A,#0x8
   \   000081   78..         MOV     R0,#?V0 + 4
   \   000083   12....       LCALL   ?L_SHL
   \   000086   78..         MOV     R0,#?V0 + 0
   \   000088   79..         MOV     R1,#?V0 + 4
   \   00008A   12....       LCALL   ?L_IOR
   \   00008D   7403         MOV     A,#0x3
   \   00008F   12....       LCALL   ?XSTACK_DISP0_8
   \   000092   E0           MOVX    A,@DPTR
   \   000093   F5..         MOV     ?V0 + 4,A
   \   000095   E4           CLR     A
   \   000096   F5..         MOV     ?V0 + 5,A
   \   000098   78..         MOV     R0,#?V0 + 0
   \   00009A   79..         MOV     R1,#?V0 + 4
   \   00009C   12....       LCALL   ?L_IOR
   \   00009F   90....       MOV     DPTR,#__Constant_14
   \   0000A2   78..         MOV     R0,#?V0 + 4
   \   0000A4   12....       LCALL   ?L_MOV_X
   \   0000A7   78..         MOV     R0,#?V0 + 0
   \   0000A9   79..         MOV     R1,#?V0 + 4
   \   0000AB   12....       LCALL   ?L_MUL
   \   0000AE   8E82         MOV     DPL,R6
   \   0000B0   8F83         MOV     DPH,R7
   \   0000B2   78..         MOV     R0,#?V0 + 0
   \   0000B4   12....       LCALL   ?L_MOV_TO_X
    959              return 0;
   \   0000B7   7A00         MOV     R2,#0x0
   \   0000B9   7B00         MOV     R3,#0x0
   \                     ??dmp_get_pedometer_walk_time_2:
   \   0000BB   7404         MOV     A,#0x4
   \   0000BD   12....       LCALL   ?DEALLOC_XSTACK8
   \   0000C0   7F08         MOV     R7,#0x8
   \   0000C2   02....       LJMP    ?BANKED_LEAVE_XDATA
    960          }
    961          
    962          /**
    963           *  @brief      Overwrite current walk time.
    964           *  WARNING: This function writes to DMP memory and could potentially encounter
    965           *  a race condition if called while the pedometer is enabled.
    966           *  @param[in]  time    New walk time in milliseconds.
    967           */

   \                                 In  segment BANKED_CODE, align 1, keep-with-next
    968          int dmp_set_pedometer_walk_time(unsigned long time)
   \                     dmp_set_pedometer_walk_time:
    969          {
   \   000000   74F0         MOV     A,#-0x10
   \   000002   12....       LCALL   ?BANKED_ENTER_XDATA
   \   000005                ; Saved register size: 16
   \   000005                ; Auto size: 4
   \   000005   74FC         MOV     A,#-0x4
   \   000007   12....       LCALL   ?ALLOC_XSTACK8
   \   00000A   8A..         MOV     ?V0 + 4,R2
   \   00000C   8B..         MOV     ?V0 + 5,R3
   \   00000E   8C..         MOV     ?V0 + 6,R4
   \   000010   8D..         MOV     ?V0 + 7,R5
    970              unsigned char tmp[4];
    971          
    972              time /= 20;
   \   000012   90....       MOV     DPTR,#__Constant_14
   \   000015   78..         MOV     R0,#?V0 + 0
   \   000017   12....       LCALL   ?L_MOV_X
   \   00001A   78..         MOV     R0,#?V0 + 4
   \   00001C   79..         MOV     R1,#?V0 + 0
   \   00001E   12....       LCALL   ?UL_DIV_MOD
    973          
    974              tmp[0] = (unsigned char)((time >> 24) & 0xFF);
   \   000021   85....       MOV     ?V0 + 0,?V0 + 4
   \   000024   85....       MOV     ?V0 + 1,?V0 + 5
   \   000027   85....       MOV     ?V0 + 2,?V0 + 6
   \   00002A   85....       MOV     ?V0 + 3,?V0 + 7
   \   00002D   7418         MOV     A,#0x18
   \   00002F   78..         MOV     R0,#?V0 + 0
   \   000031   12....       LCALL   ?UL_SHR
   \   000034   85..82       MOV     DPL,?XSP + 0
   \   000037   85..83       MOV     DPH,?XSP + 1
   \   00003A   E5..         MOV     A,?V0 + 0
   \   00003C   F0           MOVX    @DPTR,A
    975              tmp[1] = (unsigned char)((time >> 16) & 0xFF);
   \   00003D   85....       MOV     ?V0 + 0,?V0 + 4
   \   000040   85....       MOV     ?V0 + 1,?V0 + 5
   \   000043   85....       MOV     ?V0 + 2,?V0 + 6
   \   000046   F5..         MOV     ?V0 + 3,A
   \   000048   7410         MOV     A,#0x10
   \   00004A   78..         MOV     R0,#?V0 + 0
   \   00004C   12....       LCALL   ?UL_SHR
   \   00004F   04           INC     A
   \   000050   12....       LCALL   ?XSTACK_DISP0_8
   \   000053   E5..         MOV     A,?V0 + 0
   \   000055   F0           MOVX    @DPTR,A
    976              tmp[2] = (unsigned char)((time >> 8) & 0xFF);
   \   000056   85....       MOV     ?V0 + 1,?V0 + 5
   \   000059   E5..         MOV     A,?V0 + 1
   \   00005B   F5..         MOV     ?V0 + 0,A
   \   00005D   7402         MOV     A,#0x2
   \   00005F   12....       LCALL   ?XSTACK_DISP0_8
   \   000062   E5..         MOV     A,?V0 + 0
   \   000064   F0           MOVX    @DPTR,A
    977              tmp[3] = (unsigned char)(time & 0xFF);
   \   000065   7403         MOV     A,#0x3
   \   000067   12....       LCALL   ?XSTACK_DISP0_8
   \   00006A   E5..         MOV     A,?V0 + 4
   \   00006C   F0           MOVX    @DPTR,A
    978              return mpu_write_mem(D_PEDSTD_TIMECTR, 4, tmp);
   \   00006D                ; Setup parameters for call to function mpu_write_mem
   \   00006D   85..82       MOV     DPL,?XSP + 0
   \   000070   85..83       MOV     DPH,?XSP + 1
   \   000073   8582..       MOV     ?V0 + 0,DPL
   \   000076   8583..       MOV     ?V0 + 1,DPH
   \   000079   78..         MOV     R0,#?V0 + 0
   \   00007B   12....       LCALL   ?PUSH_XSTACK_I_TWO
   \   00007E   7C04         MOV     R4,#0x4
   \   000080   7D00         MOV     R5,#0x0
   \   000082   7AC4         MOV     R2,#-0x3c
   \   000084   7B03         MOV     R3,#0x3
   \   000086   12....       LCALL   ??mpu_write_mem?relay
   \   000089   7402         MOV     A,#0x2
   \   00008B   12....       LCALL   ?DEALLOC_XSTACK8
   \   00008E   7404         MOV     A,#0x4
   \   000090   12....       LCALL   ?DEALLOC_XSTACK8
   \   000093   7F08         MOV     R7,#0x8
   \   000095   02....       LJMP    ?BANKED_LEAVE_XDATA
    979          }
    980          
    981          /**
    982           *  @brief      Enable DMP features.
    983           *  The following \#define's are used in the input mask:
    984           *  \n DMP_FEATURE_TAP
    985           *  \n DMP_FEATURE_ANDROID_ORIENT
    986           *  \n DMP_FEATURE_LP_QUAT
    987           *  \n DMP_FEATURE_6X_LP_QUAT
    988           *  \n DMP_FEATURE_GYRO_CAL
    989           *  \n DMP_FEATURE_SEND_RAW_ACCEL
    990           *  \n DMP_FEATURE_SEND_RAW_GYRO
    991           *  \n NOTE: DMP_FEATURE_LP_QUAT and DMP_FEATURE_6X_LP_QUAT are mutually
    992           *  exclusive.
    993           *  \n NOTE: DMP_FEATURE_SEND_RAW_GYRO and DMP_FEATURE_SEND_CAL_GYRO are also
    994           *  mutually exclusive.
    995           *  @param[in]  mask    Mask of features to enable.
    996           *  @return     0 if successful.
    997           */

   \                                 In  segment BANKED_CODE, align 1, keep-with-next
    998          int dmp_enable_feature(unsigned short mask)
   \                     dmp_enable_feature:
    999          {
   \   000000   74F2         MOV     A,#-0xe
   \   000002   12....       LCALL   ?BANKED_ENTER_XDATA
   \   000005                ; Saved register size: 14
   \   000005                ; Auto size: 10
   \   000005   74F6         MOV     A,#-0xa
   \   000007   12....       LCALL   ?ALLOC_XSTACK8
   \   00000A   EA           MOV     A,R2
   \   00000B   FE           MOV     R6,A
   \   00000C   EB           MOV     A,R3
   \   00000D   FF           MOV     R7,A
   1000              unsigned char tmp[10];
   1001          
   1002              /* TODO: All of these settings can probably be integrated into the default
   1003               * DMP image.
   1004               */
   1005              /* Set integration scale factor. */
   1006              tmp[0] = (unsigned char)((GYRO_SF >> 24) & 0xFF);
   \   00000E   85..82       MOV     DPL,?XSP + 0
   \   000011   85..83       MOV     DPH,?XSP + 1
   \   000014   E4           CLR     A
   \   000015   F0           MOVX    @DPTR,A
   1007              tmp[1] = (unsigned char)((GYRO_SF >> 16) & 0xFF);
   \   000016   04           INC     A
   \   000017   12....       LCALL   ?XSTACK_DISP0_8
   \   00001A   743B         MOV     A,#0x3b
   \   00001C   F0           MOVX    @DPTR,A
   1008              tmp[2] = (unsigned char)((GYRO_SF >> 8) & 0xFF);
   \   00001D   7402         MOV     A,#0x2
   \   00001F   12....       LCALL   ?XSTACK_DISP0_8
   \   000022   7486         MOV     A,#-0x7a
   \   000024   F0           MOVX    @DPTR,A
   1009              tmp[3] = (unsigned char)(GYRO_SF & 0xFF);
   \   000025   7403         MOV     A,#0x3
   \   000027   12....       LCALL   ?XSTACK_DISP0_8
   \   00002A   74E0         MOV     A,#-0x20
   \   00002C   F0           MOVX    @DPTR,A
   1010              mpu_write_mem(D_0_104, 4, tmp);
   \   00002D                ; Setup parameters for call to function mpu_write_mem
   \   00002D   85..82       MOV     DPL,?XSP + 0
   \   000030   85..83       MOV     DPH,?XSP + 1
   \   000033   8582..       MOV     ?V0 + 0,DPL
   \   000036   8583..       MOV     ?V0 + 1,DPH
   \   000039   78..         MOV     R0,#?V0 + 0
   \   00003B   12....       LCALL   ?PUSH_XSTACK_I_TWO
   \   00003E   7C04         MOV     R4,#0x4
   \   000040   7D00         MOV     R5,#0x0
   \   000042   7A68         MOV     R2,#0x68
   \   000044   7B00         MOV     R3,#0x0
   \   000046   12....       LCALL   ??mpu_write_mem?relay
   \   000049   7402         MOV     A,#0x2
   \   00004B   12....       LCALL   ?DEALLOC_XSTACK8
   1011          
   1012              /* Send sensor data to the FIFO. */
   1013              tmp[0] = 0xA3;
   \   00004E   85..82       MOV     DPL,?XSP + 0
   \   000051   85..83       MOV     DPH,?XSP + 1
   \   000054   74A3         MOV     A,#-0x5d
   \   000056   F0           MOVX    @DPTR,A
   1014              if (mask & DMP_FEATURE_SEND_RAW_ACCEL) {
   \   000057   EE           MOV     A,R6
   \   000058   5440         ANL     A,#0x40
   \   00005A   F5..         MOV     ?V0 + 3,A
   \   00005C   6019         JZ      ??dmp_enable_feature_0
   1015                  tmp[1] = 0xC0;
   \   00005E   7401         MOV     A,#0x1
   \   000060   12....       LCALL   ?XSTACK_DISP0_8
   \   000063   74C0         MOV     A,#-0x40
   \   000065   F0           MOVX    @DPTR,A
   1016                  tmp[2] = 0xC8;
   \   000066   7402         MOV     A,#0x2
   \   000068   12....       LCALL   ?XSTACK_DISP0_8
   \   00006B   74C8         MOV     A,#-0x38
   \   00006D   F0           MOVX    @DPTR,A
   1017                  tmp[3] = 0xC2;
   \   00006E   7403         MOV     A,#0x3
   \   000070   12....       LCALL   ?XSTACK_DISP0_8
   \   000073   74C2         MOV     A,#-0x3e
   \   000075   8017         SJMP    ??dmp_enable_feature_1
   1018              } else {
   1019                  tmp[1] = 0xA3;
   \                     ??dmp_enable_feature_0:
   \   000077   7401         MOV     A,#0x1
   \   000079   12....       LCALL   ?XSTACK_DISP0_8
   \   00007C   74A3         MOV     A,#-0x5d
   \   00007E   F0           MOVX    @DPTR,A
   1020                  tmp[2] = 0xA3;
   \   00007F   7402         MOV     A,#0x2
   \   000081   12....       LCALL   ?XSTACK_DISP0_8
   \   000084   74A3         MOV     A,#-0x5d
   \   000086   F0           MOVX    @DPTR,A
   1021                  tmp[3] = 0xA3;
   \   000087   7403         MOV     A,#0x3
   \   000089   12....       LCALL   ?XSTACK_DISP0_8
   \   00008C   74A3         MOV     A,#-0x5d
   \                     ??dmp_enable_feature_1:
   \   00008E   F0           MOVX    @DPTR,A
   1022              }
   1023              if (mask & DMP_FEATURE_SEND_ANY_GYRO) {
   \   00008F   EE           MOV     A,R6
   \   000090   5480         ANL     A,#0x80
   \   000092   F5..         MOV     ?V0 + 0,A
   \   000094   EF           MOV     A,R7
   \   000095   5401         ANL     A,#0x1
   \   000097   F5..         MOV     ?V0 + 1,A
   \   000099   E5..         MOV     A,?V0 + 0
   \   00009B   45..         ORL     A,?V0 + 1
   \   00009D   6019         JZ      ??dmp_enable_feature_2
   1024                  tmp[4] = 0xC4;
   \   00009F   7404         MOV     A,#0x4
   \   0000A1   12....       LCALL   ?XSTACK_DISP0_8
   \   0000A4   74C4         MOV     A,#-0x3c
   \   0000A6   F0           MOVX    @DPTR,A
   1025                  tmp[5] = 0xCC;
   \   0000A7   7405         MOV     A,#0x5
   \   0000A9   12....       LCALL   ?XSTACK_DISP0_8
   \   0000AC   74CC         MOV     A,#-0x34
   \   0000AE   F0           MOVX    @DPTR,A
   1026                  tmp[6] = 0xC6;
   \   0000AF   7406         MOV     A,#0x6
   \   0000B1   12....       LCALL   ?XSTACK_DISP0_8
   \   0000B4   74C6         MOV     A,#-0x3a
   \   0000B6   8017         SJMP    ??dmp_enable_feature_3
   1027              } else {
   1028                  tmp[4] = 0xA3;
   \                     ??dmp_enable_feature_2:
   \   0000B8   7404         MOV     A,#0x4
   \   0000BA   12....       LCALL   ?XSTACK_DISP0_8
   \   0000BD   74A3         MOV     A,#-0x5d
   \   0000BF   F0           MOVX    @DPTR,A
   1029                  tmp[5] = 0xA3;
   \   0000C0   7405         MOV     A,#0x5
   \   0000C2   12....       LCALL   ?XSTACK_DISP0_8
   \   0000C5   74A3         MOV     A,#-0x5d
   \   0000C7   F0           MOVX    @DPTR,A
   1030                  tmp[6] = 0xA3;
   \   0000C8   7406         MOV     A,#0x6
   \   0000CA   12....       LCALL   ?XSTACK_DISP0_8
   \   0000CD   74A3         MOV     A,#-0x5d
   \                     ??dmp_enable_feature_3:
   \   0000CF   F0           MOVX    @DPTR,A
   1031              }
   1032              tmp[7] = 0xA3;
   \   0000D0   7407         MOV     A,#0x7
   \   0000D2   12....       LCALL   ?XSTACK_DISP0_8
   \   0000D5   74A3         MOV     A,#-0x5d
   \   0000D7   F0           MOVX    @DPTR,A
   1033              tmp[8] = 0xA3;
   \   0000D8   7408         MOV     A,#0x8
   \   0000DA   12....       LCALL   ?XSTACK_DISP0_8
   \   0000DD   74A3         MOV     A,#-0x5d
   \   0000DF   F0           MOVX    @DPTR,A
   1034              tmp[9] = 0xA3;
   \   0000E0   7409         MOV     A,#0x9
   \   0000E2   12....       LCALL   ?XSTACK_DISP0_8
   \   0000E5   74A3         MOV     A,#-0x5d
   \   0000E7   F0           MOVX    @DPTR,A
   1035              mpu_write_mem(CFG_15,10,tmp);
   \   0000E8                ; Setup parameters for call to function mpu_write_mem
   \   0000E8   85..82       MOV     DPL,?XSP + 0
   \   0000EB   85..83       MOV     DPH,?XSP + 1
   \   0000EE   8582..       MOV     ?V0 + 4,DPL
   \   0000F1   8583..       MOV     ?V0 + 5,DPH
   \   0000F4   78..         MOV     R0,#?V0 + 4
   \   0000F6   12....       LCALL   ?PUSH_XSTACK_I_TWO
   \   0000F9   7C0A         MOV     R4,#0xa
   \   0000FB   7D00         MOV     R5,#0x0
   \   0000FD   7AA7         MOV     R2,#-0x59
   \   0000FF   7B0A         MOV     R3,#0xa
   \   000101   12....       LCALL   ??mpu_write_mem?relay
   \   000104   7402         MOV     A,#0x2
   \   000106   12....       LCALL   ?DEALLOC_XSTACK8
   1036          
   1037              /* Send gesture data to the FIFO. */
   1038              if (mask & (DMP_FEATURE_TAP | DMP_FEATURE_ANDROID_ORIENT))
   \   000109   EE           MOV     A,R6
   \   00010A   5403         ANL     A,#0x3
   \   00010C   F5..         MOV     ?V0 + 2,A
   \   00010E   85..82       MOV     DPL,?XSP + 0
   \   000111   85..83       MOV     DPH,?XSP + 1
   \   000114   6004         JZ      ??dmp_enable_feature_4
   1039                  tmp[0] = DINA20;
   \   000116   7420         MOV     A,#0x20
   \   000118   8002         SJMP    ??dmp_enable_feature_5
   1040              else
   1041                  tmp[0] = 0xD8;
   \                     ??dmp_enable_feature_4:
   \   00011A   74D8         MOV     A,#-0x28
   \                     ??dmp_enable_feature_5:
   \   00011C   F0           MOVX    @DPTR,A
   1042              mpu_write_mem(CFG_27,1,tmp);
   \   00011D                ; Setup parameters for call to function mpu_write_mem
   \   00011D   78..         MOV     R0,#?V0 + 4
   \   00011F   12....       LCALL   ?PUSH_XSTACK_I_TWO
   \   000122   7C01         MOV     R4,#0x1
   \   000124   7D00         MOV     R5,#0x0
   \   000126   7AB6         MOV     R2,#-0x4a
   \   000128   7B0A         MOV     R3,#0xa
   \   00012A   12....       LCALL   ??mpu_write_mem?relay
   \   00012D   7402         MOV     A,#0x2
   \   00012F   12....       LCALL   ?DEALLOC_XSTACK8
   1043          
   1044              if (mask & DMP_FEATURE_GYRO_CAL)
   \   000132   EE           MOV     A,R6
   \   000133   5420         ANL     A,#0x20
   \   000135   6004         JZ      ??dmp_enable_feature_6
   1045                  dmp_enable_gyro_cal(1);
   \   000137                ; Setup parameters for call to function dmp_enable_gyro_cal
   \   000137   7901         MOV     R1,#0x1
   \   000139   8002         SJMP    ??dmp_enable_feature_7
   1046              else
   1047                  dmp_enable_gyro_cal(0);
   \                     ??dmp_enable_feature_6:
   \   00013B                ; Setup parameters for call to function dmp_enable_gyro_cal
   \   00013B   7900         MOV     R1,#0x0
   \                     ??dmp_enable_feature_7:
   \   00013D   12....       LCALL   ??dmp_enable_gyro_cal?relay
   1048          
   1049              if (mask & DMP_FEATURE_SEND_ANY_GYRO) {
   \   000140   E5..         MOV     A,?V0 + 0
   \   000142   45..         ORL     A,?V0 + 1
   \   000144   6057         JZ      ??dmp_enable_feature_8
   1050                  if (mask & DMP_FEATURE_SEND_CAL_GYRO) {
   \   000146   EF           MOV     A,R7
   \   000147   5401         ANL     A,#0x1
   \   000149   85..82       MOV     DPL,?XSP + 0
   \   00014C   85..83       MOV     DPH,?XSP + 1
   \   00014F   601C         JZ      ??dmp_enable_feature_9
   1051                      tmp[0] = 0xB2;
   \   000151   74B2         MOV     A,#-0x4e
   \   000153   F0           MOVX    @DPTR,A
   1052                      tmp[1] = 0x8B;
   \   000154   7401         MOV     A,#0x1
   \   000156   12....       LCALL   ?XSTACK_DISP0_8
   \   000159   748B         MOV     A,#-0x75
   \   00015B   F0           MOVX    @DPTR,A
   1053                      tmp[2] = 0xB6;
   \   00015C   7402         MOV     A,#0x2
   \   00015E   12....       LCALL   ?XSTACK_DISP0_8
   \   000161   74B6         MOV     A,#-0x4a
   \   000163   F0           MOVX    @DPTR,A
   1054                      tmp[3] = 0x9B;
   \   000164   7403         MOV     A,#0x3
   \   000166   12....       LCALL   ?XSTACK_DISP0_8
   \   000169   749B         MOV     A,#-0x65
   \   00016B   801A         SJMP    ??dmp_enable_feature_10
   1055                  } else {
   1056                      tmp[0] = DINAC0;
   \                     ??dmp_enable_feature_9:
   \   00016D   74B0         MOV     A,#-0x50
   \   00016F   F0           MOVX    @DPTR,A
   1057                      tmp[1] = DINA80;
   \   000170   7401         MOV     A,#0x1
   \   000172   12....       LCALL   ?XSTACK_DISP0_8
   \   000175   7480         MOV     A,#-0x80
   \   000177   F0           MOVX    @DPTR,A
   1058                      tmp[2] = DINAC2;
   \   000178   7402         MOV     A,#0x2
   \   00017A   12....       LCALL   ?XSTACK_DISP0_8
   \   00017D   74B4         MOV     A,#-0x4c
   \   00017F   F0           MOVX    @DPTR,A
   1059                      tmp[3] = DINA90;
   \   000180   7403         MOV     A,#0x3
   \   000182   12....       LCALL   ?XSTACK_DISP0_8
   \   000185   7490         MOV     A,#-0x70
   \                     ??dmp_enable_feature_10:
   \   000187   F0           MOVX    @DPTR,A
   1060                  }
   1061                  mpu_write_mem(CFG_GYRO_RAW_DATA, 4, tmp);
   \   000188                ; Setup parameters for call to function mpu_write_mem
   \   000188   78..         MOV     R0,#?V0 + 4
   \   00018A   12....       LCALL   ?PUSH_XSTACK_I_TWO
   \   00018D   7C04         MOV     R4,#0x4
   \   00018F   7D00         MOV     R5,#0x0
   \   000191   7AA2         MOV     R2,#-0x5e
   \   000193   7B0A         MOV     R3,#0xa
   \   000195   12....       LCALL   ??mpu_write_mem?relay
   \   000198   7402         MOV     A,#0x2
   \   00019A   12....       LCALL   ?DEALLOC_XSTACK8
   1062              }
   1063          
   1064              if (mask & DMP_FEATURE_TAP) {
   \                     ??dmp_enable_feature_8:
   \   00019D   EE           MOV     A,R6
   \   00019E   A2E0         MOV     C,0xE0 /* A   */.0
   \   0001A0   85..82       MOV     DPL,?XSP + 0
   \   0001A3   85..83       MOV     DPH,?XSP + 1
   \   0001A6   5062         JNC     ??dmp_enable_feature_11
   1065                  /* Enable tap. */
   1066                  tmp[0] = 0xF8;
   \   0001A8   74F8         MOV     A,#-0x8
   \   0001AA   F0           MOVX    @DPTR,A
   1067                  mpu_write_mem(CFG_20, 1, tmp);
   \   0001AB                ; Setup parameters for call to function mpu_write_mem
   \   0001AB   78..         MOV     R0,#?V0 + 4
   \   0001AD   12....       LCALL   ?PUSH_XSTACK_I_TWO
   \   0001B0   7C01         MOV     R4,#0x1
   \   0001B2   7D00         MOV     R5,#0x0
   \   0001B4   7AB0         MOV     R2,#-0x50
   \   0001B6   7B08         MOV     R3,#0x8
   \   0001B8   12....       LCALL   ??mpu_write_mem?relay
   \   0001BB   7402         MOV     A,#0x2
   \   0001BD   12....       LCALL   ?DEALLOC_XSTACK8
   1068                  dmp_set_tap_thresh(TAP_XYZ, 250);
   \   0001C0                ; Setup parameters for call to function dmp_set_tap_thresh
   \   0001C0   7AFA         MOV     R2,#-0x6
   \   0001C2   7B00         MOV     R3,#0x0
   \   0001C4   7907         MOV     R1,#0x7
   \   0001C6   12....       LCALL   ??dmp_set_tap_thresh?relay
   1069                  dmp_set_tap_axes(TAP_XYZ);
   \   0001C9                ; Setup parameters for call to function dmp_set_tap_axes
   \   0001C9   7907         MOV     R1,#0x7
   \   0001CB   12....       LCALL   ??dmp_set_tap_axes?relay
   1070                  dmp_set_tap_count(1);
   \   0001CE                ; Setup parameters for call to function dmp_set_tap_count
   \   0001CE   7901         MOV     R1,#0x1
   \   0001D0   12....       LCALL   ??dmp_set_tap_count?relay
   1071                  dmp_set_tap_time(100);
   \   0001D3                ; Setup parameters for call to function dmp_set_tap_time
   \   0001D3   7A64         MOV     R2,#0x64
   \   0001D5   7B00         MOV     R3,#0x0
   \   0001D7   12....       LCALL   ??dmp_set_tap_time?relay
   1072                  dmp_set_tap_time_multi(500);
   \   0001DA                ; Setup parameters for call to function dmp_set_tap_time_multi
   \   0001DA   7AF4         MOV     R2,#-0xc
   \   0001DC   7B01         MOV     R3,#0x1
   \   0001DE   12....       LCALL   ??dmp_set_tap_time_multi?relay
   1073          
   1074                  dmp_set_shake_reject_thresh(GYRO_SF, 200);
   \   0001E1                ; Setup parameters for call to function dmp_set_shake_reject_thresh
   \   0001E1   75..C8       MOV     ?V0 + 4,#-0x38
   \   0001E4   75..00       MOV     ?V0 + 5,#0x0
   \   0001E7   78..         MOV     R0,#?V0 + 4
   \   0001E9   12....       LCALL   ?PUSH_XSTACK_I_TWO
   \   0001EC   90....       MOV     DPTR,#__Constant_3b86e0
   \   0001EF   12....       LCALL   ?XLOAD_R2345
   \   0001F2   12....       LCALL   ??dmp_set_shake_reject_thresh?relay
   \   0001F5   7402         MOV     A,#0x2
   \   0001F7   12....       LCALL   ?DEALLOC_XSTACK8
   1075                  dmp_set_shake_reject_time(40);
   \   0001FA                ; Setup parameters for call to function dmp_set_shake_reject_time
   \   0001FA   7A28         MOV     R2,#0x28
   \   0001FC   7B00         MOV     R3,#0x0
   \   0001FE   12....       LCALL   ??dmp_set_shake_reject_time?relay
   1076                  dmp_set_shake_reject_timeout(10);
   \   000201                ; Setup parameters for call to function dmp_set_shake_reject_timeout
   \   000201   7A0A         MOV     R2,#0xa
   \   000203   7B00         MOV     R3,#0x0
   \   000205   12....       LCALL   ??dmp_set_shake_reject_timeout?relay
   \   000208   8018         SJMP    ??dmp_enable_feature_12
   1077              } else {
   1078                  tmp[0] = 0xD8;
   \                     ??dmp_enable_feature_11:
   \   00020A   74D8         MOV     A,#-0x28
   \   00020C   F0           MOVX    @DPTR,A
   1079                  mpu_write_mem(CFG_20, 1, tmp);
   \   00020D                ; Setup parameters for call to function mpu_write_mem
   \   00020D   78..         MOV     R0,#?V0 + 4
   \   00020F   12....       LCALL   ?PUSH_XSTACK_I_TWO
   \   000212   7C01         MOV     R4,#0x1
   \   000214   7D00         MOV     R5,#0x0
   \   000216   7AB0         MOV     R2,#-0x50
   \   000218   7B08         MOV     R3,#0x8
   \   00021A   12....       LCALL   ??mpu_write_mem?relay
   \   00021D   7402         MOV     A,#0x2
   \   00021F   12....       LCALL   ?DEALLOC_XSTACK8
   1080              }
   1081          
   1082              if (mask & DMP_FEATURE_ANDROID_ORIENT) {
   \                     ??dmp_enable_feature_12:
   \   000222   EE           MOV     A,R6
   \   000223   5402         ANL     A,#0x2
   \   000225   85..82       MOV     DPL,?XSP + 0
   \   000228   85..83       MOV     DPH,?XSP + 1
   \   00022B   6004         JZ      ??dmp_enable_feature_13
   1083                  tmp[0] = 0xD9;
   \   00022D   74D9         MOV     A,#-0x27
   \   00022F   8002         SJMP    ??dmp_enable_feature_14
   1084              } else
   1085                  tmp[0] = 0xD8;
   \                     ??dmp_enable_feature_13:
   \   000231   74D8         MOV     A,#-0x28
   \                     ??dmp_enable_feature_14:
   \   000233   F0           MOVX    @DPTR,A
   1086              mpu_write_mem(CFG_ANDROID_ORIENT_INT, 1, tmp);
   \   000234                ; Setup parameters for call to function mpu_write_mem
   \   000234   8582..       MOV     ?V0 + 4,DPL
   \   000237   8583..       MOV     ?V0 + 5,DPH
   \   00023A   78..         MOV     R0,#?V0 + 4
   \   00023C   12....       LCALL   ?PUSH_XSTACK_I_TWO
   \   00023F   7C01         MOV     R4,#0x1
   \   000241   7D00         MOV     R5,#0x0
   \   000243   7A3D         MOV     R2,#0x3d
   \   000245   7B07         MOV     R3,#0x7
   \   000247   12....       LCALL   ??mpu_write_mem?relay
   \   00024A   7402         MOV     A,#0x2
   \   00024C   12....       LCALL   ?DEALLOC_XSTACK8
   1087          
   1088              if (mask & DMP_FEATURE_LP_QUAT)
   \   00024F   EE           MOV     A,R6
   \   000250   5404         ANL     A,#0x4
   \   000252   6004         JZ      ??dmp_enable_feature_15
   1089                  dmp_enable_lp_quat(1);
   \   000254                ; Setup parameters for call to function dmp_enable_lp_quat
   \   000254   7901         MOV     R1,#0x1
   \   000256   8002         SJMP    ??dmp_enable_feature_16
   1090              else
   1091                  dmp_enable_lp_quat(0);
   \                     ??dmp_enable_feature_15:
   \   000258                ; Setup parameters for call to function dmp_enable_lp_quat
   \   000258   7900         MOV     R1,#0x0
   \                     ??dmp_enable_feature_16:
   \   00025A   12....       LCALL   ??dmp_enable_lp_quat?relay
   1092          
   1093              if (mask & DMP_FEATURE_6X_LP_QUAT)
   \   00025D   EE           MOV     A,R6
   \   00025E   5410         ANL     A,#0x10
   \   000260   6004         JZ      ??dmp_enable_feature_17
   1094                  dmp_enable_6x_lp_quat(1);
   \   000262                ; Setup parameters for call to function dmp_enable_6x_lp_quat
   \   000262   7901         MOV     R1,#0x1
   \   000264   8002         SJMP    ??dmp_enable_feature_18
   1095              else
   1096                  dmp_enable_6x_lp_quat(0);
   \                     ??dmp_enable_feature_17:
   \   000266                ; Setup parameters for call to function dmp_enable_6x_lp_quat
   \   000266   7900         MOV     R1,#0x0
   \                     ??dmp_enable_feature_18:
   \   000268   12....       LCALL   ??dmp_enable_6x_lp_quat?relay
   1097          
   1098              /* Pedometer is always enabled. */
   1099              dmp.feature_mask = mask | DMP_FEATURE_PEDOMETER;
   \   00026B   EE           MOV     A,R6
   \   00026C   4408         ORL     A,#0x8
   \   00026E   F8           MOV     R0,A
   \   00026F   EF           MOV     A,R7
   \   000270   F9           MOV     R1,A
   \   000271   90....       MOV     DPTR,#dmp + 6
   \   000274   E8           MOV     A,R0
   \   000275   F0           MOVX    @DPTR,A
   \   000276   A3           INC     DPTR
   \   000277   E9           MOV     A,R1
   \   000278   F0           MOVX    @DPTR,A
   1100              mpu_reset_fifo();
   \   000279                ; Setup parameters for call to function mpu_reset_fifo
   \   000279   12....       LCALL   ??mpu_reset_fifo?relay
   1101          
   1102              dmp.packet_length = 0;
   \   00027C   90....       MOV     DPTR,#dmp + 10
   \   00027F   E4           CLR     A
   \   000280   F0           MOVX    @DPTR,A
   1103              if (mask & DMP_FEATURE_SEND_RAW_ACCEL)
   \   000281   E5..         MOV     A,?V0 + 3
   \   000283   6003         JZ      ??dmp_enable_feature_19
   1104                  dmp.packet_length += 6;
   \   000285   7406         MOV     A,#0x6
   \   000287   F0           MOVX    @DPTR,A
   1105              if (mask & DMP_FEATURE_SEND_ANY_GYRO)
   \                     ??dmp_enable_feature_19:
   \   000288   E5..         MOV     A,?V0 + 0
   \   00028A   45..         ORL     A,?V0 + 1
   \   00028C   6004         JZ      ??dmp_enable_feature_20
   1106                  dmp.packet_length += 6;
   \   00028E   E0           MOVX    A,@DPTR
   \   00028F   2406         ADD     A,#0x6
   \   000291   F0           MOVX    @DPTR,A
   1107              if (mask & (DMP_FEATURE_LP_QUAT | DMP_FEATURE_6X_LP_QUAT))
   \                     ??dmp_enable_feature_20:
   \   000292   EE           MOV     A,R6
   \   000293   5414         ANL     A,#0x14
   \   000295   6004         JZ      ??dmp_enable_feature_21
   1108                  dmp.packet_length += 16;
   \   000297   E0           MOVX    A,@DPTR
   \   000298   2410         ADD     A,#0x10
   \   00029A   F0           MOVX    @DPTR,A
   1109              if (mask & (DMP_FEATURE_TAP | DMP_FEATURE_ANDROID_ORIENT))
   \                     ??dmp_enable_feature_21:
   \   00029B   E5..         MOV     A,?V0 + 2
   \   00029D   6004         JZ      ??dmp_enable_feature_22
   1110                  dmp.packet_length += 4;
   \   00029F   E0           MOVX    A,@DPTR
   \   0002A0   2404         ADD     A,#0x4
   \   0002A2   F0           MOVX    @DPTR,A
   1111          
   1112              return 0;
   \                     ??dmp_enable_feature_22:
   \   0002A3   7A00         MOV     R2,#0x0
   \   0002A5   7B00         MOV     R3,#0x0
   \   0002A7   740A         MOV     A,#0xa
   \   0002A9   12....       LCALL   ?DEALLOC_XSTACK8
   \   0002AC   7F06         MOV     R7,#0x6
   \   0002AE   02....       LJMP    ?BANKED_LEAVE_XDATA
   1113          }
   1114          
   1115          /**
   1116           *  @brief      Get list of currently enabled DMP features.
   1117           *  @param[out] Mask of enabled features.
   1118           *  @return     0 if successful.
   1119           */

   \                                 In  segment BANKED_CODE, align 1, keep-with-next
   1120          int dmp_get_enabled_features(unsigned short *mask)
   \                     dmp_get_enabled_features:
   1121          {
   \   000000   C082         PUSH    DPL
   \   000002   C083         PUSH    DPH
   \   000004                ; Saved register size: 2
   \   000004                ; Auto size: 0
   1122              mask[0] = dmp.feature_mask;
   \   000004   90....       MOV     DPTR,#dmp + 6
   \   000007   E0           MOVX    A,@DPTR
   \   000008   F8           MOV     R0,A
   \   000009   A3           INC     DPTR
   \   00000A   E0           MOVX    A,@DPTR
   \   00000B   F9           MOV     R1,A
   \   00000C   8A82         MOV     DPL,R2
   \   00000E   8B83         MOV     DPH,R3
   \   000010   E8           MOV     A,R0
   \   000011   F0           MOVX    @DPTR,A
   \   000012   A3           INC     DPTR
   \   000013   E9           MOV     A,R1
   \   000014   F0           MOVX    @DPTR,A
   1123              return 0;
   \   000015   7A00         MOV     R2,#0x0
   \   000017   7B00         MOV     R3,#0x0
   \   000019   D083         POP     DPH
   \   00001B   D082         POP     DPL
   \   00001D   02....       LJMP    ?BRET
   1124          }
   1125          
   1126          /**
   1127           *  @brief      Calibrate the gyro data in the DMP.
   1128           *  After eight seconds of no motion, the DMP will compute gyro biases and
   1129           *  subtract them from the quaternion output. If @e dmp_enable_feature is
   1130           *  called with @e DMP_FEATURE_SEND_CAL_GYRO, the biases will also be
   1131           *  subtracted from the gyro output.
   1132           *  @param[in]  enable  1 to enable gyro calibration.
   1133           *  @return     0 if successful.
   1134           */

   \                                 In  segment BANKED_CODE, align 1, keep-with-next
   1135          int dmp_enable_gyro_cal(unsigned char enable)
   \                     dmp_enable_gyro_cal:
   1136          {
   \   000000   74F6         MOV     A,#-0xa
   \   000002   12....       LCALL   ?BANKED_ENTER_XDATA
   \   000005                ; Saved register size: 10
   \   000005                ; Auto size: 9
   \   000005   74F7         MOV     A,#-0x9
   \   000007   12....       LCALL   ?ALLOC_XSTACK8
   \   00000A   E9           MOV     A,R1
   1137              if (enable) {
   \   00000B   6005         JZ      ??dmp_enable_gyro_cal_0
   1138                  unsigned char regs[9] = {0xb8, 0xaa, 0xb3, 0x8d, 0xb4, 0x98, 0x0d, 0x35, 0x5d};
   \   00000D   90....       MOV     DPTR,#`?<Constant {184, 170, 179, 141, 180, 152, 13, `
   \   000010   8003         SJMP    ??dmp_enable_gyro_cal_1
   1139                  return mpu_write_mem(CFG_MOTION_BIAS, 9, regs);
   1140              } else {
   1141                  unsigned char regs[9] = {0xb8, 0xaa, 0xaa, 0xaa, 0xb0, 0x88, 0xc3, 0xc5, 0xc7};
   \                     ??dmp_enable_gyro_cal_0:
   \   000012   90....       MOV     DPTR,#`?<Constant {184, 170, 170, 170, 176, 136, 195,`
   \                     ??dmp_enable_gyro_cal_1:
   \   000015   C082         PUSH    DPL
   \   000017   C083         PUSH    DPH
   \   000019   85..82       MOV     DPL,?XSP + 0
   \   00001C   85..83       MOV     DPH,?XSP + 1
   \   00001F   AC82         MOV     R4,DPL
   \   000021   AD83         MOV     R5,DPH
   \   000023   D083         POP     DPH
   \   000025   D082         POP     DPL
   \   000027   7409         MOV     A,#0x9
   \   000029   12....       LCALL   ?MOVE_LONG8_XDATA_XDATA
   1142                  return mpu_write_mem(CFG_MOTION_BIAS, 9, regs);
   \   00002C                ; Setup parameters for call to function mpu_write_mem
   \   00002C   85..82       MOV     DPL,?XSP + 0
   \   00002F   85..83       MOV     DPH,?XSP + 1
   \   000032   8582..       MOV     ?V0 + 0,DPL
   \   000035   8583..       MOV     ?V0 + 1,DPH
   \   000038   78..         MOV     R0,#?V0 + 0
   \   00003A   12....       LCALL   ?PUSH_XSTACK_I_TWO
   \   00003D   7C09         MOV     R4,#0x9
   \   00003F   7D00         MOV     R5,#0x0
   \   000041   7AB8         MOV     R2,#-0x48
   \   000043   7B04         MOV     R3,#0x4
   \   000045   12....       LCALL   ??mpu_write_mem?relay
   \   000048   7402         MOV     A,#0x2
   \   00004A   12....       LCALL   ?DEALLOC_XSTACK8
   \   00004D   7409         MOV     A,#0x9
   \   00004F   12....       LCALL   ?DEALLOC_XSTACK8
   \   000052   7F02         MOV     R7,#0x2
   \   000054   02....       LJMP    ?BANKED_LEAVE_XDATA
   1143              }
   1144          }
   1145          
   1146          /**
   1147           *  @brief      Generate 3-axis quaternions from the DMP.
   1148           *  In this driver, the 3-axis and 6-axis DMP quaternion features are mutually
   1149           *  exclusive.
   1150           *  @param[in]  enable  1 to enable 3-axis quaternion.
   1151           *  @return     0 if successful.
   1152           */

   \                                 In  segment BANKED_CODE, align 1, keep-with-next
   1153          int dmp_enable_lp_quat(unsigned char enable)
   \                     dmp_enable_lp_quat:
   1154          {
   \   000000   74F6         MOV     A,#-0xa
   \   000002   12....       LCALL   ?BANKED_ENTER_XDATA
   \   000005                ; Saved register size: 10
   \   000005                ; Auto size: 4
   \   000005   74FC         MOV     A,#-0x4
   \   000007   12....       LCALL   ?ALLOC_XSTACK8
   \   00000A   E9           MOV     A,R1
   1155              unsigned char regs[4];
   1156              if (enable) {
   \   00000B   6023         JZ      ??dmp_enable_lp_quat_0
   1157                  regs[0] = DINBC0;
   \   00000D   85..82       MOV     DPL,?XSP + 0
   \   000010   85..83       MOV     DPH,?XSP + 1
   \   000013   74C0         MOV     A,#-0x40
   \   000015   F0           MOVX    @DPTR,A
   1158                  regs[1] = DINBC2;
   \   000016   7401         MOV     A,#0x1
   \   000018   12....       LCALL   ?XSTACK_DISP0_8
   \   00001B   74C2         MOV     A,#-0x3e
   \   00001D   F0           MOVX    @DPTR,A
   1159                  regs[2] = DINBC4;
   \   00001E   7402         MOV     A,#0x2
   \   000020   12....       LCALL   ?XSTACK_DISP0_8
   \   000023   74C4         MOV     A,#-0x3c
   \   000025   F0           MOVX    @DPTR,A
   1160                  regs[3] = DINBC6;
   \   000026   7403         MOV     A,#0x3
   \   000028   12....       LCALL   ?XSTACK_DISP0_8
   \   00002B   74C6         MOV     A,#-0x3a
   \   00002D   F0           MOVX    @DPTR,A
   \   00002E   8020         SJMP    ??dmp_enable_lp_quat_1
   1161              }
   1162              else
   1163                  memset(regs, 0x8B, 4);
   \                     ??dmp_enable_lp_quat_0:
   \   000030                ; Setup parameters for call to function memset
   \   000030   75..04       MOV     ?V0 + 0,#0x4
   \   000033   75..00       MOV     ?V0 + 1,#0x0
   \   000036   78..         MOV     R0,#?V0 + 0
   \   000038   12....       LCALL   ?PUSH_XSTACK_I_TWO
   \   00003B   7C8B         MOV     R4,#-0x75
   \   00003D   7D00         MOV     R5,#0x0
   \   00003F   7402         MOV     A,#0x2
   \   000041   12....       LCALL   ?XSTACK_DISP0_8
   \   000044   AA82         MOV     R2,DPL
   \   000046   AB83         MOV     R3,DPH
   \   000048   12....       LCALL   ??memset?relay
   \   00004B   7402         MOV     A,#0x2
   \   00004D   12....       LCALL   ?DEALLOC_XSTACK8
   1164          
   1165              mpu_write_mem(CFG_LP_QUAT, 4, regs);
   \                     ??dmp_enable_lp_quat_1:
   \   000050                ; Setup parameters for call to function mpu_write_mem
   \   000050   85..82       MOV     DPL,?XSP + 0
   \   000053   85..83       MOV     DPH,?XSP + 1
   \   000056   8582..       MOV     ?V0 + 0,DPL
   \   000059   8583..       MOV     ?V0 + 1,DPH
   \   00005C   78..         MOV     R0,#?V0 + 0
   \   00005E   12....       LCALL   ?PUSH_XSTACK_I_TWO
   \   000061   7C04         MOV     R4,#0x4
   \   000063   7D00         MOV     R5,#0x0
   \   000065   7A98         MOV     R2,#-0x68
   \   000067   7B0A         MOV     R3,#0xa
   \   000069   12....       LCALL   ??mpu_write_mem?relay
   \   00006C   7402         MOV     A,#0x2
   \   00006E   12....       LCALL   ?DEALLOC_XSTACK8
   1166          
   1167              return mpu_reset_fifo();
   \   000071                ; Setup parameters for call to function mpu_reset_fifo
   \   000071   12....       LCALL   ??mpu_reset_fifo?relay
   \   000074   7404         MOV     A,#0x4
   \   000076   12....       LCALL   ?DEALLOC_XSTACK8
   \   000079   7F02         MOV     R7,#0x2
   \   00007B   02....       LJMP    ?BANKED_LEAVE_XDATA
   1168          }
   1169          
   1170          /**
   1171           *  @brief       Generate 6-axis quaternions from the DMP.
   1172           *  In this driver, the 3-axis and 6-axis DMP quaternion features are mutually
   1173           *  exclusive.
   1174           *  @param[in]   enable  1 to enable 6-axis quaternion.
   1175           *  @return      0 if successful.
   1176           */

   \                                 In  segment BANKED_CODE, align 1, keep-with-next
   1177          int dmp_enable_6x_lp_quat(unsigned char enable)
   \                     dmp_enable_6x_lp_quat:
   1178          {
   \   000000   74F6         MOV     A,#-0xa
   \   000002   12....       LCALL   ?BANKED_ENTER_XDATA
   \   000005                ; Saved register size: 10
   \   000005                ; Auto size: 4
   \   000005   74FC         MOV     A,#-0x4
   \   000007   12....       LCALL   ?ALLOC_XSTACK8
   \   00000A   E9           MOV     A,R1
   1179              unsigned char regs[4];
   1180              if (enable) {
   \   00000B   6023         JZ      ??dmp_enable_6x_lp_quat_0
   1181                  regs[0] = DINA20;
   \   00000D   85..82       MOV     DPL,?XSP + 0
   \   000010   85..83       MOV     DPH,?XSP + 1
   \   000013   7420         MOV     A,#0x20
   \   000015   F0           MOVX    @DPTR,A
   1182                  regs[1] = DINA28;
   \   000016   7401         MOV     A,#0x1
   \   000018   12....       LCALL   ?XSTACK_DISP0_8
   \   00001B   7428         MOV     A,#0x28
   \   00001D   F0           MOVX    @DPTR,A
   1183                  regs[2] = DINA30;
   \   00001E   7402         MOV     A,#0x2
   \   000020   12....       LCALL   ?XSTACK_DISP0_8
   \   000023   7430         MOV     A,#0x30
   \   000025   F0           MOVX    @DPTR,A
   1184                  regs[3] = DINA38;
   \   000026   7403         MOV     A,#0x3
   \   000028   12....       LCALL   ?XSTACK_DISP0_8
   \   00002B   7438         MOV     A,#0x38
   \   00002D   F0           MOVX    @DPTR,A
   \   00002E   8020         SJMP    ??dmp_enable_6x_lp_quat_1
   1185              } else
   1186                  memset(regs, 0xA3, 4);
   \                     ??dmp_enable_6x_lp_quat_0:
   \   000030                ; Setup parameters for call to function memset
   \   000030   75..04       MOV     ?V0 + 0,#0x4
   \   000033   75..00       MOV     ?V0 + 1,#0x0
   \   000036   78..         MOV     R0,#?V0 + 0
   \   000038   12....       LCALL   ?PUSH_XSTACK_I_TWO
   \   00003B   7CA3         MOV     R4,#-0x5d
   \   00003D   7D00         MOV     R5,#0x0
   \   00003F   7402         MOV     A,#0x2
   \   000041   12....       LCALL   ?XSTACK_DISP0_8
   \   000044   AA82         MOV     R2,DPL
   \   000046   AB83         MOV     R3,DPH
   \   000048   12....       LCALL   ??memset?relay
   \   00004B   7402         MOV     A,#0x2
   \   00004D   12....       LCALL   ?DEALLOC_XSTACK8
   1187          
   1188              mpu_write_mem(CFG_8, 4, regs);
   \                     ??dmp_enable_6x_lp_quat_1:
   \   000050                ; Setup parameters for call to function mpu_write_mem
   \   000050   85..82       MOV     DPL,?XSP + 0
   \   000053   85..83       MOV     DPH,?XSP + 1
   \   000056   8582..       MOV     ?V0 + 0,DPL
   \   000059   8583..       MOV     ?V0 + 1,DPH
   \   00005C   78..         MOV     R0,#?V0 + 0
   \   00005E   12....       LCALL   ?PUSH_XSTACK_I_TWO
   \   000061   7C04         MOV     R4,#0x4
   \   000063   7D00         MOV     R5,#0x0
   \   000065   7A9E         MOV     R2,#-0x62
   \   000067   7B0A         MOV     R3,#0xa
   \   000069   12....       LCALL   ??mpu_write_mem?relay
   \   00006C   7402         MOV     A,#0x2
   \   00006E   12....       LCALL   ?DEALLOC_XSTACK8
   1189          
   1190              return mpu_reset_fifo();
   \   000071                ; Setup parameters for call to function mpu_reset_fifo
   \   000071   12....       LCALL   ??mpu_reset_fifo?relay
   \   000074   7404         MOV     A,#0x4
   \   000076   12....       LCALL   ?DEALLOC_XSTACK8
   \   000079   7F02         MOV     R7,#0x2
   \   00007B   02....       LJMP    ?BANKED_LEAVE_XDATA
   1191          }
   1192          
   1193          /**
   1194           *  @brief      Decode the four-byte gesture data and execute any callbacks.
   1195           *  @param[in]  gesture Gesture data from DMP packet.
   1196           *  @return     0 if successful.
   1197           */

   \                                 In  segment BANKED_CODE, align 1, keep-with-next
   1198          static int decode_gesture(unsigned char *gesture)
   \                     decode_gesture:
   1199          {
   \   000000   74F7         MOV     A,#-0x9
   \   000002   12....       LCALL   ?BANKED_ENTER_XDATA
   \   000005                ; Saved register size: 9
   \   000005                ; Auto size: 0
   1200              unsigned char tap, android_orient;
   1201          
   1202              android_orient = gesture[3] & 0xC0;
   \   000005   EA           MOV     A,R2
   \   000006   2403         ADD     A,#0x3
   \   000008   F582         MOV     DPL,A
   \   00000A   EB           MOV     A,R3
   \   00000B   3400         ADDC    A,#0x0
   \   00000D   F583         MOV     DPH,A
   \   00000F   E0           MOVX    A,@DPTR
   \   000010   54C0         ANL     A,#0xc0
   \   000012   F5..         MOV     ?V0 + 0,A
   1203              tap = 0x3F & gesture[3];
   \   000014   E0           MOVX    A,@DPTR
   \   000015   543F         ANL     A,#0x3f
   \   000017   FC           MOV     R4,A
   1204          
   1205              if (gesture[1] & INT_SRC_TAP) {
   \   000018   8A82         MOV     DPL,R2
   \   00001A   8B83         MOV     DPH,R3
   \   00001C   A3           INC     DPTR
   \   00001D   AE82         MOV     R6,DPL
   \   00001F   AF83         MOV     R7,DPH
   \   000021   E0           MOVX    A,@DPTR
   \   000022   A2E0         MOV     C,0xE0 /* A   */.0
   \   000024   5027         JNC     ??decode_gesture_0
   1206                  unsigned char direction, count;
   1207                  direction = tap >> 3;
   1208                  count = (tap % 8) + 1;
   1209                  if (dmp.tap_cb)
   \   000026   90....       MOV     DPTR,#dmp
   \   000029   E0           MOVX    A,@DPTR
   \   00002A   F8           MOV     R0,A
   \   00002B   A3           INC     DPTR
   \   00002C   E0           MOVX    A,@DPTR
   \   00002D   F9           MOV     R1,A
   \   00002E   E8           MOV     A,R0
   \   00002F   49           ORL     A,R1
   \   000030   601B         JZ      ??decode_gesture_0
   1210                      dmp.tap_cb(direction, count);
   \   000032                ; Setup parameters for indirect call
   \   000032   7407         MOV     A,#0x7
   \   000034   5C           ANL     A,R4
   \   000035   2401         ADD     A,#0x1
   \   000037   FA           MOV     R2,A
   \   000038   EC           MOV     A,R4
   \   000039   13           RRC     A
   \   00003A   13           RRC     A
   \   00003B   13           RRC     A
   \   00003C   541F         ANL     A,#0x1f
   \   00003E   F9           MOV     R1,A
   \   00003F   90....       MOV     DPTR,#dmp
   \   000042   E0           MOVX    A,@DPTR
   \   000043   F8           MOV     R0,A
   \   000044   A3           INC     DPTR
   \   000045   E0           MOVX    A,@DPTR
   \   000046   F583         MOV     DPH,A
   \   000048   8882         MOV     DPL,R0
   \   00004A   12....       LCALL   ?CALL_IND
   1211              }
   1212          
   1213              if (gesture[1] & INT_SRC_ANDROID_ORIENT) {
   \                     ??decode_gesture_0:
   \   00004D   8E82         MOV     DPL,R6
   \   00004F   8F83         MOV     DPH,R7
   \   000051   E0           MOVX    A,@DPTR
   \   000052   A2E3         MOV     C,0xE0 /* A   */.3
   \   000054   501D         JNC     ??decode_gesture_1
   1214                  if (dmp.android_orient_cb)
   \   000056   90....       MOV     DPTR,#dmp + 2
   \   000059   E0           MOVX    A,@DPTR
   \   00005A   F8           MOV     R0,A
   \   00005B   A3           INC     DPTR
   \   00005C   E0           MOVX    A,@DPTR
   \   00005D   F9           MOV     R1,A
   \   00005E   8882         MOV     DPL,R0
   \   000060   8983         MOV     DPH,R1
   \   000062   E582         MOV     A,DPL
   \   000064   4583         ORL     A,DPH
   \   000066   600B         JZ      ??decode_gesture_1
   1215                      dmp.android_orient_cb(android_orient >> 6);
   \   000068                ; Setup parameters for indirect call
   \   000068   E5..         MOV     A,?V0 + 0
   \   00006A   C4           SWAP    A
   \   00006B   13           RRC     A
   \   00006C   13           RRC     A
   \   00006D   5403         ANL     A,#0x3
   \   00006F   F9           MOV     R1,A
   \   000070   12....       LCALL   ?CALL_IND
   1216              }
   1217          
   1218              return 0;
   \                     ??decode_gesture_1:
   \   000073   7A00         MOV     R2,#0x0
   \   000075   7B00         MOV     R3,#0x0
   \   000077   7F01         MOV     R7,#0x1
   \   000079   02....       LJMP    ?BANKED_LEAVE_XDATA
   1219          }
   1220          
   1221          /**
   1222           *  @brief      Specify when a DMP interrupt should occur.
   1223           *  A DMP interrupt can be configured to trigger on either of the two
   1224           *  conditions below:
   1225           *  \n a. One FIFO period has elapsed (set by @e mpu_set_sample_rate).
   1226           *  \n b. A tap event has been detected.
   1227           *  @param[in]  mode    DMP_INT_GESTURE or DMP_INT_CONTINUOUS.
   1228           *  @return     0 if successful.
   1229           */

   \                                 In  segment BANKED_CODE, align 1, keep-with-next
   1230          int dmp_set_interrupt_mode(unsigned char mode)
   \                     dmp_set_interrupt_mode:
   1231          {
   \   000000   74F6         MOV     A,#-0xa
   \   000002   12....       LCALL   ?BANKED_ENTER_XDATA
   \   000005                ; Saved register size: 10
   \   000005                ; Auto size: 22
   \   000005   74EA         MOV     A,#-0x16
   \   000007   12....       LCALL   ?ALLOC_XSTACK8
   \   00000A   E9           MOV     A,R1
   \   00000B   FE           MOV     R6,A
   1232              const unsigned char regs_continuous[11] =
   1233                  {0xd8, 0xb1, 0xb9, 0xf3, 0x8b, 0xa3, 0x91, 0xb6, 0x09, 0xb4, 0xd9};
   \   00000C   90....       MOV     DPTR,#`?<Constant {216, 177, 185, 243, 139, 163, 145,`
   \   00000F   C082         PUSH    DPL
   \   000011   C083         PUSH    DPH
   \   000013   740B         MOV     A,#0xb
   \   000015   12....       LCALL   ?XSTACK_DISP0_8
   \   000018   AC82         MOV     R4,DPL
   \   00001A   AD83         MOV     R5,DPH
   \   00001C   D083         POP     DPH
   \   00001E   D082         POP     DPL
   \   000020   740B         MOV     A,#0xb
   \   000022   12....       LCALL   ?MOVE_LONG8_XDATA_XDATA
   1234              const unsigned char regs_gesture[11] =
   1235                  {0xda, 0xb1, 0xb9, 0xf3, 0x8b, 0xa3, 0x91, 0xb6, 0xda, 0xb4, 0xda};
   \   000025   90....       MOV     DPTR,#`?<Constant {218, 177, 185, 243, 139, 163, 145,`
   \   000028   C082         PUSH    DPL
   \   00002A   C083         PUSH    DPH
   \   00002C   85..82       MOV     DPL,?XSP + 0
   \   00002F   85..83       MOV     DPH,?XSP + 1
   \   000032   AC82         MOV     R4,DPL
   \   000034   AD83         MOV     R5,DPH
   \   000036   D083         POP     DPH
   \   000038   D082         POP     DPL
   \   00003A   740B         MOV     A,#0xb
   \   00003C   12....       LCALL   ?MOVE_LONG8_XDATA_XDATA
   1236          
   1237              switch (mode) {
   \   00003F   EE           MOV     A,R6
   \   000040   14           DEC     A
   \   000041   6025         JZ      ??dmp_set_interrupt_mode_0
   \   000043   14           DEC     A
   \   000044   702A         JNZ     ??dmp_set_interrupt_mode_1
   1238              case DMP_INT_CONTINUOUS:
   1239                  return mpu_write_mem(CFG_FIFO_ON_EVENT, 11,
   1240                      (unsigned char*)regs_continuous);
   \   000046                ; Setup parameters for call to function mpu_write_mem
   \   000046   740B         MOV     A,#0xb
   \   000048   12....       LCALL   ?XSTACK_DISP0_8
   \                     ??dmp_set_interrupt_mode_2:
   \   00004B   8582..       MOV     ?V0 + 0,DPL
   \   00004E   8583..       MOV     ?V0 + 1,DPH
   \   000051   78..         MOV     R0,#?V0 + 0
   \   000053   12....       LCALL   ?PUSH_XSTACK_I_TWO
   \   000056   7C0B         MOV     R4,#0xb
   \   000058   7D00         MOV     R5,#0x0
   \   00005A   7A82         MOV     R2,#-0x7e
   \   00005C   7B0A         MOV     R3,#0xa
   \   00005E   12....       LCALL   ??mpu_write_mem?relay
   \   000061   7402         MOV     A,#0x2
   \   000063   12....       LCALL   ?DEALLOC_XSTACK8
   \   000066   800C         SJMP    ??dmp_set_interrupt_mode_3
   1241              case DMP_INT_GESTURE:
   1242                  return mpu_write_mem(CFG_FIFO_ON_EVENT, 11,
   1243                      (unsigned char*)regs_gesture);
   \                     ??dmp_set_interrupt_mode_0:
   \   000068                ; Setup parameters for call to function mpu_write_mem
   \   000068   85..82       MOV     DPL,?XSP + 0
   \   00006B   85..83       MOV     DPH,?XSP + 1
   \   00006E   80DB         SJMP    ??dmp_set_interrupt_mode_2
   1244              default:
   1245                  return -1;
   \                     ??dmp_set_interrupt_mode_1:
   \   000070   7AFF         MOV     R2,#-0x1
   \   000072   7BFF         MOV     R3,#-0x1
   \                     ??dmp_set_interrupt_mode_3:
   \   000074   7416         MOV     A,#0x16
   \   000076   12....       LCALL   ?DEALLOC_XSTACK8
   \   000079   7F02         MOV     R7,#0x2
   \   00007B   02....       LJMP    ?BANKED_LEAVE_XDATA
   1246              }
   1247          }
   1248          
   1249          /**
   1250           *  @brief      Get one packet from the FIFO.
   1251           *  If @e sensors does not contain a particular sensor, disregard the data
   1252           *  returned to that pointer.
   1253           *  \n @e sensors can contain a combination of the following flags:
   1254           *  \n INV_X_GYRO, INV_Y_GYRO, INV_Z_GYRO
   1255           *  \n INV_XYZ_GYRO
   1256           *  \n INV_XYZ_ACCEL
   1257           *  \n INV_WXYZ_QUAT
   1258           *  \n If the FIFO has no new data, @e sensors will be zero.
   1259           *  \n If the FIFO is disabled, @e sensors will be zero and this function will
   1260           *  return a non-zero error code.
   1261           *  @param[out] gyro        Gyro data in hardware units.
   1262           *  @param[out] accel       Accel data in hardware units.
   1263           *  @param[out] quat        3-axis quaternion data in hardware units.
   1264           *  @param[out] timestamp   Timestamp in milliseconds.
   1265           *  @param[out] sensors     Mask of sensors read from FIFO.
   1266           *  @param[out] more        Number of remaining packets.
   1267           *  @return     0 if successful.
   1268           */

   \                                 In  segment BANKED_CODE, align 1, keep-with-next
   1269          int dmp_read_fifo(short *gyro, short *accel, long *quat,
   \                     dmp_read_fifo:
   1270              unsigned long *timestamp, short *sensors, unsigned char *more)
   1271          {
   \   000000   74E8         MOV     A,#-0x18
   \   000002   12....       LCALL   ?BANKED_ENTER_XDATA
   \   000005                ; Saved register size: 24
   \   000005                ; Auto size: 57
   \   000005   74C7         MOV     A,#-0x39
   \   000007   12....       LCALL   ?ALLOC_XSTACK8
   \   00000A   7403         MOV     A,#0x3
   \   00000C   12....       LCALL   ?XSTACK_DISP0_8
   \   00000F   EA           MOV     A,R2
   \   000010   F0           MOVX    @DPTR,A
   \   000011   A3           INC     DPTR
   \   000012   EB           MOV     A,R3
   \   000013   F0           MOVX    @DPTR,A
   \   000014   7401         MOV     A,#0x1
   \   000016   12....       LCALL   ?XSTACK_DISP0_8
   \   000019   EC           MOV     A,R4
   \   00001A   F0           MOVX    @DPTR,A
   \   00001B   A3           INC     DPTR
   \   00001C   ED           MOV     A,R5
   \   00001D   F0           MOVX    @DPTR,A
   \   00001E   7451         MOV     A,#0x51
   \   000020   12....       LCALL   ?XSTACK_DISP0_8
   \   000023   E0           MOVX    A,@DPTR
   \   000024   F5..         MOV     ?V0 + 0,A
   \   000026   A3           INC     DPTR
   \   000027   E0           MOVX    A,@DPTR
   \   000028   F5..         MOV     ?V0 + 1,A
   \   00002A   7457         MOV     A,#0x57
   \   00002C   12....       LCALL   ?XSTACK_DISP0_8
   \   00002F   E0           MOVX    A,@DPTR
   \   000030   F5..         MOV     ?V0 + 2,A
   \   000032   A3           INC     DPTR
   \   000033   E0           MOVX    A,@DPTR
   \   000034   F5..         MOV     ?V0 + 3,A
   1272              unsigned char fifo_data[MAX_PACKET_LENGTH];
   1273              unsigned char ii = 0;
   \   000036   85..82       MOV     DPL,?XSP + 0
   \   000039   85..83       MOV     DPH,?XSP + 1
   \   00003C   E4           CLR     A
   \   00003D   F0           MOVX    @DPTR,A
   1274          
   1275              /* TODO: sensors[0] only changes when dmp_enable_feature is called. We can
   1276               * cache this value and save some cycles.
   1277               */
   1278              sensors[0] = 0;
   \   00003E   7455         MOV     A,#0x55
   \   000040   12....       LCALL   ?XSTACK_DISP0_8
   \   000043   E0           MOVX    A,@DPTR
   \   000044   F8           MOV     R0,A
   \   000045   A3           INC     DPTR
   \   000046   E0           MOVX    A,@DPTR
   \   000047   F583         MOV     DPH,A
   \   000049   8882         MOV     DPL,R0
   \   00004B   E4           CLR     A
   \   00004C   F0           MOVX    @DPTR,A
   \   00004D   A3           INC     DPTR
   \   00004E   F0           MOVX    @DPTR,A
   1279          
   1280              /* Get a packet. */
   1281              if (mpu_read_fifo_stream(dmp.packet_length, fifo_data, more))
   \   00004F                ; Setup parameters for call to function mpu_read_fifo_stream
   \   00004F   78..         MOV     R0,#?V0 + 2
   \   000051   12....       LCALL   ?PUSH_XSTACK_I_TWO
   \   000054   740B         MOV     A,#0xb
   \   000056   12....       LCALL   ?XSTACK_DISP0_8
   \   000059   AC82         MOV     R4,DPL
   \   00005B   AD83         MOV     R5,DPH
   \   00005D   90....       MOV     DPTR,#dmp + 10
   \   000060   E0           MOVX    A,@DPTR
   \   000061   FA           MOV     R2,A
   \   000062   7B00         MOV     R3,#0x0
   \   000064   12....       LCALL   ??mpu_read_fifo_stream?relay
   \   000067   7402         MOV     A,#0x2
   \   000069   12....       LCALL   ?DEALLOC_XSTACK8
   \   00006C   8B..         MOV     ?V0 + 3,R3
   \   00006E   EA           MOV     A,R2
   \   00006F   45..         ORL     A,?V0 + 3
   \   000071   600E         JZ      ??dmp_read_fifo_0
   1282              {
   1283                printf("read_fifo_stream error\r\n");
   \   000073                ; Setup parameters for call to function printf
   \   000073   7A..         MOV     R2,#`?<Constant "read_fifo_stream error\\r\\n">` & 0xff
   \   000075   7B..         MOV     R3,#(`?<Constant "read_fifo_stream error\\r\\n">` >> 8) & 0xff
   \                     ??dmp_read_fifo_1:
   \   000077   12....       LCALL   ??printf?relay
   1284                return -1;
   \   00007A   7AFF         MOV     R2,#-0x1
   \   00007C   7BFF         MOV     R3,#-0x1
   \   00007E   02....       LJMP    ??dmp_read_fifo_2 & 0xFFFF
   1285              }
   1286          
   1287              /* Parse DMP packet. */
   1288              if (dmp.feature_mask & (DMP_FEATURE_LP_QUAT | DMP_FEATURE_6X_LP_QUAT)) {
   \                     ??dmp_read_fifo_0:
   \   000081   90....       MOV     DPTR,#dmp + 6
   \   000084   E0           MOVX    A,@DPTR
   \   000085   FE           MOV     R6,A
   \   000086   A3           INC     DPTR
   \   000087   E0           MOVX    A,@DPTR
   \   000088   FF           MOV     R7,A
   \   000089   EE           MOV     A,R6
   \   00008A   5414         ANL     A,#0x14
   \   00008C   7003         JNZ     $+5
   \   00008E   02....       LJMP    ??dmp_read_fifo_3 & 0xFFFF
   1289          #ifdef FIFO_CORRUPTION_CHECK
   1290                  long quat_q14[4], quat_mag_sq;
   1291          #endif
   1292                  quat[0] = ((long)fifo_data[0] << 24) | ((long)fifo_data[1] << 16) |
   1293                      ((long)fifo_data[2] << 8) | fifo_data[3];
   \   000091   7409         MOV     A,#0x9
   \   000093   12....       LCALL   ?XSTACK_DISP0_8
   \   000096   E0           MOVX    A,@DPTR
   \   000097   F5..         MOV     ?V0 + 4,A
   \   000099   E4           CLR     A
   \   00009A   F5..         MOV     ?V0 + 5,A
   \   00009C   F5..         MOV     ?V0 + 6,A
   \   00009E   F5..         MOV     ?V0 + 7,A
   \   0000A0   7418         MOV     A,#0x18
   \   0000A2   78..         MOV     R0,#?V0 + 4
   \   0000A4   12....       LCALL   ?L_SHL
   \   0000A7   740A         MOV     A,#0xa
   \   0000A9   12....       LCALL   ?XSTACK_DISP0_8
   \   0000AC   E0           MOVX    A,@DPTR
   \   0000AD   F5..         MOV     ?V0 + 8,A
   \   0000AF   E4           CLR     A
   \   0000B0   F5..         MOV     ?V0 + 9,A
   \   0000B2   F5..         MOV     ?V0 + 10,A
   \   0000B4   F5..         MOV     ?V0 + 11,A
   \   0000B6   7410         MOV     A,#0x10
   \   0000B8   78..         MOV     R0,#?V0 + 8
   \   0000BA   12....       LCALL   ?L_SHL
   \   0000BD   78..         MOV     R0,#?V0 + 4
   \   0000BF   79..         MOV     R1,#?V0 + 8
   \   0000C1   12....       LCALL   ?L_IOR
   \   0000C4   740B         MOV     A,#0xb
   \   0000C6   12....       LCALL   ?XSTACK_DISP0_8
   \   0000C9   E0           MOVX    A,@DPTR
   \   0000CA   F5..         MOV     ?V0 + 8,A
   \   0000CC   E4           CLR     A
   \   0000CD   F5..         MOV     ?V0 + 10,A
   \   0000CF   7408         MOV     A,#0x8
   \   0000D1   78..         MOV     R0,#?V0 + 8
   \   0000D3   12....       LCALL   ?L_SHL
   \   0000D6   78..         MOV     R0,#?V0 + 4
   \   0000D8   79..         MOV     R1,#?V0 + 8
   \   0000DA   12....       LCALL   ?L_IOR
   \   0000DD   740C         MOV     A,#0xc
   \   0000DF   12....       LCALL   ?XSTACK_DISP0_8
   \   0000E2   E0           MOVX    A,@DPTR
   \   0000E3   F5..         MOV     ?V0 + 8,A
   \   0000E5   E4           CLR     A
   \   0000E6   F5..         MOV     ?V0 + 9,A
   \   0000E8   78..         MOV     R0,#?V0 + 4
   \   0000EA   79..         MOV     R1,#?V0 + 8
   \   0000EC   12....       LCALL   ?L_IOR
   \   0000EF   85..82       MOV     DPL,?V0 + 0
   \   0000F2   85..83       MOV     DPH,?V0 + 1
   \   0000F5   78..         MOV     R0,#?V0 + 4
   \   0000F7   12....       LCALL   ?L_MOV_TO_X
   \   0000FA   740D         MOV     A,#0xd
   \   0000FC   12....       LCALL   ?XSTACK_DISP0_8
   \   0000FF   E0           MOVX    A,@DPTR
   \   000100   F5..         MOV     ?V0 + 4,A
   \   000102   E4           CLR     A
   \   000103   F5..         MOV     ?V0 + 5,A
   \   000105   F5..         MOV     ?V0 + 6,A
   \   000107   F5..         MOV     ?V0 + 7,A
   \   000109   7418         MOV     A,#0x18
   \   00010B   78..         MOV     R0,#?V0 + 4
   \   00010D   12....       LCALL   ?L_SHL
   \   000110   740E         MOV     A,#0xe
   \   000112   12....       LCALL   ?XSTACK_DISP0_8
   \   000115   E0           MOVX    A,@DPTR
   \   000116   F5..         MOV     ?V0 + 8,A
   \   000118   7410         MOV     A,#0x10
   \   00011A   78..         MOV     R0,#?V0 + 8
   \   00011C   12....       LCALL   ?L_SHL
   \   00011F   78..         MOV     R0,#?V0 + 4
   \   000121   79..         MOV     R1,#?V0 + 8
   \   000123   12....       LCALL   ?L_IOR
   \   000126   740F         MOV     A,#0xf
   \   000128   12....       LCALL   ?XSTACK_DISP0_8
   \   00012B   E0           MOVX    A,@DPTR
   \   00012C   F5..         MOV     ?V0 + 8,A
   \   00012E   E4           CLR     A
   \   00012F   F5..         MOV     ?V0 + 10,A
   \   000131   7408         MOV     A,#0x8
   \   000133   78..         MOV     R0,#?V0 + 8
   \   000135   12....       LCALL   ?L_SHL
   \   000138   78..         MOV     R0,#?V0 + 4
   \   00013A   79..         MOV     R1,#?V0 + 8
   \   00013C   12....       LCALL   ?L_IOR
   \   00013F   7410         MOV     A,#0x10
   \   000141   12....       LCALL   ?XSTACK_DISP0_8
   \   000144   E0           MOVX    A,@DPTR
   \   000145   F5..         MOV     ?V0 + 8,A
   \   000147   E4           CLR     A
   \   000148   F5..         MOV     ?V0 + 9,A
   \   00014A   78..         MOV     R0,#?V0 + 4
   \   00014C   79..         MOV     R1,#?V0 + 8
   \   00014E   12....       LCALL   ?L_IOR
   \   000151   85..82       MOV     DPL,?V0 + 0
   \   000154   85..83       MOV     DPH,?V0 + 1
   \   000157   A3           INC     DPTR
   \   000158   A3           INC     DPTR
   \   000159   A3           INC     DPTR
   \   00015A   A3           INC     DPTR
   \   00015B   78..         MOV     R0,#?V0 + 4
   \   00015D   12....       LCALL   ?L_MOV_TO_X
   1294                  quat[1] = ((long)fifo_data[4] << 24) | ((long)fifo_data[5] << 16) |
   1295                      ((long)fifo_data[6] << 8) | fifo_data[7];
   1296                  quat[2] = ((long)fifo_data[8] << 24) | ((long)fifo_data[9] << 16) |
   1297                      ((long)fifo_data[10] << 8) | fifo_data[11];
   \   000160   E5..         MOV     A,?V0 + 0
   \   000162   2408         ADD     A,#0x8
   \   000164   F5..         MOV     ?V0 + 14,A
   \   000166   E5..         MOV     A,?V0 + 1
   \   000168   3400         ADDC    A,#0x0
   \   00016A   F5..         MOV     ?V0 + 15,A
   \   00016C   7411         MOV     A,#0x11
   \   00016E   12....       LCALL   ?XSTACK_DISP0_8
   \   000171   E0           MOVX    A,@DPTR
   \   000172   F5..         MOV     ?V0 + 4,A
   \   000174   E4           CLR     A
   \   000175   F5..         MOV     ?V0 + 5,A
   \   000177   F5..         MOV     ?V0 + 6,A
   \   000179   F5..         MOV     ?V0 + 7,A
   \   00017B   7418         MOV     A,#0x18
   \   00017D   78..         MOV     R0,#?V0 + 4
   \   00017F   12....       LCALL   ?L_SHL
   \   000182   7412         MOV     A,#0x12
   \   000184   12....       LCALL   ?XSTACK_DISP0_8
   \   000187   E0           MOVX    A,@DPTR
   \   000188   F5..         MOV     ?V0 + 8,A
   \   00018A   7410         MOV     A,#0x10
   \   00018C   78..         MOV     R0,#?V0 + 8
   \   00018E   12....       LCALL   ?L_SHL
   \   000191   78..         MOV     R0,#?V0 + 4
   \   000193   79..         MOV     R1,#?V0 + 8
   \   000195   12....       LCALL   ?L_IOR
   \   000198   7413         MOV     A,#0x13
   \   00019A   12....       LCALL   ?XSTACK_DISP0_8
   \   00019D   E0           MOVX    A,@DPTR
   \   00019E   F5..         MOV     ?V0 + 8,A
   \   0001A0   E4           CLR     A
   \   0001A1   F5..         MOV     ?V0 + 10,A
   \   0001A3   7408         MOV     A,#0x8
   \   0001A5   78..         MOV     R0,#?V0 + 8
   \   0001A7   12....       LCALL   ?L_SHL
   \   0001AA   78..         MOV     R0,#?V0 + 4
   \   0001AC   79..         MOV     R1,#?V0 + 8
   \   0001AE   12....       LCALL   ?L_IOR
   \   0001B1   7414         MOV     A,#0x14
   \   0001B3   12....       LCALL   ?XSTACK_DISP0_8
   \   0001B6   E0           MOVX    A,@DPTR
   \   0001B7   F5..         MOV     ?V0 + 8,A
   \   0001B9   E4           CLR     A
   \   0001BA   F5..         MOV     ?V0 + 9,A
   \   0001BC   78..         MOV     R0,#?V0 + 4
   \   0001BE   79..         MOV     R1,#?V0 + 8
   \   0001C0   12....       LCALL   ?L_IOR
   \   0001C3   85..82       MOV     DPL,?V0 + 14
   \   0001C6   85..83       MOV     DPH,?V0 + 15
   \   0001C9   E5..         MOV     A,?V0 + 4
   \   0001CB   F0           MOVX    @DPTR,A
   \   0001CC   A3           INC     DPTR
   \   0001CD   E5..         MOV     A,?V0 + 5
   \   0001CF   F0           MOVX    @DPTR,A
   \   0001D0   A3           INC     DPTR
   \   0001D1   E5..         MOV     A,?V0 + 6
   \   0001D3   F0           MOVX    @DPTR,A
   \   0001D4   A3           INC     DPTR
   \   0001D5   E5..         MOV     A,?V0 + 7
   \   0001D7   F0           MOVX    @DPTR,A
   1298                  quat[3] = ((long)fifo_data[12] << 24) | ((long)fifo_data[13] << 16) |
   1299                      ((long)fifo_data[14] << 8) | fifo_data[15];
   \   0001D8   E5..         MOV     A,?V0 + 0
   \   0001DA   240C         ADD     A,#0xc
   \   0001DC   F5..         MOV     ?V0 + 12,A
   \   0001DE   E5..         MOV     A,?V0 + 1
   \   0001E0   3400         ADDC    A,#0x0
   \   0001E2   F5..         MOV     ?V0 + 13,A
   \   0001E4   7415         MOV     A,#0x15
   \   0001E6   12....       LCALL   ?XSTACK_DISP0_8
   \   0001E9   E0           MOVX    A,@DPTR
   \   0001EA   F5..         MOV     ?V0 + 4,A
   \   0001EC   E4           CLR     A
   \   0001ED   F5..         MOV     ?V0 + 5,A
   \   0001EF   F5..         MOV     ?V0 + 6,A
   \   0001F1   F5..         MOV     ?V0 + 7,A
   \   0001F3   7418         MOV     A,#0x18
   \   0001F5   78..         MOV     R0,#?V0 + 4
   \   0001F7   12....       LCALL   ?L_SHL
   \   0001FA   7416         MOV     A,#0x16
   \   0001FC   12....       LCALL   ?XSTACK_DISP0_8
   \   0001FF   E0           MOVX    A,@DPTR
   \   000200   F5..         MOV     ?V0 + 8,A
   \   000202   7410         MOV     A,#0x10
   \   000204   78..         MOV     R0,#?V0 + 8
   \   000206   12....       LCALL   ?L_SHL
   \   000209   78..         MOV     R0,#?V0 + 4
   \   00020B   79..         MOV     R1,#?V0 + 8
   \   00020D   12....       LCALL   ?L_IOR
   \   000210   7417         MOV     A,#0x17
   \   000212   12....       LCALL   ?XSTACK_DISP0_8
   \   000215   E0           MOVX    A,@DPTR
   \   000216   F5..         MOV     ?V0 + 8,A
   \   000218   E4           CLR     A
   \   000219   F5..         MOV     ?V0 + 10,A
   \   00021B   7408         MOV     A,#0x8
   \   00021D   78..         MOV     R0,#?V0 + 8
   \   00021F   12....       LCALL   ?L_SHL
   \   000222   78..         MOV     R0,#?V0 + 4
   \   000224   79..         MOV     R1,#?V0 + 8
   \   000226   12....       LCALL   ?L_IOR
   \   000229   7418         MOV     A,#0x18
   \   00022B   12....       LCALL   ?XSTACK_DISP0_8
   \   00022E   E0           MOVX    A,@DPTR
   \   00022F   F5..         MOV     ?V0 + 8,A
   \   000231   E4           CLR     A
   \   000232   F5..         MOV     ?V0 + 9,A
   \   000234   78..         MOV     R0,#?V0 + 4
   \   000236   79..         MOV     R1,#?V0 + 8
   \   000238   12....       LCALL   ?L_IOR
   \   00023B   85..82       MOV     DPL,?V0 + 12
   \   00023E   85..83       MOV     DPH,?V0 + 13
   \   000241   E5..         MOV     A,?V0 + 4
   \   000243   F0           MOVX    @DPTR,A
   \   000244   A3           INC     DPTR
   \   000245   E5..         MOV     A,?V0 + 5
   \   000247   F0           MOVX    @DPTR,A
   \   000248   A3           INC     DPTR
   \   000249   E5..         MOV     A,?V0 + 6
   \   00024B   F0           MOVX    @DPTR,A
   \   00024C   A3           INC     DPTR
   \   00024D   E5..         MOV     A,?V0 + 7
   \   00024F   F0           MOVX    @DPTR,A
   1300                  ii += 16;
   \   000250   85..82       MOV     DPL,?XSP + 0
   \   000253   85..83       MOV     DPH,?XSP + 1
   \   000256   7410         MOV     A,#0x10
   \   000258   F0           MOVX    @DPTR,A
   1301          #ifdef FIFO_CORRUPTION_CHECK
   1302                  /* We can detect a corrupted FIFO by monitoring the quaternion data and
   1303                   * ensuring that the magnitude is always normalized to one. This
   1304                   * shouldn't happen in normal operation, but if an I2C error occurs,
   1305                   * the FIFO reads might become misaligned.
   1306                   *
   1307                   * Let's start by scaling down the quaternion data to avoid long long
   1308                   * math.
   1309                   */
   1310                  quat_q14[0] = quat[0] >> 16;
   \   000259   85..82       MOV     DPL,?V0 + 0
   \   00025C   85..83       MOV     DPH,?V0 + 1
   \   00025F   78..         MOV     R0,#?V0 + 4
   \   000261   12....       LCALL   ?L_MOV_X
   \   000264   7410         MOV     A,#0x10
   \   000266   78..         MOV     R0,#?V0 + 4
   \   000268   12....       LCALL   ?SL_SHR
   \   00026B   7429         MOV     A,#0x29
   \   00026D   12....       LCALL   ?XSTACK_DISP0_8
   \   000270   E5..         MOV     A,?V0 + 4
   \   000272   F0           MOVX    @DPTR,A
   \   000273   A3           INC     DPTR
   \   000274   E5..         MOV     A,?V0 + 5
   \   000276   F0           MOVX    @DPTR,A
   \   000277   A3           INC     DPTR
   \   000278   E5..         MOV     A,?V0 + 6
   \   00027A   F0           MOVX    @DPTR,A
   \   00027B   A3           INC     DPTR
   \   00027C   E5..         MOV     A,?V0 + 7
   \   00027E   F0           MOVX    @DPTR,A
   1311                  quat_q14[1] = quat[1] >> 16;
   \   00027F   85..82       MOV     DPL,?V0 + 0
   \   000282   85..83       MOV     DPH,?V0 + 1
   \   000285   A3           INC     DPTR
   \   000286   A3           INC     DPTR
   \   000287   A3           INC     DPTR
   \   000288   A3           INC     DPTR
   \   000289   78..         MOV     R0,#?V0 + 0
   \   00028B   12....       LCALL   ?L_MOV_X
   \   00028E   7410         MOV     A,#0x10
   \   000290   78..         MOV     R0,#?V0 + 0
   \   000292   12....       LCALL   ?SL_SHR
   \   000295   742D         MOV     A,#0x2d
   \   000297   12....       LCALL   ?XSTACK_DISP0_8
   \   00029A   78..         MOV     R0,#?V0 + 0
   \   00029C   12....       LCALL   ?L_MOV_TO_X
   1312                  quat_q14[2] = quat[2] >> 16;
   \   00029F   85..82       MOV     DPL,?V0 + 14
   \   0002A2   85..83       MOV     DPH,?V0 + 15
   \   0002A5   78..         MOV     R0,#?V0 + 4
   \   0002A7   12....       LCALL   ?L_MOV_X
   \   0002AA   7410         MOV     A,#0x10
   \   0002AC   78..         MOV     R0,#?V0 + 4
   \   0002AE   12....       LCALL   ?SL_SHR
   \   0002B1   7431         MOV     A,#0x31
   \   0002B3   12....       LCALL   ?XSTACK_DISP0_8
   \   0002B6   78..         MOV     R0,#?V0 + 4
   \   0002B8   12....       LCALL   ?L_MOV_TO_X
   1313                  quat_q14[3] = quat[3] >> 16;
   \   0002BB   85..82       MOV     DPL,?V0 + 12
   \   0002BE   85..83       MOV     DPH,?V0 + 13
   \   0002C1   78..         MOV     R0,#?V0 + 8
   \   0002C3   12....       LCALL   ?L_MOV_X
   \   0002C6   7410         MOV     A,#0x10
   \   0002C8   78..         MOV     R0,#?V0 + 8
   \   0002CA   12....       LCALL   ?SL_SHR
   \   0002CD   7405         MOV     A,#0x5
   \   0002CF   12....       LCALL   ?XSTACK_DISP0_8
   \   0002D2   78..         MOV     R0,#?V0 + 8
   \   0002D4   12....       LCALL   ?L_MOV_TO_X
   \   0002D7   7405         MOV     A,#0x5
   \   0002D9   12....       LCALL   ?XSTACK_DISP0_8
   \   0002DC   12....       LCALL   ?XLOAD_R2345
   \   0002DF   7435         MOV     A,#0x35
   \   0002E1   12....       LCALL   ?XSTACK_DISP0_8
   \   0002E4   12....       LCALL   ?XSTORE_R2345
   1314                  quat_mag_sq = quat_q14[0] * quat_q14[0] + quat_q14[1] * quat_q14[1] +
   1315                      quat_q14[2] * quat_q14[2] + quat_q14[3] * quat_q14[3];
   1316                  if ((quat_mag_sq < QUAT_MAG_SQ_MIN) ||
   1317                      (quat_mag_sq > QUAT_MAG_SQ_MAX)) {
   \   0002E7   7429         MOV     A,#0x29
   \   0002E9   12....       LCALL   ?XSTACK_DISP0_8
   \   0002EC   78..         MOV     R0,#?V0 + 12
   \   0002EE   12....       LCALL   ?L_MOV_X
   \   0002F1   7429         MOV     A,#0x29
   \   0002F3   12....       LCALL   ?XSTACK_DISP0_8
   \   0002F6   78..         MOV     R0,#?V0 + 8
   \   0002F8   12....       LCALL   ?L_MOV_X
   \   0002FB   78..         MOV     R0,#?V0 + 12
   \   0002FD   79..         MOV     R1,#?V0 + 8
   \   0002FF   12....       LCALL   ?L_MUL
   \   000302   85....       MOV     ?V0 + 8,?V0 + 0
   \   000305   85....       MOV     ?V0 + 9,?V0 + 1
   \   000308   85....       MOV     ?V0 + 10,?V0 + 2
   \   00030B   85....       MOV     ?V0 + 11,?V0 + 3
   \   00030E   78..         MOV     R0,#?V0 + 8
   \   000310   79..         MOV     R1,#?V0 + 0
   \   000312   12....       LCALL   ?L_MUL
   \   000315   78..         MOV     R0,#?V0 + 12
   \   000317   79..         MOV     R1,#?V0 + 8
   \   000319   12....       LCALL   ?L_ADD
   \   00031C   85....       MOV     ?V0 + 0,?V0 + 4
   \   00031F   85....       MOV     ?V0 + 1,?V0 + 5
   \   000322   85....       MOV     ?V0 + 2,?V0 + 6
   \   000325   85....       MOV     ?V0 + 3,?V0 + 7
   \   000328   78..         MOV     R0,#?V0 + 0
   \   00032A   79..         MOV     R1,#?V0 + 4
   \   00032C   12....       LCALL   ?L_MUL
   \   00032F   78..         MOV     R0,#?V0 + 12
   \   000331   79..         MOV     R1,#?V0 + 0
   \   000333   12....       LCALL   ?L_ADD
   \   000336   7405         MOV     A,#0x5
   \   000338   12....       LCALL   ?XSTACK_DISP0_8
   \   00033B   78..         MOV     R0,#?V0 + 0
   \   00033D   12....       LCALL   ?L_MOV_X
   \   000340   7405         MOV     A,#0x5
   \   000342   12....       LCALL   ?XSTACK_DISP0_8
   \   000345   78..         MOV     R0,#?V0 + 4
   \   000347   12....       LCALL   ?L_MOV_X
   \   00034A   78..         MOV     R0,#?V0 + 0
   \   00034C   79..         MOV     R1,#?V0 + 4
   \   00034E   12....       LCALL   ?L_MUL
   \   000351   78..         MOV     R0,#?V0 + 12
   \   000353   79..         MOV     R1,#?V0 + 0
   \   000355   12....       LCALL   ?L_ADD
   \   000358   90....       MOV     DPTR,#__Constant_f1000000
   \   00035B   78..         MOV     R0,#?V0 + 12
   \   00035D   12....       LCALL   ?L_ADD_X
   \   000360   90....       MOV     DPTR,#__Constant_2000001
   \   000363   78..         MOV     R0,#?V0 + 12
   \   000365   12....       LCALL   ?UL_GE_X
   \   000368   501B         JNC     ??dmp_read_fifo_4
   1318                      /* Quaternion is outside of the acceptable threshold. */
   1319                      mpu_reset_fifo();
   \   00036A                ; Setup parameters for call to function mpu_reset_fifo
   \   00036A   12....       LCALL   ??mpu_reset_fifo?relay
   1320                      sensors[0] = 0;
   \   00036D   7455         MOV     A,#0x55
   \   00036F   12....       LCALL   ?XSTACK_DISP0_8
   \   000372   E0           MOVX    A,@DPTR
   \   000373   F8           MOV     R0,A
   \   000374   A3           INC     DPTR
   \   000375   E0           MOVX    A,@DPTR
   \   000376   F583         MOV     DPH,A
   \   000378   8882         MOV     DPL,R0
   \   00037A   E4           CLR     A
   \   00037B   F0           MOVX    @DPTR,A
   \   00037C   A3           INC     DPTR
   \   00037D   F0           MOVX    @DPTR,A
   1321                            printf("quat_mag_sq error\r\n");
   \   00037E                ; Setup parameters for call to function printf
   \   00037E   7A..         MOV     R2,#`?<Constant "quat_mag_sq error\\r\\n">` & 0xff
   \   000380   7B..         MOV     R3,#(`?<Constant "quat_mag_sq error\\r\\n">` >> 8) & 0xff
   \   000382   02....       LJMP    ??dmp_read_fifo_1 & 0xFFFF
   1322                      return -1;
   1323                  }
   1324                  sensors[0] |= INV_WXYZ_QUAT;
   \                     ??dmp_read_fifo_4:
   \   000385   7455         MOV     A,#0x55
   \   000387   12....       LCALL   ?XSTACK_DISP0_8
   \   00038A   E0           MOVX    A,@DPTR
   \   00038B   F8           MOV     R0,A
   \   00038C   A3           INC     DPTR
   \   00038D   E0           MOVX    A,@DPTR
   \   00038E   F583         MOV     DPH,A
   \   000390   8882         MOV     DPL,R0
   \   000392   A3           INC     DPTR
   \   000393   E0           MOVX    A,@DPTR
   \   000394   4401         ORL     A,#0x1
   \   000396   F0           MOVX    @DPTR,A
   1325          #endif
   1326              }
   1327          
   1328              if (dmp.feature_mask & DMP_FEATURE_SEND_RAW_ACCEL) {
   \                     ??dmp_read_fifo_3:
   \   000397   EE           MOV     A,R6
   \   000398   5440         ANL     A,#0x40
   \   00039A   7003         JNZ     $+5
   \   00039C   02....       LJMP    ??dmp_read_fifo_5 & 0xFFFF
   1329                  accel[0] = ((short)fifo_data[ii+0] << 8) | fifo_data[ii+1];
   \   00039F   85..82       MOV     DPL,?XSP + 0
   \   0003A2   85..83       MOV     DPH,?XSP + 1
   \   0003A5   E0           MOVX    A,@DPTR
   \   0003A6   F8           MOV     R0,A
   \   0003A7   7409         MOV     A,#0x9
   \   0003A9   12....       LCALL   ?XSTACK_DISP0_8
   \   0003AC   E582         MOV     A,DPL
   \   0003AE   28           ADD     A,R0
   \   0003AF   F8           MOV     R0,A
   \   0003B0   E583         MOV     A,DPH
   \   0003B2   3400         ADDC    A,#0x0
   \   0003B4   F9           MOV     R1,A
   \   0003B5   8882         MOV     DPL,R0
   \   0003B7   8983         MOV     DPH,R1
   \   0003B9   E0           MOVX    A,@DPTR
   \   0003BA   FB           MOV     R3,A
   \   0003BB   A3           INC     DPTR
   \   0003BC   E0           MOVX    A,@DPTR
   \   0003BD   FA           MOV     R2,A
   \   0003BE   7401         MOV     A,#0x1
   \   0003C0   12....       LCALL   ?XSTACK_DISP0_8
   \   0003C3   E0           MOVX    A,@DPTR
   \   0003C4   FC           MOV     R4,A
   \   0003C5   A3           INC     DPTR
   \   0003C6   E0           MOVX    A,@DPTR
   \   0003C7   F583         MOV     DPH,A
   \   0003C9   8C82         MOV     DPL,R4
   \   0003CB   EA           MOV     A,R2
   \   0003CC   F0           MOVX    @DPTR,A
   \   0003CD   A3           INC     DPTR
   \   0003CE   EB           MOV     A,R3
   \   0003CF   F0           MOVX    @DPTR,A
   1330                  accel[1] = ((short)fifo_data[ii+2] << 8) | fifo_data[ii+3];
   \   0003D0   8882         MOV     DPL,R0
   \   0003D2   8983         MOV     DPH,R1
   \   0003D4   A3           INC     DPTR
   \   0003D5   A3           INC     DPTR
   \   0003D6   E0           MOVX    A,@DPTR
   \   0003D7   FB           MOV     R3,A
   \   0003D8   8882         MOV     DPL,R0
   \   0003DA   8983         MOV     DPH,R1
   \   0003DC   A3           INC     DPTR
   \   0003DD   A3           INC     DPTR
   \   0003DE   A3           INC     DPTR
   \   0003DF   E0           MOVX    A,@DPTR
   \   0003E0   FA           MOV     R2,A
   \   0003E1   7401         MOV     A,#0x1
   \   0003E3   12....       LCALL   ?XSTACK_DISP0_8
   \   0003E6   E0           MOVX    A,@DPTR
   \   0003E7   FC           MOV     R4,A
   \   0003E8   A3           INC     DPTR
   \   0003E9   E0           MOVX    A,@DPTR
   \   0003EA   F583         MOV     DPH,A
   \   0003EC   8C82         MOV     DPL,R4
   \   0003EE   A3           INC     DPTR
   \   0003EF   A3           INC     DPTR
   \   0003F0   EA           MOV     A,R2
   \   0003F1   F0           MOVX    @DPTR,A
   \   0003F2   A3           INC     DPTR
   \   0003F3   EB           MOV     A,R3
   \   0003F4   F0           MOVX    @DPTR,A
   1331                  accel[2] = ((short)fifo_data[ii+4] << 8) | fifo_data[ii+5];
   \   0003F5   8882         MOV     DPL,R0
   \   0003F7   8983         MOV     DPH,R1
   \   0003F9   A3           INC     DPTR
   \   0003FA   A3           INC     DPTR
   \   0003FB   A3           INC     DPTR
   \   0003FC   A3           INC     DPTR
   \   0003FD   E0           MOVX    A,@DPTR
   \   0003FE   FB           MOV     R3,A
   \   0003FF   8882         MOV     DPL,R0
   \   000401   8983         MOV     DPH,R1
   \   000403   A3           INC     DPTR
   \   000404   A3           INC     DPTR
   \   000405   A3           INC     DPTR
   \   000406   A3           INC     DPTR
   \   000407   A3           INC     DPTR
   \   000408   E0           MOVX    A,@DPTR
   \   000409   F8           MOV     R0,A
   \   00040A   EB           MOV     A,R3
   \   00040B   F9           MOV     R1,A
   \   00040C   7401         MOV     A,#0x1
   \   00040E   12....       LCALL   ?XSTACK_DISP0_8
   \   000411   E0           MOVX    A,@DPTR
   \   000412   FA           MOV     R2,A
   \   000413   A3           INC     DPTR
   \   000414   E0           MOVX    A,@DPTR
   \   000415   F583         MOV     DPH,A
   \   000417   8A82         MOV     DPL,R2
   \   000419   A3           INC     DPTR
   \   00041A   A3           INC     DPTR
   \   00041B   A3           INC     DPTR
   \   00041C   A3           INC     DPTR
   \   00041D   E8           MOV     A,R0
   \   00041E   F0           MOVX    @DPTR,A
   \   00041F   A3           INC     DPTR
   \   000420   E9           MOV     A,R1
   \   000421   F0           MOVX    @DPTR,A
   1332                  ii += 6;
   \   000422   85..82       MOV     DPL,?XSP + 0
   \   000425   85..83       MOV     DPH,?XSP + 1
   \   000428   E0           MOVX    A,@DPTR
   \   000429   2406         ADD     A,#0x6
   \   00042B   F0           MOVX    @DPTR,A
   1333                  sensors[0] |= INV_XYZ_ACCEL;
   \   00042C   7455         MOV     A,#0x55
   \   00042E   12....       LCALL   ?XSTACK_DISP0_8
   \   000431   E0           MOVX    A,@DPTR
   \   000432   F8           MOV     R0,A
   \   000433   A3           INC     DPTR
   \   000434   E0           MOVX    A,@DPTR
   \   000435   F583         MOV     DPH,A
   \   000437   8882         MOV     DPL,R0
   \   000439   E0           MOVX    A,@DPTR
   \   00043A   4408         ORL     A,#0x8
   \   00043C   F0           MOVX    @DPTR,A
   1334              }
   1335          
   1336              if (dmp.feature_mask & DMP_FEATURE_SEND_ANY_GYRO) {
   \                     ??dmp_read_fifo_5:
   \   00043D   EE           MOV     A,R6
   \   00043E   5480         ANL     A,#0x80
   \   000440   F8           MOV     R0,A
   \   000441   EF           MOV     A,R7
   \   000442   5401         ANL     A,#0x1
   \   000444   F9           MOV     R1,A
   \   000445   E8           MOV     A,R0
   \   000446   49           ORL     A,R1
   \   000447   7003         JNZ     $+5
   \   000449   02....       LJMP    ??dmp_read_fifo_6 & 0xFFFF
   1337                  gyro[0] = ((short)fifo_data[ii+0] << 8) | fifo_data[ii+1];
   \   00044C   85..82       MOV     DPL,?XSP + 0
   \   00044F   85..83       MOV     DPH,?XSP + 1
   \   000452   E0           MOVX    A,@DPTR
   \   000453   F8           MOV     R0,A
   \   000454   7409         MOV     A,#0x9
   \   000456   12....       LCALL   ?XSTACK_DISP0_8
   \   000459   E582         MOV     A,DPL
   \   00045B   28           ADD     A,R0
   \   00045C   F8           MOV     R0,A
   \   00045D   E583         MOV     A,DPH
   \   00045F   3400         ADDC    A,#0x0
   \   000461   F9           MOV     R1,A
   \   000462   8882         MOV     DPL,R0
   \   000464   8983         MOV     DPH,R1
   \   000466   E0           MOVX    A,@DPTR
   \   000467   FB           MOV     R3,A
   \   000468   A3           INC     DPTR
   \   000469   E0           MOVX    A,@DPTR
   \   00046A   FA           MOV     R2,A
   \   00046B   7403         MOV     A,#0x3
   \   00046D   12....       LCALL   ?XSTACK_DISP0_8
   \   000470   E0           MOVX    A,@DPTR
   \   000471   FC           MOV     R4,A
   \   000472   A3           INC     DPTR
   \   000473   E0           MOVX    A,@DPTR
   \   000474   F583         MOV     DPH,A
   \   000476   8C82         MOV     DPL,R4
   \   000478   EA           MOV     A,R2
   \   000479   F0           MOVX    @DPTR,A
   \   00047A   A3           INC     DPTR
   \   00047B   EB           MOV     A,R3
   \   00047C   F0           MOVX    @DPTR,A
   1338                  gyro[1] = ((short)fifo_data[ii+2] << 8) | fifo_data[ii+3];
   \   00047D   8882         MOV     DPL,R0
   \   00047F   8983         MOV     DPH,R1
   \   000481   A3           INC     DPTR
   \   000482   A3           INC     DPTR
   \   000483   E0           MOVX    A,@DPTR
   \   000484   FB           MOV     R3,A
   \   000485   8882         MOV     DPL,R0
   \   000487   8983         MOV     DPH,R1
   \   000489   A3           INC     DPTR
   \   00048A   A3           INC     DPTR
   \   00048B   A3           INC     DPTR
   \   00048C   E0           MOVX    A,@DPTR
   \   00048D   FA           MOV     R2,A
   \   00048E   7403         MOV     A,#0x3
   \   000490   12....       LCALL   ?XSTACK_DISP0_8
   \   000493   E0           MOVX    A,@DPTR
   \   000494   FC           MOV     R4,A
   \   000495   A3           INC     DPTR
   \   000496   E0           MOVX    A,@DPTR
   \   000497   F583         MOV     DPH,A
   \   000499   8C82         MOV     DPL,R4
   \   00049B   A3           INC     DPTR
   \   00049C   A3           INC     DPTR
   \   00049D   EA           MOV     A,R2
   \   00049E   F0           MOVX    @DPTR,A
   \   00049F   A3           INC     DPTR
   \   0004A0   EB           MOV     A,R3
   \   0004A1   F0           MOVX    @DPTR,A
   1339                  gyro[2] = ((short)fifo_data[ii+4] << 8) | fifo_data[ii+5];
   \   0004A2   8882         MOV     DPL,R0
   \   0004A4   8983         MOV     DPH,R1
   \   0004A6   A3           INC     DPTR
   \   0004A7   A3           INC     DPTR
   \   0004A8   A3           INC     DPTR
   \   0004A9   A3           INC     DPTR
   \   0004AA   E0           MOVX    A,@DPTR
   \   0004AB   FB           MOV     R3,A
   \   0004AC   8882         MOV     DPL,R0
   \   0004AE   8983         MOV     DPH,R1
   \   0004B0   A3           INC     DPTR
   \   0004B1   A3           INC     DPTR
   \   0004B2   A3           INC     DPTR
   \   0004B3   A3           INC     DPTR
   \   0004B4   A3           INC     DPTR
   \   0004B5   E0           MOVX    A,@DPTR
   \   0004B6   F8           MOV     R0,A
   \   0004B7   EB           MOV     A,R3
   \   0004B8   F9           MOV     R1,A
   \   0004B9   7403         MOV     A,#0x3
   \   0004BB   12....       LCALL   ?XSTACK_DISP0_8
   \   0004BE   E0           MOVX    A,@DPTR
   \   0004BF   FA           MOV     R2,A
   \   0004C0   A3           INC     DPTR
   \   0004C1   E0           MOVX    A,@DPTR
   \   0004C2   F583         MOV     DPH,A
   \   0004C4   8A82         MOV     DPL,R2
   \   0004C6   A3           INC     DPTR
   \   0004C7   A3           INC     DPTR
   \   0004C8   A3           INC     DPTR
   \   0004C9   A3           INC     DPTR
   \   0004CA   E8           MOV     A,R0
   \   0004CB   F0           MOVX    @DPTR,A
   \   0004CC   A3           INC     DPTR
   \   0004CD   E9           MOV     A,R1
   \   0004CE   F0           MOVX    @DPTR,A
   1340                  ii += 6;
   \   0004CF   85..82       MOV     DPL,?XSP + 0
   \   0004D2   85..83       MOV     DPH,?XSP + 1
   \   0004D5   E0           MOVX    A,@DPTR
   \   0004D6   2406         ADD     A,#0x6
   \   0004D8   F0           MOVX    @DPTR,A
   1341                  sensors[0] |= INV_XYZ_GYRO;
   \   0004D9   7455         MOV     A,#0x55
   \   0004DB   12....       LCALL   ?XSTACK_DISP0_8
   \   0004DE   E0           MOVX    A,@DPTR
   \   0004DF   F8           MOV     R0,A
   \   0004E0   A3           INC     DPTR
   \   0004E1   E0           MOVX    A,@DPTR
   \   0004E2   F583         MOV     DPH,A
   \   0004E4   8882         MOV     DPL,R0
   \   0004E6   E0           MOVX    A,@DPTR
   \   0004E7   4470         ORL     A,#0x70
   \   0004E9   F0           MOVX    @DPTR,A
   1342              }
   1343          
   1344              /* Gesture data is at the end of the DMP packet. Parse it and call
   1345               * the gesture callbacks (if registered).
   1346               */
   1347              if (dmp.feature_mask & (DMP_FEATURE_TAP | DMP_FEATURE_ANDROID_ORIENT))
   \                     ??dmp_read_fifo_6:
   \   0004EA   EE           MOV     A,R6
   \   0004EB   5403         ANL     A,#0x3
   \   0004ED   6019         JZ      ??dmp_read_fifo_7
   1348                  decode_gesture(fifo_data + ii);
   \   0004EF                ; Setup parameters for call to function decode_gesture
   \   0004EF   85..82       MOV     DPL,?XSP + 0
   \   0004F2   85..83       MOV     DPH,?XSP + 1
   \   0004F5   E0           MOVX    A,@DPTR
   \   0004F6   F8           MOV     R0,A
   \   0004F7   7409         MOV     A,#0x9
   \   0004F9   12....       LCALL   ?XSTACK_DISP0_8
   \   0004FC   E582         MOV     A,DPL
   \   0004FE   28           ADD     A,R0
   \   0004FF   FA           MOV     R2,A
   \   000500   E583         MOV     A,DPH
   \   000502   3400         ADDC    A,#0x0
   \   000504   FB           MOV     R3,A
   \   000505   12....       LCALL   ??decode_gesture?relay
   1349          
   1350              get_ms(timestamp);
   \                     ??dmp_read_fifo_7:
   \   000508                ; Setup parameters for call to function mget_ms
   \   000508   7453         MOV     A,#0x53
   \   00050A   12....       LCALL   ?XSTACK_DISP0_8
   \   00050D   E0           MOVX    A,@DPTR
   \   00050E   FA           MOV     R2,A
   \   00050F   A3           INC     DPTR
   \   000510   E0           MOVX    A,@DPTR
   \   000511   FB           MOV     R3,A
   \   000512   12....       LCALL   ??mget_ms?relay
   1351              return 0;
   \   000515   7A00         MOV     R2,#0x0
   \   000517   7B00         MOV     R3,#0x0
   \                     ??dmp_read_fifo_2:
   \   000519   7439         MOV     A,#0x39
   \   00051B   12....       LCALL   ?DEALLOC_XSTACK8
   \   00051E   7F10         MOV     R7,#0x10
   \   000520   02....       LJMP    ?BANKED_LEAVE_XDATA
   1352          }
   1353          
   1354          /**
   1355           *  @brief      Register a function to be executed on a tap event.
   1356           *  The tap direction is represented by one of the following:
   1357           *  \n TAP_X_UP
   1358           *  \n TAP_X_DOWN
   1359           *  \n TAP_Y_UP
   1360           *  \n TAP_Y_DOWN
   1361           *  \n TAP_Z_UP
   1362           *  \n TAP_Z_DOWN
   1363           *  @param[in]  func    Callback function.
   1364           *  @return     0 if successful.
   1365           */

   \                                 In  segment BANKED_CODE, align 1, keep-with-next
   1366          int dmp_register_tap_cb(void (*func)(unsigned char, unsigned char))
   \                     dmp_register_tap_cb:
   1367          {
   \   000000   C082         PUSH    DPL
   \   000002   C083         PUSH    DPH
   \   000004                ; Saved register size: 2
   \   000004                ; Auto size: 0
   1368              dmp.tap_cb = func;
   \   000004   90....       MOV     DPTR,#dmp
   \   000007   EA           MOV     A,R2
   \   000008   F0           MOVX    @DPTR,A
   \   000009   A3           INC     DPTR
   \   00000A   EB           MOV     A,R3
   \   00000B   F0           MOVX    @DPTR,A
   1369              return 0;
   \   00000C   7A00         MOV     R2,#0x0
   \   00000E   7B00         MOV     R3,#0x0
   \   000010   D083         POP     DPH
   \   000012   D082         POP     DPL
   \   000014   02....       LJMP    ?BRET
   1370          }
   1371          
   1372          /**
   1373           *  @brief      Register a function to be executed on a android orientation event.
   1374           *  @param[in]  func    Callback function.
   1375           *  @return     0 if successful.
   1376           */

   \                                 In  segment BANKED_CODE, align 1, keep-with-next
   1377          int dmp_register_android_orient_cb(void (*func)(unsigned char))
   \                     dmp_register_android_orient_cb:
   1378          {
   \   000000   C082         PUSH    DPL
   \   000002   C083         PUSH    DPH
   \   000004                ; Saved register size: 2
   \   000004                ; Auto size: 0
   1379              dmp.android_orient_cb = func;
   \   000004   90....       MOV     DPTR,#dmp + 2
   \   000007   EA           MOV     A,R2
   \   000008   F0           MOVX    @DPTR,A
   \   000009   A3           INC     DPTR
   \   00000A   EB           MOV     A,R3
   \   00000B   F0           MOVX    @DPTR,A
   1380              return 0;
   \   00000C   7A00         MOV     R2,#0x0
   \   00000E   7B00         MOV     R3,#0x0
   \   000010   D083         POP     DPH
   \   000012   D082         POP     DPL
   \   000014   02....       LJMP    ?BRET
   1381          }

   \                                 In  segment BANK_RELAYS, align 1
   \                     ??dmp_load_motion_driver_firmware?relay:
   \   000000   12....       LCALL   ?BDISPATCH
   \   000003   ......       DC24    dmp_load_motion_driver_firmware

   \                                 In  segment BANK_RELAYS, align 1
   \                     ??dmp_set_orientation?relay:
   \   000000   12....       LCALL   ?BDISPATCH
   \   000003   ......       DC24    dmp_set_orientation

   \                                 In  segment BANK_RELAYS, align 1
   \                     ??dmp_set_gyro_bias?relay:
   \   000000   12....       LCALL   ?BDISPATCH
   \   000003   ......       DC24    dmp_set_gyro_bias

   \                                 In  segment BANK_RELAYS, align 1
   \                     ??dmp_set_accel_bias?relay:
   \   000000   12....       LCALL   ?BDISPATCH
   \   000003   ......       DC24    dmp_set_accel_bias

   \                                 In  segment BANK_RELAYS, align 1
   \                     ??dmp_set_fifo_rate?relay:
   \   000000   12....       LCALL   ?BDISPATCH
   \   000003   ......       DC24    dmp_set_fifo_rate

   \                                 In  segment BANK_RELAYS, align 1
   \                     ??dmp_get_fifo_rate?relay:
   \   000000   12....       LCALL   ?BDISPATCH
   \   000003   ......       DC24    dmp_get_fifo_rate

   \                                 In  segment BANK_RELAYS, align 1
   \                     ??dmp_set_tap_thresh?relay:
   \   000000   12....       LCALL   ?BDISPATCH
   \   000003   ......       DC24    dmp_set_tap_thresh

   \                                 In  segment BANK_RELAYS, align 1
   \                     ??dmp_set_tap_axes?relay:
   \   000000   12....       LCALL   ?BDISPATCH
   \   000003   ......       DC24    dmp_set_tap_axes

   \                                 In  segment BANK_RELAYS, align 1
   \                     ??dmp_set_tap_count?relay:
   \   000000   12....       LCALL   ?BDISPATCH
   \   000003   ......       DC24    dmp_set_tap_count

   \                                 In  segment BANK_RELAYS, align 1
   \                     ??dmp_set_tap_time?relay:
   \   000000   12....       LCALL   ?BDISPATCH
   \   000003   ......       DC24    dmp_set_tap_time

   \                                 In  segment BANK_RELAYS, align 1
   \                     ??dmp_set_tap_time_multi?relay:
   \   000000   12....       LCALL   ?BDISPATCH
   \   000003   ......       DC24    dmp_set_tap_time_multi

   \                                 In  segment BANK_RELAYS, align 1
   \                     ??dmp_set_shake_reject_thresh?relay:
   \   000000   12....       LCALL   ?BDISPATCH
   \   000003   ......       DC24    dmp_set_shake_reject_thresh

   \                                 In  segment BANK_RELAYS, align 1
   \                     ??dmp_set_shake_reject_time?relay:
   \   000000   12....       LCALL   ?BDISPATCH
   \   000003   ......       DC24    dmp_set_shake_reject_time

   \                                 In  segment BANK_RELAYS, align 1
   \                     ??dmp_set_shake_reject_timeout?relay:
   \   000000   12....       LCALL   ?BDISPATCH
   \   000003   ......       DC24    dmp_set_shake_reject_timeout

   \                                 In  segment BANK_RELAYS, align 1
   \                     ??dmp_get_pedometer_step_count?relay:
   \   000000   12....       LCALL   ?BDISPATCH
   \   000003   ......       DC24    dmp_get_pedometer_step_count

   \                                 In  segment BANK_RELAYS, align 1
   \                     ??dmp_set_pedometer_step_count?relay:
   \   000000   12....       LCALL   ?BDISPATCH
   \   000003   ......       DC24    dmp_set_pedometer_step_count

   \                                 In  segment BANK_RELAYS, align 1
   \                     ??dmp_get_pedometer_walk_time?relay:
   \   000000   12....       LCALL   ?BDISPATCH
   \   000003   ......       DC24    dmp_get_pedometer_walk_time

   \                                 In  segment BANK_RELAYS, align 1
   \                     ??dmp_set_pedometer_walk_time?relay:
   \   000000   12....       LCALL   ?BDISPATCH
   \   000003   ......       DC24    dmp_set_pedometer_walk_time

   \                                 In  segment BANK_RELAYS, align 1
   \                     ??dmp_enable_feature?relay:
   \   000000   12....       LCALL   ?BDISPATCH
   \   000003   ......       DC24    dmp_enable_feature

   \                                 In  segment BANK_RELAYS, align 1
   \                     ??dmp_get_enabled_features?relay:
   \   000000   12....       LCALL   ?BDISPATCH
   \   000003   ......       DC24    dmp_get_enabled_features

   \                                 In  segment BANK_RELAYS, align 1
   \                     ??dmp_enable_gyro_cal?relay:
   \   000000   12....       LCALL   ?BDISPATCH
   \   000003   ......       DC24    dmp_enable_gyro_cal

   \                                 In  segment BANK_RELAYS, align 1
   \                     ??dmp_enable_lp_quat?relay:
   \   000000   12....       LCALL   ?BDISPATCH
   \   000003   ......       DC24    dmp_enable_lp_quat

   \                                 In  segment BANK_RELAYS, align 1
   \                     ??dmp_enable_6x_lp_quat?relay:
   \   000000   12....       LCALL   ?BDISPATCH
   \   000003   ......       DC24    dmp_enable_6x_lp_quat

   \                                 In  segment BANK_RELAYS, align 1
   \                     ??decode_gesture?relay:
   \   000000   12....       LCALL   ?BDISPATCH
   \   000003   ......       DC24    decode_gesture

   \                                 In  segment BANK_RELAYS, align 1
   \                     ??dmp_set_interrupt_mode?relay:
   \   000000   12....       LCALL   ?BDISPATCH
   \   000003   ......       DC24    dmp_set_interrupt_mode

   \                                 In  segment BANK_RELAYS, align 1
   \                     ??dmp_read_fifo?relay:
   \   000000   12....       LCALL   ?BDISPATCH
   \   000003   ......       DC24    dmp_read_fifo

   \                                 In  segment BANK_RELAYS, align 1
   \                     ??dmp_register_tap_cb?relay:
   \   000000   12....       LCALL   ?BDISPATCH
   \   000003   ......       DC24    dmp_register_tap_cb

   \                                 In  segment BANK_RELAYS, align 1
   \                     ??dmp_register_android_orient_cb?relay:
   \   000000   12....       LCALL   ?BDISPATCH
   \   000003   ......       DC24    dmp_register_android_orient_cb

   \                                 In  segment XDATA_ROM_C, align 1
   \                     `?<Constant {76, 205, 108}>`:
   \   000000   4C           DB 76
   \   000001   CD           DB 205
   \   000002   6C           DB 108

   \                                 In  segment XDATA_ROM_C, align 1
   \                     `?<Constant {12, 201, 44}>`:
   \   000000   0C           DB 12
   \   000001   C9           DB 201
   \   000002   2C           DB 44

   \                                 In  segment XDATA_ROM_C, align 1
   \                     `?<Constant {54, 86, 118}>`:
   \   000000   36           DB 54
   \   000001   56           DB 86
   \   000002   76           DB 118

   \                                 In  segment XDATA_ROM_C, align 1
   \                     `?<Constant {38, 70, 102}>`:
   \   000000   26           DB 38
   \   000001   46           DB 70
   \   000002   66           DB 102

   \                                 In  segment XDATA_ROM_C, align 1
   \                     `?<Constant {254, 242, 171, 196, 170, 241, 223,`:
   \   000000   FE           DB 254
   \   000001   F2           DB 242
   \   000002   AB           DB 171
   \   000003   C4           DB 196
   \   000004   AA           DB 170
   \   000005   F1           DB 241
   \   000006   DF           DB 223
   \   000007   DF           DB 223
   \   000008   BB           DB 187
   \   000009   AF           DB 175
   \   00000A   DF           DB 223
   \   00000B   DF           DB 223

   \                                 In  segment XDATA_ROM_C, align 1
   \                     `?<Constant {184, 170, 179, 141, 180, 152, 13, `:
   \   000000   B8           DB 184
   \   000001   AA           DB 170
   \   000002   B3           DB 179
   \   000003   8D           DB 141
   \   000004   B4           DB 180
   \   000005   98           DB 152
   \   000006   0D           DB 13
   \   000007   35           DB 53
   \   000008   5D           DB 93

   \                                 In  segment XDATA_ROM_C, align 1
   \                     `?<Constant {184, 170, 170, 170, 176, 136, 195,`:
   \   000000   B8           DB 184
   \   000001   AA           DB 170
   \   000002   AA           DB 170
   \   000003   AA           DB 170
   \   000004   B0           DB 176
   \   000005   88           DB 136
   \   000006   C3           DB 195
   \   000007   C5           DB 197
   \   000008   C7           DB 199

   \                                 In  segment XDATA_ROM_C, align 1
   \                     `?<Constant {216, 177, 185, 243, 139, 163, 145,`:
   \   000000   D8           DB 216
   \   000001   B1           DB 177
   \   000002   B9           DB 185
   \   000003   F3           DB 243
   \   000004   8B           DB 139
   \   000005   A3           DB 163
   \   000006   91           DB 145
   \   000007   B6           DB 182
   \   000008   09           DB 9
   \   000009   B4           DB 180
   \   00000A   D9           DB 217

   \                                 In  segment XDATA_ROM_C, align 1
   \                     `?<Constant {218, 177, 185, 243, 139, 163, 145,`:
   \   000000   DA           DB 218
   \   000001   B1           DB 177
   \   000002   B9           DB 185
   \   000003   F3           DB 243
   \   000004   8B           DB 139
   \   000005   A3           DB 163
   \   000006   91           DB 145
   \   000007   B6           DB 182
   \   000008   DA           DB 218
   \   000009   B4           DB 180
   \   00000A   DA           DB 218

   \                                 In  segment XDATA_ROM_C, align 1
   \                     `?<Constant "read_fifo_stream error\\r\\n">`:
   \   000000   72656164     DB "read_fifo_stream error\015\012"
   \            5F666966
   \            6F5F7374
   \            7265616D
   \            20657272
   \            6F720D0A
   \            00      

   \                                 In  segment XDATA_ROM_C, align 1
   \                     `?<Constant "quat_mag_sq error\\r\\n">`:
   \   000000   71756174     DB "quat_mag_sq error\015\012"
   \            5F6D6167
   \            5F737120
   \            6572726F
   \            720D0A00

   \                                 In  segment XDATA_ROM_C, align 1
   \                     __Constant_3b86e0:
   \   000000   E0863B00     DD 3901152

   \                                 In  segment XDATA_ROM_C, align 1
   \                     __Constant_43480000:
   \   000000   00004843     DD 43480000H

   \                                 In  segment XDATA_ROM_C, align 1
   \                     __Constant_46800000:
   \   000000   00008046     DD 46800000H

   \                                 In  segment XDATA_ROM_C, align 1
   \                     __Constant_46400000:
   \   000000   00004046     DD 46400000H

   \                                 In  segment XDATA_ROM_C, align 1
   \                     __Constant_46000000:
   \   000000   00000046     DD 46000000H

   \                                 In  segment XDATA_ROM_C, align 1
   \                     __Constant_45c00000:
   \   000000   0000C045     DD 45C00000H

   \                                 In  segment XDATA_ROM_C, align 1
   \                     __Constant_45800000:
   \   000000   00008045     DD 45800000H

   \                                 In  segment XDATA_ROM_C, align 1
   \                     __Constant_45400000:
   \   000000   00004045     DD 45400000H

   \                                 In  segment XDATA_ROM_C, align 1
   \                     __Constant_45000000:
   \   000000   00000045     DD 45000000H

   \                                 In  segment XDATA_ROM_C, align 1
   \                     __Constant_44c00000:
   \   000000   0000C044     DD 44C00000H

   \                                 In  segment XDATA_ROM_C, align 1
   \                     __Constant_3e8:
   \   000000   E8030000     DD 1000

   \                                 In  segment XDATA_ROM_C, align 1
   \                     __Constant_14:
   \   000000   14000000     DD 20

   \                                 In  segment XDATA_ROM_C, align 1
   \                     __Constant_f1000000:
   \   000000   000000F1     DD 4043309056

   \                                 In  segment XDATA_ROM_C, align 1
   \                     __Constant_2000001:
   \   000000   01000002     DD 33554433
   1382          
   1383          /**
   1384           *  @}
   1385           */
   1386          

   Maximum stack usage in bytes:

     Function                       ISTACK PSTACK XSTACK
     --------                       ------ ------ ------
     decode_gesture                     0      0     90
     dmp_enable_6x_lp_quat              0      0     40
       -> memset                        0      0     32
       -> mpu_write_mem                 0      0     32
       -> mpu_reset_fifo                0      0     28
     dmp_enable_feature                 0      0     26
       -> mpu_write_mem                 0      0     52
       -> mpu_write_mem                 0      0     52
       -> mpu_write_mem                 0      0     52
       -> dmp_enable_gyro_cal           0      0     48
       -> dmp_enable_gyro_cal           0      0     48
       -> mpu_write_mem                 0      0     52
       -> mpu_write_mem                 0      0     52
       -> dmp_set_tap_thresh            0      0     48
       -> dmp_set_tap_axes              0      0     48
       -> dmp_set_tap_count             0      0     48
       -> dmp_set_tap_time              0      0     48
       -> dmp_set_tap_time_multi        0      0     48
       -> dmp_set_shake_reject_thresh
                                        0      0     52
       -> dmp_set_shake_reject_time     0      0     48
       -> dmp_set_shake_reject_timeout
                                        0      0     48
       -> mpu_write_mem                 0      0     52
       -> mpu_write_mem                 0      0     52
       -> dmp_enable_lp_quat            0      0     48
       -> dmp_enable_lp_quat            0      0     48
       -> dmp_enable_6x_lp_quat         0      0     48
       -> dmp_enable_6x_lp_quat         0      0     48
       -> mpu_reset_fifo                0      0     48
     dmp_enable_gyro_cal                2      0     45
       -> mpu_write_mem                 0      0     42
       -> mpu_write_mem                 0      0     42
     dmp_enable_lp_quat                 0      0     40
       -> memset                        0      0     32
       -> mpu_write_mem                 0      0     32
       -> mpu_reset_fifo                0      0     28
     dmp_get_enabled_features           2      0      0
     dmp_get_fifo_rate                  2      0      0
     dmp_get_pedometer_step_count       0      0     22
       -> mpu_read_mem                  0      0     44
     dmp_get_pedometer_walk_time        0      0     22
       -> mpu_read_mem                  0      0     44
     dmp_load_motion_driver_firmware
                                        0      0     14
       -> mpu_load_firmware             0      0     28
     dmp_read_fifo                      0      0     91
       -> mpu_read_fifo_stream          0      0    166
       -> printf                        0      0    162
       -> mpu_reset_fifo                0      0    162
       -> printf                        0      0    162
       -> decode_gesture                0      0    162
       -> mget_ms                       0      0    162
     dmp_register_android_orient_cb     2      0      0
     dmp_register_tap_cb                2      0      0
     dmp_set_accel_bias                 1      0     48
       -> mpu_get_accel_sens            0      0     92
       -> mpu_write_mem                 0      0     96
     dmp_set_fifo_rate                  2      0     32
       -> mpu_write_mem                 0      0     64
       -> mpu_write_mem                 0      0     64
     dmp_set_gyro_bias                  1      0     34
       -> mpu_write_mem                 0      0     68
       -> mpu_write_mem                 0      0     68
       -> mpu_write_mem                 0      0     68
     dmp_set_interrupt_mode             2      0     34
       -> mpu_write_mem                 0      0     68
       -> mpu_write_mem                 0      0     68
     dmp_set_orientation                2      0     30
       -> mpu_write_mem                 0      0     60
       -> mpu_write_mem                 0      0     60
       -> memcpy                        0      0     60
       -> memcpy                        0      0     60
       -> mpu_write_mem                 0      0     60
       -> mpu_write_mem                 0      0     60
     dmp_set_pedometer_step_count       1      0     22
       -> mpu_write_mem                 0      0     44
     dmp_set_pedometer_walk_time        1      0     22
       -> mpu_write_mem                 0      0     44
     dmp_set_shake_reject_thresh        1      0     52
       -> mpu_write_mem                 0      0     52
     dmp_set_shake_reject_time          1      0     38
       -> mpu_write_mem                 0      0     28
     dmp_set_shake_reject_timeout       1      0     38
       -> mpu_write_mem                 0      0     28
     dmp_set_tap_axes                   0      0     37
       -> mpu_write_mem                 0      0     26
     dmp_set_tap_count                  1      0     37
       -> mpu_write_mem                 0      0     26
     dmp_set_tap_thresh                 1      0     51
       -> mpu_get_accel_fsr             0      0     50
       -> mpu_write_mem                 0      0     54
       -> mpu_write_mem                 0      0     54
       -> mpu_write_mem                 0      0     54
       -> mpu_write_mem                 0      0     54
       -> mpu_write_mem                 0      0     54
       -> mpu_write_mem                 0      0     54
     dmp_set_tap_time                   1      0     38
       -> mpu_write_mem                 0      0     28
     dmp_set_tap_time_multi             1      0     38
       -> mpu_write_mem                 0      0     28


   Segment part sizes:

     Function/Label                                 Bytes
     --------------                                 -----
     dmp_memory                                     3062
     dmp                                              11
     dmp_load_motion_driver_firmware
                                                      48
     dmp_set_orientation                             624
     dmp_set_gyro_bias                               743
     dmp_set_accel_bias                              648
     dmp_set_fifo_rate                               187
     dmp_get_fifo_rate                                32
     dmp_set_tap_thresh                              608
     dmp_set_tap_axes                                 83
     dmp_set_tap_count                                72
     dmp_set_tap_time                                 79
     dmp_set_tap_time_multi                           79
     dmp_set_shake_reject_thresh                     183
     dmp_set_shake_reject_time                        79
     dmp_set_shake_reject_timeout                     79
     dmp_get_pedometer_step_count                    182
     dmp_set_pedometer_step_count                     96
     dmp_get_pedometer_walk_time                     197
     dmp_set_pedometer_walk_time                     152
     dmp_enable_feature                              689
     dmp_get_enabled_features                         32
     dmp_enable_gyro_cal                              87
     dmp_enable_lp_quat                              126
     dmp_enable_6x_lp_quat                           126
     decode_gesture                                  124
     dmp_set_interrupt_mode                          126
     dmp_read_fifo                                  1315
     dmp_register_tap_cb                              23
     dmp_register_android_orient_cb                   23
     ??dmp_load_motion_driver_firmware?relay           6
     ??dmp_set_orientation?relay                       6
     ??dmp_set_gyro_bias?relay                         6
     ??dmp_set_accel_bias?relay                        6
     ??dmp_set_fifo_rate?relay                         6
     ??dmp_get_fifo_rate?relay                         6
     ??dmp_set_tap_thresh?relay                        6
     ??dmp_set_tap_axes?relay                          6
     ??dmp_set_tap_count?relay                         6
     ??dmp_set_tap_time?relay                          6
     ??dmp_set_tap_time_multi?relay                    6
     ??dmp_set_shake_reject_thresh?relay               6
     ??dmp_set_shake_reject_time?relay                 6
     ??dmp_set_shake_reject_timeout?relay              6
     ??dmp_get_pedometer_step_count?relay              6
     ??dmp_set_pedometer_step_count?relay              6
     ??dmp_get_pedometer_walk_time?relay               6
     ??dmp_set_pedometer_walk_time?relay               6
     ??dmp_enable_feature?relay                        6
     ??dmp_get_enabled_features?relay                  6
     ??dmp_enable_gyro_cal?relay                       6
     ??dmp_enable_lp_quat?relay                        6
     ??dmp_enable_6x_lp_quat?relay                     6
     ??decode_gesture?relay                            6
     ??dmp_set_interrupt_mode?relay                    6
     ??dmp_read_fifo?relay                             6
     ??dmp_register_tap_cb?relay                       6
     ??dmp_register_android_orient_cb?relay            6
     ?<Constant {76, 205, 108}>                        3
     ?<Constant {12, 201, 44}>                         3
     ?<Constant {54, 86, 118}>                         3
     ?<Constant {38, 70, 102}>                         3
     ?<Constant {254, 242, 171, 196, 170, 241, 223,   12
     ?<Constant {184, 170, 179, 141, 180, 152, 13,     9
     ?<Constant {184, 170, 170, 170, 176, 136, 195,    9
     ?<Constant {216, 177, 185, 243, 139, 163, 145,   11
     ?<Constant {218, 177, 185, 243, 139, 163, 145,   11
     ?<Constant "read_fifo_stream error\r\n">         25
     ?<Constant "quat_mag_sq error\r\n">              20
     __Constant_3b86e0                                 4
     __Constant_43480000                               4
     __Constant_46800000                               4
     __Constant_46400000                               4
     __Constant_46000000                               4
     __Constant_45c00000                               4
     __Constant_45800000                               4
     __Constant_45400000                               4
     __Constant_45000000                               4
     __Constant_44c00000                               4
     __Constant_3e8                                    4
     __Constant_14                                     4
     __Constant_f1000000                               4
     __Constant_2000001                                4

 
 6 842 bytes in segment BANKED_CODE
   168 bytes in segment BANK_RELAYS
 3 227 bytes in segment XDATA_ROM_C
    11 bytes in segment XDATA_Z
 
 7 010 bytes of CODE  memory
 3 171 bytes of CONST memory (+ 56 bytes shared)
    11 bytes of XDATA memory

Errors: none
Warnings: none
