###############################################################################
#                                                                             #
# IAR C/C++ Compiler V8.10.3.10338/W32 for 8051         02/Jan/2020  11:22:37 #
# Copyright 2004-2011 IAR Systems AB.                                         #
#                                                                             #
#    Core               =  plain                                              #
#    Code model         =  banked                                             #
#    Data model         =  large                                              #
#    Calling convention =  xdata reentrant                                    #
#    Constant location  =  data_rom                                           #
#    Dptr setup         =  1,16                                               #
#    Source file        =  D:\DWRH\mode-exp\stm32\ZHONG_HE\IPV4_ZB_2.4G_LORA\ #
#                          ZigBee\Projects\zstack\Samples\SampleApp\Source\En #
#                          dDevice.c                                          #
#    Command line       =  -f D:\DWRH\mode-exp\stm32\ZHONG_HE\IPV4_ZB_2.4G_LO #
#                          RA\ZigBee\Projects\zstack\Samples\SampleApp\CC2530 #
#                          DB\..\..\..\Tools\CC2530DB\f8wEndev.cfg            #
#                          (-DCPU32MHZ -DROOT=__near_func -DBLINK_LEDS) -f    #
#                          D:\DWRH\mode-exp\stm32\ZHONG_HE\IPV4_ZB_2.4G_LORA\ #
#                          ZigBee\Projects\zstack\Samples\SampleApp\CC2530DB\ #
#                          ..\..\..\Tools\CC2530DB\f8wConfig.cfg (-DSECURE=0  #
#                          -DZG_SECURE_DYNAMIC=0 -DREFLECTOR                  #
#                          -DDEFAULT_CHANLIST=0x00000800                      #
#                          -DZDAPP_CONFIG_PAN_ID=0xFF11                       #
#                          -DNWK_START_DELAY=100 -DEXTENDED_JOINING_RANDOM_MA #
#                          SK=0x007F -DBEACON_REQUEST_DELAY=100               #
#                          -DBEACON_REQ_DELAY_MASK=0x00FF                     #
#                          -DROUTE_EXPIRY_TIME=30 -DAPSC_ACK_WAIT_DURATION_PO #
#                          LLED=3000 -DNWK_INDIRECT_MSG_TIMEOUT=7             #
#                          -DMAX_RREQ_ENTRIES=8 -DAPSC_MAX_FRAME_RETRIES=3    #
#                          -DNWK_MAX_DATA_RETRIES=2                           #
#                          -DMAX_POLL_FAILURE_RETRIES=2 -DMAX_BCAST=9         #
#                          -DAPS_MAX_GROUPS=16 -DMAX_RTG_ENTRIES=40           #
#                          -DNWK_MAX_BINDING_ENTRIES=4                        #
#                          -DMAX_BINDING_CLUSTER_IDS=4 "-DDEFAULT_KEY={0x01,  #
#                          0x03, 0x05, 0x07, 0x09, 0x0B, 0x0D, 0x0F, 0x00,    #
#                          0x02, 0x04, 0x06, 0x08, 0x0A, 0x0C, 0x0D}"         #
#                          -DMAC_MAX_FRAME_SIZE=116 "-DCONST=const __code"    #
#                          -DGENERIC=__generic -DRFD_RCVC_ALWAYS_ON=FALSE     #
#                          -DPOLL_RATE=1000 -DQUEUED_POLL_RATE=100            #
#                          -DRESPONSE_POLL_RATE=100) -DREJOIN_POLL_RATE=440   #
#                          D:\DWRH\mode-exp\stm32\ZHONG_HE\IPV4_ZB_2.4G_LORA\ #
#                          ZigBee\Projects\zstack\Samples\SampleApp\Source\En #
#                          dDevice.c -D NWK_AUTO_POLL -D ZTOOL_P1 -D          #
#                          MT_SYS_FUNC -D MT_ZDO_FUNC -D LCD_SUPPORTED=DEBUG  #
#                          -lC D:\DWRH\mode-exp\stm32\ZHONG_HE\IPV4_ZB_2.4G_L #
#                          ORA\ZigBee\Projects\zstack\Samples\SampleApp\CC253 #
#                          0DB\EndDeviceEB\List\ -lA                          #
#                          D:\DWRH\mode-exp\stm32\ZHONG_HE\IPV4_ZB_2.4G_LORA\ #
#                          ZigBee\Projects\zstack\Samples\SampleApp\CC2530DB\ #
#                          EndDeviceEB\List\ --diag_suppress Pe001,Pa010 -o   #
#                          D:\DWRH\mode-exp\stm32\ZHONG_HE\IPV4_ZB_2.4G_LORA\ #
#                          ZigBee\Projects\zstack\Samples\SampleApp\CC2530DB\ #
#                          EndDeviceEB\Obj\ -e --no_unroll --no_inline        #
#                          --no_tbaa --debug --core=plain --dptr=16,1         #
#                          --data_model=large --code_model=banked             #
#                          --calling_convention=xdata_reentrant               #
#                          --place_constants=data_rom --nr_virtual_regs 16    #
#                          -I D:\DWRH\mode-exp\stm32\ZHONG_HE\IPV4_ZB_2.4G_LO #
#                          RA\ZigBee\Projects\zstack\Samples\SampleApp\CC2530 #
#                          DB\ -I D:\DWRH\mode-exp\stm32\ZHONG_HE\IPV4_ZB_2.4 #
#                          G_LORA\ZigBee\Projects\zstack\Samples\SampleApp\CC #
#                          2530DB\..\SOURCE\ -I D:\DWRH\mode-exp\stm32\ZHONG_ #
#                          HE\IPV4_ZB_2.4G_LORA\ZigBee\Projects\zstack\Sample #
#                          s\SampleApp\CC2530DB\..\..\..\ZMAIN\TI2530DB\ -I   #
#                          D:\DWRH\mode-exp\stm32\ZHONG_HE\IPV4_ZB_2.4G_LORA\ #
#                          ZigBee\Projects\zstack\Samples\SampleApp\CC2530DB\ #
#                          ..\..\..\..\..\COMPONENTS\MT\ -I                   #
#                          D:\DWRH\mode-exp\stm32\ZHONG_HE\IPV4_ZB_2.4G_LORA\ #
#                          ZigBee\Projects\zstack\Samples\SampleApp\CC2530DB\ #
#                          ..\..\..\..\..\COMPONENTS\HAL\INCLUDE\ -I          #
#                          D:\DWRH\mode-exp\stm32\ZHONG_HE\IPV4_ZB_2.4G_LORA\ #
#                          ZigBee\Projects\zstack\Samples\SampleApp\CC2530DB\ #
#                          ..\..\..\..\..\COMPONENTS\HAL\TARGET\CC2530EB\ -I  #
#                          D:\DWRH\mode-exp\stm32\ZHONG_HE\IPV4_ZB_2.4G_LORA\ #
#                          ZigBee\Projects\zstack\Samples\SampleApp\CC2530DB\ #
#                          ..\..\..\..\..\COMPONENTS\OSAL\MCU\CCSOC\ -I       #
#                          D:\DWRH\mode-exp\stm32\ZHONG_HE\IPV4_ZB_2.4G_LORA\ #
#                          ZigBee\Projects\zstack\Samples\SampleApp\CC2530DB\ #
#                          ..\..\..\..\..\COMPONENTS\OSAL\INCLUDE\ -I         #
#                          D:\DWRH\mode-exp\stm32\ZHONG_HE\IPV4_ZB_2.4G_LORA\ #
#                          ZigBee\Projects\zstack\Samples\SampleApp\CC2530DB\ #
#                          ..\..\..\..\..\COMPONENTS\STACK\AF\ -I             #
#                          D:\DWRH\mode-exp\stm32\ZHONG_HE\IPV4_ZB_2.4G_LORA\ #
#                          ZigBee\Projects\zstack\Samples\SampleApp\CC2530DB\ #
#                          ..\..\..\..\..\COMPONENTS\STACK\NWK\ -I            #
#                          D:\DWRH\mode-exp\stm32\ZHONG_HE\IPV4_ZB_2.4G_LORA\ #
#                          ZigBee\Projects\zstack\Samples\SampleApp\CC2530DB\ #
#                          ..\..\..\..\..\COMPONENTS\STACK\SEC\ -I            #
#                          D:\DWRH\mode-exp\stm32\ZHONG_HE\IPV4_ZB_2.4G_LORA\ #
#                          ZigBee\Projects\zstack\Samples\SampleApp\CC2530DB\ #
#                          ..\..\..\..\..\COMPONENTS\STACK\SAPI\ -I           #
#                          D:\DWRH\mode-exp\stm32\ZHONG_HE\IPV4_ZB_2.4G_LORA\ #
#                          ZigBee\Projects\zstack\Samples\SampleApp\CC2530DB\ #
#                          ..\..\..\..\..\COMPONENTS\STACK\SYS\ -I            #
#                          D:\DWRH\mode-exp\stm32\ZHONG_HE\IPV4_ZB_2.4G_LORA\ #
#                          ZigBee\Projects\zstack\Samples\SampleApp\CC2530DB\ #
#                          ..\..\..\..\..\COMPONENTS\STACK\ZDO\ -I            #
#                          D:\DWRH\mode-exp\stm32\ZHONG_HE\IPV4_ZB_2.4G_LORA\ #
#                          ZigBee\Projects\zstack\Samples\SampleApp\CC2530DB\ #
#                          ..\..\..\..\..\COMPONENTS\ZMAC\F8W\ -I             #
#                          D:\DWRH\mode-exp\stm32\ZHONG_HE\IPV4_ZB_2.4G_LORA\ #
#                          ZigBee\Projects\zstack\Samples\SampleApp\CC2530DB\ #
#                          ..\..\..\..\..\COMPONENTS\ZMAC\ -I                 #
#                          D:\DWRH\mode-exp\stm32\ZHONG_HE\IPV4_ZB_2.4G_LORA\ #
#                          ZigBee\Projects\zstack\Samples\SampleApp\CC2530DB\ #
#                          ..\..\..\..\..\COMPONENTS\SERVICES\SADDR\ -I       #
#                          D:\DWRH\mode-exp\stm32\ZHONG_HE\IPV4_ZB_2.4G_LORA\ #
#                          ZigBee\Projects\zstack\Samples\SampleApp\CC2530DB\ #
#                          ..\..\..\..\..\COMPONENTS\SERVICES\SDATA\ -I       #
#                          D:\DWRH\mode-exp\stm32\ZHONG_HE\IPV4_ZB_2.4G_LORA\ #
#                          ZigBee\Projects\zstack\Samples\SampleApp\CC2530DB\ #
#                          ..\..\..\..\..\COMPONENTS\MAC\INCLUDE\ -I          #
#                          D:\DWRH\mode-exp\stm32\ZHONG_HE\IPV4_ZB_2.4G_LORA\ #
#                          ZigBee\Projects\zstack\Samples\SampleApp\CC2530DB\ #
#                          ..\..\..\..\..\COMPONENTS\MAC\HIGH_LEVEL\ -I       #
#                          D:\DWRH\mode-exp\stm32\ZHONG_HE\IPV4_ZB_2.4G_LORA\ #
#                          ZigBee\Projects\zstack\Samples\SampleApp\CC2530DB\ #
#                          ..\..\..\..\..\COMPONENTS\MAC\LOW_LEVEL\srf04\ -I  #
#                          D:\DWRH\mode-exp\stm32\ZHONG_HE\IPV4_ZB_2.4G_LORA\ #
#                          ZigBee\Projects\zstack\Samples\SampleApp\CC2530DB\ #
#                          ..\..\..\..\..\COMPONENTS\MAC\LOW_LEVEL\srf04\SING #
#                          LE_CHIP\ -I D:\DWRH\mode-exp\stm32\ZHONG_HE\IPV4_Z #
#                          B_2.4G_LORA\ZigBee\Projects\zstack\Samples\SampleA #
#                          pp\CC2530DB\..\..\..\..\..\COMPONENTS\HARDWARE\    #
#                          -Om                                                #
#    List file          =  D:\DWRH\mode-exp\stm32\ZHONG_HE\IPV4_ZB_2.4G_LORA\ #
#                          ZigBee\Projects\zstack\Samples\SampleApp\CC2530DB\ #
#                          EndDeviceEB\List\EndDevice.lst                     #
#    Object file        =  D:\DWRH\mode-exp\stm32\ZHONG_HE\IPV4_ZB_2.4G_LORA\ #
#                          ZigBee\Projects\zstack\Samples\SampleApp\CC2530DB\ #
#                          EndDeviceEB\Obj\EndDevice.r51                      #
#                                                                             #
#                                                                             #
###############################################################################

D:\DWRH\mode-exp\stm32\ZHONG_HE\IPV4_ZB_2.4G_LORA\ZigBee\Projects\zstack\Samples\SampleApp\Source\EndDevice.c
      1          /**************************************************************************************************
      2            Filename:       SampleApp.c
      3            Revised:        $Date: 2009-03-18 15:56:27 -0700 (Wed, 18 Mar 2009) $
      4            Revision:       $Revision: 19453 $
      5          
      6            Description:    Sample Application (no Profile).
      7          
      8          
      9            Copyright 2007 Texas Instruments Incorporated. All rights reserved.
     10          
     11            IMPORTANT: Your use of this Software is limited to those specific rights
     12            granted under the terms of a software license agreement between the user
     13            who downloaded the software, his/her employer (which must be your employer)
     14            and Texas Instruments Incorporated (the "License").  You may not use this
     15            Software unless you agree to abide by the terms of the License. The License
     16            limits your use, and you acknowledge, that the Software may not be modified,
     17            copied or distributed unless embedded on a Texas Instruments microcontroller
     18            or used solely and exclusively in conjunction with a Texas Instruments radio
     19            frequency transceiver, which is integrated into your product.  Other than for
     20            the foregoing purpose, you may not use, reproduce, copy, prepare derivative
     21            works of, modify, distribute, perform, display or sell this Software and/or
     22            its documentation for any purpose.
     23          
     24            YOU FURTHER ACKNOWLEDGE AND AGREE THAT THE SOFTWARE AND DOCUMENTATION ARE
     25            PROVIDED AS IS?WITHOUT WARRANTY OF ANY KIND, EITHER EXPRESS OR IMPLIED,
     26            INCLUDING WITHOUT LIMITATION, ANY WARRANTY OF MERCHANTABILITY, TITLE,
     27            NON-INFRINGEMENT AND FITNESS FOR A PARTICULAR PURPOSE. IN NO EVENT SHALL
     28            TEXAS INSTRUMENTS OR ITS LICENSORS BE LIABLE OR OBLIGATED UNDER CONTRACT,
     29            NEGLIGENCE, STRICT LIABILITY, CONTRIBUTION, BREACH OF WARRANTY, OR OTHER
     30            LEGAL EQUITABLE THEORY ANY DIRECT OR INDIRECT DAMAGES OR EXPENSES
     31            INCLUDING BUT NOT LIMITED TO ANY INCIDENTAL, SPECIAL, INDIRECT, PUNITIVE
     32            OR CONSEQUENTIAL DAMAGES, LOST PROFITS OR LOST DATA, COST OF PROCUREMENT
     33            OF SUBSTITUTE GOODS, TECHNOLOGY, SERVICES, OR ANY CLAIMS BY THIRD PARTIES
     34            (INCLUDING BUT NOT LIMITED TO ANY DEFENSE THEREOF), OR OTHER SIMILAR COSTS.
     35          
     36            Should you have any questions regarding your right to use this Software,
     37            contact Texas Instruments Incorporated at www.TI.com.
     38          **************************************************************************************************/
     39          
     40          /*********************************************************************
     41            This application isn't intended to do anything useful, it is
     42            intended to be a simple example of an application's structure.
     43          
     44            This application sends it's messages either as broadcast or
     45            broadcast filtered group messages.  The other (more normal)
     46            message addressing is unicast.  Most of the other sample
     47            applications are written to support the unicast message model.
     48          
     49            Key control:
     50              SW1:  Sends a flash command to all devices in Group 1.
     51              SW2:  Adds/Removes (toggles) this device in and out
     52                    of Group 1.  This will enable and disable the
     53                    reception of the flash command.
     54          *********************************************************************/
     55          
     56          /*********************************************************************
     57           * INCLUDES
     58           */
     59          /*********************************************************************
     60           * INCLUDES
     61           */
     62          
     63          #include "ZComDef.h"
     64          #include "hal_drivers.h"
     65          #include "OSAL.h"
     66          #include "OSAL_Tasks.h"
     67          #include "nwk.h"
     68          #include "APS.h"
     69          #include "ZDApp.h"
     70          #if defined ( ZIGBEE_FREQ_AGILITY ) || defined ( ZIGBEE_PANID_CONFLICT )
     71            #include "ZDNwkMgr.h"
     72          #endif
     73          #if defined ( ZIGBEE_FRAGMENTATION )
     74            #include "aps_frag.h"
     75          #endif
     76          
     77          #include "SampleApp.h"
     78          #include "WiFiGate.h"
     79          #include "OSAL.h"
     80          #include "ZGlobals.h"
     81          #include "AF.h"
     82          #include "aps_groups.h"
     83          #include "ZDApp.h"
     84          
     85          #include "SampleApp.h"
     86          #include "SampleAppHw.h"
     87          
     88          #include "OnBoard.h"
     89          
     90          /* HAL */
     91          #include "hal_lcd.h"
     92          #include "hal_led.h"
     93          #include "hal_key.h"
     94          #include "string.h"
     95          
     96          #include "MT_UART.h"
     97          #include "MT_APP.h"
     98          #include "MT.h"
     99          #include "OLED.h"
    100          #include "SHT20.h"
    101          #include "bottom_led.h"
    102          #include "stdio.h"
    103          #include "UART2RS485.h"
    104          #include "WiFiGate.h"
    105          #include "_bind.h"
    106          #include "Fan.h"
    107          #include "led_mode.h"
    108          
    109          #define READ_TEMP_HUMI_MSG_EVT  0x0001
    110          #define SEND_TEMP_HUMI_MSG_EVT  0x0002
    111          void SendTemperatureHumityToCoordinator(void);
    112          /*********************************************************************
    113           * GLOBAL VARIABLES
    114           */
    115          
    116          // The order in this table must be identical to the task initialization calls below in osalInitTask.

   \                                 In  segment XDATA_ROM_C, align 1
    117          const pTaskEventHandlerFn tasksArr[] = {
   \                     tasksArr:
   \   000000   ....         DW ??macEventLoop?relay
   \   000002   ....         DW ??nwk_event_loop?relay
   \   000004   ....         DW ??Hal_ProcessEvent?relay
   \   000006   ....         DW ??APS_event_loop?relay
   \   000008   ....         DW ??ZDApp_event_loop?relay
   \   00000A   ....         DW ??SampleApp_ProcessEvent?relay
    118            macEventLoop,
    119            nwk_event_loop,
    120            Hal_ProcessEvent,
    121          #if defined( MT_TASK )
    122            MT_ProcessEvent,
    123          #endif
    124            APS_event_loop,
    125          #if defined ( ZIGBEE_FRAGMENTATION )
    126            APSF_ProcessEvent,
    127          #endif
    128            ZDApp_event_loop,
    129          #if defined ( ZIGBEE_FREQ_AGILITY ) || defined ( ZIGBEE_PANID_CONFLICT )
    130            ZDNwkMgr_event_loop,
    131          #endif
    132            SampleApp_ProcessEvent, 
    133          };

   \                                 In  segment XDATA_ROM_C, align 1
    134          const uint8 tasksCnt = sizeof( tasksArr ) / sizeof( tasksArr[0] );
   \                     tasksCnt:
   \   000000   06           DB 6

   \                                 In  segment XDATA_Z, align 1, keep-with-next
    135          uint16 *tasksEvents;
   \                     tasksEvents:
   \   000000                DS 2
   \   000002                REQUIRE __INIT_XDATA_Z
    136          /*********************************************************************
    137           * FUNCTIONS
    138           *********************************************************************/
    139          
    140          /*********************************************************************
    141           * @fn      osalInitTasks
    142           *
    143           * @brief   This function invokes the initialization function for each task.
    144           *
    145           * @param   void
    146           *
    147           * @return  none
    148           */

   \                                 In  segment BANKED_CODE, align 1, keep-with-next
    149          void osalInitTasks( void )
   \                     osalInitTasks:
    150          {
   \   000000   C082         PUSH    DPL
   \   000002   C083         PUSH    DPH
   \   000004                ; Saved register size: 2
   \   000004                ; Auto size: 0
    151            uint8 taskID = 0;
    152          
    153            tasksEvents = (uint16 *)osal_mem_alloc( sizeof( uint16 ) * tasksCnt);
   \   000004                ; Setup parameters for call to function osal_mem_alloc
   \   000004   7A0C         MOV     R2,#0xc
   \   000006   7B00         MOV     R3,#0x0
   \   000008   12....       LCALL   ??osal_mem_alloc?relay
   \   00000B   90....       MOV     DPTR,#tasksEvents
   \   00000E   EA           MOV     A,R2
   \   00000F   F0           MOVX    @DPTR,A
   \   000010   A3           INC     DPTR
   \   000011   EB           MOV     A,R3
   \   000012   F0           MOVX    @DPTR,A
    154            osal_memset( tasksEvents, 0, (sizeof( uint16 ) * tasksCnt));
   \   000013                ; Setup parameters for call to function osal_memset
   \   000013   7C0C         MOV     R4,#0xc
   \   000015   7D00         MOV     R5,#0x0
   \   000017   7900         MOV     R1,#0x0
   \   000019   90....       MOV     DPTR,#tasksEvents
   \   00001C   E0           MOVX    A,@DPTR
   \   00001D   FA           MOV     R2,A
   \   00001E   A3           INC     DPTR
   \   00001F   E0           MOVX    A,@DPTR
   \   000020   FB           MOV     R3,A
   \   000021   12....       LCALL   ??osal_memset?relay
    155          
    156            macTaskInit( taskID++ );
   \   000024                ; Setup parameters for call to function macTaskInit
   \   000024   7900         MOV     R1,#0x0
   \   000026   12....       LCALL   ??macTaskInit?relay
    157            nwk_init( taskID++ );
   \   000029                ; Setup parameters for call to function nwk_init
   \   000029   7901         MOV     R1,#0x1
   \   00002B   12....       LCALL   ??nwk_init?relay
    158            Hal_Init( taskID++ );
   \   00002E                ; Setup parameters for call to function Hal_Init
   \   00002E   7902         MOV     R1,#0x2
   \   000030   12....       LCALL   ??Hal_Init?relay
    159          #if defined( MT_TASK )
    160            MT_TaskInit( taskID++ );
    161          #endif
    162            APS_Init( taskID++ );
   \   000033                ; Setup parameters for call to function APS_Init
   \   000033   7903         MOV     R1,#0x3
   \   000035   12....       LCALL   ??APS_Init?relay
    163          #if defined ( ZIGBEE_FRAGMENTATION )
    164            APSF_Init( taskID++ );
    165          #endif
    166            ZDApp_Init( taskID++ );
   \   000038                ; Setup parameters for call to function ZDApp_Init
   \   000038   7904         MOV     R1,#0x4
   \   00003A   12....       LCALL   ??ZDApp_Init?relay
    167          #if defined ( ZIGBEE_FREQ_AGILITY ) || defined ( ZIGBEE_PANID_CONFLICT )
    168            ZDNwkMgr_Init( taskID++ );
    169          #endif
    170            SampleApp_Init( taskID++ );  
   \   00003D                ; Setup parameters for call to function SampleApp_Init
   \   00003D   7905         MOV     R1,#0x5
   \   00003F   12....       LCALL   ??SampleApp_Init?relay
    171          }
   \   000042   D083         POP     DPH
   \   000044   D082         POP     DPL
   \   000046   02....       LJMP    ?BRET
    172          

   \                                 In  segment XDATA_ROM_C, align 1
    173          const cId_t OutClusterList[1] =
   \                     OutClusterList:
   \   000000   0100         DW 1
    174          {
    175            TEMP_HUMI_CLUSTERID
    176          };
    177          

   \                                 In  segment XDATA_ROM_C, align 1
    178          const SimpleDescriptionFormat_t EndDevice_SimpleDesc = 
   \                     EndDevice_SimpleDesc:
   \   000000   14           DB 20
   \   000001   080F         DW 3848
   \   000003   0100         DW 1
   \   000005   00           DB 0
   \   000006   00           DB 0
   \   000007   0000         DW 0H
   \   000009   01           DB 1
   \   00000A   ....         DW OutClusterList
    179          {
    180            SAMPLEAPP_ENDPOINT,                 //  int Endpoint;
    181            SAMPLEAPP_PROFID,                   //  uint16 AppProfId[2];
    182            SAMPLEAPP_DEVICEID,                 //  uint16 AppDeviceId[2];
    183            SAMPLEAPP_DEVICE_VERSION,           //  int   AppDevVer:4;
    184            SAMPLEAPP_FLAGS,                    //  int   AppFlags:4;
    185            0,                                  //  uint8  AppNumInClusters;
    186            (cId_t *)NULL,                      //  uint8 *pAppInClusterList;
    187            1,                                  //  uint8  AppNumOutClusters;
    188            (cId_t *)OutClusterList             //  uint8 *pAppOutClusterList;
    189          };
    190          // This is the Endpoint/Interface description.  It is defined here, but
    191          // filled-in in SampleApp_Init().  Another way to go would be to fill
    192          // in the structure here and make it a "const" (in code space).  The
    193          // way it's defined in this sample app it is define in RAM.

   \                                 In  segment XDATA_Z, align 1, keep-with-next
    194          endPointDesc_t EndDevice_epDesc;
   \                     EndDevice_epDesc:
   \   000000                DS 6
   \   000006                REQUIRE __INIT_XDATA_Z
    195          /*********************************************************************
    196           * EXTERNAL VARIABLES
    197           */
    198          
    199          /*********************************************************************
    200           * EXTERNAL FUNCTIONS
    201           */
    202          
    203          /*********************************************************************
    204           * LOCAL VARIABLES
    205           */

   \                                 In  segment XDATA_Z, align 1, keep-with-next
    206          uint8 SampleApp_TaskID;   // Task ID for internal task/event processing
   \                     SampleApp_TaskID:
   \   000000                DS 1
   \   000001                REQUIRE __INIT_XDATA_Z
    207                                    // This variable will be received when
    208                                    // SampleApp_Init() is called.

   \                                 In  segment XDATA_Z, align 1, keep-with-next
    209          devStates_t SampleApp_NwkState;
   \                     SampleApp_NwkState:
   \   000000                DS 1
   \   000001                REQUIRE __INIT_XDATA_Z
    210          

   \                                 In  segment XDATA_Z, align 1, keep-with-next
    211          uint8 SampleApp_TransID;  // This is the unique message ID (counter)
   \                     SampleApp_TransID:
   \   000000                DS 1
   \   000001                REQUIRE __INIT_XDATA_Z
    212          

   \                                 In  segment XDATA_Z, align 1, keep-with-next
    213          afAddrType_t Point_To_Point_DstAddr;//点对点通信定义
   \                     Point_To_Point_DstAddr:
   \   000000                DS 12
   \   00000C                REQUIRE __INIT_XDATA_Z

   \                                 In  segment XDATA_Z, align 1, keep-with-next
    214          afAddrType_t Boardcast_DstAddr;//点对点通信定义
   \                     Boardcast_DstAddr:
   \   000000                DS 12
   \   00000C                REQUIRE __INIT_XDATA_Z
    215          /*********************************************************************
    216           * LOCAL FUNCTIONS
    217           */
    218          void SampleApp_MessageMSGCB( afIncomingMSGPacket_t *pckt );
    219          /*********************************************************************
    220           * @fn      SampleApp_Init
    221           *
    222           * @brief   Initialization function for the Generic App Task.
    223           *          This is called during initialization and should contain
    224           *          any application specific initialization (ie. hardware
    225           *          initialization/setup, table initialization, power up
    226           *          notificaiton ... ).
    227           *
    228           * @param   task_id - the ID assigned by OSAL.  This ID should be
    229           *                    used to send messages and set timers.
    230           *
    231           * @return  none
    232           */

   \                                 In  segment BANKED_CODE, align 1, keep-with-next
    233          void SampleApp_Init( uint8 task_id )
   \                     SampleApp_Init:
    234          {
   \   000000   74F7         MOV     A,#-0x9
   \   000002   12....       LCALL   ?BANKED_ENTER_XDATA
   \   000005                ; Saved register size: 9
   \   000005                ; Auto size: 0
   \   000005   E9           MOV     A,R1
    235            SampleApp_TaskID   = task_id;
   \   000006   90....       MOV     DPTR,#SampleApp_TaskID
   \   000009   F0           MOVX    @DPTR,A
    236            SampleApp_NwkState = DEV_INIT;
   \   00000A   90....       MOV     DPTR,#SampleApp_NwkState
   \   00000D   7401         MOV     A,#0x1
   \   00000F   F0           MOVX    @DPTR,A
    237            SampleApp_TransID  = 0; 
   \   000010   90....       MOV     DPTR,#SampleApp_TransID
   \   000013   E4           CLR     A
   \   000014   F0           MOVX    @DPTR,A
    238          
    239            SHT2x_Init();      //初始化温湿度传感器
   \   000015                ; Setup parameters for call to function SHT2x_Init
   \   000015   12....       LCALL   ??SHT2x_Init?relay
    240            UART2RS485_Init();
   \   000018                ; Setup parameters for call to function UART2RS485_Init
   \   000018   12....       LCALL   ??UART2RS485_Init?relay
    241            LedMode_Init();    //初始化LED模块
   \   00001B                ; Setup parameters for call to function LedMode_Init
   \   00001B   12....       LCALL   ??LedMode_Init?relay
    242            bottom_led_init(); //初始化底部LED
   \   00001E                ; Setup parameters for call to function bottom_led_init
   \   00001E   12....       LCALL   ??bottom_led_init?relay
    243            Bottom_Blue();     //点亮底座灯蓝色
   \   000021                ; Setup parameters for call to function Bottom_Blue
   \   000021   12....       LCALL   ??Bottom_Blue?relay
    244            
    245            printf("i am end device\r\n");//串口打印   
   \   000024                ; Setup parameters for call to function printf
   \   000024   7A..         MOV     R2,#`?<Constant "i am end device\\r\\n">` & 0xff
   \   000026   7B..         MOV     R3,#(`?<Constant "i am end device\\r\\n">` >> 8) & 0xff
   \   000028   12....       LCALL   ??printf?relay
    246            // 点对点通讯定义
    247            Point_To_Point_DstAddr.addrMode = (afAddrMode_t)Addr16Bit; //点播
   \   00002B   90....       MOV     DPTR,#Point_To_Point_DstAddr + 8
   \   00002E   7402         MOV     A,#0x2
   \   000030   F0           MOVX    @DPTR,A
    248            Point_To_Point_DstAddr.endPoint = SAMPLEAPP_ENDPOINT;      
   \   000031   A3           INC     DPTR
   \   000032   7414         MOV     A,#0x14
   \   000034   F0           MOVX    @DPTR,A
    249            Point_To_Point_DstAddr.addr.shortAddr = 0x0000;//发给协调器
   \   000035   90....       MOV     DPTR,#Point_To_Point_DstAddr
   \   000038   E4           CLR     A
   \   000039   F0           MOVX    @DPTR,A
   \   00003A   A3           INC     DPTR
   \   00003B   F0           MOVX    @DPTR,A
    250            
    251            // 填写端点
    252            EndDevice_epDesc.endPoint   = SAMPLEAPP_ENDPOINT;
   \   00003C   90....       MOV     DPTR,#EndDevice_epDesc
   \   00003F   7414         MOV     A,#0x14
   \   000041   F0           MOVX    @DPTR,A
    253            EndDevice_epDesc.task_id    = &SampleApp_TaskID;
   \   000042   A3           INC     DPTR
   \   000043   74..         MOV     A,#SampleApp_TaskID & 0xff
   \   000045   F0           MOVX    @DPTR,A
   \   000046   A3           INC     DPTR
   \   000047   74..         MOV     A,#(SampleApp_TaskID >> 8) & 0xff
   \   000049   F0           MOVX    @DPTR,A
    254            EndDevice_epDesc.simpleDesc = (SimpleDescriptionFormat_t *)&EndDevice_SimpleDesc;
   \   00004A   A3           INC     DPTR
   \   00004B   74..         MOV     A,#EndDevice_SimpleDesc & 0xff
   \   00004D   F0           MOVX    @DPTR,A
   \   00004E   A3           INC     DPTR
   \   00004F   74..         MOV     A,#(EndDevice_SimpleDesc >> 8) & 0xff
   \   000051   F0           MOVX    @DPTR,A
    255            EndDevice_epDesc.latencyReq = noLatencyReqs;
   \   000052   A3           INC     DPTR
   \   000053   E4           CLR     A
   \   000054   F0           MOVX    @DPTR,A
    256            
    257            // 注册端点
    258            afRegister( &EndDevice_epDesc );
   \   000055                ; Setup parameters for call to function afRegister
   \   000055   7A..         MOV     R2,#EndDevice_epDesc & 0xff
   \   000057   7B..         MOV     R3,#(EndDevice_epDesc >> 8) & 0xff
   \   000059   12....       LCALL   ??afRegister?relay
    259            
    260            //开始本地显示温湿度数值
    261            osal_start_timerEx( SampleApp_TaskID, READ_TEMP_HUMI_MSG_EVT,1000);
   \   00005C                ; Setup parameters for call to function osal_start_timerEx
   \   00005C   7CE8         MOV     R4,#-0x18
   \   00005E   7D03         MOV     R5,#0x3
   \   000060   7A01         MOV     R2,#0x1
   \   000062   7B00         MOV     R3,#0x0
   \   000064   90....       MOV     DPTR,#SampleApp_TaskID
   \   000067   E0           MOVX    A,@DPTR
   \   000068   F9           MOV     R1,A
   \   000069   12....       LCALL   ??osal_start_timerEx?relay
    262          }
   \   00006C   7F01         MOV     R7,#0x1
   \   00006E   02....       LJMP    ?BANKED_LEAVE_XDATA
    263          
    264          /*********************************************************************
    265           * @fn      SampleApp_ProcessEvent
    266           *
    267           * @brief   Generic Application Task event processor.  This function
    268           *          is called to process all events for the task.  Events
    269           *          include timers, messages and any other user defined events.
    270           *
    271           * @param   task_id  - The OSAL assigned task ID.
    272           * @param   events - events to process.  This is a bit map and can
    273           *                   contain more than one event.
    274           *
    275           * @return  none
    276           */

   \                                 In  segment XDATA_I, align 1, keep-with-next
    277          uint8 SendTemperatureIndicate = 1;
   \                     SendTemperatureIndicate:
   \   000000                DS 1
   \   000001                REQUIRE `?<Initializer for SendTemperatureIndicate>`
   \   000001                REQUIRE __INIT_XDATA_I

   \                                 In  segment XDATA_Z, align 1, keep-with-next
    278          uint8 TempHumiShowSwitch = 0;
   \                     TempHumiShowSwitch:
   \   000000                DS 1
   \   000001                REQUIRE __INIT_XDATA_Z

   \                                 In  segment BANKED_CODE, align 1, keep-with-next
    279          uint16 SampleApp_ProcessEvent( uint8 task_id, uint16 events )
   \                     SampleApp_ProcessEvent:
    280          {
   \   000000   74F4         MOV     A,#-0xc
   \   000002   12....       LCALL   ?BANKED_ENTER_XDATA
   \   000005                ; Saved register size: 12
   \   000005                ; Auto size: 0
   \   000005   EA           MOV     A,R2
   \   000006   FE           MOV     R6,A
   \   000007   EB           MOV     A,R3
   \   000008   FF           MOV     R7,A
    281            afIncomingMSGPacket_t *MSGpkt;
    282            (void)task_id;  // Intentionally unreferenced parameter
    283          
    284            if ( events & SYS_EVENT_MSG )
   \   000009   5480         ANL     A,#0x80
   \   00000B   6064         JZ      ??SampleApp_ProcessEvent_0
    285            {
    286              MSGpkt = (afIncomingMSGPacket_t *)osal_msg_receive( SampleApp_TaskID );
   \   00000D                ; Setup parameters for call to function osal_msg_receive
   \   00000D   802E         SJMP    ??SampleApp_ProcessEvent_1
    287              while ( MSGpkt )
    288              {
    289                switch ( MSGpkt->hdr.event )
    290                {        
    291                  // Received when a messages is received (OTA) for this endpoint
    292                  case AF_INCOMING_MSG_CMD:
    293                    SampleApp_MessageMSGCB( MSGpkt );
    294                    break;
    295          
    296                  // Received whenever the device changes state in the network
    297                  case ZDO_STATE_CHANGE:          
    298                    SampleApp_NwkState = (devStates_t)(MSGpkt->hdr.status);
   \                     ??SampleApp_ProcessEvent_2:
   \   00000F   A3           INC     DPTR
   \   000010   E0           MOVX    A,@DPTR
   \   000011   90....       MOV     DPTR,#SampleApp_NwkState
   \   000014   F0           MOVX    @DPTR,A
    299                    if ((SampleApp_NwkState == DEV_ROUTER)
    300                       ||(SampleApp_NwkState == DEV_END_DEVICE) )
   \   000015   E0           MOVX    A,@DPTR
   \   000016   6407         XRL     A,#0x7
   \   000018   6005         JZ      ??SampleApp_ProcessEvent_3
   \   00001A   E0           MOVX    A,@DPTR
   \   00001B   6406         XRL     A,#0x6
   \   00001D   7017         JNZ     ??SampleApp_ProcessEvent_4
    301                    {
    302                      printf("connect coordinator\r\n");            
   \                     ??SampleApp_ProcessEvent_3:
   \   00001F                ; Setup parameters for call to function printf
   \   00001F   7A..         MOV     R2,#`?<Constant "connect coordinator\\r\\n">` & 0xff
   \   000021   7B..         MOV     R3,#(`?<Constant "connect coordinator\\r\\n">` >> 8) & 0xff
   \   000023   12....       LCALL   ??printf?relay
    303                      osal_start_timerEx( SampleApp_TaskID, SEND_TEMP_HUMI_MSG_EVT,2000);
   \   000026                ; Setup parameters for call to function osal_start_timerEx
   \   000026   7CD0         MOV     R4,#-0x30
   \   000028   7D07         MOV     R5,#0x7
   \   00002A   7A02         MOV     R2,#0x2
   \   00002C   7B00         MOV     R3,#0x0
   \   00002E   90....       MOV     DPTR,#SampleApp_TaskID
   \   000031   E0           MOVX    A,@DPTR
   \   000032   F9           MOV     R1,A
   \   000033   12....       LCALL   ??osal_start_timerEx?relay
    304                    }
    305                    break;
    306          
    307                  default:
    308                    break;
    309                }
    310          
    311                // Release the memory
    312                osal_msg_deallocate( (uint8 *)MSGpkt );
   \                     ??SampleApp_ProcessEvent_4:
   \   000036                ; Setup parameters for call to function osal_msg_deallocate
   \   000036   AA..         MOV     R2,?V0 + 0
   \   000038   AB..         MOV     R3,?V0 + 1
   \   00003A   12....       LCALL   ??osal_msg_deallocate?relay
    313          
    314                // Next - if one is available
    315                MSGpkt = (afIncomingMSGPacket_t *)osal_msg_receive( SampleApp_TaskID );
   \   00003D                ; Setup parameters for call to function osal_msg_receive
   \                     ??SampleApp_ProcessEvent_1:
   \   00003D   90....       MOV     DPTR,#SampleApp_TaskID
   \   000040   E0           MOVX    A,@DPTR
   \   000041   F9           MOV     R1,A
   \   000042   12....       LCALL   ??osal_msg_receive?relay
   \   000045   8A..         MOV     ?V0 + 0,R2
   \   000047   8B..         MOV     ?V0 + 1,R3
   \   000049   E5..         MOV     A,?V0 + 0
   \   00004B   45..         ORL     A,?V0 + 1
   \   00004D   601A         JZ      ??SampleApp_ProcessEvent_5
   \   00004F   85..82       MOV     DPL,?V0 + 0
   \   000052   85..83       MOV     DPH,?V0 + 1
   \   000055   E0           MOVX    A,@DPTR
   \   000056   24E6         ADD     A,#-0x1a
   \   000058   6006         JZ      ??SampleApp_ProcessEvent_6
   \   00005A   2449         ADD     A,#0x49
   \   00005C   60B1         JZ      ??SampleApp_ProcessEvent_2
   \   00005E   80D6         SJMP    ??SampleApp_ProcessEvent_4
   \                     ??SampleApp_ProcessEvent_6:
   \   000060                ; Setup parameters for call to function SampleApp_MessageMSGCB
   \   000060   AA..         MOV     R2,?V0 + 0
   \   000062   AB..         MOV     R3,?V0 + 1
   \   000064   12....       LCALL   ??SampleApp_MessageMSGCB?relay
   \   000067   80CD         SJMP    ??SampleApp_ProcessEvent_4
    316              }
    317          
    318              // return unprocessed events
    319              return (events ^ SYS_EVENT_MSG);
   \                     ??SampleApp_ProcessEvent_5:
   \   000069   EE           MOV     A,R6
   \   00006A   FA           MOV     R2,A
   \   00006B   EF           MOV     A,R7
   \   00006C   6480         XRL     A,#0x80
   \   00006E   FB           MOV     R3,A
   \   00006F   805B         SJMP    ??SampleApp_ProcessEvent_7
    320            }//if ( events & SYS_EVENT_MSG )
    321            if(events & READ_TEMP_HUMI_MSG_EVT)
   \                     ??SampleApp_ProcessEvent_0:
   \   000071   EE           MOV     A,R6
   \   000072   A2E0         MOV     C,0xE0 /* A   */.0
   \   000074   5025         JNC     ??SampleApp_ProcessEvent_8
    322            {
    323              TempHumiShowSwitch = 1 - TempHumiShowSwitch;
   \   000076   90....       MOV     DPTR,#TempHumiShowSwitch
   \   000079   E0           MOVX    A,@DPTR
   \   00007A   F8           MOV     R0,A
   \   00007B   7401         MOV     A,#0x1
   \   00007D   C3           CLR     C
   \   00007E   98           SUBB    A,R0
   \   00007F   F0           MOVX    @DPTR,A
    324              TempHumiShowSwitch?SHT2x_DisplayHumi():SHT2x_DisplayTemp();
   \   000080   E0           MOVX    A,@DPTR
   \   000081   6005         JZ      ??SampleApp_ProcessEvent_9
   \   000083                ; Setup parameters for call to function SHT2x_DisplayHumi
   \   000083   12....       LCALL   ??SHT2x_DisplayHumi?relay
   \   000086   8003         SJMP    ??SampleApp_ProcessEvent_10
   \                     ??SampleApp_ProcessEvent_9:
   \   000088                ; Setup parameters for call to function SHT2x_DisplayTemp
   \   000088   12....       LCALL   ??SHT2x_DisplayTemp?relay
    325              osal_start_timerEx( SampleApp_TaskID, READ_TEMP_HUMI_MSG_EVT,1000);
   \                     ??SampleApp_ProcessEvent_10:
   \   00008B                ; Setup parameters for call to function osal_start_timerEx
   \   00008B   7CE8         MOV     R4,#-0x18
   \   00008D   7D03         MOV     R5,#0x3
   \   00008F   7A01         MOV     R2,#0x1
   \   000091   7B00         MOV     R3,#0x0
   \   000093   90....       MOV     DPTR,#SampleApp_TaskID
   \   000096   E0           MOVX    A,@DPTR
   \   000097   F9           MOV     R1,A
   \   000098   12....       LCALL   ??osal_start_timerEx?relay
    326            }
    327            
    328            if(events & SEND_TEMP_HUMI_MSG_EVT)
   \                     ??SampleApp_ProcessEvent_8:
   \   00009B   EE           MOV     A,R6
   \   00009C   5402         ANL     A,#0x2
   \   00009E   6028         JZ      ??SampleApp_ProcessEvent_11
    329            {
    330              SendTemperatureHumityToCoordinator();//向协调器发送温湿度数据
   \   0000A0                ; Setup parameters for call to function SendTemperatureHumityToCoordinator
   \   0000A0   12....       LCALL   ??SendTemperatureHumityToCoordinator?relay
    331              
    332              SendTemperatureIndicate = 1 - SendTemperatureIndicate;
   \   0000A3   90....       MOV     DPTR,#SendTemperatureIndicate
   \   0000A6   E0           MOVX    A,@DPTR
   \   0000A7   F8           MOV     R0,A
   \   0000A8   7401         MOV     A,#0x1
   \   0000AA   C3           CLR     C
   \   0000AB   98           SUBB    A,R0
   \   0000AC   F0           MOVX    @DPTR,A
    333              SendTemperatureIndicate?Bottom_Blue():Bottom_BlackOut();
   \   0000AD   E0           MOVX    A,@DPTR
   \   0000AE   6005         JZ      ??SampleApp_ProcessEvent_12
   \   0000B0                ; Setup parameters for call to function Bottom_Blue
   \   0000B0   12....       LCALL   ??Bottom_Blue?relay
   \   0000B3   8003         SJMP    ??SampleApp_ProcessEvent_13
   \                     ??SampleApp_ProcessEvent_12:
   \   0000B5                ; Setup parameters for call to function Bottom_BlackOut
   \   0000B5   12....       LCALL   ??Bottom_BlackOut?relay
    334              
    335              osal_start_timerEx( SampleApp_TaskID, SEND_TEMP_HUMI_MSG_EVT,2000);
   \                     ??SampleApp_ProcessEvent_13:
   \   0000B8                ; Setup parameters for call to function osal_start_timerEx
   \   0000B8   7CD0         MOV     R4,#-0x30
   \   0000BA   7D07         MOV     R5,#0x7
   \   0000BC   7A02         MOV     R2,#0x2
   \   0000BE   7B00         MOV     R3,#0x0
   \   0000C0   90....       MOV     DPTR,#SampleApp_TaskID
   \   0000C3   E0           MOVX    A,@DPTR
   \   0000C4   F9           MOV     R1,A
   \   0000C5   12....       LCALL   ??osal_start_timerEx?relay
    336            }
    337            // Discard unknown events
    338            return 0;
   \                     ??SampleApp_ProcessEvent_11:
   \   0000C8   7A00         MOV     R2,#0x0
   \   0000CA   7B00         MOV     R3,#0x0
   \                     ??SampleApp_ProcessEvent_7:
   \   0000CC   7F04         MOV     R7,#0x4
   \   0000CE   02....       LJMP    ?BANKED_LEAVE_XDATA
    339          }
    340          /*********************************************************************
    341           * LOCAL FUNCTIONS
    342           */
    343          
    344          /*********************************************************************
    345           * @fn      SampleApp_MessageMSGCB
    346           *
    347           * @brief   Data message processor callback.  This function processes
    348           *          any incoming data - probably from other devices.  So, based
    349           *          on cluster ID, perform the intended action.
    350           *
    351           * @param   none
    352           *
    353           * @return  none
    354           */

   \                                 In  segment BANKED_CODE, align 1, keep-with-next
    355          void SampleApp_MessageMSGCB( afIncomingMSGPacket_t *pkt )
   \                     SampleApp_MessageMSGCB:
    356          { 
   \   000000                ; Saved register size: 0
   \   000000                ; Auto size: 0
    357            switch ( pkt->clusterId )
    358            {
    359              ;
    360            }
    361          }
   \   000000   02....       LJMP    ?BRET
    362          /*
    363          终端向协调器发送数据
    364          */

   \                                 In  segment BANKED_CODE, align 1, keep-with-next
    365          void SendTemperatureHumityToCoordinator(void)
   \                     SendTemperatureHumityToCoordinator:
    366          {
   \   000000   74F6         MOV     A,#-0xa
   \   000002   12....       LCALL   ?BANKED_ENTER_XDATA
   \   000005                ; Saved register size: 10
   \   000005                ; Auto size: 2
   \   000005   74FE         MOV     A,#-0x2
   \   000007   12....       LCALL   ?ALLOC_XSTACK8
    367            uint8 sendbuf[2];
    368            sendbuf[0] = SHT2x_GetTemp();
   \   00000A                ; Setup parameters for call to function SHT2x_GetTemp
   \   00000A   12....       LCALL   ??SHT2x_GetTemp?relay
   \   00000D   E9           MOV     A,R1
   \   00000E   85..82       MOV     DPL,?XSP + 0
   \   000011   85..83       MOV     DPH,?XSP + 1
   \   000014   F0           MOVX    @DPTR,A
    369            sendbuf[1] = SHT2x_GetHumi();
   \   000015                ; Setup parameters for call to function SHT2x_GetHumi
   \   000015   12....       LCALL   ??SHT2x_GetHumi?relay
   \   000018   E9           MOV     A,R1
   \   000019   C0E0         PUSH    A
   \   00001B   7401         MOV     A,#0x1
   \   00001D   12....       LCALL   ?XSTACK_DISP0_8
   \   000020   D0E0         POP     A
   \   000022   F0           MOVX    @DPTR,A
    370            if ( AF_DataRequest( &Point_To_Point_DstAddr,&EndDevice_epDesc,
    371                                 TEMP_HUMI_CLUSTERID,
    372                                 2,
    373                                 sendbuf,
    374                                 &SampleApp_TransID,
    375                                 AF_DISCV_ROUTE,
    376                                 AF_DEFAULT_RADIUS ) == afStatus_SUCCESS )
   \   000023                ; Setup parameters for call to function AF_DataRequest
   \   000023   75..1E       MOV     ?V0 + 0,#0x1e
   \   000026   78..         MOV     R0,#?V0 + 0
   \   000028   12....       LCALL   ?PUSH_XSTACK_I_ONE
   \   00002B   75....       MOV     ?V0 + 0,#SampleApp_TransID & 0xff
   \   00002E   75....       MOV     ?V0 + 1,#(SampleApp_TransID >> 8) & 0xff
   \   000031   78..         MOV     R0,#?V0 + 0
   \   000033   12....       LCALL   ?PUSH_XSTACK_I_TWO
   \   000036   7403         MOV     A,#0x3
   \   000038   12....       LCALL   ?XSTACK_DISP0_8
   \   00003B   8582..       MOV     ?V0 + 0,DPL
   \   00003E   8583..       MOV     ?V0 + 1,DPH
   \   000041   78..         MOV     R0,#?V0 + 0
   \   000043   12....       LCALL   ?PUSH_XSTACK_I_TWO
   \   000046   75..02       MOV     ?V0 + 0,#0x2
   \   000049   75..00       MOV     ?V0 + 1,#0x0
   \   00004C   78..         MOV     R0,#?V0 + 0
   \   00004E   12....       LCALL   ?PUSH_XSTACK_I_TWO
   \   000051   75..01       MOV     ?V0 + 0,#0x1
   \   000054   78..         MOV     R0,#?V0 + 0
   \   000056   12....       LCALL   ?PUSH_XSTACK_I_TWO
   \   000059   7920         MOV     R1,#0x20
   \   00005B   7C..         MOV     R4,#EndDevice_epDesc & 0xff
   \   00005D   7D..         MOV     R5,#(EndDevice_epDesc >> 8) & 0xff
   \   00005F   7A..         MOV     R2,#Point_To_Point_DstAddr & 0xff
   \   000061   7B..         MOV     R3,#(Point_To_Point_DstAddr >> 8) & 0xff
   \   000063   12....       LCALL   ??AF_DataRequest?relay
   \   000066   7409         MOV     A,#0x9
   \   000068   12....       LCALL   ?DEALLOC_XSTACK8
    377            {
    378              //printf("tx success\r\n");//串口打印提示，发送成功
    379            }
    380          }
   \   00006B   7402         MOV     A,#0x2
   \   00006D   12....       LCALL   ?DEALLOC_XSTACK8
   \   000070   7F02         MOV     R7,#0x2
   \   000072   02....       LJMP    ?BANKED_LEAVE_XDATA

   \                                 In  segment XDATA_ID, align 1, keep-with-next
   \                     `?<Initializer for SendTemperatureIndicate>`:
   \   000000   01           DB 1

   \                                 In  segment BANK_RELAYS, align 1
   \                     ??osalInitTasks?relay:
   \   000000   12....       LCALL   ?BDISPATCH
   \   000003   ......       DC24    osalInitTasks

   \                                 In  segment BANK_RELAYS, align 1
   \                     ??SampleApp_Init?relay:
   \   000000   12....       LCALL   ?BDISPATCH
   \   000003   ......       DC24    SampleApp_Init

   \                                 In  segment BANK_RELAYS, align 1
   \                     ??SampleApp_ProcessEvent?relay:
   \   000000   12....       LCALL   ?BDISPATCH
   \   000003   ......       DC24    SampleApp_ProcessEvent

   \                                 In  segment BANK_RELAYS, align 1
   \                     ??SampleApp_MessageMSGCB?relay:
   \   000000   12....       LCALL   ?BDISPATCH
   \   000003   ......       DC24    SampleApp_MessageMSGCB

   \                                 In  segment BANK_RELAYS, align 1
   \                     ??SendTemperatureHumityToCoordinator?relay:
   \   000000   12....       LCALL   ?BDISPATCH
   \   000003   ......       DC24    SendTemperatureHumityToCoordinator

   \                                 In  segment XDATA_ROM_C, align 1
   \                     `?<Constant "i am end device\\r\\n">`:
   \   000000   6920616D     DB "i am end device\015\012"
   \            20656E64
   \            20646576
   \            6963650D
   \            0A00    

   \                                 In  segment XDATA_ROM_C, align 1
   \                     `?<Constant "connect coordinator\\r\\n">`:
   \   000000   636F6E6E     DB "connect coordinator\015\012"
   \            65637420
   \            636F6F72
   \            64696E61
   \            746F720D
   \            0A00    
    381          
    382          
    383          
    384          /*********************************************************************
    385          *********************************************************************/

   Maximum stack usage in bytes:

     Function                       ISTACK PSTACK XSTACK
     --------                       ------ ------ ------
     SampleApp_Init                     0      0      9
       -> SHT2x_Init                    0      0     18
       -> UART2RS485_Init               0      0     18
       -> LedMode_Init                  0      0     18
       -> bottom_led_init               0      0     18
       -> Bottom_Blue                   0      0     18
       -> printf                        0      0     18
       -> afRegister                    0      0     18
       -> osal_start_timerEx            0      0     18
     SampleApp_MessageMSGCB             0      0     12
     SampleApp_ProcessEvent             0      0     12
       -> osal_msg_receive              0      0     24
       -> printf                        0      0     24
       -> osal_start_timerEx            0      0     24
       -> osal_msg_deallocate           0      0     24
       -> osal_msg_receive              0      0     24
       -> SampleApp_MessageMSGCB        0      0     24
       -> SHT2x_DisplayHumi             0      0     24
       -> SHT2x_DisplayTemp             0      0     24
       -> osal_start_timerEx            0      0     24
       -> SendTemperatureHumityToCoordinator
                                        0      0     24
       -> Bottom_Blue                   0      0     24
       -> Bottom_BlackOut               0      0     24
       -> osal_start_timerEx            0      0     24
     SendTemperatureHumityToCoordinator
                                        1      0     33
       -> SHT2x_GetTemp                 0      0     24
       -> SHT2x_GetHumi                 0      0     24
       -> AF_DataRequest                0      0     42
     osalInitTasks                      2      0      0
       -> osal_mem_alloc                4      0      0
       -> osal_memset                   4      0      0
       -> macTaskInit                   4      0      0
       -> nwk_init                      4      0      0
       -> Hal_Init                      4      0      0
       -> APS_Init                      4      0      0
       -> ZDApp_Init                    4      0      0
       -> SampleApp_Init                4      0      0


   Segment part sizes:

     Function/Label                             Bytes
     --------------                             -----
     tasksArr                                     12
     tasksCnt                                      1
     tasksEvents                                   2
     osalInitTasks                                73
     OutClusterList                                2
     EndDevice_SimpleDesc                         12
     EndDevice_epDesc                              6
     SampleApp_TaskID                              1
     SampleApp_NwkState                            1
     SampleApp_TransID                             1
     Point_To_Point_DstAddr                       12
     Boardcast_DstAddr                            12
     SampleApp_Init                              113
     SendTemperatureIndicate                       1
     TempHumiShowSwitch                            1
     SampleApp_ProcessEvent                      209
     SampleApp_MessageMSGCB                        3
     SendTemperatureHumityToCoordinator
                                                 117
     ?<Initializer for SendTemperatureIndicate>    1
     ??osalInitTasks?relay                         6
     ??SampleApp_Init?relay                        6
     ??SampleApp_ProcessEvent?relay                6
     ??SampleApp_MessageMSGCB?relay                6
     ??SendTemperatureHumityToCoordinator?relay    6
     ?<Constant "i am end device\r\n">            18
     ?<Constant "connect coordinator\r\n">        22

 
 515 bytes in segment BANKED_CODE
  30 bytes in segment BANK_RELAYS
   1 byte  in segment XDATA_I
   1 byte  in segment XDATA_ID
  67 bytes in segment XDATA_ROM_C
  36 bytes in segment XDATA_Z
 
 546 bytes of CODE  memory
  67 bytes of CONST memory
  37 bytes of XDATA memory

Errors: none
Warnings: none
