///////////////////////////////////////////////////////////////////////////////
//                                                                            /
// IAR C/C++ Compiler V8.10.3.10338/W32 for 8051        04/Mar/2019  17:56:48 /
// Copyright 2004-2011 IAR Systems AB.                                        /
//                                                                            /
//    Core               =  plain                                             /
//    Code model         =  banked                                            /
//    Data model         =  large                                             /
//    Calling convention =  xdata reentrant                                   /
//    Constant location  =  data_rom                                          /
//    Dptr setup         =  1,16                                              /
//    Source file        =  D:\ZigBee\KJXY-ZigBee\ZigBee-experiment\exp6-broa /
//                          dcast\Components\HARDWARE\MPU6050\eMPL\inv_mpu_dm /
//                          p_motion_driver.c                                 /
//    Command line       =  -f D:\ZigBee\KJXY-ZigBee\ZigBee-experiment\exp6-b /
//                          roadcast\Projects\zstack\Samples\SampleApp\CC2530 /
//                          DB\..\..\..\Tools\CC2530DB\f8wEndev.cfg           /
//                          (-DCPU32MHZ -DROOT=__near_func -DBLINK_LEDS) -f   /
//                          D:\ZigBee\KJXY-ZigBee\ZigBee-experiment\exp6-broa /
//                          dcast\Projects\zstack\Samples\SampleApp\CC2530DB\ /
//                          ..\..\..\Tools\CC2530DB\f8wConfig.cfg             /
//                          (-DSECURE=0 -DZG_SECURE_DYNAMIC=0 -DREFLECTOR     /
//                          -DDEFAULT_CHANLIST=0x00000800                     /
//                          -DZDAPP_CONFIG_PAN_ID=0xFF11                      /
//                          -DNWK_START_DELAY=100 -DEXTENDED_JOINING_RANDOM_M /
//                          ASK=0x007F -DBEACON_REQUEST_DELAY=100             /
//                          -DBEACON_REQ_DELAY_MASK=0x00FF                    /
//                          -DROUTE_EXPIRY_TIME=30 -DAPSC_ACK_WAIT_DURATION_P /
//                          OLLED=3000 -DNWK_INDIRECT_MSG_TIMEOUT=7           /
//                          -DMAX_RREQ_ENTRIES=8 -DAPSC_MAX_FRAME_RETRIES=3   /
//                          -DNWK_MAX_DATA_RETRIES=2                          /
//                          -DMAX_POLL_FAILURE_RETRIES=2 -DMAX_BCAST=9        /
//                          -DAPS_MAX_GROUPS=16 -DMAX_RTG_ENTRIES=40          /
//                          -DNWK_MAX_BINDING_ENTRIES=4                       /
//                          -DMAX_BINDING_CLUSTER_IDS=4                       /
//                          "-DDEFAULT_KEY={0x01, 0x03, 0x05, 0x07, 0x09,     /
//                          0x0B, 0x0D, 0x0F, 0x00, 0x02, 0x04, 0x06, 0x08,   /
//                          0x0A, 0x0C, 0x0D}" -DMAC_MAX_FRAME_SIZE=116       /
//                          "-DCONST=const __code" -DGENERIC=__generic        /
//                          -DRFD_RCVC_ALWAYS_ON=TRUE -DPOLL_RATE=1000        /
//                          -DQUEUED_POLL_RATE=100 -DRESPONSE_POLL_RATE=100)  /
//                          -DREJOIN_POLL_RATE=440 D:\ZigBee\KJXY-ZigBee\ZigB /
//                          ee-experiment\exp6-broadcast\Components\HARDWARE\ /
//                          MPU6050\eMPL\inv_mpu_dmp_motion_driver.c -D       /
//                          NWK_AUTO_POLL -D ZTOOL_P1 -D MT_SYS_FUNC -D       /
//                          MT_ZDO_FUNC -D LCD_SUPPORTED=DEBUG -lC            /
//                          D:\ZigBee\KJXY-ZigBee\ZigBee-experiment\exp6-broa /
//                          dcast\Projects\zstack\Samples\SampleApp\CC2530DB\ /
//                          EndDeviceEB-MPU6050\List\ -lA                     /
//                          D:\ZigBee\KJXY-ZigBee\ZigBee-experiment\exp6-broa /
//                          dcast\Projects\zstack\Samples\SampleApp\CC2530DB\ /
//                          EndDeviceEB-MPU6050\List\ --diag_suppress         /
//                          Pe001,Pa010 -o D:\ZigBee\KJXY-ZigBee\ZigBee-exper /
//                          iment\exp6-broadcast\Projects\zstack\Samples\Samp /
//                          leApp\CC2530DB\EndDeviceEB-MPU6050\Obj\ -e        /
//                          --no_unroll --no_inline --no_tbaa --debug         /
//                          --core=plain --dptr=16,1 --data_model=large       /
//                          --code_model=banked --calling_convention=xdata_re /
//                          entrant --place_constants=data_rom                /
//                          --nr_virtual_regs 16 -I                           /
//                          D:\ZigBee\KJXY-ZigBee\ZigBee-experiment\exp6-broa /
//                          dcast\Projects\zstack\Samples\SampleApp\CC2530DB\ /
//                           -I D:\ZigBee\KJXY-ZigBee\ZigBee-experiment\exp6- /
//                          broadcast\Projects\zstack\Samples\SampleApp\CC253 /
//                          0DB\..\SOURCE\ -I D:\ZigBee\KJXY-ZigBee\ZigBee-ex /
//                          periment\exp6-broadcast\Projects\zstack\Samples\S /
//                          ampleApp\CC2530DB\..\..\..\ZMAIN\TI2530DB\ -I     /
//                          D:\ZigBee\KJXY-ZigBee\ZigBee-experiment\exp6-broa /
//                          dcast\Projects\zstack\Samples\SampleApp\CC2530DB\ /
//                          ..\..\..\..\..\COMPONENTS\MT\ -I                  /
//                          D:\ZigBee\KJXY-ZigBee\ZigBee-experiment\exp6-broa /
//                          dcast\Projects\zstack\Samples\SampleApp\CC2530DB\ /
//                          ..\..\..\..\..\COMPONENTS\HAL\INCLUDE\ -I         /
//                          D:\ZigBee\KJXY-ZigBee\ZigBee-experiment\exp6-broa /
//                          dcast\Projects\zstack\Samples\SampleApp\CC2530DB\ /
//                          ..\..\..\..\..\COMPONENTS\HAL\TARGET\CC2530EB\    /
//                          -I D:\ZigBee\KJXY-ZigBee\ZigBee-experiment\exp6-b /
//                          roadcast\Projects\zstack\Samples\SampleApp\CC2530 /
//                          DB\..\..\..\..\..\COMPONENTS\OSAL\MCU\CCSOC\ -I   /
//                          D:\ZigBee\KJXY-ZigBee\ZigBee-experiment\exp6-broa /
//                          dcast\Projects\zstack\Samples\SampleApp\CC2530DB\ /
//                          ..\..\..\..\..\COMPONENTS\OSAL\INCLUDE\ -I        /
//                          D:\ZigBee\KJXY-ZigBee\ZigBee-experiment\exp6-broa /
//                          dcast\Projects\zstack\Samples\SampleApp\CC2530DB\ /
//                          ..\..\..\..\..\COMPONENTS\STACK\AF\ -I            /
//                          D:\ZigBee\KJXY-ZigBee\ZigBee-experiment\exp6-broa /
//                          dcast\Projects\zstack\Samples\SampleApp\CC2530DB\ /
//                          ..\..\..\..\..\COMPONENTS\STACK\NWK\ -I           /
//                          D:\ZigBee\KJXY-ZigBee\ZigBee-experiment\exp6-broa /
//                          dcast\Projects\zstack\Samples\SampleApp\CC2530DB\ /
//                          ..\..\..\..\..\COMPONENTS\STACK\SEC\ -I           /
//                          D:\ZigBee\KJXY-ZigBee\ZigBee-experiment\exp6-broa /
//                          dcast\Projects\zstack\Samples\SampleApp\CC2530DB\ /
//                          ..\..\..\..\..\COMPONENTS\STACK\SAPI\ -I          /
//                          D:\ZigBee\KJXY-ZigBee\ZigBee-experiment\exp6-broa /
//                          dcast\Projects\zstack\Samples\SampleApp\CC2530DB\ /
//                          ..\..\..\..\..\COMPONENTS\STACK\SYS\ -I           /
//                          D:\ZigBee\KJXY-ZigBee\ZigBee-experiment\exp6-broa /
//                          dcast\Projects\zstack\Samples\SampleApp\CC2530DB\ /
//                          ..\..\..\..\..\COMPONENTS\STACK\ZDO\ -I           /
//                          D:\ZigBee\KJXY-ZigBee\ZigBee-experiment\exp6-broa /
//                          dcast\Projects\zstack\Samples\SampleApp\CC2530DB\ /
//                          ..\..\..\..\..\COMPONENTS\ZMAC\F8W\ -I            /
//                          D:\ZigBee\KJXY-ZigBee\ZigBee-experiment\exp6-broa /
//                          dcast\Projects\zstack\Samples\SampleApp\CC2530DB\ /
//                          ..\..\..\..\..\COMPONENTS\ZMAC\ -I                /
//                          D:\ZigBee\KJXY-ZigBee\ZigBee-experiment\exp6-broa /
//                          dcast\Projects\zstack\Samples\SampleApp\CC2530DB\ /
//                          ..\..\..\..\..\COMPONENTS\SERVICES\SADDR\ -I      /
//                          D:\ZigBee\KJXY-ZigBee\ZigBee-experiment\exp6-broa /
//                          dcast\Projects\zstack\Samples\SampleApp\CC2530DB\ /
//                          ..\..\..\..\..\COMPONENTS\SERVICES\SDATA\ -I      /
//                          D:\ZigBee\KJXY-ZigBee\ZigBee-experiment\exp6-broa /
//                          dcast\Projects\zstack\Samples\SampleApp\CC2530DB\ /
//                          ..\..\..\..\..\COMPONENTS\MAC\INCLUDE\ -I         /
//                          D:\ZigBee\KJXY-ZigBee\ZigBee-experiment\exp6-broa /
//                          dcast\Projects\zstack\Samples\SampleApp\CC2530DB\ /
//                          ..\..\..\..\..\COMPONENTS\MAC\HIGH_LEVEL\ -I      /
//                          D:\ZigBee\KJXY-ZigBee\ZigBee-experiment\exp6-broa /
//                          dcast\Projects\zstack\Samples\SampleApp\CC2530DB\ /
//                          ..\..\..\..\..\COMPONENTS\MAC\LOW_LEVEL\srf04\    /
//                          -I D:\ZigBee\KJXY-ZigBee\ZigBee-experiment\exp6-b /
//                          roadcast\Projects\zstack\Samples\SampleApp\CC2530 /
//                          DB\..\..\..\..\..\COMPONENTS\MAC\LOW_LEVEL\srf04\ /
//                          SINGLE_CHIP\ -I D:\ZigBee\KJXY-ZigBee\ZigBee-expe /
//                          riment\exp6-broadcast\Projects\zstack\Samples\Sam /
//                          pleApp\CC2530DB\..\..\..\..\..\COMPONENTS\HARDWAR /
//                          E\ -I D:\ZigBee\KJXY-ZigBee\ZigBee-experiment\exp /
//                          6-broadcast\Projects\zstack\Samples\SampleApp\CC2 /
//                          530DB\..\..\..\..\..\COMPONENTS\HARDWARE\MPU6050\ /
//                           -I D:\ZigBee\KJXY-ZigBee\ZigBee-experiment\exp6- /
//                          broadcast\Projects\zstack\Samples\SampleApp\CC253 /
//                          0DB\..\..\..\..\..\COMPONENTS\HARDWARE\MPU6050\eM /
//                          PL\ -Om                                           /
//    List file          =  D:\ZigBee\KJXY-ZigBee\ZigBee-experiment\exp6-broa /
//                          dcast\Projects\zstack\Samples\SampleApp\CC2530DB\ /
//                          EndDeviceEB-MPU6050\List\inv_mpu_dmp_motion_drive /
//                          r.s51                                             /
//                                                                            /
//                                                                            /
///////////////////////////////////////////////////////////////////////////////

        NAME inv_mpu_dmp_motion_driver

        RTMODEL "__SystemLibrary", "CLib"
        RTMODEL "__calling_convention", "xdata_reentrant"
        RTMODEL "__code_model", "banked"
        RTMODEL "__core", "plain"
        RTMODEL "__data_model", "large"
        RTMODEL "__dptr_size", "16"
        RTMODEL "__extended_stack", "disabled"
        RTMODEL "__location_for_constants", "data"
        RTMODEL "__number_of_dptrs", "1"
        RTMODEL "__rt_version", "1"

        RSEG DOVERLAY:DATA:NOROOT(0)
        RSEG IOVERLAY:IDATA:NOROOT(0)
        RSEG ISTACK:IDATA:NOROOT(0)
        RSEG PSTACK:XDATA:NOROOT(0)
        RSEG XSTACK:XDATA:NOROOT(0)

        EXTERN ?ALLOC_XSTACK8
        EXTERN ?BANKED_ENTER_XDATA
        EXTERN ?BANKED_LEAVE_XDATA
        EXTERN ?BDISPATCH
        EXTERN ?BRET
        EXTERN ?CALL_IND
        EXTERN ?DEALLOC_XSTACK8
        EXTERN ?FLT_DIV
        EXTERN ?FLT_MUL
        EXTERN ?FLT_TO_L
        EXTERN ?L_ADD
        EXTERN ?L_ADD_X
        EXTERN ?L_DIV_MOD
        EXTERN ?L_IOR
        EXTERN ?L_MOV_TO_X
        EXTERN ?L_MOV_X
        EXTERN ?L_MUL
        EXTERN ?L_NEG
        EXTERN ?L_SHL
        EXTERN ?MOVE_LONG8_XDATA_XDATA
        EXTERN ?PUSH_XSTACK_I_TWO
        EXTERN ?SL_SHR
        EXTERN ?SS_SHR
        EXTERN ?S_SHL
        EXTERN ?UL_DIV_MOD
        EXTERN ?UL_GE_X
        EXTERN ?UL_SHR
        EXTERN ?UL_TO_FLT
        EXTERN ?US_DIV_MOD
        EXTERN ?V0
        EXTERN ?XLOAD_R2345
        EXTERN ?XSP
        EXTERN ?XSTACK_DISP0_8
        EXTERN ?XSTORE_R2345
        EXTERN __INIT_XDATA_Z

        FUNCTION ??decode_gesture?relay,0203H
        PUBLIC ??dmp_enable_6x_lp_quat?relay
        FUNCTION ??dmp_enable_6x_lp_quat?relay,0203H
        PUBLIC ??dmp_enable_feature?relay
        FUNCTION ??dmp_enable_feature?relay,0203H
        PUBLIC ??dmp_enable_gyro_cal?relay
        FUNCTION ??dmp_enable_gyro_cal?relay,0203H
        PUBLIC ??dmp_enable_lp_quat?relay
        FUNCTION ??dmp_enable_lp_quat?relay,0203H
        PUBLIC ??dmp_get_enabled_features?relay
        FUNCTION ??dmp_get_enabled_features?relay,0203H
        PUBLIC ??dmp_get_fifo_rate?relay
        FUNCTION ??dmp_get_fifo_rate?relay,0203H
        PUBLIC ??dmp_get_pedometer_step_count?relay
        FUNCTION ??dmp_get_pedometer_step_count?relay,0203H
        PUBLIC ??dmp_get_pedometer_walk_time?relay
        FUNCTION ??dmp_get_pedometer_walk_time?relay,0203H
        PUBLIC ??dmp_load_motion_driver_firmware?relay
        FUNCTION ??dmp_load_motion_driver_firmware?relay,0203H
        PUBLIC ??dmp_read_fifo?relay
        FUNCTION ??dmp_read_fifo?relay,0203H
        PUBLIC ??dmp_register_android_orient_cb?relay
        FUNCTION ??dmp_register_android_orient_cb?relay,0203H
        PUBLIC ??dmp_register_tap_cb?relay
        FUNCTION ??dmp_register_tap_cb?relay,0203H
        PUBLIC ??dmp_set_accel_bias?relay
        FUNCTION ??dmp_set_accel_bias?relay,0203H
        PUBLIC ??dmp_set_fifo_rate?relay
        FUNCTION ??dmp_set_fifo_rate?relay,0203H
        PUBLIC ??dmp_set_gyro_bias?relay
        FUNCTION ??dmp_set_gyro_bias?relay,0203H
        PUBLIC ??dmp_set_interrupt_mode?relay
        FUNCTION ??dmp_set_interrupt_mode?relay,0203H
        PUBLIC ??dmp_set_orientation?relay
        FUNCTION ??dmp_set_orientation?relay,0203H
        PUBLIC ??dmp_set_pedometer_step_count?relay
        FUNCTION ??dmp_set_pedometer_step_count?relay,0203H
        PUBLIC ??dmp_set_pedometer_walk_time?relay
        FUNCTION ??dmp_set_pedometer_walk_time?relay,0203H
        PUBLIC ??dmp_set_shake_reject_thresh?relay
        FUNCTION ??dmp_set_shake_reject_thresh?relay,0203H
        PUBLIC ??dmp_set_shake_reject_time?relay
        FUNCTION ??dmp_set_shake_reject_time?relay,0203H
        PUBLIC ??dmp_set_shake_reject_timeout?relay
        FUNCTION ??dmp_set_shake_reject_timeout?relay,0203H
        PUBLIC ??dmp_set_tap_axes?relay
        FUNCTION ??dmp_set_tap_axes?relay,0203H
        PUBLIC ??dmp_set_tap_count?relay
        FUNCTION ??dmp_set_tap_count?relay,0203H
        PUBLIC ??dmp_set_tap_thresh?relay
        FUNCTION ??dmp_set_tap_thresh?relay,0203H
        PUBLIC ??dmp_set_tap_time?relay
        FUNCTION ??dmp_set_tap_time?relay,0203H
        PUBLIC ??dmp_set_tap_time_multi?relay
        FUNCTION ??dmp_set_tap_time_multi?relay,0203H
        PUBWEAK __Constant_14
        PUBWEAK __Constant_2000001
        PUBWEAK __Constant_3b86e0
        PUBWEAK __Constant_3e8
        PUBWEAK __Constant_43480000
        PUBWEAK __Constant_44c00000
        PUBWEAK __Constant_45000000
        PUBWEAK __Constant_45400000
        PUBWEAK __Constant_45800000
        PUBWEAK __Constant_45c00000
        PUBWEAK __Constant_46000000
        PUBWEAK __Constant_46400000
        PUBWEAK __Constant_46800000
        PUBWEAK __Constant_f1000000
        FUNCTION decode_gesture,0203H
        ARGFRAME XSTACK, 81, STACK
        ARGFRAME IOVERLAY, 0, STATIC
        ARGFRAME DOVERLAY, 0, STATIC
        LOCFRAME XSTACK, 9, STACK
        PUBLIC dmp_enable_6x_lp_quat
        FUNCTION dmp_enable_6x_lp_quat,021203H
        ARGFRAME XSTACK, 24, STACK
        ARGFRAME IOVERLAY, 0, STATIC
        ARGFRAME DOVERLAY, 0, STATIC
        LOCFRAME XSTACK, 16, STACK
        PUBLIC dmp_enable_feature
        FUNCTION dmp_enable_feature,021203H
        ARGFRAME XSTACK, 0, STACK
        LOCFRAME XSTACK, 26, STACK
        PUBLIC dmp_enable_gyro_cal
        FUNCTION dmp_enable_gyro_cal,021203H
        ARGFRAME XSTACK, 24, STACK
        ARGFRAME IOVERLAY, 0, STATIC
        ARGFRAME DOVERLAY, 0, STATIC
        LOCFRAME ISTACK, 2, STACK
        LOCFRAME XSTACK, 21, STACK
        PUBLIC dmp_enable_lp_quat
        FUNCTION dmp_enable_lp_quat,021203H
        ARGFRAME XSTACK, 24, STACK
        ARGFRAME IOVERLAY, 0, STATIC
        ARGFRAME DOVERLAY, 0, STATIC
        LOCFRAME XSTACK, 16, STACK
        PUBLIC dmp_get_enabled_features
        FUNCTION dmp_get_enabled_features,0203H
        ARGFRAME XSTACK, 0, STACK
        LOCFRAME ISTACK, 2, STACK
        PUBLIC dmp_get_fifo_rate
        FUNCTION dmp_get_fifo_rate,0203H
        ARGFRAME XSTACK, 0, STACK
        LOCFRAME ISTACK, 2, STACK
        PUBLIC dmp_get_pedometer_step_count
        FUNCTION dmp_get_pedometer_step_count,021203H
        ARGFRAME XSTACK, 0, STACK
        LOCFRAME XSTACK, 22, STACK
        PUBLIC dmp_get_pedometer_walk_time
        FUNCTION dmp_get_pedometer_walk_time,021203H
        ARGFRAME XSTACK, 0, STACK
        LOCFRAME XSTACK, 22, STACK
        PUBLIC dmp_load_motion_driver_firmware
        FUNCTION dmp_load_motion_driver_firmware,021203H
        ARGFRAME XSTACK, 0, STACK
        LOCFRAME XSTACK, 14, STACK
        PUBLIC dmp_read_fifo
        FUNCTION dmp_read_fifo,021203H
        ARGFRAME XSTACK, 8, STACK
        LOCFRAME XSTACK, 83, STACK
        PUBLIC dmp_register_android_orient_cb
        FUNCTION dmp_register_android_orient_cb,0203H
        ARGFRAME XSTACK, 0, STACK
        LOCFRAME ISTACK, 2, STACK
        PUBLIC dmp_register_tap_cb
        FUNCTION dmp_register_tap_cb,0203H
        ARGFRAME XSTACK, 0, STACK
        LOCFRAME ISTACK, 2, STACK
        PUBLIC dmp_set_accel_bias
        FUNCTION dmp_set_accel_bias,021203H
        ARGFRAME XSTACK, 0, STACK
        LOCFRAME ISTACK, 1, STACK
        LOCFRAME XSTACK, 48, STACK
        PUBLIC dmp_set_fifo_rate
        FUNCTION dmp_set_fifo_rate,021203H
        ARGFRAME XSTACK, 0, STACK
        LOCFRAME ISTACK, 2, STACK
        LOCFRAME XSTACK, 32, STACK
        PUBLIC dmp_set_gyro_bias
        FUNCTION dmp_set_gyro_bias,021203H
        ARGFRAME XSTACK, 0, STACK
        LOCFRAME ISTACK, 1, STACK
        LOCFRAME XSTACK, 34, STACK
        PUBLIC dmp_set_interrupt_mode
        FUNCTION dmp_set_interrupt_mode,021203H
        ARGFRAME XSTACK, 0, STACK
        LOCFRAME ISTACK, 2, STACK
        LOCFRAME XSTACK, 34, STACK
        PUBLIC dmp_set_orientation
        FUNCTION dmp_set_orientation,021203H
        ARGFRAME XSTACK, 0, STACK
        LOCFRAME ISTACK, 2, STACK
        LOCFRAME XSTACK, 30, STACK
        PUBLIC dmp_set_pedometer_step_count
        FUNCTION dmp_set_pedometer_step_count,021203H
        ARGFRAME XSTACK, 0, STACK
        LOCFRAME ISTACK, 1, STACK
        LOCFRAME XSTACK, 22, STACK
        PUBLIC dmp_set_pedometer_walk_time
        FUNCTION dmp_set_pedometer_walk_time,021203H
        ARGFRAME XSTACK, 0, STACK
        LOCFRAME ISTACK, 1, STACK
        LOCFRAME XSTACK, 22, STACK
        PUBLIC dmp_set_shake_reject_thresh
        FUNCTION dmp_set_shake_reject_thresh,021203H
        ARGFRAME XSTACK, 26, STACK
        ARGFRAME IOVERLAY, 0, STATIC
        ARGFRAME DOVERLAY, 0, STATIC
        LOCFRAME ISTACK, 1, STACK
        LOCFRAME XSTACK, 26, STACK
        PUBLIC dmp_set_shake_reject_time
        FUNCTION dmp_set_shake_reject_time,021203H
        ARGFRAME XSTACK, 24, STACK
        ARGFRAME IOVERLAY, 0, STATIC
        ARGFRAME DOVERLAY, 0, STATIC
        LOCFRAME ISTACK, 1, STACK
        LOCFRAME XSTACK, 14, STACK
        PUBLIC dmp_set_shake_reject_timeout
        FUNCTION dmp_set_shake_reject_timeout,021203H
        ARGFRAME XSTACK, 24, STACK
        ARGFRAME IOVERLAY, 0, STATIC
        ARGFRAME DOVERLAY, 0, STATIC
        LOCFRAME ISTACK, 1, STACK
        LOCFRAME XSTACK, 14, STACK
        PUBLIC dmp_set_tap_axes
        FUNCTION dmp_set_tap_axes,021203H
        ARGFRAME XSTACK, 24, STACK
        ARGFRAME IOVERLAY, 0, STATIC
        ARGFRAME DOVERLAY, 0, STATIC
        LOCFRAME XSTACK, 13, STACK
        PUBLIC dmp_set_tap_count
        FUNCTION dmp_set_tap_count,021203H
        ARGFRAME XSTACK, 24, STACK
        ARGFRAME IOVERLAY, 0, STATIC
        ARGFRAME DOVERLAY, 0, STATIC
        LOCFRAME ISTACK, 1, STACK
        LOCFRAME XSTACK, 13, STACK
        PUBLIC dmp_set_tap_thresh
        FUNCTION dmp_set_tap_thresh,021203H
        ARGFRAME XSTACK, 24, STACK
        ARGFRAME IOVERLAY, 0, STATIC
        ARGFRAME DOVERLAY, 0, STATIC
        LOCFRAME ISTACK, 1, STACK
        LOCFRAME XSTACK, 27, STACK
        PUBLIC dmp_set_tap_time
        FUNCTION dmp_set_tap_time,021203H
        ARGFRAME XSTACK, 24, STACK
        ARGFRAME IOVERLAY, 0, STATIC
        ARGFRAME DOVERLAY, 0, STATIC
        LOCFRAME ISTACK, 1, STACK
        LOCFRAME XSTACK, 14, STACK
        PUBLIC dmp_set_tap_time_multi
        FUNCTION dmp_set_tap_time_multi,021203H
        ARGFRAME XSTACK, 24, STACK
        ARGFRAME IOVERLAY, 0, STATIC
        ARGFRAME DOVERLAY, 0, STATIC
        LOCFRAME ISTACK, 1, STACK
        LOCFRAME XSTACK, 14, STACK
        
        CFI Names cfiNames0
        CFI StackFrame CFA_SP SP IDATA
        CFI StackFrame CFA_PSP16 PSP16 XDATA
        CFI StackFrame CFA_XSP16 XSP16 XDATA
        CFI StaticOverlayFrame CFA_IOVERLAY IOVERLAY
        CFI StaticOverlayFrame CFA_DOVERLAY DOVERLAY
        CFI Resource `PSW.CY`:1, `B.BR0`:1, `B.BR1`:1, `B.BR2`:1, `B.BR3`:1
        CFI Resource `B.BR4`:1, `B.BR5`:1, `B.BR6`:1, `B.BR7`:1, `VB.BR8`:1
        CFI Resource `VB.BR9`:1, `VB.BR10`:1, `VB.BR11`:1, `VB.BR12`:1
        CFI Resource `VB.BR13`:1, `VB.BR14`:1, `VB.BR15`:1, VB:8, B:8, A:8
        CFI Resource PSW:8, DPL0:8, DPH0:8, R0:8, R1:8, R2:8, R3:8, R4:8, R5:8
        CFI Resource R6:8, R7:8, V0:8, V1:8, V2:8, V3:8, V4:8, V5:8, V6:8, V7:8
        CFI Resource V8:8, V9:8, V10:8, V11:8, V12:8, V13:8, V14:8, V15:8, SP:8
        CFI Resource PSPH:8, PSPL:8, PSP16:16, XSPH:8, XSPL:8, XSP16:16
        CFI VirtualResource ?RET:24
        CFI Resource ?BRET_EXT:8
        CFI VirtualResource ?RET_HIGH:8, ?RET_LOW:8
        CFI ResourceParts PSP16 PSPH, PSPL
        CFI ResourceParts XSP16 XSPH, XSPL
        CFI ResourceParts ?RET ?BRET_EXT, ?RET_HIGH, ?RET_LOW
        CFI EndNames cfiNames0
        
        CFI Common cfiCommon0 Using cfiNames0
        CFI CodeAlign 1
        CFI DataAlign -1
        CFI ReturnAddress ?RET CODE
        CFI CFA_DOVERLAY Used
        CFI CFA_IOVERLAY Used
        CFI CFA_SP SP+-3
        CFI CFA_PSP16 PSP16+0
        CFI CFA_XSP16 XSP16+0
        CFI `PSW.CY` SameValue
        CFI `B.BR0` SameValue
        CFI `B.BR1` SameValue
        CFI `B.BR2` SameValue
        CFI `B.BR3` SameValue
        CFI `B.BR4` SameValue
        CFI `B.BR5` SameValue
        CFI `B.BR6` SameValue
        CFI `B.BR7` SameValue
        CFI `VB.BR8` SameValue
        CFI `VB.BR9` SameValue
        CFI `VB.BR10` SameValue
        CFI `VB.BR11` SameValue
        CFI `VB.BR12` SameValue
        CFI `VB.BR13` SameValue
        CFI `VB.BR14` SameValue
        CFI `VB.BR15` SameValue
        CFI VB SameValue
        CFI B Undefined
        CFI A Undefined
        CFI PSW SameValue
        CFI DPL0 SameValue
        CFI DPH0 SameValue
        CFI R0 Undefined
        CFI R1 Undefined
        CFI R2 Undefined
        CFI R3 Undefined
        CFI R4 Undefined
        CFI R5 Undefined
        CFI R6 SameValue
        CFI R7 SameValue
        CFI V0 SameValue
        CFI V1 SameValue
        CFI V2 SameValue
        CFI V3 SameValue
        CFI V4 SameValue
        CFI V5 SameValue
        CFI V6 SameValue
        CFI V7 SameValue
        CFI V8 SameValue
        CFI V9 SameValue
        CFI V10 SameValue
        CFI V11 SameValue
        CFI V12 SameValue
        CFI V13 SameValue
        CFI V14 SameValue
        CFI V15 SameValue
        CFI PSPH Undefined
        CFI PSPL Undefined
        CFI XSPH Undefined
        CFI XSPL Undefined
        CFI ?RET Concat
        CFI ?BRET_EXT Frame(CFA_SP, 3)
        CFI ?RET_HIGH Frame(CFA_SP, 2)
        CFI ?RET_LOW Frame(CFA_SP, 1)
        CFI EndCommon cfiCommon0
        
mpu_load_firmware   SYMBOL "mpu_load_firmware"
mpu_write_mem       SYMBOL "mpu_write_mem"
memcpy              SYMBOL "memcpy"
mpu_get_accel_sens  SYMBOL "mpu_get_accel_sens"
mpu_get_accel_fsr   SYMBOL "mpu_get_accel_fsr"
mpu_read_mem        SYMBOL "mpu_read_mem"
mpu_reset_fifo      SYMBOL "mpu_reset_fifo"
memset              SYMBOL "memset"
mpu_read_fifo_stream SYMBOL "mpu_read_fifo_stream"
mget_ms             SYMBOL "mget_ms"
??memcpy?relay      SYMBOL "?relay", memcpy
??memset?relay      SYMBOL "?relay", memset
??mget_ms?relay     SYMBOL "?relay", mget_ms
??mpu_get_accel_fsr?relay SYMBOL "?relay", mpu_get_accel_fsr
??mpu_get_accel_sens?relay SYMBOL "?relay", mpu_get_accel_sens
??mpu_load_firmware?relay SYMBOL "?relay", mpu_load_firmware
??mpu_read_fifo_stream?relay SYMBOL "?relay", mpu_read_fifo_stream
??mpu_read_mem?relay SYMBOL "?relay", mpu_read_mem
??mpu_reset_fifo?relay SYMBOL "?relay", mpu_reset_fifo
??mpu_write_mem?relay SYMBOL "?relay", mpu_write_mem
dmp_enable_6x_lp_quat SYMBOL "dmp_enable_6x_lp_quat"
??dmp_enable_6x_lp_quat?relay SYMBOL "?relay", dmp_enable_6x_lp_quat
dmp_enable_feature  SYMBOL "dmp_enable_feature"
??dmp_enable_feature?relay SYMBOL "?relay", dmp_enable_feature
dmp_enable_gyro_cal SYMBOL "dmp_enable_gyro_cal"
??dmp_enable_gyro_cal?relay SYMBOL "?relay", dmp_enable_gyro_cal
dmp_enable_lp_quat  SYMBOL "dmp_enable_lp_quat"
??dmp_enable_lp_quat?relay SYMBOL "?relay", dmp_enable_lp_quat
dmp_get_enabled_features SYMBOL "dmp_get_enabled_features"
??dmp_get_enabled_features?relay SYMBOL "?relay", dmp_get_enabled_features
dmp_get_fifo_rate   SYMBOL "dmp_get_fifo_rate"
??dmp_get_fifo_rate?relay SYMBOL "?relay", dmp_get_fifo_rate
dmp_get_pedometer_step_count SYMBOL "dmp_get_pedometer_step_count"
??dmp_get_pedometer_step_count?relay SYMBOL "?relay", dmp_get_pedometer_step_count
dmp_get_pedometer_walk_time SYMBOL "dmp_get_pedometer_walk_time"
??dmp_get_pedometer_walk_time?relay SYMBOL "?relay", dmp_get_pedometer_walk_time
dmp_load_motion_driver_firmware SYMBOL "dmp_load_motion_driver_firmware"
??dmp_load_motion_driver_firmware?relay SYMBOL "?relay", dmp_load_motion_driver_firmware
dmp_read_fifo       SYMBOL "dmp_read_fifo"
??dmp_read_fifo?relay SYMBOL "?relay", dmp_read_fifo
dmp_register_android_orient_cb SYMBOL "dmp_register_android_orient_cb"
??dmp_register_android_orient_cb?relay SYMBOL "?relay", dmp_register_android_orient_cb
dmp_register_tap_cb SYMBOL "dmp_register_tap_cb"
??dmp_register_tap_cb?relay SYMBOL "?relay", dmp_register_tap_cb
dmp_set_accel_bias  SYMBOL "dmp_set_accel_bias"
??dmp_set_accel_bias?relay SYMBOL "?relay", dmp_set_accel_bias
dmp_set_fifo_rate   SYMBOL "dmp_set_fifo_rate"
??dmp_set_fifo_rate?relay SYMBOL "?relay", dmp_set_fifo_rate
dmp_set_gyro_bias   SYMBOL "dmp_set_gyro_bias"
??dmp_set_gyro_bias?relay SYMBOL "?relay", dmp_set_gyro_bias
dmp_set_interrupt_mode SYMBOL "dmp_set_interrupt_mode"
??dmp_set_interrupt_mode?relay SYMBOL "?relay", dmp_set_interrupt_mode
dmp_set_orientation SYMBOL "dmp_set_orientation"
??dmp_set_orientation?relay SYMBOL "?relay", dmp_set_orientation
dmp_set_pedometer_step_count SYMBOL "dmp_set_pedometer_step_count"
??dmp_set_pedometer_step_count?relay SYMBOL "?relay", dmp_set_pedometer_step_count
dmp_set_pedometer_walk_time SYMBOL "dmp_set_pedometer_walk_time"
??dmp_set_pedometer_walk_time?relay SYMBOL "?relay", dmp_set_pedometer_walk_time
dmp_set_shake_reject_thresh SYMBOL "dmp_set_shake_reject_thresh"
??dmp_set_shake_reject_thresh?relay SYMBOL "?relay", dmp_set_shake_reject_thresh
dmp_set_shake_reject_time SYMBOL "dmp_set_shake_reject_time"
??dmp_set_shake_reject_time?relay SYMBOL "?relay", dmp_set_shake_reject_time
dmp_set_shake_reject_timeout SYMBOL "dmp_set_shake_reject_timeout"
??dmp_set_shake_reject_timeout?relay SYMBOL "?relay", dmp_set_shake_reject_timeout
dmp_set_tap_axes    SYMBOL "dmp_set_tap_axes"
??dmp_set_tap_axes?relay SYMBOL "?relay", dmp_set_tap_axes
dmp_set_tap_count   SYMBOL "dmp_set_tap_count"
??dmp_set_tap_count?relay SYMBOL "?relay", dmp_set_tap_count
dmp_set_tap_thresh  SYMBOL "dmp_set_tap_thresh"
??dmp_set_tap_thresh?relay SYMBOL "?relay", dmp_set_tap_thresh
dmp_set_tap_time    SYMBOL "dmp_set_tap_time"
??dmp_set_tap_time?relay SYMBOL "?relay", dmp_set_tap_time
dmp_set_tap_time_multi SYMBOL "dmp_set_tap_time_multi"
??dmp_set_tap_time_multi?relay SYMBOL "?relay", dmp_set_tap_time_multi

        EXTERN mpu_load_firmware
        FUNCTION mpu_load_firmware,0202H
        ARGFRAME ISTACK, 0, STACK
        ARGFRAME PSTACK, 0, STACK
        ARGFRAME XSTACK, 14, STACK
        ARGFRAME IOVERLAY, 0, STATIC
        ARGFRAME DOVERLAY, 0, STATIC
        EXTERN mpu_write_mem
        FUNCTION mpu_write_mem,0202H
        ARGFRAME ISTACK, 0, STACK
        ARGFRAME PSTACK, 0, STACK
        ARGFRAME XSTACK, 48, STACK
        ARGFRAME IOVERLAY, 0, STATIC
        ARGFRAME DOVERLAY, 0, STATIC
        EXTERN memcpy
        FUNCTION memcpy,010202H
        ARGFRAME ISTACK, 0, STACK
        ARGFRAME PSTACK, 0, STACK
        ARGFRAME XSTACK, 30, STACK
        ARGFRAME IOVERLAY, 0, STATIC
        ARGFRAME DOVERLAY, 0, STATIC
        EXTERN mpu_get_accel_sens
        FUNCTION mpu_get_accel_sens,0202H
        ARGFRAME ISTACK, 0, STACK
        ARGFRAME PSTACK, 0, STACK
        ARGFRAME XSTACK, 46, STACK
        ARGFRAME IOVERLAY, 0, STATIC
        ARGFRAME DOVERLAY, 0, STATIC
        EXTERN mpu_get_accel_fsr
        FUNCTION mpu_get_accel_fsr,0202H
        ARGFRAME ISTACK, 0, STACK
        ARGFRAME PSTACK, 0, STACK
        ARGFRAME XSTACK, 25, STACK
        ARGFRAME IOVERLAY, 0, STATIC
        ARGFRAME DOVERLAY, 0, STATIC
        EXTERN mpu_read_mem
        FUNCTION mpu_read_mem,0202H
        ARGFRAME ISTACK, 0, STACK
        ARGFRAME PSTACK, 0, STACK
        ARGFRAME XSTACK, 22, STACK
        ARGFRAME IOVERLAY, 0, STATIC
        ARGFRAME DOVERLAY, 0, STATIC
        EXTERN mpu_reset_fifo
        FUNCTION mpu_reset_fifo,0202H
        ARGFRAME ISTACK, 0, STACK
        ARGFRAME PSTACK, 0, STACK
        ARGFRAME XSTACK, 81, STACK
        ARGFRAME IOVERLAY, 0, STATIC
        ARGFRAME DOVERLAY, 0, STATIC
        EXTERN memset
        FUNCTION memset,010202H
        ARGFRAME ISTACK, 0, STACK
        ARGFRAME PSTACK, 0, STACK
        ARGFRAME XSTACK, 16, STACK
        ARGFRAME IOVERLAY, 0, STATIC
        ARGFRAME DOVERLAY, 0, STATIC
        EXTERN mpu_read_fifo_stream
        FUNCTION mpu_read_fifo_stream,0202H
        ARGFRAME ISTACK, 0, STACK
        ARGFRAME PSTACK, 0, STACK
        ARGFRAME XSTACK, 83, STACK
        ARGFRAME IOVERLAY, 0, STATIC
        ARGFRAME DOVERLAY, 0, STATIC
        EXTERN mget_ms
        FUNCTION mget_ms,0202H
        ARGFRAME ISTACK, 0, STACK
        ARGFRAME PSTACK, 0, STACK
        ARGFRAME XSTACK, 81, STACK
        ARGFRAME IOVERLAY, 0, STATIC
        ARGFRAME DOVERLAY, 0, STATIC
        EXTERN ??memcpy?relay
        FUNCTION ??memcpy?relay,00H
        EXTERN ??memset?relay
        FUNCTION ??memset?relay,00H
        EXTERN ??mget_ms?relay
        FUNCTION ??mget_ms?relay,00H
        EXTERN ??mpu_get_accel_fsr?relay
        FUNCTION ??mpu_get_accel_fsr?relay,00H
        EXTERN ??mpu_get_accel_sens?relay
        FUNCTION ??mpu_get_accel_sens?relay,00H
        EXTERN ??mpu_load_firmware?relay
        FUNCTION ??mpu_load_firmware?relay,00H
        EXTERN ??mpu_read_fifo_stream?relay
        FUNCTION ??mpu_read_fifo_stream?relay,00H
        EXTERN ??mpu_read_mem?relay
        FUNCTION ??mpu_read_mem?relay,00H
        EXTERN ??mpu_reset_fifo?relay
        FUNCTION ??mpu_reset_fifo?relay,00H
        EXTERN ??mpu_write_mem?relay
        FUNCTION ??mpu_write_mem?relay,00H

// D:\ZigBee\KJXY-ZigBee\ZigBee-experiment\exp6-broadcast\Components\HARDWARE\MPU6050\eMPL\inv_mpu_dmp_motion_driver.c
//    1 /*
//    2  $License:
//    3     Copyright (C) 2011-2012 InvenSense Corporation, All Rights Reserved.
//    4     See included License.txt for License information.
//    5  $
//    6  */
//    7 /**
//    8  *  @addtogroup  DRIVERS Sensor Driver Layer
//    9  *  @brief       Hardware drivers to communicate with sensors via I2C.
//   10  *
//   11  *  @{
//   12  *      @file       inv_mpu_dmp_motion_driver.c
//   13  *      @brief      DMP image and interface functions.
//   14  *      @details    All functions are preceded by the dmp_ prefix to
//   15  *                  differentiate among MPL and general driver function calls.
//   16  */
//   17 #include <stdio.h>
//   18 #include <stdlib.h>
//   19 #include <string.h>
//   20 #include <math.h>
//   21 #include "inv_mpu.h"
//   22 #include "inv_mpu_dmp_motion_driver.h"
//   23 #include "dmpKey.h"
//   24 #include "dmpmap.h"
//   25 #include "delay.h"
//   26 
//   27 //定义目标板采用MSP430
//   28 #define  MOTION_DRIVER_TARGET_MSP430
//   29 
//   30 /* The following functions must be defined for this platform:
//   31  * i2c_write(unsigned char slave_addr, unsigned char reg_addr,
//   32  *      unsigned char length, unsigned char const *data)
//   33  * i2c_read(unsigned char slave_addr, unsigned char reg_addr,
//   34  *      unsigned char length, unsigned char *data)
//   35  * delay_ms(unsigned long num_ms)
//   36  * get_ms(unsigned long *count)
//   37  */
//   38 #if defined MOTION_DRIVER_TARGET_MSP430
//   39 //#include "msp430.h"
//   40 //#include "msp430_clock.h"
//   41 #define delay_ms    delay_ms
//   42 #define get_ms      mget_ms
//   43 #define log_i 		printf
//   44 #define log_e  		printf
//   45 
//   46 #elif defined EMPL_TARGET_MSP430
//   47 #include "msp430.h"
//   48 #include "msp430_clock.h"
//   49 #include "log.h"
//   50 #define delay_ms    msp430_delay_ms
//   51 #define get_ms      msp430_get_clock_ms
//   52 #define log_i       MPL_LOGI
//   53 #define log_e       MPL_LOGE
//   54 
//   55 #elif defined EMPL_TARGET_UC3L0
//   56 /* Instead of using the standard TWI driver from the ASF library, we're using
//   57  * a TWI driver that follows the slave address + register address convention.
//   58  */
//   59 #include "delay.h"
//   60 #include "sysclk.h"
//   61 #include "log.h"
//   62 #include "uc3l0_clock.h"
//   63 /* delay_ms is a function already defined in ASF. */
//   64 #define get_ms  uc3l0_get_clock_ms
//   65 #define log_i       MPL_LOGI
//   66 #define log_e       MPL_LOGE
//   67 
//   68 #else
//   69 #error  Gyro driver is missing the system layer implementations.
//   70 #endif
//   71 
//   72 /* These defines are copied from dmpDefaultMPU6050.c in the general MPL
//   73  * releases. These defines may change for each DMP image, so be sure to modify
//   74  * these values when switching to a new image.
//   75  */
//   76 #define CFG_LP_QUAT             (2712)
//   77 #define END_ORIENT_TEMP         (1866)
//   78 #define CFG_27                  (2742)
//   79 #define CFG_20                  (2224)
//   80 #define CFG_23                  (2745)
//   81 #define CFG_FIFO_ON_EVENT       (2690)
//   82 #define END_PREDICTION_UPDATE   (1761)
//   83 #define CGNOTICE_INTR           (2620)
//   84 #define X_GRT_Y_TMP             (1358)
//   85 #define CFG_DR_INT              (1029)
//   86 #define CFG_AUTH                (1035)
//   87 #define UPDATE_PROP_ROT         (1835)
//   88 #define END_COMPARE_Y_X_TMP2    (1455)
//   89 #define SKIP_X_GRT_Y_TMP        (1359)
//   90 #define SKIP_END_COMPARE        (1435)
//   91 #define FCFG_3                  (1088)
//   92 #define FCFG_2                  (1066)
//   93 #define FCFG_1                  (1062)
//   94 #define END_COMPARE_Y_X_TMP3    (1434)
//   95 #define FCFG_7                  (1073)
//   96 #define FCFG_6                  (1106)
//   97 #define FLAT_STATE_END          (1713)
//   98 #define SWING_END_4             (1616)
//   99 #define SWING_END_2             (1565)
//  100 #define SWING_END_3             (1587)
//  101 #define SWING_END_1             (1550)
//  102 #define CFG_8                   (2718)
//  103 #define CFG_15                  (2727)
//  104 #define CFG_16                  (2746)
//  105 #define CFG_EXT_GYRO_BIAS       (1189)
//  106 #define END_COMPARE_Y_X_TMP     (1407)
//  107 #define DO_NOT_UPDATE_PROP_ROT  (1839)
//  108 #define CFG_7                   (1205)
//  109 #define FLAT_STATE_END_TEMP     (1683)
//  110 #define END_COMPARE_Y_X         (1484)
//  111 #define SKIP_SWING_END_1        (1551)
//  112 #define SKIP_SWING_END_3        (1588)
//  113 #define SKIP_SWING_END_2        (1566)
//  114 #define TILTG75_START           (1672)
//  115 #define CFG_6                   (2753)
//  116 #define TILTL75_END             (1669)
//  117 #define END_ORIENT              (1884)
//  118 #define CFG_FLICK_IN            (2573)
//  119 #define TILTL75_START           (1643)
//  120 #define CFG_MOTION_BIAS         (1208)
//  121 #define X_GRT_Y                 (1408)
//  122 #define TEMPLABEL               (2324)
//  123 #define CFG_ANDROID_ORIENT_INT  (1853)
//  124 #define CFG_GYRO_RAW_DATA       (2722)
//  125 #define X_GRT_Y_TMP2            (1379)
//  126 
//  127 #define D_0_22                  (22+512)
//  128 #define D_0_24                  (24+512)
//  129 
//  130 #define D_0_36                  (36)
//  131 #define D_0_52                  (52)
//  132 #define D_0_96                  (96)
//  133 #define D_0_104                 (104)
//  134 #define D_0_108                 (108)
//  135 #define D_0_163                 (163)
//  136 #define D_0_188                 (188)
//  137 #define D_0_192                 (192)
//  138 #define D_0_224                 (224)
//  139 #define D_0_228                 (228)
//  140 #define D_0_232                 (232)
//  141 #define D_0_236                 (236)
//  142 
//  143 #define D_1_2                   (256 + 2)
//  144 #define D_1_4                   (256 + 4)
//  145 #define D_1_8                   (256 + 8)
//  146 #define D_1_10                  (256 + 10)
//  147 #define D_1_24                  (256 + 24)
//  148 #define D_1_28                  (256 + 28)
//  149 #define D_1_36                  (256 + 36)
//  150 #define D_1_40                  (256 + 40)
//  151 #define D_1_44                  (256 + 44)
//  152 #define D_1_72                  (256 + 72)
//  153 #define D_1_74                  (256 + 74)
//  154 #define D_1_79                  (256 + 79)
//  155 #define D_1_88                  (256 + 88)
//  156 #define D_1_90                  (256 + 90)
//  157 #define D_1_92                  (256 + 92)
//  158 #define D_1_96                  (256 + 96)
//  159 #define D_1_98                  (256 + 98)
//  160 #define D_1_106                 (256 + 106)
//  161 #define D_1_108                 (256 + 108)
//  162 #define D_1_112                 (256 + 112)
//  163 #define D_1_128                 (256 + 144)
//  164 #define D_1_152                 (256 + 12)
//  165 #define D_1_160                 (256 + 160)
//  166 #define D_1_176                 (256 + 176)
//  167 #define D_1_178                 (256 + 178)
//  168 #define D_1_218                 (256 + 218)
//  169 #define D_1_232                 (256 + 232)
//  170 #define D_1_236                 (256 + 236)
//  171 #define D_1_240                 (256 + 240)
//  172 #define D_1_244                 (256 + 244)
//  173 #define D_1_250                 (256 + 250)
//  174 #define D_1_252                 (256 + 252)
//  175 #define D_2_12                  (512 + 12)
//  176 #define D_2_96                  (512 + 96)
//  177 #define D_2_108                 (512 + 108)
//  178 #define D_2_208                 (512 + 208)
//  179 #define D_2_224                 (512 + 224)
//  180 #define D_2_236                 (512 + 236)
//  181 #define D_2_244                 (512 + 244)
//  182 #define D_2_248                 (512 + 248)
//  183 #define D_2_252                 (512 + 252)
//  184 
//  185 #define CPASS_BIAS_X            (35 * 16 + 4)
//  186 #define CPASS_BIAS_Y            (35 * 16 + 8)
//  187 #define CPASS_BIAS_Z            (35 * 16 + 12)
//  188 #define CPASS_MTX_00            (36 * 16)
//  189 #define CPASS_MTX_01            (36 * 16 + 4)
//  190 #define CPASS_MTX_02            (36 * 16 + 8)
//  191 #define CPASS_MTX_10            (36 * 16 + 12)
//  192 #define CPASS_MTX_11            (37 * 16)
//  193 #define CPASS_MTX_12            (37 * 16 + 4)
//  194 #define CPASS_MTX_20            (37 * 16 + 8)
//  195 #define CPASS_MTX_21            (37 * 16 + 12)
//  196 #define CPASS_MTX_22            (43 * 16 + 12)
//  197 #define D_EXT_GYRO_BIAS_X       (61 * 16)
//  198 #define D_EXT_GYRO_BIAS_Y       (61 * 16) + 4
//  199 #define D_EXT_GYRO_BIAS_Z       (61 * 16) + 8
//  200 #define D_ACT0                  (40 * 16)
//  201 #define D_ACSX                  (40 * 16 + 4)
//  202 #define D_ACSY                  (40 * 16 + 8)
//  203 #define D_ACSZ                  (40 * 16 + 12)
//  204 
//  205 #define FLICK_MSG               (45 * 16 + 4)
//  206 #define FLICK_COUNTER           (45 * 16 + 8)
//  207 #define FLICK_LOWER             (45 * 16 + 12)
//  208 #define FLICK_UPPER             (46 * 16 + 12)
//  209 
//  210 #define D_AUTH_OUT              (992)
//  211 #define D_AUTH_IN               (996)
//  212 #define D_AUTH_A                (1000)
//  213 #define D_AUTH_B                (1004)
//  214 
//  215 #define D_PEDSTD_BP_B           (768 + 0x1C)
//  216 #define D_PEDSTD_HP_A           (768 + 0x78)
//  217 #define D_PEDSTD_HP_B           (768 + 0x7C)
//  218 #define D_PEDSTD_BP_A4          (768 + 0x40)
//  219 #define D_PEDSTD_BP_A3          (768 + 0x44)
//  220 #define D_PEDSTD_BP_A2          (768 + 0x48)
//  221 #define D_PEDSTD_BP_A1          (768 + 0x4C)
//  222 #define D_PEDSTD_INT_THRSH      (768 + 0x68)
//  223 #define D_PEDSTD_CLIP           (768 + 0x6C)
//  224 #define D_PEDSTD_SB             (768 + 0x28)
//  225 #define D_PEDSTD_SB_TIME        (768 + 0x2C)
//  226 #define D_PEDSTD_PEAKTHRSH      (768 + 0x98)
//  227 #define D_PEDSTD_TIML           (768 + 0x2A)
//  228 #define D_PEDSTD_TIMH           (768 + 0x2E)
//  229 #define D_PEDSTD_PEAK           (768 + 0X94)
//  230 #define D_PEDSTD_STEPCTR        (768 + 0x60)
//  231 #define D_PEDSTD_TIMECTR        (964)
//  232 #define D_PEDSTD_DECI           (768 + 0xA0)
//  233 
//  234 #define D_HOST_NO_MOT           (976)
//  235 #define D_ACCEL_BIAS            (660)
//  236 
//  237 #define D_ORIENT_GAP            (76)
//  238 
//  239 #define D_TILT0_H               (48)
//  240 #define D_TILT0_L               (50)
//  241 #define D_TILT1_H               (52)
//  242 #define D_TILT1_L               (54)
//  243 #define D_TILT2_H               (56)
//  244 #define D_TILT2_L               (58)
//  245 #define D_TILT3_H               (60)
//  246 #define D_TILT3_L               (62)
//  247 
//  248 #define DMP_CODE_SIZE           (3062)
//  249 

        RSEG XDATA_ROM_C:CONST:REORDER:NOROOT(0)
        DATA8
//  250 static const unsigned char dmp_memory[DMP_CODE_SIZE] = {
dmp_memory:
        DB 0
        DB 0
        DB 112
        DB 0
        DB 0
        DB 0
        DB 0
        DB 36
        DB 0
        DB 0
        DB 0
        DB 2
        DB 0
        DB 3
        DB 0
        DB 0
        DB 0
        DB 101
        DB 0
        DB 84
        DB 255
        DB 239
        DB 0
        DB 0
        DB 250
        DB 128
        DB 0
        DB 11
        DB 18
        DB 130
        DB 0
        DB 1
        DB 3
        DB 12
        DB 48
        DB 195
        DB 14
        DB 140
        DB 140
        DB 233
        DB 20
        DB 213
        DB 64
        DB 2
        DB 19
        DB 113
        DB 15
        DB 142
        DB 56
        DB 131
        DB 248
        DB 131
        DB 48
        DB 0
        DB 248
        DB 131
        DB 37
        DB 142
        DB 248
        DB 131
        DB 48
        DB 0
        DB 248
        DB 131
        DB 255
        DB 255
        DB 255
        DB 255
        DB 15
        DB 254
        DB 169
        DB 214
        DB 36
        DB 0
        DB 4
        DB 0
        DB 26
        DB 130
        DB 121
        DB 161
        DB 0
        DB 0
        DB 0
        DB 60
        DB 255
        DB 255
        DB 0
        DB 0
        DB 0
        DB 16
        DB 0
        DB 0
        DB 56
        DB 131
        DB 111
        DB 162
        DB 0
        DB 62
        DB 3
        DB 48
        DB 64
        DB 0
        DB 0
        DB 0
        DB 2
        DB 202
        DB 227
        DB 9
        DB 62
        DB 128
        DB 0
        DB 0
        DB 32
        DB 0
        DB 0
        DB 0
        DB 0
        DB 0
        DB 0
        DB 0
        DB 64
        DB 0
        DB 0
        DB 0
        DB 96
        DB 0
        DB 0
        DB 0
        DB 0
        DB 12
        DB 0
        DB 0
        DB 0
        DB 12
        DB 24
        DB 110
        DB 0
        DB 0
        DB 6
        DB 146
        DB 10
        DB 22
        DB 192
        DB 223
        DB 255
        DB 255
        DB 2
        DB 86
        DB 253
        DB 140
        DB 211
        DB 119
        DB 255
        DB 225
        DB 196
        DB 150
        DB 224
        DB 197
        DB 190
        DB 170
        DB 0
        DB 0
        DB 0
        DB 0
        DB 255
        DB 255
        DB 11
        DB 43
        DB 0
        DB 0
        DB 22
        DB 87
        DB 0
        DB 0
        DB 3
        DB 89
        DB 64
        DB 0
        DB 0
        DB 0
        DB 0
        DB 0
        DB 29
        DB 250
        DB 0
        DB 2
        DB 108
        DB 29
        DB 0
        DB 0
        DB 0
        DB 0
        DB 63
        DB 255
        DB 223
        DB 235
        DB 0
        DB 62
        DB 179
        DB 182
        DB 0
        DB 13
        DB 34
        DB 120
        DB 0
        DB 0
        DB 47
        DB 60
        DB 0
        DB 0
        DB 0
        DB 0
        DB 0
        DB 25
        DB 66
        DB 181
        DB 0
        DB 0
        DB 57
        DB 162
        DB 0
        DB 0
        DB 179
        DB 101
        DB 217
        DB 14
        DB 159
        DB 201
        DB 29
        DB 207
        DB 76
        DB 52
        DB 48
        DB 0
        DB 0
        DB 0
        DB 80
        DB 0
        DB 0
        DB 0
        DB 59
        DB 182
        DB 122
        DB 232
        DB 0
        DB 100
        DB 0
        DB 0
        DB 0
        DB 200
        DB 0
        DB 0
        DB 0
        DB 0
        DB 0
        DB 0
        DB 16
        DB 0
        DB 0
        DB 0
        DB 16
        DB 0
        DB 250
        DB 146
        DB 16
        DB 0
        DB 34
        DB 94
        DB 0
        DB 13
        DB 34
        DB 159
        DB 0
        DB 1
        DB 0
        DB 0
        DB 0
        DB 50
        DB 0
        DB 0
        DB 255
        DB 70
        DB 0
        DB 0
        DB 99
        DB 212
        DB 0
        DB 0
        DB 16
        DB 0
        DB 0
        DB 0
        DB 4
        DB 214
        DB 0
        DB 0
        DB 4
        DB 204
        DB 0
        DB 0
        DB 4
        DB 204
        DB 0
        DB 0
        DB 0
        DB 0
        DB 16
        DB 114
        DB 0
        DB 0
        DB 0
        DB 64
        DB 0
        DB 0
        DB 0
        DB 0
        DB 0
        DB 0
        DB 0
        DB 0
        DB 0
        DB 6
        DB 0
        DB 2
        DB 0
        DB 5
        DB 0
        DB 7
        DB 0
        DB 0
        DB 0
        DB 0
        DB 0
        DB 100
        DB 0
        DB 0
        DB 0
        DB 0
        DB 0
        DB 0
        DB 0
        DB 0
        DB 0
        DB 5
        DB 0
        DB 5
        DB 0
        DB 100
        DB 0
        DB 32
        DB 0
        DB 0
        DB 0
        DB 0
        DB 0
        DB 0
        DB 0
        DB 0
        DB 0
        DB 0
        DB 0
        DB 0
        DB 64
        DB 0
        DB 0
        DB 0
        DB 3
        DB 0
        DB 0
        DB 0
        DB 0
        DB 50
        DB 248
        DB 152
        DB 0
        DB 0
        DB 255
        DB 101
        DB 0
        DB 0
        DB 131
        DB 15
        DB 0
        DB 0
        DB 255
        DB 155
        DB 252
        DB 0
        DB 0
        DB 0
        DB 0
        DB 0
        DB 0
        DB 0
        DB 0
        DB 0
        DB 0
        DB 0
        DB 0
        DB 0
        DB 0
        DB 0
        DB 0
        DB 0
        DB 0
        DB 0
        DB 0
        DB 0
        DB 0
        DB 0
        DB 0
        DB 0
        DB 0
        DB 0
        DB 0
        DB 0
        DB 0
        DB 0
        DB 0
        DB 0
        DB 0
        DB 0
        DB 0
        DB 0
        DB 0
        DB 0
        DB 0
        DB 0
        DB 0
        DB 0
        DB 16
        DB 0
        DB 64
        DB 0
        DB 0
        DB 0
        DB 0
        DB 0
        DB 0
        DB 6
        DB 0
        DB 0
        DB 178
        DB 106
        DB 0
        DB 2
        DB 0
        DB 0
        DB 0
        DB 1
        DB 251
        DB 131
        DB 0
        DB 104
        DB 0
        DB 0
        DB 0
        DB 217
        DB 252
        DB 0
        DB 124
        DB 241
        DB 255
        DB 131
        DB 0
        DB 0
        DB 0
        DB 0
        DB 0
        DB 101
        DB 0
        DB 0
        DB 0
        DB 100
        DB 3
        DB 232
        DB 0
        DB 100
        DB 0
        DB 40
        DB 0
        DB 0
        DB 0
        DB 37
        DB 0
        DB 0
        DB 0
        DB 0
        DB 22
        DB 160
        DB 0
        DB 0
        DB 0
        DB 0
        DB 16
        DB 0
        DB 0
        DB 0
        DB 16
        DB 0
        DB 0
        DB 47
        DB 0
        DB 0
        DB 0
        DB 0
        DB 1
        DB 244
        DB 0
        DB 0
        DB 16
        DB 0
        DB 0
        DB 40
        DB 0
        DB 0
        DB 255
        DB 255
        DB 69
        DB 129
        DB 255
        DB 255
        DB 250
        DB 114
        DB 0
        DB 0
        DB 0
        DB 0
        DB 0
        DB 0
        DB 0
        DB 0
        DB 0
        DB 68
        DB 0
        DB 5
        DB 0
        DB 5
        DB 186
        DB 198
        DB 0
        DB 71
        DB 120
        DB 162
        DB 0
        DB 0
        DB 0
        DB 1
        DB 0
        DB 0
        DB 0
        DB 0
        DB 0
        DB 0
        DB 6
        DB 0
        DB 0
        DB 0
        DB 0
        DB 20
        DB 0
        DB 0
        DB 37
        DB 77
        DB 0
        DB 47
        DB 112
        DB 109
        DB 0
        DB 0
        DB 5
        DB 174
        DB 0
        DB 12
        DB 2
        DB 208
        DB 0
        DB 0
        DB 0
        DB 0
        DB 0
        DB 0
        DB 0
        DB 0
        DB 0
        DB 0
        DB 0
        DB 0
        DB 0
        DB 0
        DB 0
        DB 0
        DB 0
        DB 27
        DB 0
        DB 0
        DB 0
        DB 0
        DB 0
        DB 0
        DB 0
        DB 0
        DB 0
        DB 0
        DB 0
        DB 0
        DB 0
        DB 0
        DB 0
        DB 100
        DB 0
        DB 0
        DB 0
        DB 8
        DB 0
        DB 0
        DB 0
        DB 0
        DB 0
        DB 0
        DB 0
        DB 0
        DB 0
        DB 0
        DB 0
        DB 0
        DB 0
        DB 0
        DB 0
        DB 0
        DB 0
        DB 0
        DB 0
        DB 0
        DB 0
        DB 0
        DB 0
        DB 0
        DB 0
        DB 0
        DB 0
        DB 0
        DB 0
        DB 0
        DB 0
        DB 0
        DB 0
        DB 0
        DB 0
        DB 0
        DB 0
        DB 0
        DB 0
        DB 0
        DB 0
        DB 0
        DB 0
        DB 0
        DB 0
        DB 0
        DB 0
        DB 0
        DB 0
        DB 0
        DB 0
        DB 0
        DB 0
        DB 0
        DB 0
        DB 0
        DB 0
        DB 0
        DB 0
        DB 0
        DB 0
        DB 0
        DB 0
        DB 0
        DB 0
        DB 0
        DB 0
        DB 0
        DB 0
        DB 0
        DB 0
        DB 0
        DB 0
        DB 0
        DB 0
        DB 0
        DB 0
        DB 0
        DB 0
        DB 0
        DB 0
        DB 0
        DB 0
        DB 0
        DB 0
        DB 0
        DB 0
        DB 0
        DB 0
        DB 0
        DB 0
        DB 27
        DB 0
        DB 0
        DB 0
        DB 0
        DB 0
        DB 0
        DB 0
        DB 0
        DB 0
        DB 0
        DB 0
        DB 14
        DB 0
        DB 14
        DB 0
        DB 0
        DB 10
        DB 199
        DB 0
        DB 4
        DB 0
        DB 0
        DB 0
        DB 0
        DB 0
        DB 50
        DB 255
        DB 255
        DB 255
        DB 156
        DB 0
        DB 0
        DB 11
        DB 43
        DB 0
        DB 0
        DB 0
        DB 2
        DB 0
        DB 0
        DB 0
        DB 1
        DB 0
        DB 0
        DB 0
        DB 100
        DB 255
        DB 229
        DB 0
        DB 0
        DB 0
        DB 0
        DB 0
        DB 0
        DB 0
        DB 0
        DB 0
        DB 0
        DB 0
        DB 0
        DB 0
        DB 0
        DB 0
        DB 0
        DB 0
        DB 1
        DB 0
        DB 0
        DB 0
        DB 0
        DB 0
        DB 1
        DB 0
        DB 0
        DB 0
        DB 0
        DB 0
        DB 0
        DB 0
        DB 1
        DB 128
        DB 0
        DB 0
        DB 1
        DB 128
        DB 0
        DB 0
        DB 1
        DB 128
        DB 0
        DB 0
        DB 36
        DB 38
        DB 211
        DB 0
        DB 0
        DB 0
        DB 0
        DB 0
        DB 0
        DB 0
        DB 0
        DB 0
        DB 6
        DB 0
        DB 16
        DB 0
        DB 150
        DB 0
        DB 60
        DB 0
        DB 0
        DB 0
        DB 0
        DB 0
        DB 0
        DB 0
        DB 0
        DB 0
        DB 0
        DB 0
        DB 0
        DB 0
        DB 0
        DB 0
        DB 0
        DB 12
        DB 10
        DB 78
        DB 104
        DB 205
        DB 207
        DB 119
        DB 9
        DB 80
        DB 22
        DB 103
        DB 89
        DB 198
        DB 25
        DB 206
        DB 130
        DB 0
        DB 0
        DB 0
        DB 0
        DB 0
        DB 0
        DB 0
        DB 0
        DB 0
        DB 0
        DB 0
        DB 0
        DB 0
        DB 0
        DB 0
        DB 0
        DB 0
        DB 0
        DB 0
        DB 0
        DB 0
        DB 0
        DB 0
        DB 0
        DB 23
        DB 215
        DB 132
        DB 0
        DB 3
        DB 0
        DB 0
        DB 0
        DB 0
        DB 0
        DB 0
        DB 0
        DB 0
        DB 0
        DB 0
        DB 0
        DB 199
        DB 147
        DB 143
        DB 157
        DB 30
        DB 27
        DB 28
        DB 25
        DB 0
        DB 0
        DB 0
        DB 0
        DB 0
        DB 0
        DB 0
        DB 0
        DB 0
        DB 0
        DB 0
        DB 0
        DB 0
        DB 0
        DB 0
        DB 0
        DB 0
        DB 0
        DB 0
        DB 0
        DB 0
        DB 0
        DB 0
        DB 0
        DB 2
        DB 3
        DB 24
        DB 133
        DB 0
        DB 0
        DB 64
        DB 0
        DB 0
        DB 0
        DB 0
        DB 3
        DB 0
        DB 0
        DB 0
        DB 3
        DB 0
        DB 0
        DB 0
        DB 0
        DB 0
        DB 0
        DB 0
        DB 0
        DB 64
        DB 0
        DB 0
        DB 0
        DB 0
        DB 0
        DB 0
        DB 0
        DB 0
        DB 0
        DB 0
        DB 0
        DB 0
        DB 0
        DB 0
        DB 0
        DB 0
        DB 0
        DB 0
        DB 0
        DB 0
        DB 0
        DB 0
        DB 0
        DB 0
        DB 0
        DB 0
        DB 0
        DB 0
        DB 0
        DB 0
        DB 0
        DB 0
        DB 0
        DB 0
        DB 0
        DB 0
        DB 0
        DB 0
        DB 0
        DB 0
        DB 0
        DB 0
        DB 0
        DB 0
        DB 0
        DB 0
        DB 0
        DB 0
        DB 0
        DB 0
        DB 0
        DB 103
        DB 125
        DB 223
        DB 126
        DB 114
        DB 144
        DB 46
        DB 85
        DB 76
        DB 246
        DB 230
        DB 136
        DB 0
        DB 0
        DB 0
        DB 0
        DB 0
        DB 0
        DB 0
        DB 0
        DB 0
        DB 0
        DB 0
        DB 0
        DB 0
        DB 0
        DB 0
        DB 0
        DB 216
        DB 220
        DB 180
        DB 184
        DB 176
        DB 216
        DB 185
        DB 171
        DB 243
        DB 248
        DB 250
        DB 179
        DB 183
        DB 187
        DB 142
        DB 158
        DB 174
        DB 241
        DB 50
        DB 245
        DB 27
        DB 241
        DB 180
        DB 184
        DB 176
        DB 128
        DB 151
        DB 241
        DB 169
        DB 223
        DB 223
        DB 223
        DB 170
        DB 223
        DB 223
        DB 223
        DB 242
        DB 170
        DB 197
        DB 205
        DB 199
        DB 169
        DB 12
        DB 201
        DB 44
        DB 151
        DB 241
        DB 169
        DB 137
        DB 38
        DB 70
        DB 102
        DB 178
        DB 137
        DB 153
        DB 169
        DB 45
        DB 85
        DB 125
        DB 176
        DB 176
        DB 138
        DB 168
        DB 150
        DB 54
        DB 86
        DB 118
        DB 241
        DB 186
        DB 163
        DB 180
        DB 178
        DB 128
        DB 192
        DB 184
        DB 168
        DB 151
        DB 17
        DB 178
        DB 131
        DB 152
        DB 186
        DB 163
        DB 240
        DB 36
        DB 8
        DB 68
        DB 16
        DB 100
        DB 24
        DB 178
        DB 185
        DB 180
        DB 152
        DB 131
        DB 241
        DB 163
        DB 41
        DB 85
        DB 125
        DB 186
        DB 181
        DB 177
        DB 163
        DB 131
        DB 147
        DB 240
        DB 0
        DB 40
        DB 80
        DB 245
        DB 178
        DB 182
        DB 170
        DB 131
        DB 147
        DB 40
        DB 84
        DB 124
        DB 241
        DB 185
        DB 163
        DB 130
        DB 147
        DB 97
        DB 186
        DB 162
        DB 218
        DB 222
        DB 223
        DB 219
        DB 129
        DB 154
        DB 185
        DB 174
        DB 245
        DB 96
        DB 104
        DB 112
        DB 241
        DB 218
        DB 186
        DB 162
        DB 223
        DB 217
        DB 186
        DB 162
        DB 250
        DB 185
        DB 163
        DB 130
        DB 146
        DB 219
        DB 49
        DB 186
        DB 162
        DB 217
        DB 186
        DB 162
        DB 248
        DB 223
        DB 133
        DB 164
        DB 208
        DB 193
        DB 187
        DB 173
        DB 131
        DB 194
        DB 197
        DB 199
        DB 184
        DB 162
        DB 223
        DB 223
        DB 223
        DB 186
        DB 160
        DB 223
        DB 223
        DB 223
        DB 216
        DB 216
        DB 241
        DB 184
        DB 170
        DB 179
        DB 141
        DB 180
        DB 152
        DB 13
        DB 53
        DB 93
        DB 178
        DB 182
        DB 186
        DB 175
        DB 140
        DB 150
        DB 25
        DB 143
        DB 159
        DB 167
        DB 14
        DB 22
        DB 30
        DB 180
        DB 154
        DB 184
        DB 170
        DB 135
        DB 44
        DB 84
        DB 124
        DB 186
        DB 164
        DB 176
        DB 138
        DB 182
        DB 145
        DB 50
        DB 86
        DB 118
        DB 178
        DB 132
        DB 148
        DB 164
        DB 200
        DB 8
        DB 205
        DB 216
        DB 184
        DB 180
        DB 176
        DB 241
        DB 153
        DB 130
        DB 168
        DB 45
        DB 85
        DB 125
        DB 152
        DB 168
        DB 14
        DB 22
        DB 30
        DB 162
        DB 44
        DB 84
        DB 124
        DB 146
        DB 164
        DB 240
        DB 44
        DB 80
        DB 120
        DB 241
        DB 132
        DB 168
        DB 152
        DB 196
        DB 205
        DB 252
        DB 216
        DB 13
        DB 219
        DB 168
        DB 252
        DB 45
        DB 243
        DB 217
        DB 186
        DB 166
        DB 248
        DB 218
        DB 186
        DB 166
        DB 222
        DB 216
        DB 186
        DB 178
        DB 182
        DB 134
        DB 150
        DB 166
        DB 208
        DB 243
        DB 200
        DB 65
        DB 218
        DB 166
        DB 200
        DB 248
        DB 216
        DB 176
        DB 180
        DB 184
        DB 130
        DB 168
        DB 146
        DB 245
        DB 44
        DB 84
        DB 136
        DB 152
        DB 241
        DB 53
        DB 217
        DB 244
        DB 24
        DB 216
        DB 241
        DB 162
        DB 208
        DB 248
        DB 249
        DB 168
        DB 132
        DB 217
        DB 199
        DB 223
        DB 248
        DB 248
        DB 131
        DB 197
        DB 218
        DB 223
        DB 105
        DB 223
        DB 131
        DB 193
        DB 216
        DB 244
        DB 1
        DB 20
        DB 241
        DB 168
        DB 130
        DB 78
        DB 168
        DB 132
        DB 243
        DB 17
        DB 209
        DB 130
        DB 245
        DB 217
        DB 146
        DB 40
        DB 151
        DB 136
        DB 241
        DB 9
        DB 244
        DB 28
        DB 28
        DB 216
        DB 132
        DB 168
        DB 243
        DB 192
        DB 249
        DB 209
        DB 217
        DB 151
        DB 130
        DB 241
        DB 41
        DB 244
        DB 13
        DB 216
        DB 243
        DB 249
        DB 249
        DB 209
        DB 217
        DB 130
        DB 244
        DB 194
        DB 3
        DB 216
        DB 222
        DB 223
        DB 26
        DB 216
        DB 241
        DB 162
        DB 250
        DB 249
        DB 168
        DB 132
        DB 152
        DB 217
        DB 199
        DB 223
        DB 248
        DB 248
        DB 248
        DB 131
        DB 199
        DB 218
        DB 223
        DB 105
        DB 223
        DB 248
        DB 131
        DB 195
        DB 216
        DB 244
        DB 1
        DB 20
        DB 241
        DB 152
        DB 168
        DB 130
        DB 46
        DB 168
        DB 132
        DB 243
        DB 17
        DB 209
        DB 130
        DB 245
        DB 217
        DB 146
        DB 80
        DB 151
        DB 136
        DB 241
        DB 9
        DB 244
        DB 28
        DB 216
        DB 132
        DB 168
        DB 243
        DB 192
        DB 248
        DB 249
        DB 209
        DB 217
        DB 151
        DB 130
        DB 241
        DB 73
        DB 244
        DB 13
        DB 216
        DB 243
        DB 249
        DB 249
        DB 209
        DB 217
        DB 130
        DB 244
        DB 196
        DB 3
        DB 216
        DB 222
        DB 223
        DB 216
        DB 241
        DB 173
        DB 136
        DB 152
        DB 204
        DB 168
        DB 9
        DB 249
        DB 217
        DB 130
        DB 146
        DB 168
        DB 245
        DB 124
        DB 241
        DB 136
        DB 58
        DB 207
        DB 148
        DB 74
        DB 110
        DB 152
        DB 219
        DB 105
        DB 49
        DB 218
        DB 173
        DB 242
        DB 222
        DB 249
        DB 216
        DB 135
        DB 149
        DB 168
        DB 242
        DB 33
        DB 209
        DB 218
        DB 165
        DB 249
        DB 244
        DB 23
        DB 217
        DB 241
        DB 174
        DB 142
        DB 208
        DB 192
        DB 195
        DB 174
        DB 130
        DB 198
        DB 132
        DB 195
        DB 168
        DB 133
        DB 149
        DB 200
        DB 165
        DB 136
        DB 242
        DB 192
        DB 241
        DB 244
        DB 1
        DB 14
        DB 241
        DB 142
        DB 158
        DB 168
        DB 198
        DB 62
        DB 86
        DB 245
        DB 84
        DB 241
        DB 136
        DB 114
        DB 244
        DB 1
        DB 21
        DB 241
        DB 152
        DB 69
        DB 133
        DB 110
        DB 245
        DB 142
        DB 158
        DB 4
        DB 136
        DB 241
        DB 66
        DB 152
        DB 90
        DB 142
        DB 158
        DB 6
        DB 136
        DB 105
        DB 244
        DB 1
        DB 28
        DB 241
        DB 152
        DB 30
        DB 17
        DB 8
        DB 208
        DB 245
        DB 4
        DB 241
        DB 30
        DB 151
        DB 2
        DB 2
        DB 152
        DB 54
        DB 37
        DB 219
        DB 249
        DB 217
        DB 133
        DB 165
        DB 243
        DB 193
        DB 218
        DB 133
        DB 165
        DB 243
        DB 223
        DB 216
        DB 133
        DB 149
        DB 168
        DB 243
        DB 9
        DB 218
        DB 165
        DB 250
        DB 216
        DB 130
        DB 146
        DB 168
        DB 245
        DB 120
        DB 241
        DB 136
        DB 26
        DB 132
        DB 159
        DB 38
        DB 136
        DB 152
        DB 33
        DB 218
        DB 244
        DB 29
        DB 243
        DB 216
        DB 135
        DB 159
        DB 57
        DB 209
        DB 175
        DB 217
        DB 223
        DB 223
        DB 251
        DB 249
        DB 244
        DB 12
        DB 243
        DB 216
        DB 250
        DB 208
        DB 248
        DB 218
        DB 249
        DB 249
        DB 208
        DB 223
        DB 217
        DB 249
        DB 216
        DB 244
        DB 11
        DB 216
        DB 243
        DB 135
        DB 159
        DB 57
        DB 209
        DB 175
        DB 217
        DB 223
        DB 223
        DB 244
        DB 29
        DB 243
        DB 216
        DB 250
        DB 252
        DB 168
        DB 105
        DB 249
        DB 249
        DB 175
        DB 208
        DB 218
        DB 222
        DB 250
        DB 217
        DB 248
        DB 143
        DB 159
        DB 168
        DB 241
        DB 204
        DB 243
        DB 152
        DB 219
        DB 69
        DB 217
        DB 175
        DB 223
        DB 208
        DB 248
        DB 216
        DB 241
        DB 143
        DB 159
        DB 168
        DB 202
        DB 243
        DB 136
        DB 9
        DB 218
        DB 175
        DB 143
        DB 203
        DB 248
        DB 216
        DB 242
        DB 173
        DB 151
        DB 141
        DB 12
        DB 217
        DB 165
        DB 223
        DB 249
        DB 186
        DB 166
        DB 243
        DB 250
        DB 244
        DB 18
        DB 242
        DB 216
        DB 149
        DB 13
        DB 209
        DB 217
        DB 186
        DB 166
        DB 243
        DB 250
        DB 218
        DB 165
        DB 242
        DB 193
        DB 186
        DB 166
        DB 243
        DB 223
        DB 216
        DB 241
        DB 186
        DB 178
        DB 182
        DB 134
        DB 150
        DB 166
        DB 208
        DB 202
        DB 243
        DB 73
        DB 218
        DB 166
        DB 203
        DB 248
        DB 216
        DB 176
        DB 180
        DB 184
        DB 216
        DB 173
        DB 132
        DB 242
        DB 192
        DB 223
        DB 241
        DB 143
        DB 203
        DB 195
        DB 168
        DB 178
        DB 182
        DB 134
        DB 150
        DB 200
        DB 193
        DB 203
        DB 195
        DB 243
        DB 176
        DB 180
        DB 136
        DB 152
        DB 168
        DB 33
        DB 219
        DB 113
        DB 141
        DB 157
        DB 113
        DB 133
        DB 149
        DB 33
        DB 217
        DB 173
        DB 242
        DB 250
        DB 216
        DB 133
        DB 151
        DB 168
        DB 40
        DB 217
        DB 244
        DB 8
        DB 216
        DB 242
        DB 141
        DB 41
        DB 218
        DB 244
        DB 5
        DB 217
        DB 242
        DB 133
        DB 164
        DB 194
        DB 242
        DB 216
        DB 168
        DB 141
        DB 148
        DB 1
        DB 209
        DB 217
        DB 244
        DB 17
        DB 242
        DB 216
        DB 135
        DB 33
        DB 216
        DB 244
        DB 10
        DB 216
        DB 242
        DB 132
        DB 152
        DB 168
        DB 200
        DB 1
        DB 209
        DB 217
        DB 244
        DB 17
        DB 216
        DB 243
        DB 164
        DB 200
        DB 187
        DB 175
        DB 208
        DB 242
        DB 222
        DB 248
        DB 248
        DB 248
        DB 248
        DB 248
        DB 248
        DB 248
        DB 248
        DB 216
        DB 241
        DB 184
        DB 246
        DB 181
        DB 185
        DB 176
        DB 138
        DB 149
        DB 163
        DB 222
        DB 60
        DB 163
        DB 217
        DB 248
        DB 216
        DB 92
        DB 163
        DB 217
        DB 248
        DB 216
        DB 124
        DB 163
        DB 217
        DB 248
        DB 216
        DB 248
        DB 249
        DB 209
        DB 165
        DB 217
        DB 223
        DB 218
        DB 250
        DB 216
        DB 177
        DB 133
        DB 48
        DB 247
        DB 217
        DB 222
        DB 216
        DB 248
        DB 48
        DB 173
        DB 218
        DB 222
        DB 216
        DB 242
        DB 180
        DB 140
        DB 153
        DB 163
        DB 45
        DB 85
        DB 125
        DB 160
        DB 131
        DB 223
        DB 223
        DB 223
        DB 181
        DB 145
        DB 160
        DB 246
        DB 41
        DB 217
        DB 251
        DB 216
        DB 160
        DB 252
        DB 41
        DB 217
        DB 250
        DB 216
        DB 160
        DB 208
        DB 81
        DB 217
        DB 248
        DB 216
        DB 252
        DB 81
        DB 217
        DB 249
        DB 216
        DB 121
        DB 217
        DB 251
        DB 216
        DB 160
        DB 208
        DB 252
        DB 121
        DB 217
        DB 250
        DB 216
        DB 161
        DB 249
        DB 249
        DB 249
        DB 249
        DB 249
        DB 160
        DB 218
        DB 223
        DB 223
        DB 223
        DB 216
        DB 161
        DB 248
        DB 248
        DB 248
        DB 248
        DB 248
        DB 172
        DB 222
        DB 248
        DB 173
        DB 222
        DB 131
        DB 147
        DB 172
        DB 44
        DB 84
        DB 124
        DB 241
        DB 168
        DB 223
        DB 223
        DB 223
        DB 246
        DB 157
        DB 44
        DB 218
        DB 160
        DB 223
        DB 217
        DB 250
        DB 219
        DB 45
        DB 248
        DB 216
        DB 168
        DB 80
        DB 218
        DB 160
        DB 208
        DB 222
        DB 217
        DB 208
        DB 248
        DB 248
        DB 248
        DB 219
        DB 85
        DB 248
        DB 216
        DB 168
        DB 120
        DB 218
        DB 160
        DB 208
        DB 223
        DB 217
        DB 208
        DB 250
        DB 248
        DB 248
        DB 248
        DB 248
        DB 219
        DB 125
        DB 248
        DB 216
        DB 156
        DB 168
        DB 140
        DB 245
        DB 48
        DB 219
        DB 56
        DB 217
        DB 208
        DB 222
        DB 223
        DB 160
        DB 208
        DB 222
        DB 223
        DB 216
        DB 168
        DB 72
        DB 219
        DB 88
        DB 217
        DB 223
        DB 208
        DB 222
        DB 160
        DB 223
        DB 208
        DB 222
        DB 216
        DB 168
        DB 104
        DB 219
        DB 112
        DB 217
        DB 223
        DB 223
        DB 160
        DB 223
        DB 223
        DB 216
        DB 241
        DB 168
        DB 136
        DB 144
        DB 44
        DB 84
        DB 124
        DB 152
        DB 168
        DB 208
        DB 92
        DB 56
        DB 209
        DB 218
        DB 242
        DB 174
        DB 140
        DB 223
        DB 249
        DB 216
        DB 176
        DB 135
        DB 168
        DB 193
        DB 193
        DB 177
        DB 136
        DB 168
        DB 198
        DB 249
        DB 249
        DB 218
        DB 54
        DB 216
        DB 168
        DB 249
        DB 218
        DB 54
        DB 216
        DB 168
        DB 249
        DB 218
        DB 54
        DB 216
        DB 168
        DB 249
        DB 218
        DB 54
        DB 216
        DB 168
        DB 249
        DB 218
        DB 54
        DB 216
        DB 247
        DB 141
        DB 157
        DB 173
        DB 248
        DB 24
        DB 218
        DB 242
        DB 174
        DB 223
        DB 216
        DB 247
        DB 173
        DB 250
        DB 48
        DB 217
        DB 164
        DB 222
        DB 249
        DB 216
        DB 242
        DB 174
        DB 222
        DB 250
        DB 249
        DB 131
        DB 167
        DB 217
        DB 195
        DB 197
        DB 199
        DB 241
        DB 136
        DB 155
        DB 167
        DB 122
        DB 173
        DB 247
        DB 222
        DB 223
        DB 164
        DB 248
        DB 132
        DB 148
        DB 8
        DB 167
        DB 151
        DB 243
        DB 0
        DB 174
        DB 242
        DB 152
        DB 25
        DB 164
        DB 136
        DB 198
        DB 163
        DB 148
        DB 136
        DB 246
        DB 50
        DB 223
        DB 242
        DB 131
        DB 147
        DB 219
        DB 9
        DB 217
        DB 242
        DB 170
        DB 223
        DB 216
        DB 216
        DB 174
        DB 248
        DB 249
        DB 209
        DB 218
        DB 243
        DB 164
        DB 222
        DB 167
        DB 241
        DB 136
        DB 155
        DB 122
        DB 216
        DB 243
        DB 132
        DB 148
        DB 174
        DB 25
        DB 249
        DB 218
        DB 170
        DB 241
        DB 223
        DB 216
        DB 168
        DB 129
        DB 192
        DB 195
        DB 197
        DB 199
        DB 163
        DB 146
        DB 131
        DB 246
        DB 40
        DB 173
        DB 222
        DB 217
        DB 248
        DB 216
        DB 163
        DB 80
        DB 173
        DB 217
        DB 248
        DB 216
        DB 163
        DB 120
        DB 173
        DB 217
        DB 248
        DB 216
        DB 248
        DB 249
        DB 209
        DB 161
        DB 218
        DB 222
        DB 195
        DB 197
        DB 199
        DB 216
        DB 161
        DB 129
        DB 148
        DB 248
        DB 24
        DB 242
        DB 176
        DB 137
        DB 172
        DB 195
        DB 197
        DB 199
        DB 241
        DB 216
        DB 184
        DB 180
        DB 176
        DB 151
        DB 134
        DB 168
        DB 49
        DB 155
        DB 6
        DB 153
        DB 7
        DB 171
        DB 151
        DB 40
        DB 136
        DB 155
        DB 240
        DB 12
        DB 32
        DB 20
        DB 64
        DB 176
        DB 180
        DB 184
        DB 240
        DB 168
        DB 138
        DB 154
        DB 40
        DB 80
        DB 120
        DB 183
        DB 155
        DB 168
        DB 41
        DB 81
        DB 121
        DB 36
        DB 112
        DB 89
        DB 68
        DB 105
        DB 56
        DB 100
        DB 72
        DB 49
        DB 241
        DB 187
        DB 171
        DB 136
        DB 0
        DB 44
        DB 84
        DB 124
        DB 240
        DB 179
        DB 139
        DB 184
        DB 168
        DB 4
        DB 40
        DB 80
        DB 120
        DB 241
        DB 176
        DB 136
        DB 180
        DB 151
        DB 38
        DB 168
        DB 89
        DB 152
        DB 187
        DB 171
        DB 179
        DB 139
        DB 2
        DB 38
        DB 70
        DB 102
        DB 176
        DB 184
        DB 240
        DB 138
        DB 156
        DB 168
        DB 41
        DB 81
        DB 121
        DB 139
        DB 41
        DB 81
        DB 121
        DB 138
        DB 36
        DB 112
        DB 89
        DB 139
        DB 32
        DB 88
        DB 113
        DB 138
        DB 68
        DB 105
        DB 56
        DB 139
        DB 57
        DB 64
        DB 104
        DB 138
        DB 100
        DB 72
        DB 49
        DB 139
        DB 48
        DB 73
        DB 96
        DB 136
        DB 241
        DB 172
        DB 0
        DB 44
        DB 84
        DB 124
        DB 240
        DB 140
        DB 168
        DB 4
        DB 40
        DB 80
        DB 120
        DB 241
        DB 136
        DB 151
        DB 38
        DB 168
        DB 89
        DB 152
        DB 172
        DB 140
        DB 2
        DB 38
        DB 70
        DB 102
        DB 240
        DB 137
        DB 156
        DB 168
        DB 41
        DB 81
        DB 121
        DB 36
        DB 112
        DB 89
        DB 68
        DB 105
        DB 56
        DB 100
        DB 72
        DB 49
        DB 169
        DB 136
        DB 9
        DB 32
        DB 89
        DB 112
        DB 171
        DB 17
        DB 56
        DB 64
        DB 105
        DB 168
        DB 25
        DB 49
        DB 72
        DB 96
        DB 140
        DB 168
        DB 60
        DB 65
        DB 92
        DB 32
        DB 124
        DB 0
        DB 241
        DB 135
        DB 152
        DB 25
        DB 134
        DB 168
        DB 110
        DB 118
        DB 126
        DB 169
        DB 153
        DB 136
        DB 45
        DB 85
        DB 125
        DB 216
        DB 177
        DB 181
        DB 185
        DB 163
        DB 223
        DB 223
        DB 223
        DB 174
        DB 208
        DB 223
        DB 170
        DB 208
        DB 222
        DB 242
        DB 171
        DB 248
        DB 249
        DB 217
        DB 176
        DB 135
        DB 196
        DB 170
        DB 241
        DB 223
        DB 223
        DB 187
        DB 175
        DB 223
        DB 223
        DB 185
        DB 216
        DB 177
        DB 241
        DB 163
        DB 151
        DB 142
        DB 96
        DB 223
        DB 176
        DB 132
        DB 242
        DB 200
        DB 248
        DB 249
        DB 217
        DB 222
        DB 216
        DB 147
        DB 133
        DB 241
        DB 74
        DB 177
        DB 131
        DB 163
        DB 8
        DB 181
        DB 131
        DB 154
        DB 8
        DB 16
        DB 183
        DB 159
        DB 16
        DB 216
        DB 241
        DB 176
        DB 186
        DB 174
        DB 176
        DB 138
        DB 194
        DB 178
        DB 182
        DB 142
        DB 158
        DB 241
        DB 251
        DB 217
        DB 244
        DB 29
        DB 216
        DB 249
        DB 217
        DB 12
        DB 241
        DB 216
        DB 248
        DB 248
        DB 173
        DB 97
        DB 217
        DB 174
        DB 251
        DB 216
        DB 244
        DB 12
        DB 241
        DB 216
        DB 248
        DB 248
        DB 173
        DB 25
        DB 217
        DB 174
        DB 251
        DB 223
        DB 216
        DB 244
        DB 22
        DB 241
        DB 216
        DB 248
        DB 173
        DB 141
        DB 97
        DB 217
        DB 244
        DB 244
        DB 172
        DB 245
        DB 156
        DB 156
        DB 141
        DB 223
        DB 43
        DB 186
        DB 182
        DB 174
        DB 250
        DB 248
        DB 244
        DB 11
        DB 216
        DB 241
        DB 174
        DB 208
        DB 248
        DB 173
        DB 81
        DB 218
        DB 174
        DB 250
        DB 248
        DB 241
        DB 216
        DB 185
        DB 177
        DB 182
        DB 163
        DB 131
        DB 156
        DB 8
        DB 185
        DB 177
        DB 131
        DB 154
        DB 181
        DB 170
        DB 192
        DB 253
        DB 48
        DB 131
        DB 183
        DB 159
        DB 16
        DB 181
        DB 139
        DB 147
        DB 242
        DB 2
        DB 2
        DB 209
        DB 171
        DB 218
        DB 222
        DB 216
        DB 241
        DB 176
        DB 128
        DB 186
        DB 171
        DB 192
        DB 195
        DB 178
        DB 132
        DB 193
        DB 195
        DB 216
        DB 177
        DB 185
        DB 243
        DB 139
        DB 163
        DB 145
        DB 182
        DB 9
        DB 180
        DB 217
        DB 171
        DB 222
        DB 176
        DB 135
        DB 156
        DB 185
        DB 163
        DB 221
        DB 241
        DB 179
        DB 139
        DB 139
        DB 139
        DB 139
        DB 139
        DB 176
        DB 135
        DB 163
        DB 163
        DB 163
        DB 163
        DB 178
        DB 139
        DB 182
        DB 155
        DB 242
        DB 163
        DB 163
        DB 163
        DB 163
        DB 163
        DB 163
        DB 163
        DB 163
        DB 163
        DB 163
        DB 241
        DB 176
        DB 135
        DB 181
        DB 154
        DB 163
        DB 243
        DB 155
        DB 163
        DB 163
        DB 220
        DB 186
        DB 172
        DB 223
        DB 185
        DB 163
        DB 163
        DB 163
        DB 163
        DB 163
        DB 163
        DB 163
        DB 163
        DB 163
        DB 163
        DB 163
        DB 163
        DB 163
        DB 163
        DB 163
        DB 163
        DB 216
        DB 216
        DB 216
        DB 187
        DB 179
        DB 183
        DB 241
        DB 170
        DB 249
        DB 218
        DB 255
        DB 217
        DB 128
        DB 154
        DB 170
        DB 40
        DB 180
        DB 128
        DB 152
        DB 167
        DB 32
        DB 183
        DB 151
        DB 135
        DB 168
        DB 102
        DB 136
        DB 240
        DB 121
        DB 81
        DB 241
        DB 144
        DB 44
        DB 135
        DB 12
        DB 167
        DB 129
        DB 151
        DB 98
        DB 147
        DB 240
        DB 113
        DB 113
        DB 96
        DB 133
        DB 148
        DB 1
        DB 41
        DB 81
        DB 121
        DB 144
        DB 165
        DB 241
        DB 40
        DB 76
        DB 108
        DB 135
        DB 12
        DB 149
        DB 24
        DB 133
        DB 120
        DB 163
        DB 131
        DB 144
        DB 40
        DB 76
        DB 108
        DB 136
        DB 108
        DB 216
        DB 243
        DB 162
        DB 130
        DB 0
        DB 242
        DB 16
        DB 168
        DB 146
        DB 25
        DB 128
        DB 162
        DB 242
        DB 217
        DB 38
        DB 216
        DB 241
        DB 136
        DB 168
        DB 77
        DB 217
        DB 72
        DB 216
        DB 150
        DB 168
        DB 57
        DB 128
        DB 217
        DB 60
        DB 216
        DB 149
        DB 128
        DB 168
        DB 57
        DB 166
        DB 134
        DB 152
        DB 217
        DB 44
        DB 218
        DB 135
        DB 167
        DB 44
        DB 216
        DB 168
        DB 137
        DB 149
        DB 25
        DB 169
        DB 128
        DB 217
        DB 56
        DB 216
        DB 168
        DB 137
        DB 57
        DB 169
        DB 128
        DB 218
        DB 60
        DB 216
        DB 168
        DB 46
        DB 168
        DB 57
        DB 144
        DB 217
        DB 12
        DB 216
        DB 168
        DB 149
        DB 49
        DB 152
        DB 217
        DB 12
        DB 216
        DB 168
        DB 9
        DB 217
        DB 255
        DB 216
        DB 1
        DB 218
        DB 255
        DB 216
        DB 149
        DB 57
        DB 169
        DB 218
        DB 38
        DB 255
        DB 216
        DB 144
        DB 168
        DB 13
        DB 137
        DB 153
        DB 168
        DB 16
        DB 128
        DB 152
        DB 33
        DB 218
        DB 46
        DB 216
        DB 137
        DB 153
        DB 168
        DB 49
        DB 128
        DB 218
        DB 46
        DB 216
        DB 168
        DB 134
        DB 150
        DB 49
        DB 128
        DB 218
        DB 46
        DB 216
        DB 168
        DB 135
        DB 49
        DB 128
        DB 218
        DB 46
        DB 216
        DB 168
        DB 130
        DB 146
        DB 243
        DB 65
        DB 128
        DB 241
        DB 217
        DB 46
        DB 216
        DB 168
        DB 130
        DB 243
        DB 25
        DB 128
        DB 241
        DB 217
        DB 46
        DB 216
        DB 130
        DB 172
        DB 243
        DB 192
        DB 162
        DB 128
        DB 34
        DB 241
        DB 166
        DB 46
        DB 167
        DB 46
        DB 169
        DB 34
        DB 152
        DB 168
        DB 41
        DB 218
        DB 172
        DB 222
        DB 255
        DB 216
        DB 162
        DB 242
        DB 42
        DB 241
        DB 169
        DB 46
        DB 130
        DB 146
        DB 168
        DB 242
        DB 49
        DB 128
        DB 166
        DB 150
        DB 241
        DB 217
        DB 0
        DB 172
        DB 140
        DB 156
        DB 12
        DB 48
        DB 172
        DB 222
        DB 208
        DB 222
        DB 255
        DB 216
        DB 140
        DB 156
        DB 172
        DB 208
        DB 16
        DB 172
        DB 222
        DB 128
        DB 146
        DB 162
        DB 242
        DB 76
        DB 130
        DB 168
        DB 241
        DB 202
        DB 242
        DB 53
        DB 241
        DB 150
        DB 136
        DB 166
        DB 217
        DB 0
        DB 216
        DB 241
        DB 255
//  251     /* bank # 0 */
//  252     0x00, 0x00, 0x70, 0x00, 0x00, 0x00, 0x00, 0x24, 0x00, 0x00, 0x00, 0x02, 0x00, 0x03, 0x00, 0x00,
//  253     0x00, 0x65, 0x00, 0x54, 0xff, 0xef, 0x00, 0x00, 0xfa, 0x80, 0x00, 0x0b, 0x12, 0x82, 0x00, 0x01,
//  254     0x03, 0x0c, 0x30, 0xc3, 0x0e, 0x8c, 0x8c, 0xe9, 0x14, 0xd5, 0x40, 0x02, 0x13, 0x71, 0x0f, 0x8e,
//  255     0x38, 0x83, 0xf8, 0x83, 0x30, 0x00, 0xf8, 0x83, 0x25, 0x8e, 0xf8, 0x83, 0x30, 0x00, 0xf8, 0x83,
//  256     0xff, 0xff, 0xff, 0xff, 0x0f, 0xfe, 0xa9, 0xd6, 0x24, 0x00, 0x04, 0x00, 0x1a, 0x82, 0x79, 0xa1,
//  257     0x00, 0x00, 0x00, 0x3c, 0xff, 0xff, 0x00, 0x00, 0x00, 0x10, 0x00, 0x00, 0x38, 0x83, 0x6f, 0xa2,
//  258     0x00, 0x3e, 0x03, 0x30, 0x40, 0x00, 0x00, 0x00, 0x02, 0xca, 0xe3, 0x09, 0x3e, 0x80, 0x00, 0x00,
//  259     0x20, 0x00, 0x00, 0x00, 0x00, 0x00, 0x00, 0x00, 0x40, 0x00, 0x00, 0x00, 0x60, 0x00, 0x00, 0x00,
//  260     0x00, 0x0c, 0x00, 0x00, 0x00, 0x0c, 0x18, 0x6e, 0x00, 0x00, 0x06, 0x92, 0x0a, 0x16, 0xc0, 0xdf,
//  261     0xff, 0xff, 0x02, 0x56, 0xfd, 0x8c, 0xd3, 0x77, 0xff, 0xe1, 0xc4, 0x96, 0xe0, 0xc5, 0xbe, 0xaa,
//  262     0x00, 0x00, 0x00, 0x00, 0xff, 0xff, 0x0b, 0x2b, 0x00, 0x00, 0x16, 0x57, 0x00, 0x00, 0x03, 0x59,
//  263     0x40, 0x00, 0x00, 0x00, 0x00, 0x00, 0x1d, 0xfa, 0x00, 0x02, 0x6c, 0x1d, 0x00, 0x00, 0x00, 0x00,
//  264     0x3f, 0xff, 0xdf, 0xeb, 0x00, 0x3e, 0xb3, 0xb6, 0x00, 0x0d, 0x22, 0x78, 0x00, 0x00, 0x2f, 0x3c,
//  265     0x00, 0x00, 0x00, 0x00, 0x00, 0x19, 0x42, 0xb5, 0x00, 0x00, 0x39, 0xa2, 0x00, 0x00, 0xb3, 0x65,
//  266     0xd9, 0x0e, 0x9f, 0xc9, 0x1d, 0xcf, 0x4c, 0x34, 0x30, 0x00, 0x00, 0x00, 0x50, 0x00, 0x00, 0x00,
//  267     0x3b, 0xb6, 0x7a, 0xe8, 0x00, 0x64, 0x00, 0x00, 0x00, 0xc8, 0x00, 0x00, 0x00, 0x00, 0x00, 0x00,
//  268     /* bank # 1 */
//  269     0x10, 0x00, 0x00, 0x00, 0x10, 0x00, 0xfa, 0x92, 0x10, 0x00, 0x22, 0x5e, 0x00, 0x0d, 0x22, 0x9f,
//  270     0x00, 0x01, 0x00, 0x00, 0x00, 0x32, 0x00, 0x00, 0xff, 0x46, 0x00, 0x00, 0x63, 0xd4, 0x00, 0x00,
//  271     0x10, 0x00, 0x00, 0x00, 0x04, 0xd6, 0x00, 0x00, 0x04, 0xcc, 0x00, 0x00, 0x04, 0xcc, 0x00, 0x00,
//  272     0x00, 0x00, 0x10, 0x72, 0x00, 0x00, 0x00, 0x40, 0x00, 0x00, 0x00, 0x00, 0x00, 0x00, 0x00, 0x00,
//  273     0x00, 0x06, 0x00, 0x02, 0x00, 0x05, 0x00, 0x07, 0x00, 0x00, 0x00, 0x00, 0x00, 0x64, 0x00, 0x00,
//  274     0x00, 0x00, 0x00, 0x00, 0x00, 0x00, 0x00, 0x05, 0x00, 0x05, 0x00, 0x64, 0x00, 0x20, 0x00, 0x00,
//  275     0x00, 0x00, 0x00, 0x00, 0x00, 0x00, 0x00, 0x00, 0x00, 0x00, 0x40, 0x00, 0x00, 0x00, 0x03, 0x00,
//  276     0x00, 0x00, 0x00, 0x32, 0xf8, 0x98, 0x00, 0x00, 0xff, 0x65, 0x00, 0x00, 0x83, 0x0f, 0x00, 0x00,
//  277     0xff, 0x9b, 0xfc, 0x00, 0x00, 0x00, 0x00, 0x00, 0x00, 0x00, 0x00, 0x00, 0x00, 0x00, 0x00, 0x00,
//  278     0x00, 0x00, 0x00, 0x00, 0x00, 0x00, 0x00, 0x00, 0x00, 0x00, 0x00, 0x00, 0x00, 0x00, 0x00, 0x00,
//  279     0x00, 0x00, 0x00, 0x00, 0x00, 0x00, 0x00, 0x00, 0x00, 0x00, 0x00, 0x00, 0x00, 0x00, 0x10, 0x00,
//  280     0x40, 0x00, 0x00, 0x00, 0x00, 0x00, 0x00, 0x06, 0x00, 0x00, 0xb2, 0x6a, 0x00, 0x02, 0x00, 0x00,
//  281     0x00, 0x01, 0xfb, 0x83, 0x00, 0x68, 0x00, 0x00, 0x00, 0xd9, 0xfc, 0x00, 0x7c, 0xf1, 0xff, 0x83,
//  282     0x00, 0x00, 0x00, 0x00, 0x00, 0x65, 0x00, 0x00, 0x00, 0x64, 0x03, 0xe8, 0x00, 0x64, 0x00, 0x28,
//  283     0x00, 0x00, 0x00, 0x25, 0x00, 0x00, 0x00, 0x00, 0x16, 0xa0, 0x00, 0x00, 0x00, 0x00, 0x10, 0x00,
//  284     0x00, 0x00, 0x10, 0x00, 0x00, 0x2f, 0x00, 0x00, 0x00, 0x00, 0x01, 0xf4, 0x00, 0x00, 0x10, 0x00,
//  285     /* bank # 2 */
//  286     0x00, 0x28, 0x00, 0x00, 0xff, 0xff, 0x45, 0x81, 0xff, 0xff, 0xfa, 0x72, 0x00, 0x00, 0x00, 0x00,
//  287     0x00, 0x00, 0x00, 0x00, 0x00, 0x44, 0x00, 0x05, 0x00, 0x05, 0xba, 0xc6, 0x00, 0x47, 0x78, 0xa2,
//  288     0x00, 0x00, 0x00, 0x01, 0x00, 0x00, 0x00, 0x00, 0x00, 0x00, 0x06, 0x00, 0x00, 0x00, 0x00, 0x14,
//  289     0x00, 0x00, 0x25, 0x4d, 0x00, 0x2f, 0x70, 0x6d, 0x00, 0x00, 0x05, 0xae, 0x00, 0x0c, 0x02, 0xd0,
//  290     0x00, 0x00, 0x00, 0x00, 0x00, 0x00, 0x00, 0x00, 0x00, 0x00, 0x00, 0x00, 0x00, 0x00, 0x00, 0x00,
//  291     0x00, 0x1b, 0x00, 0x00, 0x00, 0x00, 0x00, 0x00, 0x00, 0x00, 0x00, 0x00, 0x00, 0x00, 0x00, 0x00,
//  292     0x00, 0x64, 0x00, 0x00, 0x00, 0x08, 0x00, 0x00, 0x00, 0x00, 0x00, 0x00, 0x00, 0x00, 0x00, 0x00,
//  293     0x00, 0x00, 0x00, 0x00, 0x00, 0x00, 0x00, 0x00, 0x00, 0x00, 0x00, 0x00, 0x00, 0x00, 0x00, 0x00,
//  294     0x00, 0x00, 0x00, 0x00, 0x00, 0x00, 0x00, 0x00, 0x00, 0x00, 0x00, 0x00, 0x00, 0x00, 0x00, 0x00,
//  295     0x00, 0x00, 0x00, 0x00, 0x00, 0x00, 0x00, 0x00, 0x00, 0x00, 0x00, 0x00, 0x00, 0x00, 0x00, 0x00,
//  296     0x00, 0x00, 0x00, 0x00, 0x00, 0x00, 0x00, 0x00, 0x00, 0x00, 0x00, 0x00, 0x00, 0x00, 0x00, 0x00,
//  297     0x00, 0x00, 0x00, 0x00, 0x00, 0x00, 0x00, 0x00, 0x00, 0x00, 0x00, 0x00, 0x00, 0x00, 0x00, 0x00,
//  298     0x00, 0x1b, 0x00, 0x00, 0x00, 0x00, 0x00, 0x00, 0x00, 0x00, 0x00, 0x00, 0x00, 0x0e, 0x00, 0x0e,
//  299     0x00, 0x00, 0x0a, 0xc7, 0x00, 0x04, 0x00, 0x00, 0x00, 0x00, 0x00, 0x32, 0xff, 0xff, 0xff, 0x9c,
//  300     0x00, 0x00, 0x0b, 0x2b, 0x00, 0x00, 0x00, 0x02, 0x00, 0x00, 0x00, 0x01, 0x00, 0x00, 0x00, 0x64,
//  301     0xff, 0xe5, 0x00, 0x00, 0x00, 0x00, 0x00, 0x00, 0x00, 0x00, 0x00, 0x00, 0x00, 0x00, 0x00, 0x00,
//  302     /* bank # 3 */
//  303     0x00, 0x00, 0x00, 0x01, 0x00, 0x00, 0x00, 0x00, 0x00, 0x01, 0x00, 0x00, 0x00, 0x00, 0x00, 0x00,
//  304     0x00, 0x01, 0x80, 0x00, 0x00, 0x01, 0x80, 0x00, 0x00, 0x01, 0x80, 0x00, 0x00, 0x24, 0x26, 0xd3,
//  305     0x00, 0x00, 0x00, 0x00, 0x00, 0x00, 0x00, 0x00, 0x00, 0x06, 0x00, 0x10, 0x00, 0x96, 0x00, 0x3c,
//  306     0x00, 0x00, 0x00, 0x00, 0x00, 0x00, 0x00, 0x00, 0x00, 0x00, 0x00, 0x00, 0x00, 0x00, 0x00, 0x00,
//  307     0x0c, 0x0a, 0x4e, 0x68, 0xcd, 0xcf, 0x77, 0x09, 0x50, 0x16, 0x67, 0x59, 0xc6, 0x19, 0xce, 0x82,
//  308     0x00, 0x00, 0x00, 0x00, 0x00, 0x00, 0x00, 0x00, 0x00, 0x00, 0x00, 0x00, 0x00, 0x00, 0x00, 0x00,
//  309     0x00, 0x00, 0x00, 0x00, 0x00, 0x00, 0x00, 0x00, 0x17, 0xd7, 0x84, 0x00, 0x03, 0x00, 0x00, 0x00,
//  310     0x00, 0x00, 0x00, 0x00, 0x00, 0x00, 0x00, 0x00, 0xc7, 0x93, 0x8f, 0x9d, 0x1e, 0x1b, 0x1c, 0x19,
//  311     0x00, 0x00, 0x00, 0x00, 0x00, 0x00, 0x00, 0x00, 0x00, 0x00, 0x00, 0x00, 0x00, 0x00, 0x00, 0x00,
//  312     0x00, 0x00, 0x00, 0x00, 0x00, 0x00, 0x00, 0x00, 0x02, 0x03, 0x18, 0x85, 0x00, 0x00, 0x40, 0x00,
//  313     0x00, 0x00, 0x00, 0x03, 0x00, 0x00, 0x00, 0x03, 0x00, 0x00, 0x00, 0x00, 0x00, 0x00, 0x00, 0x00,
//  314     0x40, 0x00, 0x00, 0x00, 0x00, 0x00, 0x00, 0x00, 0x00, 0x00, 0x00, 0x00, 0x00, 0x00, 0x00, 0x00,
//  315     0x00, 0x00, 0x00, 0x00, 0x00, 0x00, 0x00, 0x00, 0x00, 0x00, 0x00, 0x00, 0x00, 0x00, 0x00, 0x00,
//  316     0x00, 0x00, 0x00, 0x00, 0x00, 0x00, 0x00, 0x00, 0x00, 0x00, 0x00, 0x00, 0x00, 0x00, 0x00, 0x00,
//  317     0x00, 0x00, 0x00, 0x00, 0x67, 0x7d, 0xdf, 0x7e, 0x72, 0x90, 0x2e, 0x55, 0x4c, 0xf6, 0xe6, 0x88,
//  318     0x00, 0x00, 0x00, 0x00, 0x00, 0x00, 0x00, 0x00, 0x00, 0x00, 0x00, 0x00, 0x00, 0x00, 0x00, 0x00,
//  319 
//  320     /* bank # 4 */
//  321     0xd8, 0xdc, 0xb4, 0xb8, 0xb0, 0xd8, 0xb9, 0xab, 0xf3, 0xf8, 0xfa, 0xb3, 0xb7, 0xbb, 0x8e, 0x9e,
//  322     0xae, 0xf1, 0x32, 0xf5, 0x1b, 0xf1, 0xb4, 0xb8, 0xb0, 0x80, 0x97, 0xf1, 0xa9, 0xdf, 0xdf, 0xdf,
//  323     0xaa, 0xdf, 0xdf, 0xdf, 0xf2, 0xaa, 0xc5, 0xcd, 0xc7, 0xa9, 0x0c, 0xc9, 0x2c, 0x97, 0xf1, 0xa9,
//  324     0x89, 0x26, 0x46, 0x66, 0xb2, 0x89, 0x99, 0xa9, 0x2d, 0x55, 0x7d, 0xb0, 0xb0, 0x8a, 0xa8, 0x96,
//  325     0x36, 0x56, 0x76, 0xf1, 0xba, 0xa3, 0xb4, 0xb2, 0x80, 0xc0, 0xb8, 0xa8, 0x97, 0x11, 0xb2, 0x83,
//  326     0x98, 0xba, 0xa3, 0xf0, 0x24, 0x08, 0x44, 0x10, 0x64, 0x18, 0xb2, 0xb9, 0xb4, 0x98, 0x83, 0xf1,
//  327     0xa3, 0x29, 0x55, 0x7d, 0xba, 0xb5, 0xb1, 0xa3, 0x83, 0x93, 0xf0, 0x00, 0x28, 0x50, 0xf5, 0xb2,
//  328     0xb6, 0xaa, 0x83, 0x93, 0x28, 0x54, 0x7c, 0xf1, 0xb9, 0xa3, 0x82, 0x93, 0x61, 0xba, 0xa2, 0xda,
//  329     0xde, 0xdf, 0xdb, 0x81, 0x9a, 0xb9, 0xae, 0xf5, 0x60, 0x68, 0x70, 0xf1, 0xda, 0xba, 0xa2, 0xdf,
//  330     0xd9, 0xba, 0xa2, 0xfa, 0xb9, 0xa3, 0x82, 0x92, 0xdb, 0x31, 0xba, 0xa2, 0xd9, 0xba, 0xa2, 0xf8,
//  331     0xdf, 0x85, 0xa4, 0xd0, 0xc1, 0xbb, 0xad, 0x83, 0xc2, 0xc5, 0xc7, 0xb8, 0xa2, 0xdf, 0xdf, 0xdf,
//  332     0xba, 0xa0, 0xdf, 0xdf, 0xdf, 0xd8, 0xd8, 0xf1, 0xb8, 0xaa, 0xb3, 0x8d, 0xb4, 0x98, 0x0d, 0x35,
//  333     0x5d, 0xb2, 0xb6, 0xba, 0xaf, 0x8c, 0x96, 0x19, 0x8f, 0x9f, 0xa7, 0x0e, 0x16, 0x1e, 0xb4, 0x9a,
//  334     0xb8, 0xaa, 0x87, 0x2c, 0x54, 0x7c, 0xba, 0xa4, 0xb0, 0x8a, 0xb6, 0x91, 0x32, 0x56, 0x76, 0xb2,
//  335     0x84, 0x94, 0xa4, 0xc8, 0x08, 0xcd, 0xd8, 0xb8, 0xb4, 0xb0, 0xf1, 0x99, 0x82, 0xa8, 0x2d, 0x55,
//  336     0x7d, 0x98, 0xa8, 0x0e, 0x16, 0x1e, 0xa2, 0x2c, 0x54, 0x7c, 0x92, 0xa4, 0xf0, 0x2c, 0x50, 0x78,
//  337     /* bank # 5 */
//  338     0xf1, 0x84, 0xa8, 0x98, 0xc4, 0xcd, 0xfc, 0xd8, 0x0d, 0xdb, 0xa8, 0xfc, 0x2d, 0xf3, 0xd9, 0xba,
//  339     0xa6, 0xf8, 0xda, 0xba, 0xa6, 0xde, 0xd8, 0xba, 0xb2, 0xb6, 0x86, 0x96, 0xa6, 0xd0, 0xf3, 0xc8,
//  340     0x41, 0xda, 0xa6, 0xc8, 0xf8, 0xd8, 0xb0, 0xb4, 0xb8, 0x82, 0xa8, 0x92, 0xf5, 0x2c, 0x54, 0x88,
//  341     0x98, 0xf1, 0x35, 0xd9, 0xf4, 0x18, 0xd8, 0xf1, 0xa2, 0xd0, 0xf8, 0xf9, 0xa8, 0x84, 0xd9, 0xc7,
//  342     0xdf, 0xf8, 0xf8, 0x83, 0xc5, 0xda, 0xdf, 0x69, 0xdf, 0x83, 0xc1, 0xd8, 0xf4, 0x01, 0x14, 0xf1,
//  343     0xa8, 0x82, 0x4e, 0xa8, 0x84, 0xf3, 0x11, 0xd1, 0x82, 0xf5, 0xd9, 0x92, 0x28, 0x97, 0x88, 0xf1,
//  344     0x09, 0xf4, 0x1c, 0x1c, 0xd8, 0x84, 0xa8, 0xf3, 0xc0, 0xf9, 0xd1, 0xd9, 0x97, 0x82, 0xf1, 0x29,
//  345     0xf4, 0x0d, 0xd8, 0xf3, 0xf9, 0xf9, 0xd1, 0xd9, 0x82, 0xf4, 0xc2, 0x03, 0xd8, 0xde, 0xdf, 0x1a,
//  346     0xd8, 0xf1, 0xa2, 0xfa, 0xf9, 0xa8, 0x84, 0x98, 0xd9, 0xc7, 0xdf, 0xf8, 0xf8, 0xf8, 0x83, 0xc7,
//  347     0xda, 0xdf, 0x69, 0xdf, 0xf8, 0x83, 0xc3, 0xd8, 0xf4, 0x01, 0x14, 0xf1, 0x98, 0xa8, 0x82, 0x2e,
//  348     0xa8, 0x84, 0xf3, 0x11, 0xd1, 0x82, 0xf5, 0xd9, 0x92, 0x50, 0x97, 0x88, 0xf1, 0x09, 0xf4, 0x1c,
//  349     0xd8, 0x84, 0xa8, 0xf3, 0xc0, 0xf8, 0xf9, 0xd1, 0xd9, 0x97, 0x82, 0xf1, 0x49, 0xf4, 0x0d, 0xd8,
//  350     0xf3, 0xf9, 0xf9, 0xd1, 0xd9, 0x82, 0xf4, 0xc4, 0x03, 0xd8, 0xde, 0xdf, 0xd8, 0xf1, 0xad, 0x88,
//  351     0x98, 0xcc, 0xa8, 0x09, 0xf9, 0xd9, 0x82, 0x92, 0xa8, 0xf5, 0x7c, 0xf1, 0x88, 0x3a, 0xcf, 0x94,
//  352     0x4a, 0x6e, 0x98, 0xdb, 0x69, 0x31, 0xda, 0xad, 0xf2, 0xde, 0xf9, 0xd8, 0x87, 0x95, 0xa8, 0xf2,
//  353     0x21, 0xd1, 0xda, 0xa5, 0xf9, 0xf4, 0x17, 0xd9, 0xf1, 0xae, 0x8e, 0xd0, 0xc0, 0xc3, 0xae, 0x82,
//  354     /* bank # 6 */
//  355     0xc6, 0x84, 0xc3, 0xa8, 0x85, 0x95, 0xc8, 0xa5, 0x88, 0xf2, 0xc0, 0xf1, 0xf4, 0x01, 0x0e, 0xf1,
//  356     0x8e, 0x9e, 0xa8, 0xc6, 0x3e, 0x56, 0xf5, 0x54, 0xf1, 0x88, 0x72, 0xf4, 0x01, 0x15, 0xf1, 0x98,
//  357     0x45, 0x85, 0x6e, 0xf5, 0x8e, 0x9e, 0x04, 0x88, 0xf1, 0x42, 0x98, 0x5a, 0x8e, 0x9e, 0x06, 0x88,
//  358     0x69, 0xf4, 0x01, 0x1c, 0xf1, 0x98, 0x1e, 0x11, 0x08, 0xd0, 0xf5, 0x04, 0xf1, 0x1e, 0x97, 0x02,
//  359     0x02, 0x98, 0x36, 0x25, 0xdb, 0xf9, 0xd9, 0x85, 0xa5, 0xf3, 0xc1, 0xda, 0x85, 0xa5, 0xf3, 0xdf,
//  360     0xd8, 0x85, 0x95, 0xa8, 0xf3, 0x09, 0xda, 0xa5, 0xfa, 0xd8, 0x82, 0x92, 0xa8, 0xf5, 0x78, 0xf1,
//  361     0x88, 0x1a, 0x84, 0x9f, 0x26, 0x88, 0x98, 0x21, 0xda, 0xf4, 0x1d, 0xf3, 0xd8, 0x87, 0x9f, 0x39,
//  362     0xd1, 0xaf, 0xd9, 0xdf, 0xdf, 0xfb, 0xf9, 0xf4, 0x0c, 0xf3, 0xd8, 0xfa, 0xd0, 0xf8, 0xda, 0xf9,
//  363     0xf9, 0xd0, 0xdf, 0xd9, 0xf9, 0xd8, 0xf4, 0x0b, 0xd8, 0xf3, 0x87, 0x9f, 0x39, 0xd1, 0xaf, 0xd9,
//  364     0xdf, 0xdf, 0xf4, 0x1d, 0xf3, 0xd8, 0xfa, 0xfc, 0xa8, 0x69, 0xf9, 0xf9, 0xaf, 0xd0, 0xda, 0xde,
//  365     0xfa, 0xd9, 0xf8, 0x8f, 0x9f, 0xa8, 0xf1, 0xcc, 0xf3, 0x98, 0xdb, 0x45, 0xd9, 0xaf, 0xdf, 0xd0,
//  366     0xf8, 0xd8, 0xf1, 0x8f, 0x9f, 0xa8, 0xca, 0xf3, 0x88, 0x09, 0xda, 0xaf, 0x8f, 0xcb, 0xf8, 0xd8,
//  367     0xf2, 0xad, 0x97, 0x8d, 0x0c, 0xd9, 0xa5, 0xdf, 0xf9, 0xba, 0xa6, 0xf3, 0xfa, 0xf4, 0x12, 0xf2,
//  368     0xd8, 0x95, 0x0d, 0xd1, 0xd9, 0xba, 0xa6, 0xf3, 0xfa, 0xda, 0xa5, 0xf2, 0xc1, 0xba, 0xa6, 0xf3,
//  369     0xdf, 0xd8, 0xf1, 0xba, 0xb2, 0xb6, 0x86, 0x96, 0xa6, 0xd0, 0xca, 0xf3, 0x49, 0xda, 0xa6, 0xcb,
//  370     0xf8, 0xd8, 0xb0, 0xb4, 0xb8, 0xd8, 0xad, 0x84, 0xf2, 0xc0, 0xdf, 0xf1, 0x8f, 0xcb, 0xc3, 0xa8,
//  371     /* bank # 7 */
//  372     0xb2, 0xb6, 0x86, 0x96, 0xc8, 0xc1, 0xcb, 0xc3, 0xf3, 0xb0, 0xb4, 0x88, 0x98, 0xa8, 0x21, 0xdb,
//  373     0x71, 0x8d, 0x9d, 0x71, 0x85, 0x95, 0x21, 0xd9, 0xad, 0xf2, 0xfa, 0xd8, 0x85, 0x97, 0xa8, 0x28,
//  374     0xd9, 0xf4, 0x08, 0xd8, 0xf2, 0x8d, 0x29, 0xda, 0xf4, 0x05, 0xd9, 0xf2, 0x85, 0xa4, 0xc2, 0xf2,
//  375     0xd8, 0xa8, 0x8d, 0x94, 0x01, 0xd1, 0xd9, 0xf4, 0x11, 0xf2, 0xd8, 0x87, 0x21, 0xd8, 0xf4, 0x0a,
//  376     0xd8, 0xf2, 0x84, 0x98, 0xa8, 0xc8, 0x01, 0xd1, 0xd9, 0xf4, 0x11, 0xd8, 0xf3, 0xa4, 0xc8, 0xbb,
//  377     0xaf, 0xd0, 0xf2, 0xde, 0xf8, 0xf8, 0xf8, 0xf8, 0xf8, 0xf8, 0xf8, 0xf8, 0xd8, 0xf1, 0xb8, 0xf6,
//  378     0xb5, 0xb9, 0xb0, 0x8a, 0x95, 0xa3, 0xde, 0x3c, 0xa3, 0xd9, 0xf8, 0xd8, 0x5c, 0xa3, 0xd9, 0xf8,
//  379     0xd8, 0x7c, 0xa3, 0xd9, 0xf8, 0xd8, 0xf8, 0xf9, 0xd1, 0xa5, 0xd9, 0xdf, 0xda, 0xfa, 0xd8, 0xb1,
//  380     0x85, 0x30, 0xf7, 0xd9, 0xde, 0xd8, 0xf8, 0x30, 0xad, 0xda, 0xde, 0xd8, 0xf2, 0xb4, 0x8c, 0x99,
//  381     0xa3, 0x2d, 0x55, 0x7d, 0xa0, 0x83, 0xdf, 0xdf, 0xdf, 0xb5, 0x91, 0xa0, 0xf6, 0x29, 0xd9, 0xfb,
//  382     0xd8, 0xa0, 0xfc, 0x29, 0xd9, 0xfa, 0xd8, 0xa0, 0xd0, 0x51, 0xd9, 0xf8, 0xd8, 0xfc, 0x51, 0xd9,
//  383     0xf9, 0xd8, 0x79, 0xd9, 0xfb, 0xd8, 0xa0, 0xd0, 0xfc, 0x79, 0xd9, 0xfa, 0xd8, 0xa1, 0xf9, 0xf9,
//  384     0xf9, 0xf9, 0xf9, 0xa0, 0xda, 0xdf, 0xdf, 0xdf, 0xd8, 0xa1, 0xf8, 0xf8, 0xf8, 0xf8, 0xf8, 0xac,
//  385     0xde, 0xf8, 0xad, 0xde, 0x83, 0x93, 0xac, 0x2c, 0x54, 0x7c, 0xf1, 0xa8, 0xdf, 0xdf, 0xdf, 0xf6,
//  386     0x9d, 0x2c, 0xda, 0xa0, 0xdf, 0xd9, 0xfa, 0xdb, 0x2d, 0xf8, 0xd8, 0xa8, 0x50, 0xda, 0xa0, 0xd0,
//  387     0xde, 0xd9, 0xd0, 0xf8, 0xf8, 0xf8, 0xdb, 0x55, 0xf8, 0xd8, 0xa8, 0x78, 0xda, 0xa0, 0xd0, 0xdf,
//  388     /* bank # 8 */
//  389     0xd9, 0xd0, 0xfa, 0xf8, 0xf8, 0xf8, 0xf8, 0xdb, 0x7d, 0xf8, 0xd8, 0x9c, 0xa8, 0x8c, 0xf5, 0x30,
//  390     0xdb, 0x38, 0xd9, 0xd0, 0xde, 0xdf, 0xa0, 0xd0, 0xde, 0xdf, 0xd8, 0xa8, 0x48, 0xdb, 0x58, 0xd9,
//  391     0xdf, 0xd0, 0xde, 0xa0, 0xdf, 0xd0, 0xde, 0xd8, 0xa8, 0x68, 0xdb, 0x70, 0xd9, 0xdf, 0xdf, 0xa0,
//  392     0xdf, 0xdf, 0xd8, 0xf1, 0xa8, 0x88, 0x90, 0x2c, 0x54, 0x7c, 0x98, 0xa8, 0xd0, 0x5c, 0x38, 0xd1,
//  393     0xda, 0xf2, 0xae, 0x8c, 0xdf, 0xf9, 0xd8, 0xb0, 0x87, 0xa8, 0xc1, 0xc1, 0xb1, 0x88, 0xa8, 0xc6,
//  394     0xf9, 0xf9, 0xda, 0x36, 0xd8, 0xa8, 0xf9, 0xda, 0x36, 0xd8, 0xa8, 0xf9, 0xda, 0x36, 0xd8, 0xa8,
//  395     0xf9, 0xda, 0x36, 0xd8, 0xa8, 0xf9, 0xda, 0x36, 0xd8, 0xf7, 0x8d, 0x9d, 0xad, 0xf8, 0x18, 0xda,
//  396     0xf2, 0xae, 0xdf, 0xd8, 0xf7, 0xad, 0xfa, 0x30, 0xd9, 0xa4, 0xde, 0xf9, 0xd8, 0xf2, 0xae, 0xde,
//  397     0xfa, 0xf9, 0x83, 0xa7, 0xd9, 0xc3, 0xc5, 0xc7, 0xf1, 0x88, 0x9b, 0xa7, 0x7a, 0xad, 0xf7, 0xde,
//  398     0xdf, 0xa4, 0xf8, 0x84, 0x94, 0x08, 0xa7, 0x97, 0xf3, 0x00, 0xae, 0xf2, 0x98, 0x19, 0xa4, 0x88,
//  399     0xc6, 0xa3, 0x94, 0x88, 0xf6, 0x32, 0xdf, 0xf2, 0x83, 0x93, 0xdb, 0x09, 0xd9, 0xf2, 0xaa, 0xdf,
//  400     0xd8, 0xd8, 0xae, 0xf8, 0xf9, 0xd1, 0xda, 0xf3, 0xa4, 0xde, 0xa7, 0xf1, 0x88, 0x9b, 0x7a, 0xd8,
//  401     0xf3, 0x84, 0x94, 0xae, 0x19, 0xf9, 0xda, 0xaa, 0xf1, 0xdf, 0xd8, 0xa8, 0x81, 0xc0, 0xc3, 0xc5,
//  402     0xc7, 0xa3, 0x92, 0x83, 0xf6, 0x28, 0xad, 0xde, 0xd9, 0xf8, 0xd8, 0xa3, 0x50, 0xad, 0xd9, 0xf8,
//  403     0xd8, 0xa3, 0x78, 0xad, 0xd9, 0xf8, 0xd8, 0xf8, 0xf9, 0xd1, 0xa1, 0xda, 0xde, 0xc3, 0xc5, 0xc7,
//  404     0xd8, 0xa1, 0x81, 0x94, 0xf8, 0x18, 0xf2, 0xb0, 0x89, 0xac, 0xc3, 0xc5, 0xc7, 0xf1, 0xd8, 0xb8,
//  405     /* bank # 9 */
//  406     0xb4, 0xb0, 0x97, 0x86, 0xa8, 0x31, 0x9b, 0x06, 0x99, 0x07, 0xab, 0x97, 0x28, 0x88, 0x9b, 0xf0,
//  407     0x0c, 0x20, 0x14, 0x40, 0xb0, 0xb4, 0xb8, 0xf0, 0xa8, 0x8a, 0x9a, 0x28, 0x50, 0x78, 0xb7, 0x9b,
//  408     0xa8, 0x29, 0x51, 0x79, 0x24, 0x70, 0x59, 0x44, 0x69, 0x38, 0x64, 0x48, 0x31, 0xf1, 0xbb, 0xab,
//  409     0x88, 0x00, 0x2c, 0x54, 0x7c, 0xf0, 0xb3, 0x8b, 0xb8, 0xa8, 0x04, 0x28, 0x50, 0x78, 0xf1, 0xb0,
//  410     0x88, 0xb4, 0x97, 0x26, 0xa8, 0x59, 0x98, 0xbb, 0xab, 0xb3, 0x8b, 0x02, 0x26, 0x46, 0x66, 0xb0,
//  411     0xb8, 0xf0, 0x8a, 0x9c, 0xa8, 0x29, 0x51, 0x79, 0x8b, 0x29, 0x51, 0x79, 0x8a, 0x24, 0x70, 0x59,
//  412     0x8b, 0x20, 0x58, 0x71, 0x8a, 0x44, 0x69, 0x38, 0x8b, 0x39, 0x40, 0x68, 0x8a, 0x64, 0x48, 0x31,
//  413     0x8b, 0x30, 0x49, 0x60, 0x88, 0xf1, 0xac, 0x00, 0x2c, 0x54, 0x7c, 0xf0, 0x8c, 0xa8, 0x04, 0x28,
//  414     0x50, 0x78, 0xf1, 0x88, 0x97, 0x26, 0xa8, 0x59, 0x98, 0xac, 0x8c, 0x02, 0x26, 0x46, 0x66, 0xf0,
//  415     0x89, 0x9c, 0xa8, 0x29, 0x51, 0x79, 0x24, 0x70, 0x59, 0x44, 0x69, 0x38, 0x64, 0x48, 0x31, 0xa9,
//  416     0x88, 0x09, 0x20, 0x59, 0x70, 0xab, 0x11, 0x38, 0x40, 0x69, 0xa8, 0x19, 0x31, 0x48, 0x60, 0x8c,
//  417     0xa8, 0x3c, 0x41, 0x5c, 0x20, 0x7c, 0x00, 0xf1, 0x87, 0x98, 0x19, 0x86, 0xa8, 0x6e, 0x76, 0x7e,
//  418     0xa9, 0x99, 0x88, 0x2d, 0x55, 0x7d, 0xd8, 0xb1, 0xb5, 0xb9, 0xa3, 0xdf, 0xdf, 0xdf, 0xae, 0xd0,
//  419     0xdf, 0xaa, 0xd0, 0xde, 0xf2, 0xab, 0xf8, 0xf9, 0xd9, 0xb0, 0x87, 0xc4, 0xaa, 0xf1, 0xdf, 0xdf,
//  420     0xbb, 0xaf, 0xdf, 0xdf, 0xb9, 0xd8, 0xb1, 0xf1, 0xa3, 0x97, 0x8e, 0x60, 0xdf, 0xb0, 0x84, 0xf2,
//  421     0xc8, 0xf8, 0xf9, 0xd9, 0xde, 0xd8, 0x93, 0x85, 0xf1, 0x4a, 0xb1, 0x83, 0xa3, 0x08, 0xb5, 0x83,
//  422     /* bank # 10 */
//  423     0x9a, 0x08, 0x10, 0xb7, 0x9f, 0x10, 0xd8, 0xf1, 0xb0, 0xba, 0xae, 0xb0, 0x8a, 0xc2, 0xb2, 0xb6,
//  424     0x8e, 0x9e, 0xf1, 0xfb, 0xd9, 0xf4, 0x1d, 0xd8, 0xf9, 0xd9, 0x0c, 0xf1, 0xd8, 0xf8, 0xf8, 0xad,
//  425     0x61, 0xd9, 0xae, 0xfb, 0xd8, 0xf4, 0x0c, 0xf1, 0xd8, 0xf8, 0xf8, 0xad, 0x19, 0xd9, 0xae, 0xfb,
//  426     0xdf, 0xd8, 0xf4, 0x16, 0xf1, 0xd8, 0xf8, 0xad, 0x8d, 0x61, 0xd9, 0xf4, 0xf4, 0xac, 0xf5, 0x9c,
//  427     0x9c, 0x8d, 0xdf, 0x2b, 0xba, 0xb6, 0xae, 0xfa, 0xf8, 0xf4, 0x0b, 0xd8, 0xf1, 0xae, 0xd0, 0xf8,
//  428     0xad, 0x51, 0xda, 0xae, 0xfa, 0xf8, 0xf1, 0xd8, 0xb9, 0xb1, 0xb6, 0xa3, 0x83, 0x9c, 0x08, 0xb9,
//  429     0xb1, 0x83, 0x9a, 0xb5, 0xaa, 0xc0, 0xfd, 0x30, 0x83, 0xb7, 0x9f, 0x10, 0xb5, 0x8b, 0x93, 0xf2,
//  430     0x02, 0x02, 0xd1, 0xab, 0xda, 0xde, 0xd8, 0xf1, 0xb0, 0x80, 0xba, 0xab, 0xc0, 0xc3, 0xb2, 0x84,
//  431     0xc1, 0xc3, 0xd8, 0xb1, 0xb9, 0xf3, 0x8b, 0xa3, 0x91, 0xb6, 0x09, 0xb4, 0xd9, 0xab, 0xde, 0xb0,
//  432     0x87, 0x9c, 0xb9, 0xa3, 0xdd, 0xf1, 0xb3, 0x8b, 0x8b, 0x8b, 0x8b, 0x8b, 0xb0, 0x87, 0xa3, 0xa3,
//  433     0xa3, 0xa3, 0xb2, 0x8b, 0xb6, 0x9b, 0xf2, 0xa3, 0xa3, 0xa3, 0xa3, 0xa3, 0xa3, 0xa3, 0xa3, 0xa3,
//  434     0xa3, 0xf1, 0xb0, 0x87, 0xb5, 0x9a, 0xa3, 0xf3, 0x9b, 0xa3, 0xa3, 0xdc, 0xba, 0xac, 0xdf, 0xb9,
//  435     0xa3, 0xa3, 0xa3, 0xa3, 0xa3, 0xa3, 0xa3, 0xa3, 0xa3, 0xa3, 0xa3, 0xa3, 0xa3, 0xa3, 0xa3, 0xa3,
//  436     0xd8, 0xd8, 0xd8, 0xbb, 0xb3, 0xb7, 0xf1, 0xaa, 0xf9, 0xda, 0xff, 0xd9, 0x80, 0x9a, 0xaa, 0x28,
//  437     0xb4, 0x80, 0x98, 0xa7, 0x20, 0xb7, 0x97, 0x87, 0xa8, 0x66, 0x88, 0xf0, 0x79, 0x51, 0xf1, 0x90,
//  438     0x2c, 0x87, 0x0c, 0xa7, 0x81, 0x97, 0x62, 0x93, 0xf0, 0x71, 0x71, 0x60, 0x85, 0x94, 0x01, 0x29,
//  439     /* bank # 11 */
//  440     0x51, 0x79, 0x90, 0xa5, 0xf1, 0x28, 0x4c, 0x6c, 0x87, 0x0c, 0x95, 0x18, 0x85, 0x78, 0xa3, 0x83,
//  441     0x90, 0x28, 0x4c, 0x6c, 0x88, 0x6c, 0xd8, 0xf3, 0xa2, 0x82, 0x00, 0xf2, 0x10, 0xa8, 0x92, 0x19,
//  442     0x80, 0xa2, 0xf2, 0xd9, 0x26, 0xd8, 0xf1, 0x88, 0xa8, 0x4d, 0xd9, 0x48, 0xd8, 0x96, 0xa8, 0x39,
//  443     0x80, 0xd9, 0x3c, 0xd8, 0x95, 0x80, 0xa8, 0x39, 0xa6, 0x86, 0x98, 0xd9, 0x2c, 0xda, 0x87, 0xa7,
//  444     0x2c, 0xd8, 0xa8, 0x89, 0x95, 0x19, 0xa9, 0x80, 0xd9, 0x38, 0xd8, 0xa8, 0x89, 0x39, 0xa9, 0x80,
//  445     0xda, 0x3c, 0xd8, 0xa8, 0x2e, 0xa8, 0x39, 0x90, 0xd9, 0x0c, 0xd8, 0xa8, 0x95, 0x31, 0x98, 0xd9,
//  446     0x0c, 0xd8, 0xa8, 0x09, 0xd9, 0xff, 0xd8, 0x01, 0xda, 0xff, 0xd8, 0x95, 0x39, 0xa9, 0xda, 0x26,
//  447     0xff, 0xd8, 0x90, 0xa8, 0x0d, 0x89, 0x99, 0xa8, 0x10, 0x80, 0x98, 0x21, 0xda, 0x2e, 0xd8, 0x89,
//  448     0x99, 0xa8, 0x31, 0x80, 0xda, 0x2e, 0xd8, 0xa8, 0x86, 0x96, 0x31, 0x80, 0xda, 0x2e, 0xd8, 0xa8,
//  449     0x87, 0x31, 0x80, 0xda, 0x2e, 0xd8, 0xa8, 0x82, 0x92, 0xf3, 0x41, 0x80, 0xf1, 0xd9, 0x2e, 0xd8,
//  450     0xa8, 0x82, 0xf3, 0x19, 0x80, 0xf1, 0xd9, 0x2e, 0xd8, 0x82, 0xac, 0xf3, 0xc0, 0xa2, 0x80, 0x22,
//  451     0xf1, 0xa6, 0x2e, 0xa7, 0x2e, 0xa9, 0x22, 0x98, 0xa8, 0x29, 0xda, 0xac, 0xde, 0xff, 0xd8, 0xa2,
//  452     0xf2, 0x2a, 0xf1, 0xa9, 0x2e, 0x82, 0x92, 0xa8, 0xf2, 0x31, 0x80, 0xa6, 0x96, 0xf1, 0xd9, 0x00,
//  453     0xac, 0x8c, 0x9c, 0x0c, 0x30, 0xac, 0xde, 0xd0, 0xde, 0xff, 0xd8, 0x8c, 0x9c, 0xac, 0xd0, 0x10,
//  454     0xac, 0xde, 0x80, 0x92, 0xa2, 0xf2, 0x4c, 0x82, 0xa8, 0xf1, 0xca, 0xf2, 0x35, 0xf1, 0x96, 0x88,
//  455     0xa6, 0xd9, 0x00, 0xd8, 0xf1, 0xff
//  456 };
//  457 
//  458 static const unsigned short sStartAddress = 0x0400;
//  459 
//  460 /* END OF SECTION COPIED FROM dmpDefaultMPU6050.c */
//  461 
//  462 #define INT_SRC_TAP             (0x01)
//  463 #define INT_SRC_ANDROID_ORIENT  (0x08)
//  464 
//  465 #define DMP_FEATURE_SEND_ANY_GYRO   (DMP_FEATURE_SEND_RAW_GYRO | \ 
//  466                                      DMP_FEATURE_SEND_CAL_GYRO)
//  467 
//  468 #define MAX_PACKET_LENGTH   (32)
//  469 
//  470 #define DMP_SAMPLE_RATE     (200)
//  471 #define GYRO_SF             (((uint32)46850825LL * 200 / DMP_SAMPLE_RATE))
//  472 
//  473 #define FIFO_CORRUPTION_CHECK
//  474 #ifdef FIFO_CORRUPTION_CHECK
//  475 #define QUAT_ERROR_THRESH       (1L<<24)
//  476 #define QUAT_MAG_SQ_NORMALIZED  (1L<<28)
//  477 #define QUAT_MAG_SQ_MIN         (QUAT_MAG_SQ_NORMALIZED - QUAT_ERROR_THRESH)
//  478 #define QUAT_MAG_SQ_MAX         (QUAT_MAG_SQ_NORMALIZED + QUAT_ERROR_THRESH)
//  479 #endif
//  480 
//  481 struct dmp_s {
//  482     void (*tap_cb)(unsigned char count, unsigned char direction);
//  483     void (*android_orient_cb)(unsigned char orientation);
//  484     unsigned short orient;
//  485     unsigned short feature_mask;
//  486     unsigned short fifo_rate;
//  487     unsigned char packet_length;
//  488 };
//  489 
//  490 //static struct dmp_s dmp = {
//  491 //    .tap_cb = NULL,
//  492 //    .android_orient_cb = NULL,
//  493 //    .orient = 0,
//  494 //    .feature_mask = 0,
//  495 //    .fifo_rate = 0,
//  496 //    .packet_length = 0
//  497 //};
//  498 

        RSEG XDATA_Z:XDATA:NOROOT(0)
        DATA8
//  499 static struct dmp_s dmp={
dmp:
        DS 11
        REQUIRE __INIT_XDATA_Z
//  500   NULL,
//  501   NULL,
//  502   0,
//  503   0,
//  504   0,
//  505   0
//  506 };
//  507 
//  508 /**
//  509  *  @brief  Load the DMP with this image.
//  510  *  @return 0 if successful.
//  511  */

        RSEG BANKED_CODE:CODE:NOROOT(0)
//  512 int dmp_load_motion_driver_firmware(void)
dmp_load_motion_driver_firmware:
        CFI Block cfiBlock0 Using cfiCommon0
        CFI Function dmp_load_motion_driver_firmware
        CODE
//  513 {
        FUNCALL dmp_load_motion_driver_firmware, mpu_load_firmware
        LOCFRAME ISTACK, 0, STACK
        LOCFRAME PSTACK, 0, STACK
        LOCFRAME XSTACK, 14, STACK
        LOCFRAME IOVERLAY, 0, STATIC
        LOCFRAME DOVERLAY, 0, STATIC
        ARGFRAME ISTACK, 0, STACK
        ARGFRAME PSTACK, 0, STACK
        ARGFRAME XSTACK, 14, STACK
        ARGFRAME IOVERLAY, 0, STATIC
        ARGFRAME DOVERLAY, 0, STATIC
        MOV     A,#-0xa
        LCALL   ?BANKED_ENTER_XDATA
        CFI DPH0 load(1, XDATA, add(CFA_XSP16, literal(-1)))
        CFI DPL0 load(1, XDATA, add(CFA_XSP16, literal(-2)))
        CFI ?BRET_EXT load(1, XDATA, add(CFA_XSP16, literal(-3)))
        CFI ?RET_HIGH load(1, XDATA, add(CFA_XSP16, literal(-4)))
        CFI ?RET_LOW load(1, XDATA, add(CFA_XSP16, literal(-5)))
        CFI R7 load(1, XDATA, add(CFA_XSP16, literal(-6)))
        CFI V1 load(1, XDATA, add(CFA_XSP16, literal(-7)))
        CFI V0 load(1, XDATA, add(CFA_XSP16, literal(-8)))
        CFI VB load(1, XDATA, add(CFA_XSP16, literal(-9)))
        CFI R6 load(1, XDATA, add(CFA_XSP16, literal(-10)))
        CFI CFA_SP SP+0
        CFI CFA_XSP16 add(XSP16, 10)
        ; Saved register size: 10
        ; Auto size: 0
//  514     return mpu_load_firmware(DMP_CODE_SIZE, dmp_memory, sStartAddress,
//  515         DMP_SAMPLE_RATE);
        ; Setup parameters for call to function mpu_load_firmware
        MOV     ?V0 + 0,#-0x38
        MOV     ?V0 + 1,#0x0
        MOV     R0,#?V0 + 0
        LCALL   ?PUSH_XSTACK_I_TWO
        CFI CFA_XSP16 add(XSP16, 12)
        MOV     ?V0 + 0,#0x0
        MOV     ?V0 + 1,#0x4
        MOV     R0,#?V0 + 0
        LCALL   ?PUSH_XSTACK_I_TWO
        CFI CFA_XSP16 add(XSP16, 14)
        MOV     R4,#dmp_memory & 0xff
        MOV     R5,#(dmp_memory >> 8) & 0xff
        MOV     R2,#-0xa
        MOV     R3,#0xb
        LCALL   ??mpu_load_firmware?relay
        MOV     A,#0x4
        LCALL   ?DEALLOC_XSTACK8
        CFI CFA_XSP16 add(XSP16, 10)
        MOV     R7,#0x2
        LJMP    ?BANKED_LEAVE_XDATA
        CFI EndBlock cfiBlock0
//  516 }
//  517 
//  518 /**
//  519  *  @brief      Push gyro and accel orientation to the DMP.
//  520  *  The orientation is represented here as the output of
//  521  *  @e inv_orientation_matrix_to_scalar.
//  522  *  @param[in]  orient  Gyro and accel orientation in body frame.
//  523  *  @return     0 if successful.
//  524  */

        RSEG BANKED_CODE:CODE:NOROOT(0)
//  525 int dmp_set_orientation(unsigned short orient)
dmp_set_orientation:
        CFI Block cfiBlock1 Using cfiCommon0
        CFI Function dmp_set_orientation
        CODE
//  526 {
        FUNCALL dmp_set_orientation, mpu_write_mem
        LOCFRAME ISTACK, 0, STACK
        LOCFRAME PSTACK, 0, STACK
        LOCFRAME XSTACK, 30, STACK
        LOCFRAME IOVERLAY, 0, STATIC
        LOCFRAME DOVERLAY, 0, STATIC
        ARGFRAME ISTACK, 0, STACK
        ARGFRAME PSTACK, 0, STACK
        ARGFRAME XSTACK, 30, STACK
        ARGFRAME IOVERLAY, 0, STATIC
        ARGFRAME DOVERLAY, 0, STATIC
        FUNCALL dmp_set_orientation, mpu_write_mem
        LOCFRAME ISTACK, 0, STACK
        LOCFRAME PSTACK, 0, STACK
        LOCFRAME XSTACK, 30, STACK
        LOCFRAME IOVERLAY, 0, STATIC
        LOCFRAME DOVERLAY, 0, STATIC
        ARGFRAME ISTACK, 0, STACK
        ARGFRAME PSTACK, 0, STACK
        ARGFRAME XSTACK, 30, STACK
        ARGFRAME IOVERLAY, 0, STATIC
        ARGFRAME DOVERLAY, 0, STATIC
        FUNCALL dmp_set_orientation, memcpy
        LOCFRAME ISTACK, 0, STACK
        LOCFRAME PSTACK, 0, STACK
        LOCFRAME XSTACK, 30, STACK
        LOCFRAME IOVERLAY, 0, STATIC
        LOCFRAME DOVERLAY, 0, STATIC
        ARGFRAME ISTACK, 0, STACK
        ARGFRAME PSTACK, 0, STACK
        ARGFRAME XSTACK, 30, STACK
        ARGFRAME IOVERLAY, 0, STATIC
        ARGFRAME DOVERLAY, 0, STATIC
        FUNCALL dmp_set_orientation, memcpy
        LOCFRAME ISTACK, 0, STACK
        LOCFRAME PSTACK, 0, STACK
        LOCFRAME XSTACK, 30, STACK
        LOCFRAME IOVERLAY, 0, STATIC
        LOCFRAME DOVERLAY, 0, STATIC
        ARGFRAME ISTACK, 0, STACK
        ARGFRAME PSTACK, 0, STACK
        ARGFRAME XSTACK, 30, STACK
        ARGFRAME IOVERLAY, 0, STATIC
        ARGFRAME DOVERLAY, 0, STATIC
        FUNCALL dmp_set_orientation, mpu_write_mem
        LOCFRAME ISTACK, 0, STACK
        LOCFRAME PSTACK, 0, STACK
        LOCFRAME XSTACK, 30, STACK
        LOCFRAME IOVERLAY, 0, STATIC
        LOCFRAME DOVERLAY, 0, STATIC
        ARGFRAME ISTACK, 0, STACK
        ARGFRAME PSTACK, 0, STACK
        ARGFRAME XSTACK, 30, STACK
        ARGFRAME IOVERLAY, 0, STATIC
        ARGFRAME DOVERLAY, 0, STATIC
        FUNCALL dmp_set_orientation, mpu_write_mem
        LOCFRAME ISTACK, 0, STACK
        LOCFRAME PSTACK, 0, STACK
        LOCFRAME XSTACK, 30, STACK
        LOCFRAME IOVERLAY, 0, STATIC
        LOCFRAME DOVERLAY, 0, STATIC
        ARGFRAME ISTACK, 0, STACK
        ARGFRAME PSTACK, 0, STACK
        ARGFRAME XSTACK, 30, STACK
        ARGFRAME IOVERLAY, 0, STATIC
        ARGFRAME DOVERLAY, 0, STATIC
        MOV     A,#-0xa
        LCALL   ?BANKED_ENTER_XDATA
        CFI DPH0 load(1, XDATA, add(CFA_XSP16, literal(-1)))
        CFI DPL0 load(1, XDATA, add(CFA_XSP16, literal(-2)))
        CFI ?BRET_EXT load(1, XDATA, add(CFA_XSP16, literal(-3)))
        CFI ?RET_HIGH load(1, XDATA, add(CFA_XSP16, literal(-4)))
        CFI ?RET_LOW load(1, XDATA, add(CFA_XSP16, literal(-5)))
        CFI R7 load(1, XDATA, add(CFA_XSP16, literal(-6)))
        CFI V1 load(1, XDATA, add(CFA_XSP16, literal(-7)))
        CFI V0 load(1, XDATA, add(CFA_XSP16, literal(-8)))
        CFI VB load(1, XDATA, add(CFA_XSP16, literal(-9)))
        CFI R6 load(1, XDATA, add(CFA_XSP16, literal(-10)))
        CFI CFA_SP SP+0
        CFI CFA_XSP16 add(XSP16, 10)
        ; Saved register size: 10
        ; Auto size: 18
        MOV     A,#-0x12
        LCALL   ?ALLOC_XSTACK8
        CFI CFA_XSP16 add(XSP16, 28)
        MOV     A,R2
        MOV     R6,A
        MOV     A,R3
        MOV     R7,A
//  527     unsigned char gyro_regs[3], accel_regs[3];
//  528     const unsigned char gyro_axes[3] = {DINA4C, DINACD, DINA6C};
        MOV     DPTR,#`?<Constant {76, 205, 108}>`
        PUSH    DPL
        CFI CFA_SP SP+-1
        PUSH    DPH
        CFI CFA_SP SP+-2
        MOV     A,#0x9
        LCALL   ?XSTACK_DISP0_8
        MOV     R4,DPL
        MOV     R5,DPH
        POP     DPH
        CFI CFA_SP SP+-1
        POP     DPL
        CFI CFA_SP SP+0
        MOV     A,#0x3
        LCALL   ?MOVE_LONG8_XDATA_XDATA
//  529     const unsigned char accel_axes[3] = {DINA0C, DINAC9, DINA2C};
        MOV     DPTR,#`?<Constant {12, 201, 44}>`
        PUSH    DPL
        CFI CFA_SP SP+-1
        PUSH    DPH
        CFI CFA_SP SP+-2
        MOV     A,#0x6
        LCALL   ?XSTACK_DISP0_8
        MOV     R4,DPL
        MOV     R5,DPH
        POP     DPH
        CFI CFA_SP SP+-1
        POP     DPL
        CFI CFA_SP SP+0
        MOV     A,#0x3
        LCALL   ?MOVE_LONG8_XDATA_XDATA
//  530     const unsigned char gyro_sign[3] = {DINA36, DINA56, DINA76};
        MOV     DPTR,#`?<Constant {54, 86, 118}>`
        PUSH    DPL
        CFI CFA_SP SP+-1
        PUSH    DPH
        CFI CFA_SP SP+-2
        MOV     A,#0xf
        LCALL   ?XSTACK_DISP0_8
        MOV     R4,DPL
        MOV     R5,DPH
        POP     DPH
        CFI CFA_SP SP+-1
        POP     DPL
        CFI CFA_SP SP+0
        MOV     A,#0x3
        LCALL   ?MOVE_LONG8_XDATA_XDATA
//  531     const unsigned char accel_sign[3] = {DINA26, DINA46, DINA66};
        MOV     DPTR,#`?<Constant {38, 70, 102}>`
        PUSH    DPL
        CFI CFA_SP SP+-1
        PUSH    DPH
        CFI CFA_SP SP+-2
        MOV     A,#0xc
        LCALL   ?XSTACK_DISP0_8
        MOV     R4,DPL
        MOV     R5,DPH
        POP     DPH
        CFI CFA_SP SP+-1
        POP     DPL
        CFI CFA_SP SP+0
        MOV     A,#0x3
        LCALL   ?MOVE_LONG8_XDATA_XDATA
        MOV     A,R6
        ANL     A,#0x3
        MOV     R2,A
        MOV     A,#0x9
        LCALL   ?XSTACK_DISP0_8
        MOV     A,DPL
        ADD     A,R2
        MOV     DPL,A
        MOV     A,DPH
        ADDC    A,#0x0
        MOV     DPH,A
        MOVX    A,@DPTR
        PUSH    A
        CFI CFA_SP SP+-1
        MOV     A,#0x3
        LCALL   ?XSTACK_DISP0_8
        POP     A
        CFI CFA_SP SP+0
        MOVX    @DPTR,A
//  532 
//  533     gyro_regs[0] = gyro_axes[orient & 3];
//  534     gyro_regs[1] = gyro_axes[(orient >> 3) & 3];
        MOV     A,R6
        RRC     A
        RRC     A
        RRC     A
        ANL     A,#0x1f
        ANL     A,#0x3
        MOV     R0,A
        MOV     A,#0x9
        LCALL   ?XSTACK_DISP0_8
        MOV     A,DPL
        ADD     A,R0
        MOV     DPL,A
        MOV     A,DPH
        ADDC    A,#0x0
        MOV     DPH,A
        MOVX    A,@DPTR
        PUSH    A
        CFI CFA_SP SP+-1
        MOV     A,#0x4
        LCALL   ?XSTACK_DISP0_8
        POP     A
        CFI CFA_SP SP+0
        MOVX    @DPTR,A
//  535     gyro_regs[2] = gyro_axes[(orient >> 6) & 3];
        MOV     A,R6
        SWAP    A
        RRC     A
        RRC     A
        ANL     A,#0x3
        MOV     R4,A
        MOV     A,#0x9
        LCALL   ?XSTACK_DISP0_8
        MOV     A,DPL
        ADD     A,R4
        MOV     DPL,A
        MOV     A,DPH
        ADDC    A,#0x0
        MOV     DPH,A
        MOVX    A,@DPTR
        PUSH    A
        CFI CFA_SP SP+-1
        MOV     A,#0x5
        LCALL   ?XSTACK_DISP0_8
        POP     A
        CFI CFA_SP SP+0
        MOVX    @DPTR,A
//  536     accel_regs[0] = accel_axes[orient & 3];
        MOV     A,#0x6
        LCALL   ?XSTACK_DISP0_8
        MOV     A,DPL
        ADD     A,R2
        MOV     DPL,A
        MOV     A,DPH
        ADDC    A,#0x0
        MOV     DPH,A
        MOVX    A,@DPTR
        MOV     DPL,?XSP + 0
        MOV     DPH,?XSP + 1
        MOVX    @DPTR,A
//  537     accel_regs[1] = accel_axes[(orient >> 3) & 3];
        MOV     A,#0x6
        LCALL   ?XSTACK_DISP0_8
        MOV     A,DPL
        ADD     A,R0
        MOV     DPL,A
        MOV     A,DPH
        ADDC    A,#0x0
        MOV     DPH,A
        MOVX    A,@DPTR
        PUSH    A
        CFI CFA_SP SP+-1
        MOV     A,#0x1
        LCALL   ?XSTACK_DISP0_8
        POP     A
        CFI CFA_SP SP+0
        MOVX    @DPTR,A
//  538     accel_regs[2] = accel_axes[(orient >> 6) & 3];
        MOV     A,#0x6
        LCALL   ?XSTACK_DISP0_8
        MOV     A,DPL
        ADD     A,R4
        MOV     DPL,A
        MOV     A,DPH
        ADDC    A,#0x0
        MOV     DPH,A
        MOVX    A,@DPTR
        PUSH    A
        CFI CFA_SP SP+-1
        MOV     A,#0x2
        LCALL   ?XSTACK_DISP0_8
        POP     A
        CFI CFA_SP SP+0
        MOVX    @DPTR,A
//  539 
//  540     /* Chip-to-body, axes only. */
//  541     if (mpu_write_mem(FCFG_1, 3, gyro_regs))
        ; Setup parameters for call to function mpu_write_mem
        MOV     A,#0x3
        LCALL   ?XSTACK_DISP0_8
        MOV     ?V0 + 0,DPL
        MOV     ?V0 + 1,DPH
        MOV     R0,#?V0 + 0
        LCALL   ?PUSH_XSTACK_I_TWO
        CFI CFA_XSP16 add(XSP16, 30)
        MOV     R4,#0x3
        MOV     R5,#0x0
        MOV     R2,#0x26
        MOV     R3,#0x4
        LCALL   ??mpu_write_mem?relay
        MOV     A,#0x2
        LCALL   ?DEALLOC_XSTACK8
        CFI CFA_XSP16 add(XSP16, 28)
        MOV     ?V0 + 1,R3
        MOV     A,R2
        ORL     A,?V0 + 1
        JZ      ??dmp_set_orientation_0
//  542         return -1;
??dmp_set_orientation_1:
        MOV     R2,#-0x1
        MOV     R3,#-0x1
        LJMP    ??dmp_set_orientation_2 & 0xFFFF
//  543     if (mpu_write_mem(FCFG_2, 3, accel_regs))
??dmp_set_orientation_0:
        ; Setup parameters for call to function mpu_write_mem
        MOV     DPL,?XSP + 0
        MOV     DPH,?XSP + 1
        MOV     ?V0 + 0,DPL
        MOV     ?V0 + 1,DPH
        MOV     R0,#?V0 + 0
        LCALL   ?PUSH_XSTACK_I_TWO
        CFI CFA_XSP16 add(XSP16, 30)
        MOV     R4,#0x3
        MOV     R5,#0x0
        MOV     R2,#0x2a
        MOV     R3,#0x4
        LCALL   ??mpu_write_mem?relay
        MOV     A,#0x2
        LCALL   ?DEALLOC_XSTACK8
        CFI CFA_XSP16 add(XSP16, 28)
        MOV     ?V0 + 1,R3
        MOV     A,R2
        ORL     A,?V0 + 1
        JNZ     ??dmp_set_orientation_1
//  544         return -1;
//  545 
//  546     memcpy(gyro_regs, gyro_sign, 3);
        ; Setup parameters for call to function memcpy
        MOV     ?V0 + 0,#0x3
        MOV     ?V0 + 1,#0x0
        MOV     R0,#?V0 + 0
        LCALL   ?PUSH_XSTACK_I_TWO
        CFI CFA_XSP16 add(XSP16, 30)
        MOV     A,#0x11
        LCALL   ?XSTACK_DISP0_8
        MOV     R4,DPL
        MOV     R5,DPH
        MOV     A,#0x5
        LCALL   ?XSTACK_DISP0_8
        MOV     R2,DPL
        MOV     R3,DPH
        LCALL   ??memcpy?relay
        MOV     A,#0x2
        LCALL   ?DEALLOC_XSTACK8
        CFI CFA_XSP16 add(XSP16, 28)
//  547     memcpy(accel_regs, accel_sign, 3);
        ; Setup parameters for call to function memcpy
        MOV     R0,#?V0 + 0
        LCALL   ?PUSH_XSTACK_I_TWO
        CFI CFA_XSP16 add(XSP16, 30)
        MOV     A,#0xe
        LCALL   ?XSTACK_DISP0_8
        MOV     R4,DPL
        MOV     R5,DPH
        MOV     A,#0x2
        LCALL   ?XSTACK_DISP0_8
        MOV     R2,DPL
        MOV     R3,DPH
        LCALL   ??memcpy?relay
        MOV     A,#0x2
        LCALL   ?DEALLOC_XSTACK8
        CFI CFA_XSP16 add(XSP16, 28)
//  548     if (orient & 4) {
        MOV     A,R6
        ANL     A,#0x4
        JZ      ??dmp_set_orientation_3
//  549         gyro_regs[0] |= 1;
        MOV     A,#0x3
        LCALL   ?XSTACK_DISP0_8
        MOVX    A,@DPTR
        SETB    0xE0 /* A   */.0
        MOVX    @DPTR,A
//  550         accel_regs[0] |= 1;
        MOV     DPL,?XSP + 0
        MOV     DPH,?XSP + 1
        MOVX    A,@DPTR
        SETB    0xE0 /* A   */.0
        MOVX    @DPTR,A
//  551     }
//  552     if (orient & 0x20) {
??dmp_set_orientation_3:
        MOV     A,R6
        ANL     A,#0x20
        JZ      ??dmp_set_orientation_4
//  553         gyro_regs[1] |= 1;
        MOV     A,#0x4
        LCALL   ?XSTACK_DISP0_8
        MOVX    A,@DPTR
        SETB    0xE0 /* A   */.0
        MOVX    @DPTR,A
//  554         accel_regs[1] |= 1;
        MOV     A,#0x1
        LCALL   ?XSTACK_DISP0_8
        MOVX    A,@DPTR
        SETB    0xE0 /* A   */.0
        MOVX    @DPTR,A
//  555     }
//  556     if (orient & 0x100) {
??dmp_set_orientation_4:
        MOV     A,R7
        ANL     A,#0x1
        JZ      ??dmp_set_orientation_5
//  557         gyro_regs[2] |= 1;
        MOV     A,#0x5
        LCALL   ?XSTACK_DISP0_8
        MOVX    A,@DPTR
        SETB    0xE0 /* A   */.0
        MOVX    @DPTR,A
//  558         accel_regs[2] |= 1;
        MOV     A,#0x2
        LCALL   ?XSTACK_DISP0_8
        MOVX    A,@DPTR
        SETB    0xE0 /* A   */.0
        MOVX    @DPTR,A
//  559     }
//  560 
//  561     /* Chip-to-body, sign only. */
//  562     if (mpu_write_mem(FCFG_3, 3, gyro_regs))
??dmp_set_orientation_5:
        ; Setup parameters for call to function mpu_write_mem
        MOV     A,#0x3
        LCALL   ?XSTACK_DISP0_8
        MOV     ?V0 + 0,DPL
        MOV     ?V0 + 1,DPH
        MOV     R0,#?V0 + 0
        LCALL   ?PUSH_XSTACK_I_TWO
        CFI CFA_XSP16 add(XSP16, 30)
        MOV     R4,#0x3
        MOV     R5,#0x0
        MOV     R2,#0x40
        MOV     R3,#0x4
        LCALL   ??mpu_write_mem?relay
        MOV     A,#0x2
        LCALL   ?DEALLOC_XSTACK8
        CFI CFA_XSP16 add(XSP16, 28)
        MOV     ?V0 + 1,R3
        MOV     A,R2
        ORL     A,?V0 + 1
        JZ      $+5
        LJMP    ??dmp_set_orientation_1 & 0xFFFF
//  563         return -1;
//  564     if (mpu_write_mem(FCFG_7, 3, accel_regs))
        ; Setup parameters for call to function mpu_write_mem
        MOV     DPL,?XSP + 0
        MOV     DPH,?XSP + 1
        MOV     ?V0 + 0,DPL
        MOV     ?V0 + 1,DPH
        MOV     R0,#?V0 + 0
        LCALL   ?PUSH_XSTACK_I_TWO
        CFI CFA_XSP16 add(XSP16, 30)
        MOV     R4,#0x3
        MOV     R5,#0x0
        MOV     R2,#0x31
        MOV     R3,#0x4
        LCALL   ??mpu_write_mem?relay
        MOV     A,#0x2
        LCALL   ?DEALLOC_XSTACK8
        CFI CFA_XSP16 add(XSP16, 28)
        MOV     ?V0 + 1,R3
        MOV     A,R2
        ORL     A,?V0 + 1
        JZ      $+5
        LJMP    ??dmp_set_orientation_1 & 0xFFFF
//  565         return -1;
//  566     dmp.orient = orient;
        MOV     DPTR,#dmp + 4
        MOV     A,R6
        MOVX    @DPTR,A
        INC     DPTR
        MOV     A,R7
        MOVX    @DPTR,A
//  567     return 0;
        MOV     R2,#0x0
        MOV     R3,#0x0
??dmp_set_orientation_2:
        MOV     A,#0x12
        LCALL   ?DEALLOC_XSTACK8
        CFI CFA_XSP16 add(XSP16, 10)
        MOV     R7,#0x2
        LJMP    ?BANKED_LEAVE_XDATA
        CFI EndBlock cfiBlock1
//  568 }
//  569 
//  570 /**
//  571  *  @brief      Push gyro biases to the DMP.
//  572  *  Because the gyro integration is handled in the DMP, any gyro biases
//  573  *  calculated by the MPL should be pushed down to DMP memory to remove
//  574  *  3-axis quaternion drift.
//  575  *  \n NOTE: If the DMP-based gyro calibration is enabled, the DMP will
//  576  *  overwrite the biases written to this location once a new one is computed.
//  577  *  @param[in]  bias    Gyro biases in q16.
//  578  *  @return     0 if successful.
//  579  */

        RSEG BANKED_CODE:CODE:NOROOT(0)
//  580 int dmp_set_gyro_bias(long *bias)
dmp_set_gyro_bias:
        CFI Block cfiBlock2 Using cfiCommon0
        CFI Function dmp_set_gyro_bias
        CODE
//  581 {
        FUNCALL dmp_set_gyro_bias, mpu_write_mem
        LOCFRAME ISTACK, 0, STACK
        LOCFRAME PSTACK, 0, STACK
        LOCFRAME XSTACK, 34, STACK
        LOCFRAME IOVERLAY, 0, STATIC
        LOCFRAME DOVERLAY, 0, STATIC
        ARGFRAME ISTACK, 0, STACK
        ARGFRAME PSTACK, 0, STACK
        ARGFRAME XSTACK, 34, STACK
        ARGFRAME IOVERLAY, 0, STATIC
        ARGFRAME DOVERLAY, 0, STATIC
        FUNCALL dmp_set_gyro_bias, mpu_write_mem
        LOCFRAME ISTACK, 0, STACK
        LOCFRAME PSTACK, 0, STACK
        LOCFRAME XSTACK, 34, STACK
        LOCFRAME IOVERLAY, 0, STATIC
        LOCFRAME DOVERLAY, 0, STATIC
        ARGFRAME ISTACK, 0, STACK
        ARGFRAME PSTACK, 0, STACK
        ARGFRAME XSTACK, 34, STACK
        ARGFRAME IOVERLAY, 0, STATIC
        ARGFRAME DOVERLAY, 0, STATIC
        FUNCALL dmp_set_gyro_bias, mpu_write_mem
        LOCFRAME ISTACK, 0, STACK
        LOCFRAME PSTACK, 0, STACK
        LOCFRAME XSTACK, 34, STACK
        LOCFRAME IOVERLAY, 0, STATIC
        LOCFRAME DOVERLAY, 0, STATIC
        ARGFRAME ISTACK, 0, STACK
        ARGFRAME PSTACK, 0, STACK
        ARGFRAME XSTACK, 34, STACK
        ARGFRAME IOVERLAY, 0, STATIC
        ARGFRAME DOVERLAY, 0, STATIC
        MOV     A,#-0x10
        LCALL   ?BANKED_ENTER_XDATA
        CFI DPH0 load(1, XDATA, add(CFA_XSP16, literal(-1)))
        CFI DPL0 load(1, XDATA, add(CFA_XSP16, literal(-2)))
        CFI ?BRET_EXT load(1, XDATA, add(CFA_XSP16, literal(-3)))
        CFI ?RET_HIGH load(1, XDATA, add(CFA_XSP16, literal(-4)))
        CFI ?RET_LOW load(1, XDATA, add(CFA_XSP16, literal(-5)))
        CFI R7 load(1, XDATA, add(CFA_XSP16, literal(-6)))
        CFI V7 load(1, XDATA, add(CFA_XSP16, literal(-7)))
        CFI V6 load(1, XDATA, add(CFA_XSP16, literal(-8)))
        CFI V5 load(1, XDATA, add(CFA_XSP16, literal(-9)))
        CFI V4 load(1, XDATA, add(CFA_XSP16, literal(-10)))
        CFI V3 load(1, XDATA, add(CFA_XSP16, literal(-11)))
        CFI V2 load(1, XDATA, add(CFA_XSP16, literal(-12)))
        CFI V1 load(1, XDATA, add(CFA_XSP16, literal(-13)))
        CFI V0 load(1, XDATA, add(CFA_XSP16, literal(-14)))
        CFI VB load(1, XDATA, add(CFA_XSP16, literal(-15)))
        CFI R6 load(1, XDATA, add(CFA_XSP16, literal(-16)))
        CFI CFA_SP SP+0
        CFI CFA_XSP16 add(XSP16, 16)
        ; Saved register size: 16
        ; Auto size: 16
        MOV     A,#-0x10
        LCALL   ?ALLOC_XSTACK8
        CFI CFA_XSP16 add(XSP16, 32)
        MOV     ?V0 + 0,R2
        MOV     ?V0 + 1,R3
//  582     long gyro_bias_body[3];
//  583     unsigned char regs[4];
//  584 
//  585     gyro_bias_body[0] = bias[dmp.orient & 3];
        MOV     DPTR,#dmp + 4
        MOVX    A,@DPTR
        MOV     R6,A
        INC     DPTR
        MOVX    A,@DPTR
        MOV     R7,A
        MOV     A,R6
        ANL     A,#0x3
        MOV     ?V0 + 2,A
        MOV     ?V0 + 3,#0x0
        MOV     A,#0x2
        MOV     R0,#?V0 + 2
        LCALL   ?S_SHL
        MOV     A,R2
        ADD     A,?V0 + 2
        MOV     DPL,A
        MOV     A,R3
        ADDC    A,#0x0
        MOV     DPH,A
        LCALL   ?XLOAD_R2345
        MOV     A,#0x4
        LCALL   ?XSTACK_DISP0_8
        LCALL   ?XSTORE_R2345
//  586     if (dmp.orient & 4)
        MOV     A,R6
        ANL     A,#0x4
        JZ      ??dmp_set_gyro_bias_0
//  587         gyro_bias_body[0] *= -1;
        MOV     A,#0x4
        LCALL   ?XSTACK_DISP0_8
        MOV     R0,#?V0 + 4
        LCALL   ?L_MOV_X
        MOV     R0,#?V0 + 4
        LCALL   ?L_NEG
        MOV     A,#0x4
        LCALL   ?XSTACK_DISP0_8
        MOV     R0,#?V0 + 4
        LCALL   ?L_MOV_TO_X
//  588     gyro_bias_body[1] = bias[(dmp.orient >> 3) & 3];
??dmp_set_gyro_bias_0:
        MOV     A,R6
        RRC     A
        RRC     A
        RRC     A
        ANL     A,#0x1f
        ANL     A,#0x3
        MOV     ?V0 + 2,A
        MOV     A,#0x2
        MOV     R0,#?V0 + 2
        LCALL   ?S_SHL
        MOV     A,?V0 + 0
        ADD     A,?V0 + 2
        MOV     DPL,A
        MOV     A,?V0 + 1
        ADDC    A,#0x0
        MOV     DPH,A
        MOV     R0,#?V0 + 4
        LCALL   ?L_MOV_X
        MOV     A,#0x8
        LCALL   ?XSTACK_DISP0_8
        MOV     R0,#?V0 + 4
        LCALL   ?L_MOV_TO_X
//  589     if (dmp.orient & 0x20)
        MOV     A,R6
        ANL     A,#0x20
        JZ      ??dmp_set_gyro_bias_1
//  590         gyro_bias_body[1] *= -1;
        MOV     R0,#?V0 + 4
        LCALL   ?L_NEG
        MOV     A,#0x8
        LCALL   ?XSTACK_DISP0_8
        MOV     R0,#?V0 + 4
        LCALL   ?L_MOV_TO_X
//  591     gyro_bias_body[2] = bias[(dmp.orient >> 6) & 3];
??dmp_set_gyro_bias_1:
        MOV     A,R6
        SWAP    A
        ANL     A,#0xf
        ANL     A,#0xfc
        MOV     R0,A
        MOV     A,?V0 + 0
        ADD     A,R0
        MOV     DPL,A
        MOV     A,?V0 + 1
        ADDC    A,#0x0
        MOV     DPH,A
        MOV     R0,#?V0 + 0
        LCALL   ?L_MOV_X
        MOV     A,#0xc
        LCALL   ?XSTACK_DISP0_8
        MOV     R0,#?V0 + 0
        LCALL   ?L_MOV_TO_X
//  592     if (dmp.orient & 0x100)
        MOV     A,R7
        ANL     A,#0x1
        JZ      ??dmp_set_gyro_bias_2
//  593         gyro_bias_body[2] *= -1;
        MOV     R0,#?V0 + 0
        LCALL   ?L_NEG
        MOV     A,#0xc
        LCALL   ?XSTACK_DISP0_8
        MOV     R0,#?V0 + 0
        LCALL   ?L_MOV_TO_X
//  594 
//  595 #ifdef EMPL_NO_64BIT
//  596     gyro_bias_body[0] = (long)(((float)gyro_bias_body[0] * GYRO_SF) / 1073741824.f);
//  597     gyro_bias_body[1] = (long)(((float)gyro_bias_body[1] * GYRO_SF) / 1073741824.f);
//  598     gyro_bias_body[2] = (long)(((float)gyro_bias_body[2] * GYRO_SF) / 1073741824.f);
//  599 #else
//  600     gyro_bias_body[0] = (long)(((long long)gyro_bias_body[0] * GYRO_SF) >> 30);
??dmp_set_gyro_bias_2:
        MOV     A,#0x4
        LCALL   ?XSTACK_DISP0_8
        MOV     R0,#?V0 + 0
        LCALL   ?L_MOV_X
        MOV     DPTR,#__Constant_3b86e0
        MOV     R0,#?V0 + 4
        LCALL   ?L_MOV_X
        MOV     R0,#?V0 + 0
        MOV     R1,#?V0 + 4
        LCALL   ?L_MUL
        MOV     A,#0x1e
        MOV     R0,#?V0 + 0
        LCALL   ?UL_SHR
        MOV     A,#0x4
        LCALL   ?XSTACK_DISP0_8
        MOV     R0,#?V0 + 0
        LCALL   ?L_MOV_TO_X
//  601     gyro_bias_body[1] = (long)(((long long)gyro_bias_body[1] * GYRO_SF) >> 30);
        MOV     A,#0x8
        LCALL   ?XSTACK_DISP0_8
        MOV     R0,#?V0 + 0
        LCALL   ?L_MOV_X
        MOV     DPTR,#__Constant_3b86e0
        MOV     R0,#?V0 + 4
        LCALL   ?L_MOV_X
        MOV     R0,#?V0 + 0
        MOV     R1,#?V0 + 4
        LCALL   ?L_MUL
        MOV     A,#0x1e
        MOV     R0,#?V0 + 0
        LCALL   ?UL_SHR
        MOV     A,#0x8
        LCALL   ?XSTACK_DISP0_8
        MOV     R0,#?V0 + 0
        LCALL   ?L_MOV_TO_X
//  602     gyro_bias_body[2] = (long)(((long long)gyro_bias_body[2] * GYRO_SF) >> 30);
        MOV     A,#0xc
        LCALL   ?XSTACK_DISP0_8
        MOV     R0,#?V0 + 0
        LCALL   ?L_MOV_X
        MOV     DPTR,#__Constant_3b86e0
        MOV     R0,#?V0 + 4
        LCALL   ?L_MOV_X
        MOV     R0,#?V0 + 0
        MOV     R1,#?V0 + 4
        LCALL   ?L_MUL
        MOV     A,#0x1e
        MOV     R0,#?V0 + 0
        LCALL   ?UL_SHR
        MOV     A,#0xc
        LCALL   ?XSTACK_DISP0_8
        MOV     R0,#?V0 + 0
        LCALL   ?L_MOV_TO_X
//  603 #endif
//  604 
//  605     regs[0] = (unsigned char)((gyro_bias_body[0] >> 24) & 0xFF);
        MOV     A,#0x4
        LCALL   ?XSTACK_DISP0_8
        MOV     R0,#?V0 + 0
        LCALL   ?L_MOV_X
        MOV     A,#0x18
        MOV     R0,#?V0 + 0
        LCALL   ?SL_SHR
        MOV     DPL,?XSP + 0
        MOV     DPH,?XSP + 1
        MOV     A,?V0 + 0
        MOVX    @DPTR,A
//  606     regs[1] = (unsigned char)((gyro_bias_body[0] >> 16) & 0xFF);
        MOV     A,#0x4
        LCALL   ?XSTACK_DISP0_8
        MOV     R0,#?V0 + 0
        LCALL   ?L_MOV_X
        MOV     A,#0x10
        MOV     R0,#?V0 + 0
        LCALL   ?SL_SHR
        INC     A
        LCALL   ?XSTACK_DISP0_8
        MOV     A,?V0 + 0
        MOVX    @DPTR,A
//  607     regs[2] = (unsigned char)((gyro_bias_body[0] >> 8) & 0xFF);
        MOV     A,#0x4
        LCALL   ?XSTACK_DISP0_8
        MOV     R0,#?V0 + 0
        LCALL   ?L_MOV_X
        MOV     A,#0x8
        MOV     R0,#?V0 + 0
        LCALL   ?SS_SHR
        MOV     A,#0x2
        LCALL   ?XSTACK_DISP0_8
        MOV     A,?V0 + 0
        MOVX    @DPTR,A
//  608     regs[3] = (unsigned char)(gyro_bias_body[0] & 0xFF);
        MOV     A,#0x4
        LCALL   ?XSTACK_DISP0_8
        MOV     R0,#?V0 + 0
        LCALL   ?L_MOV_X
        MOV     A,#0x3
        LCALL   ?XSTACK_DISP0_8
        MOV     A,?V0 + 0
        MOVX    @DPTR,A
//  609     if (mpu_write_mem(D_EXT_GYRO_BIAS_X, 4, regs))
        ; Setup parameters for call to function mpu_write_mem
        MOV     DPL,?XSP + 0
        MOV     DPH,?XSP + 1
        MOV     ?V0 + 0,DPL
        MOV     ?V0 + 1,DPH
        MOV     R0,#?V0 + 0
        LCALL   ?PUSH_XSTACK_I_TWO
        CFI CFA_XSP16 add(XSP16, 34)
        MOV     R4,#0x4
        MOV     R5,#0x0
        MOV     R2,#-0x30
        MOV     R3,#0x3
        LCALL   ??mpu_write_mem?relay
        MOV     A,#0x2
        LCALL   ?DEALLOC_XSTACK8
        CFI CFA_XSP16 add(XSP16, 32)
        MOV     ?V0 + 1,R3
        MOV     A,R2
        ORL     A,?V0 + 1
        JZ      ??dmp_set_gyro_bias_3
//  610         return -1;
??dmp_set_gyro_bias_4:
        MOV     R2,#-0x1
        MOV     R3,#-0x1
        LJMP    ??dmp_set_gyro_bias_5 & 0xFFFF
//  611 
//  612     regs[0] = (unsigned char)((gyro_bias_body[1] >> 24) & 0xFF);
??dmp_set_gyro_bias_3:
        MOV     A,#0x8
        LCALL   ?XSTACK_DISP0_8
        MOV     R0,#?V0 + 4
        LCALL   ?L_MOV_X
        MOV     ?V0 + 0,?V0 + 4
        MOV     ?V0 + 1,?V0 + 5
        MOV     ?V0 + 2,?V0 + 6
        MOV     ?V0 + 3,?V0 + 7
        MOV     A,#0x18
        MOV     R0,#?V0 + 0
        LCALL   ?SL_SHR
        MOV     DPL,?XSP + 0
        MOV     DPH,?XSP + 1
        MOV     A,?V0 + 0
        MOVX    @DPTR,A
//  613     regs[1] = (unsigned char)((gyro_bias_body[1] >> 16) & 0xFF);
        MOV     ?V0 + 0,?V0 + 4
        MOV     ?V0 + 1,?V0 + 5
        MOV     ?V0 + 2,?V0 + 6
        MOV     ?V0 + 3,?V0 + 7
        MOV     A,#0x10
        MOV     R0,#?V0 + 0
        LCALL   ?SL_SHR
        INC     A
        LCALL   ?XSTACK_DISP0_8
        MOV     A,?V0 + 0
        MOVX    @DPTR,A
//  614     regs[2] = (unsigned char)((gyro_bias_body[1] >> 8) & 0xFF);
        MOV     ?V0 + 0,?V0 + 4
        MOV     ?V0 + 1,?V0 + 5
        MOV     A,#0x8
        MOV     R0,#?V0 + 0
        LCALL   ?SS_SHR
        MOV     A,#0x2
        LCALL   ?XSTACK_DISP0_8
        MOV     A,?V0 + 0
        MOVX    @DPTR,A
//  615     regs[3] = (unsigned char)(gyro_bias_body[1] & 0xFF);
        MOV     A,#0x3
        LCALL   ?XSTACK_DISP0_8
        MOV     A,?V0 + 4
        MOVX    @DPTR,A
//  616     if (mpu_write_mem(D_EXT_GYRO_BIAS_Y, 4, regs))
        ; Setup parameters for call to function mpu_write_mem
        MOV     DPL,?XSP + 0
        MOV     DPH,?XSP + 1
        MOV     ?V0 + 0,DPL
        MOV     ?V0 + 1,DPH
        MOV     R0,#?V0 + 0
        LCALL   ?PUSH_XSTACK_I_TWO
        CFI CFA_XSP16 add(XSP16, 34)
        MOV     R4,#0x4
        MOV     R5,#0x0
        MOV     R2,#-0x2c
        MOV     R3,#0x3
        LCALL   ??mpu_write_mem?relay
        MOV     A,#0x2
        LCALL   ?DEALLOC_XSTACK8
        CFI CFA_XSP16 add(XSP16, 32)
        MOV     ?V0 + 1,R3
        MOV     A,R2
        ORL     A,?V0 + 1
        JZ      $+5
        LJMP    ??dmp_set_gyro_bias_4 & 0xFFFF
//  617         return -1;
//  618 
//  619     regs[0] = (unsigned char)((gyro_bias_body[2] >> 24) & 0xFF);
        MOV     A,#0xc
        LCALL   ?XSTACK_DISP0_8
        MOV     R0,#?V0 + 4
        LCALL   ?L_MOV_X
        MOV     ?V0 + 0,?V0 + 4
        MOV     ?V0 + 1,?V0 + 5
        MOV     ?V0 + 2,?V0 + 6
        MOV     ?V0 + 3,?V0 + 7
        MOV     A,#0x18
        MOV     R0,#?V0 + 0
        LCALL   ?SL_SHR
        MOV     DPL,?XSP + 0
        MOV     DPH,?XSP + 1
        MOV     A,?V0 + 0
        MOVX    @DPTR,A
//  620     regs[1] = (unsigned char)((gyro_bias_body[2] >> 16) & 0xFF);
        MOV     ?V0 + 0,?V0 + 4
        MOV     ?V0 + 1,?V0 + 5
        MOV     ?V0 + 2,?V0 + 6
        MOV     ?V0 + 3,?V0 + 7
        MOV     A,#0x10
        MOV     R0,#?V0 + 0
        LCALL   ?SL_SHR
        INC     A
        LCALL   ?XSTACK_DISP0_8
        MOV     A,?V0 + 0
        MOVX    @DPTR,A
//  621     regs[2] = (unsigned char)((gyro_bias_body[2] >> 8) & 0xFF);
        MOV     ?V0 + 0,?V0 + 4
        MOV     ?V0 + 1,?V0 + 5
        MOV     A,#0x8
        MOV     R0,#?V0 + 0
        LCALL   ?SS_SHR
        MOV     A,#0x2
        LCALL   ?XSTACK_DISP0_8
        MOV     A,?V0 + 0
        MOVX    @DPTR,A
//  622     regs[3] = (unsigned char)(gyro_bias_body[2] & 0xFF);
        MOV     A,#0x3
        LCALL   ?XSTACK_DISP0_8
        MOV     A,?V0 + 4
        MOVX    @DPTR,A
//  623     return mpu_write_mem(D_EXT_GYRO_BIAS_Z, 4, regs);
        ; Setup parameters for call to function mpu_write_mem
        MOV     DPL,?XSP + 0
        MOV     DPH,?XSP + 1
        MOV     ?V0 + 0,DPL
        MOV     ?V0 + 1,DPH
        MOV     R0,#?V0 + 0
        LCALL   ?PUSH_XSTACK_I_TWO
        CFI CFA_XSP16 add(XSP16, 34)
        MOV     R4,#0x4
        MOV     R5,#0x0
        MOV     R2,#-0x28
        MOV     R3,#0x3
        LCALL   ??mpu_write_mem?relay
        MOV     A,#0x2
        LCALL   ?DEALLOC_XSTACK8
        CFI CFA_XSP16 add(XSP16, 32)
??dmp_set_gyro_bias_5:
        MOV     A,#0x10
        LCALL   ?DEALLOC_XSTACK8
        CFI CFA_XSP16 add(XSP16, 16)
        MOV     R7,#0x8
        LJMP    ?BANKED_LEAVE_XDATA
        CFI EndBlock cfiBlock2
//  624 }
//  625 
//  626 /**
//  627  *  @brief      Push accel biases to the DMP.
//  628  *  These biases will be removed from the DMP 6-axis quaternion.
//  629  *  @param[in]  bias    Accel biases in q16.
//  630  *  @return     0 if successful.
//  631  */

        RSEG BANKED_CODE:CODE:NOROOT(0)
//  632 int dmp_set_accel_bias(long *bias)
dmp_set_accel_bias:
        CFI Block cfiBlock3 Using cfiCommon0
        CFI Function dmp_set_accel_bias
        CODE
//  633 {
        FUNCALL dmp_set_accel_bias, mpu_get_accel_sens
        LOCFRAME ISTACK, 0, STACK
        LOCFRAME PSTACK, 0, STACK
        LOCFRAME XSTACK, 46, STACK
        LOCFRAME IOVERLAY, 0, STATIC
        LOCFRAME DOVERLAY, 0, STATIC
        ARGFRAME ISTACK, 0, STACK
        ARGFRAME PSTACK, 0, STACK
        ARGFRAME XSTACK, 46, STACK
        ARGFRAME IOVERLAY, 0, STATIC
        ARGFRAME DOVERLAY, 0, STATIC
        FUNCALL dmp_set_accel_bias, mpu_write_mem
        LOCFRAME ISTACK, 0, STACK
        LOCFRAME PSTACK, 0, STACK
        LOCFRAME XSTACK, 48, STACK
        LOCFRAME IOVERLAY, 0, STATIC
        LOCFRAME DOVERLAY, 0, STATIC
        ARGFRAME ISTACK, 0, STACK
        ARGFRAME PSTACK, 0, STACK
        ARGFRAME XSTACK, 48, STACK
        ARGFRAME IOVERLAY, 0, STATIC
        ARGFRAME DOVERLAY, 0, STATIC
        MOV     A,#-0x14
        LCALL   ?BANKED_ENTER_XDATA
        CFI DPH0 load(1, XDATA, add(CFA_XSP16, literal(-1)))
        CFI DPL0 load(1, XDATA, add(CFA_XSP16, literal(-2)))
        CFI ?BRET_EXT load(1, XDATA, add(CFA_XSP16, literal(-3)))
        CFI ?RET_HIGH load(1, XDATA, add(CFA_XSP16, literal(-4)))
        CFI ?RET_LOW load(1, XDATA, add(CFA_XSP16, literal(-5)))
        CFI R7 load(1, XDATA, add(CFA_XSP16, literal(-6)))
        CFI V11 load(1, XDATA, add(CFA_XSP16, literal(-7)))
        CFI V10 load(1, XDATA, add(CFA_XSP16, literal(-8)))
        CFI V9 load(1, XDATA, add(CFA_XSP16, literal(-9)))
        CFI V8 load(1, XDATA, add(CFA_XSP16, literal(-10)))
        CFI V7 load(1, XDATA, add(CFA_XSP16, literal(-11)))
        CFI V6 load(1, XDATA, add(CFA_XSP16, literal(-12)))
        CFI V5 load(1, XDATA, add(CFA_XSP16, literal(-13)))
        CFI V4 load(1, XDATA, add(CFA_XSP16, literal(-14)))
        CFI V3 load(1, XDATA, add(CFA_XSP16, literal(-15)))
        CFI V2 load(1, XDATA, add(CFA_XSP16, literal(-16)))
        CFI V1 load(1, XDATA, add(CFA_XSP16, literal(-17)))
        CFI V0 load(1, XDATA, add(CFA_XSP16, literal(-18)))
        CFI VB load(1, XDATA, add(CFA_XSP16, literal(-19)))
        CFI R6 load(1, XDATA, add(CFA_XSP16, literal(-20)))
        CFI CFA_SP SP+0
        CFI CFA_XSP16 add(XSP16, 20)
        ; Saved register size: 20
        ; Auto size: 26
        MOV     A,#-0x1a
        LCALL   ?ALLOC_XSTACK8
        CFI CFA_XSP16 add(XSP16, 46)
        MOV     ?V0 + 0,R2
        MOV     ?V0 + 1,R3
//  634     long accel_bias_body[3];
//  635     unsigned char regs[12];
//  636     long long accel_sf;
//  637     unsigned short accel_sens;
//  638 
//  639     mpu_get_accel_sens(&accel_sens);
        ; Setup parameters for call to function mpu_get_accel_sens
        MOV     DPL,?XSP + 0
        MOV     DPH,?XSP + 1
        MOV     R2,DPL
        MOV     R3,DPH
        LCALL   ??mpu_get_accel_sens?relay
//  640     accel_sf = (long long)accel_sens << 15;
        MOV     DPL,?XSP + 0
        MOV     DPH,?XSP + 1
        MOVX    A,@DPTR
        MOV     ?V0 + 4,A
        INC     DPTR
        MOVX    A,@DPTR
        MOV     ?V0 + 5,A
        CLR     A
        MOV     ?V0 + 6,A
        MOV     ?V0 + 7,A
        MOV     A,#0xf
        MOV     R0,#?V0 + 4
        LCALL   ?L_SHL
//  641     //__no_operation();
//  642 
//  643     accel_bias_body[0] = bias[dmp.orient & 3];
        MOV     DPTR,#dmp + 4
        MOVX    A,@DPTR
        MOV     R6,A
        INC     DPTR
        MOVX    A,@DPTR
        MOV     R7,A
        MOV     A,R6
        ANL     A,#0x3
        MOV     ?V0 + 2,A
        MOV     ?V0 + 3,#0x0
        MOV     A,#0x2
        MOV     R0,#?V0 + 2
        LCALL   ?S_SHL
        MOV     A,?V0 + 0
        ADD     A,?V0 + 2
        MOV     DPL,A
        MOV     A,?V0 + 1
        ADDC    A,#0x0
        MOV     DPH,A
        LCALL   ?XLOAD_R2345
        MOV     A,#0x2
        LCALL   ?XSTACK_DISP0_8
        LCALL   ?XSTORE_R2345
//  644     if (dmp.orient & 4)
        MOV     A,R6
        ANL     A,#0x4
        JZ      ??dmp_set_accel_bias_0
//  645         accel_bias_body[0] *= -1;
        MOV     A,#0x2
        LCALL   ?XSTACK_DISP0_8
        MOV     R0,#?V0 + 8
        LCALL   ?L_MOV_X
        MOV     R0,#?V0 + 8
        LCALL   ?L_NEG
        MOV     A,#0x2
        LCALL   ?XSTACK_DISP0_8
        MOV     R0,#?V0 + 8
        LCALL   ?L_MOV_TO_X
//  646     accel_bias_body[1] = bias[(dmp.orient >> 3) & 3];
??dmp_set_accel_bias_0:
        MOV     A,R6
        RRC     A
        RRC     A
        RRC     A
        ANL     A,#0x1f
        ANL     A,#0x3
        MOV     ?V0 + 2,A
        MOV     A,#0x2
        MOV     R0,#?V0 + 2
        LCALL   ?S_SHL
        MOV     A,?V0 + 0
        ADD     A,?V0 + 2
        MOV     DPL,A
        MOV     A,?V0 + 1
        ADDC    A,#0x0
        MOV     DPH,A
        MOV     R0,#?V0 + 8
        LCALL   ?L_MOV_X
        MOV     A,#0x6
        LCALL   ?XSTACK_DISP0_8
        MOV     R0,#?V0 + 8
        LCALL   ?L_MOV_TO_X
//  647     if (dmp.orient & 0x20)
        MOV     A,R6
        ANL     A,#0x20
        JZ      ??dmp_set_accel_bias_1
//  648         accel_bias_body[1] *= -1;
        MOV     R0,#?V0 + 8
        LCALL   ?L_NEG
        MOV     A,#0x6
        LCALL   ?XSTACK_DISP0_8
        MOV     R0,#?V0 + 8
        LCALL   ?L_MOV_TO_X
//  649     accel_bias_body[2] = bias[(dmp.orient >> 6) & 3];
??dmp_set_accel_bias_1:
        MOV     A,R6
        SWAP    A
        ANL     A,#0xf
        ANL     A,#0xfc
        MOV     R0,A
        MOV     A,?V0 + 0
        ADD     A,R0
        MOV     DPL,A
        MOV     A,?V0 + 1
        ADDC    A,#0x0
        MOV     DPH,A
        MOV     R0,#?V0 + 0
        LCALL   ?L_MOV_X
        MOV     A,#0xa
        LCALL   ?XSTACK_DISP0_8
        MOV     R0,#?V0 + 0
        LCALL   ?L_MOV_TO_X
//  650     if (dmp.orient & 0x100)
        MOV     A,R7
        ANL     A,#0x1
        JZ      ??dmp_set_accel_bias_2
//  651         accel_bias_body[2] *= -1;
        MOV     R0,#?V0 + 0
        LCALL   ?L_NEG
        MOV     A,#0xa
        LCALL   ?XSTACK_DISP0_8
        MOV     R0,#?V0 + 0
        LCALL   ?L_MOV_TO_X
//  652 
//  653 #ifdef EMPL_NO_64BIT
//  654     accel_bias_body[0] = (long)(((float)accel_bias_body[0] * accel_sf) / 1073741824.f);
//  655     accel_bias_body[1] = (long)(((float)accel_bias_body[1] * accel_sf) / 1073741824.f);
//  656     accel_bias_body[2] = (long)(((float)accel_bias_body[2] * accel_sf) / 1073741824.f);
//  657 #else
//  658     accel_bias_body[0] = (long)(((long long)accel_bias_body[0] * accel_sf) >> 30);
??dmp_set_accel_bias_2:
        MOV     A,#0x2
        LCALL   ?XSTACK_DISP0_8
        MOV     R0,#?V0 + 0
        LCALL   ?L_MOV_X
        MOV     R0,#?V0 + 0
        MOV     R1,#?V0 + 4
        LCALL   ?L_MUL
        MOV     A,#0x1e
        MOV     R0,#?V0 + 0
        LCALL   ?SL_SHR
        MOV     A,#0x2
        LCALL   ?XSTACK_DISP0_8
        MOV     R0,#?V0 + 0
        LCALL   ?L_MOV_TO_X
//  659     accel_bias_body[1] = (long)(((long long)accel_bias_body[1] * accel_sf) >> 30);
        MOV     A,#0x6
        LCALL   ?XSTACK_DISP0_8
        MOV     R0,#?V0 + 0
        LCALL   ?L_MOV_X
        MOV     R0,#?V0 + 0
        MOV     R1,#?V0 + 4
        LCALL   ?L_MUL
        MOV     A,#0x1e
        MOV     R0,#?V0 + 0
        LCALL   ?SL_SHR
        MOV     A,#0x6
        LCALL   ?XSTACK_DISP0_8
        MOV     R0,#?V0 + 0
        LCALL   ?L_MOV_TO_X
//  660     accel_bias_body[2] = (long)(((long long)accel_bias_body[2] * accel_sf) >> 30);
        MOV     A,#0xa
        LCALL   ?XSTACK_DISP0_8
        MOV     R0,#?V0 + 8
        LCALL   ?L_MOV_X
        MOV     R0,#?V0 + 8
        MOV     R1,#?V0 + 4
        LCALL   ?L_MUL
        MOV     A,#0x1e
        MOV     R0,#?V0 + 8
        LCALL   ?SL_SHR
        MOV     A,#0xa
        LCALL   ?XSTACK_DISP0_8
        MOV     R0,#?V0 + 8
        LCALL   ?L_MOV_TO_X
//  661 #endif
//  662 
//  663     regs[0] = (unsigned char)((accel_bias_body[0] >> 24) & 0xFF);
        MOV     A,#0x2
        LCALL   ?XSTACK_DISP0_8
        MOV     R0,#?V0 + 4
        LCALL   ?L_MOV_X
        MOV     A,#0x18
        MOV     R0,#?V0 + 4
        LCALL   ?SL_SHR
        MOV     A,#0xe
        LCALL   ?XSTACK_DISP0_8
        MOV     A,?V0 + 4
        MOVX    @DPTR,A
//  664     regs[1] = (unsigned char)((accel_bias_body[0] >> 16) & 0xFF);
        MOV     A,#0x2
        LCALL   ?XSTACK_DISP0_8
        MOV     R0,#?V0 + 4
        LCALL   ?L_MOV_X
        MOV     A,#0x10
        MOV     R0,#?V0 + 4
        LCALL   ?SL_SHR
        MOV     A,#0xf
        LCALL   ?XSTACK_DISP0_8
        MOV     A,?V0 + 4
        MOVX    @DPTR,A
//  665     regs[2] = (unsigned char)((accel_bias_body[0] >> 8) & 0xFF);
        MOV     A,#0x2
        LCALL   ?XSTACK_DISP0_8
        MOV     R0,#?V0 + 4
        LCALL   ?L_MOV_X
        MOV     A,#0x8
        MOV     R0,#?V0 + 4
        LCALL   ?SS_SHR
        MOV     A,#0x10
        LCALL   ?XSTACK_DISP0_8
        MOV     A,?V0 + 4
        MOVX    @DPTR,A
//  666     regs[3] = (unsigned char)(accel_bias_body[0] & 0xFF);
        MOV     A,#0x2
        LCALL   ?XSTACK_DISP0_8
        MOV     R0,#?V0 + 4
        LCALL   ?L_MOV_X
        MOV     A,#0x11
        LCALL   ?XSTACK_DISP0_8
        MOV     A,?V0 + 4
        MOVX    @DPTR,A
//  667     regs[4] = (unsigned char)((accel_bias_body[1] >> 24) & 0xFF);
        MOV     ?V0 + 4,?V0 + 0
        MOV     ?V0 + 5,?V0 + 1
        MOV     ?V0 + 6,?V0 + 2
        MOV     ?V0 + 7,?V0 + 3
        MOV     A,#0x18
        MOV     R0,#?V0 + 4
        LCALL   ?SL_SHR
        MOV     A,#0x12
        LCALL   ?XSTACK_DISP0_8
        MOV     A,?V0 + 4
        MOVX    @DPTR,A
//  668     regs[5] = (unsigned char)((accel_bias_body[1] >> 16) & 0xFF);
        MOV     ?V0 + 4,?V0 + 0
        MOV     ?V0 + 5,?V0 + 1
        MOV     ?V0 + 6,?V0 + 2
        MOV     ?V0 + 7,?V0 + 3
        MOV     A,#0x10
        MOV     R0,#?V0 + 4
        LCALL   ?SL_SHR
        MOV     A,#0x13
        LCALL   ?XSTACK_DISP0_8
        MOV     A,?V0 + 4
        MOVX    @DPTR,A
//  669     regs[6] = (unsigned char)((accel_bias_body[1] >> 8) & 0xFF);
        MOV     ?V0 + 4,?V0 + 0
        MOV     ?V0 + 5,?V0 + 1
        MOV     A,#0x8
        MOV     R0,#?V0 + 4
        LCALL   ?SS_SHR
        MOV     A,#0x14
        LCALL   ?XSTACK_DISP0_8
        MOV     A,?V0 + 4
        MOVX    @DPTR,A
//  670     regs[7] = (unsigned char)(accel_bias_body[1] & 0xFF);
        MOV     A,#0x15
        LCALL   ?XSTACK_DISP0_8
        MOV     A,?V0 + 0
        MOVX    @DPTR,A
//  671     regs[8] = (unsigned char)((accel_bias_body[2] >> 24) & 0xFF);
        MOV     ?V0 + 0,?V0 + 8
        MOV     ?V0 + 1,?V0 + 9
        MOV     ?V0 + 2,?V0 + 10
        MOV     ?V0 + 3,?V0 + 11
        MOV     A,#0x18
        MOV     R0,#?V0 + 0
        LCALL   ?SL_SHR
        MOV     A,#0x16
        LCALL   ?XSTACK_DISP0_8
        MOV     A,?V0 + 0
        MOVX    @DPTR,A
//  672     regs[9] = (unsigned char)((accel_bias_body[2] >> 16) & 0xFF);
        MOV     ?V0 + 0,?V0 + 8
        MOV     ?V0 + 1,?V0 + 9
        MOV     ?V0 + 2,?V0 + 10
        MOV     ?V0 + 3,?V0 + 11
        MOV     A,#0x10
        MOV     R0,#?V0 + 0
        LCALL   ?SL_SHR
        MOV     A,#0x17
        LCALL   ?XSTACK_DISP0_8
        MOV     A,?V0 + 0
        MOVX    @DPTR,A
//  673     regs[10] = (unsigned char)((accel_bias_body[2] >> 8) & 0xFF);
        MOV     ?V0 + 0,?V0 + 8
        MOV     ?V0 + 1,?V0 + 9
        MOV     A,#0x8
        MOV     R0,#?V0 + 0
        LCALL   ?SS_SHR
        MOV     A,#0x18
        LCALL   ?XSTACK_DISP0_8
        MOV     A,?V0 + 0
        MOVX    @DPTR,A
//  674     regs[11] = (unsigned char)(accel_bias_body[2] & 0xFF);
        MOV     A,#0x19
        LCALL   ?XSTACK_DISP0_8
        MOV     A,?V0 + 8
        MOVX    @DPTR,A
//  675     return mpu_write_mem(D_ACCEL_BIAS, 12, regs);
        ; Setup parameters for call to function mpu_write_mem
        MOV     A,#0xe
        LCALL   ?XSTACK_DISP0_8
        MOV     ?V0 + 0,DPL
        MOV     ?V0 + 1,DPH
        MOV     R0,#?V0 + 0
        LCALL   ?PUSH_XSTACK_I_TWO
        CFI CFA_XSP16 add(XSP16, 48)
        MOV     R4,#0xc
        MOV     R5,#0x0
        MOV     R2,#-0x6c
        MOV     R3,#0x2
        LCALL   ??mpu_write_mem?relay
        MOV     A,#0x2
        LCALL   ?DEALLOC_XSTACK8
        CFI CFA_XSP16 add(XSP16, 46)
        MOV     A,#0x1a
        LCALL   ?DEALLOC_XSTACK8
        CFI CFA_XSP16 add(XSP16, 20)
        MOV     R7,#0xc
        LJMP    ?BANKED_LEAVE_XDATA
        CFI EndBlock cfiBlock3
//  676 }
//  677 
//  678 /**
//  679  *  @brief      Set DMP output rate.
//  680  *  Only used when DMP is on.
//  681  *  @param[in]  rate    Desired fifo rate (Hz).
//  682  *  @return     0 if successful.
//  683  */

        RSEG BANKED_CODE:CODE:NOROOT(0)
//  684 int dmp_set_fifo_rate(unsigned short rate)
dmp_set_fifo_rate:
        CFI Block cfiBlock4 Using cfiCommon0
        CFI Function dmp_set_fifo_rate
        CODE
//  685 {
        FUNCALL dmp_set_fifo_rate, mpu_write_mem
        LOCFRAME ISTACK, 0, STACK
        LOCFRAME PSTACK, 0, STACK
        LOCFRAME XSTACK, 32, STACK
        LOCFRAME IOVERLAY, 0, STATIC
        LOCFRAME DOVERLAY, 0, STATIC
        ARGFRAME ISTACK, 0, STACK
        ARGFRAME PSTACK, 0, STACK
        ARGFRAME XSTACK, 32, STACK
        ARGFRAME IOVERLAY, 0, STATIC
        ARGFRAME DOVERLAY, 0, STATIC
        FUNCALL dmp_set_fifo_rate, mpu_write_mem
        LOCFRAME ISTACK, 0, STACK
        LOCFRAME PSTACK, 0, STACK
        LOCFRAME XSTACK, 32, STACK
        LOCFRAME IOVERLAY, 0, STATIC
        LOCFRAME DOVERLAY, 0, STATIC
        ARGFRAME ISTACK, 0, STACK
        ARGFRAME PSTACK, 0, STACK
        ARGFRAME XSTACK, 32, STACK
        ARGFRAME IOVERLAY, 0, STATIC
        ARGFRAME DOVERLAY, 0, STATIC
        MOV     A,#-0xa
        LCALL   ?BANKED_ENTER_XDATA
        CFI DPH0 load(1, XDATA, add(CFA_XSP16, literal(-1)))
        CFI DPL0 load(1, XDATA, add(CFA_XSP16, literal(-2)))
        CFI ?BRET_EXT load(1, XDATA, add(CFA_XSP16, literal(-3)))
        CFI ?RET_HIGH load(1, XDATA, add(CFA_XSP16, literal(-4)))
        CFI ?RET_LOW load(1, XDATA, add(CFA_XSP16, literal(-5)))
        CFI R7 load(1, XDATA, add(CFA_XSP16, literal(-6)))
        CFI V1 load(1, XDATA, add(CFA_XSP16, literal(-7)))
        CFI V0 load(1, XDATA, add(CFA_XSP16, literal(-8)))
        CFI VB load(1, XDATA, add(CFA_XSP16, literal(-9)))
        CFI R6 load(1, XDATA, add(CFA_XSP16, literal(-10)))
        CFI CFA_SP SP+0
        CFI CFA_XSP16 add(XSP16, 10)
        ; Saved register size: 10
        ; Auto size: 20
        MOV     A,#-0x14
        LCALL   ?ALLOC_XSTACK8
        CFI CFA_XSP16 add(XSP16, 30)
        MOV     A,R2
        MOV     R6,A
        MOV     A,R3
        MOV     R7,A
//  686     const unsigned char regs_end[12] = {DINAFE, DINAF2, DINAAB,
//  687         0xc4, DINAAA, DINAF1, DINADF, DINADF, 0xBB, 0xAF, DINADF, DINADF};
        MOV     DPTR,#`?<Constant {254, 242, 171, 196, 170, 241, 223,`
        PUSH    DPL
        CFI CFA_SP SP+-1
        PUSH    DPH
        CFI CFA_SP SP+-2
        MOV     A,#0x8
        LCALL   ?XSTACK_DISP0_8
        MOV     R4,DPL
        MOV     R5,DPH
        POP     DPH
        CFI CFA_SP SP+-1
        POP     DPL
        CFI CFA_SP SP+0
        MOV     A,#0xc
        LCALL   ?MOVE_LONG8_XDATA_XDATA
//  688     unsigned short div;
//  689     unsigned char tmp[8];
//  690 
//  691     if (rate > DMP_SAMPLE_RATE)
        CLR     C
        MOV     A,R6
        SUBB    A,#-0x37
        MOV     A,R7
        SUBB    A,#0x0
        JC      ??dmp_set_fifo_rate_0
//  692         return -1;
??dmp_set_fifo_rate_1:
        MOV     R2,#-0x1
        MOV     R3,#-0x1
        SJMP    ??dmp_set_fifo_rate_2
//  693     div = DMP_SAMPLE_RATE / rate - 1;
??dmp_set_fifo_rate_0:
        MOV     R0,#-0x38
        MOV     R1,#0x0
        LCALL   ?US_DIV_MOD
        MOV     A,R0
        ADD     A,#-0x1
        DEC     R0
        MOV     A,R1
        ADDC    A,#-0x1
//  694     tmp[0] = (unsigned char)((div >> 8) & 0xFF);
        MOV     DPL,?XSP + 0
        MOV     DPH,?XSP + 1
        MOVX    @DPTR,A
//  695     tmp[1] = (unsigned char)(div & 0xFF);
        MOV     A,R0
        PUSH    A
        CFI CFA_SP SP+-1
        MOV     A,#0x1
        LCALL   ?XSTACK_DISP0_8
        POP     A
        CFI CFA_SP SP+0
        MOVX    @DPTR,A
//  696     if (mpu_write_mem(D_0_22, 2, tmp))
        ; Setup parameters for call to function mpu_write_mem
        MOV     DPL,?XSP + 0
        MOV     DPH,?XSP + 1
        MOV     ?V0 + 0,DPL
        MOV     ?V0 + 1,DPH
        MOV     R0,#?V0 + 0
        LCALL   ?PUSH_XSTACK_I_TWO
        CFI CFA_XSP16 add(XSP16, 32)
        MOV     R4,#0x2
        MOV     R5,#0x0
        MOV     R2,#0x16
        MOV     R3,#0x2
        LCALL   ??mpu_write_mem?relay
        MOV     A,#0x2
        LCALL   ?DEALLOC_XSTACK8
        CFI CFA_XSP16 add(XSP16, 30)
        MOV     ?V0 + 1,R3
        MOV     A,R2
        ORL     A,?V0 + 1
        JNZ     ??dmp_set_fifo_rate_1
//  697         return -1;
//  698     if (mpu_write_mem(CFG_6, 12, (unsigned char*)regs_end))
        ; Setup parameters for call to function mpu_write_mem
        MOV     A,#0x8
        LCALL   ?XSTACK_DISP0_8
        MOV     ?V0 + 0,DPL
        MOV     ?V0 + 1,DPH
        MOV     R0,#?V0 + 0
        LCALL   ?PUSH_XSTACK_I_TWO
        CFI CFA_XSP16 add(XSP16, 32)
        MOV     R4,#0xc
        MOV     R5,#0x0
        MOV     R2,#-0x3f
        MOV     R3,#0xa
        LCALL   ??mpu_write_mem?relay
        MOV     A,#0x2
        LCALL   ?DEALLOC_XSTACK8
        CFI CFA_XSP16 add(XSP16, 30)
        MOV     ?V0 + 1,R3
        MOV     A,R2
        ORL     A,?V0 + 1
        JNZ     ??dmp_set_fifo_rate_1
//  699         return -1;
//  700 
//  701     dmp.fifo_rate = rate;
        MOV     DPTR,#dmp + 8
        MOV     A,R6
        MOVX    @DPTR,A
        INC     DPTR
        MOV     A,R7
        MOVX    @DPTR,A
//  702     return 0;
        MOV     R2,#0x0
        MOV     R3,#0x0
??dmp_set_fifo_rate_2:
        MOV     A,#0x14
        LCALL   ?DEALLOC_XSTACK8
        CFI CFA_XSP16 add(XSP16, 10)
        MOV     R7,#0x2
        LJMP    ?BANKED_LEAVE_XDATA
        CFI EndBlock cfiBlock4
//  703 }
//  704 
//  705 /**
//  706  *  @brief      Get DMP output rate.
//  707  *  @param[out] rate    Current fifo rate (Hz).
//  708  *  @return     0 if successful.
//  709  */

        RSEG BANKED_CODE:CODE:NOROOT(0)
//  710 int dmp_get_fifo_rate(unsigned short *rate)
dmp_get_fifo_rate:
        CFI Block cfiBlock5 Using cfiCommon0
        CFI Function dmp_get_fifo_rate
        CODE
//  711 {
        PUSH    DPL
        CFI DPL0 Frame(CFA_SP, 4)
        CFI CFA_SP SP+-4
        PUSH    DPH
        CFI DPH0 Frame(CFA_SP, 5)
        CFI CFA_SP SP+-5
        ; Saved register size: 2
        ; Auto size: 0
//  712     rate[0] = dmp.fifo_rate;
        MOV     DPTR,#dmp + 8
        MOVX    A,@DPTR
        MOV     R0,A
        INC     DPTR
        MOVX    A,@DPTR
        MOV     R1,A
        MOV     DPL,R2
        MOV     DPH,R3
        MOV     A,R0
        MOVX    @DPTR,A
        INC     DPTR
        MOV     A,R1
        MOVX    @DPTR,A
//  713     return 0;
        MOV     R2,#0x0
        MOV     R3,#0x0
        POP     DPH
        CFI DPH0 SameValue
        CFI CFA_SP SP+-4
        POP     DPL
        CFI DPL0 SameValue
        CFI CFA_SP SP+-3
        LJMP    ?BRET
        CFI EndBlock cfiBlock5
//  714 }
//  715 
//  716 /**
//  717  *  @brief      Set tap threshold for a specific axis.
//  718  *  @param[in]  axis    1, 2, and 4 for XYZ accel, respectively.
//  719  *  @param[in]  thresh  Tap threshold, in mg/ms.
//  720  *  @return     0 if successful.
//  721  */

        RSEG BANKED_CODE:CODE:NOROOT(0)
//  722 int dmp_set_tap_thresh(unsigned char axis, unsigned short thresh)
dmp_set_tap_thresh:
        CFI Block cfiBlock6 Using cfiCommon0
        CFI Function dmp_set_tap_thresh
        CODE
//  723 {
        FUNCALL dmp_set_tap_thresh, mpu_get_accel_fsr
        LOCFRAME ISTACK, 0, STACK
        LOCFRAME PSTACK, 0, STACK
        LOCFRAME XSTACK, 25, STACK
        LOCFRAME IOVERLAY, 0, STATIC
        LOCFRAME DOVERLAY, 0, STATIC
        ARGFRAME ISTACK, 0, STACK
        ARGFRAME PSTACK, 0, STACK
        ARGFRAME XSTACK, 25, STACK
        ARGFRAME IOVERLAY, 0, STATIC
        ARGFRAME DOVERLAY, 0, STATIC
        FUNCALL dmp_set_tap_thresh, mpu_write_mem
        LOCFRAME ISTACK, 0, STACK
        LOCFRAME PSTACK, 0, STACK
        LOCFRAME XSTACK, 27, STACK
        LOCFRAME IOVERLAY, 0, STATIC
        LOCFRAME DOVERLAY, 0, STATIC
        ARGFRAME ISTACK, 0, STACK
        ARGFRAME PSTACK, 0, STACK
        ARGFRAME XSTACK, 27, STACK
        ARGFRAME IOVERLAY, 0, STATIC
        ARGFRAME DOVERLAY, 0, STATIC
        FUNCALL dmp_set_tap_thresh, mpu_write_mem
        LOCFRAME ISTACK, 0, STACK
        LOCFRAME PSTACK, 0, STACK
        LOCFRAME XSTACK, 27, STACK
        LOCFRAME IOVERLAY, 0, STATIC
        LOCFRAME DOVERLAY, 0, STATIC
        ARGFRAME ISTACK, 0, STACK
        ARGFRAME PSTACK, 0, STACK
        ARGFRAME XSTACK, 27, STACK
        ARGFRAME IOVERLAY, 0, STATIC
        ARGFRAME DOVERLAY, 0, STATIC
        FUNCALL dmp_set_tap_thresh, mpu_write_mem
        LOCFRAME ISTACK, 0, STACK
        LOCFRAME PSTACK, 0, STACK
        LOCFRAME XSTACK, 27, STACK
        LOCFRAME IOVERLAY, 0, STATIC
        LOCFRAME DOVERLAY, 0, STATIC
        ARGFRAME ISTACK, 0, STACK
        ARGFRAME PSTACK, 0, STACK
        ARGFRAME XSTACK, 27, STACK
        ARGFRAME IOVERLAY, 0, STATIC
        ARGFRAME DOVERLAY, 0, STATIC
        FUNCALL dmp_set_tap_thresh, mpu_write_mem
        LOCFRAME ISTACK, 0, STACK
        LOCFRAME PSTACK, 0, STACK
        LOCFRAME XSTACK, 27, STACK
        LOCFRAME IOVERLAY, 0, STATIC
        LOCFRAME DOVERLAY, 0, STATIC
        ARGFRAME ISTACK, 0, STACK
        ARGFRAME PSTACK, 0, STACK
        ARGFRAME XSTACK, 27, STACK
        ARGFRAME IOVERLAY, 0, STATIC
        ARGFRAME DOVERLAY, 0, STATIC
        FUNCALL dmp_set_tap_thresh, mpu_write_mem
        LOCFRAME ISTACK, 0, STACK
        LOCFRAME PSTACK, 0, STACK
        LOCFRAME XSTACK, 27, STACK
        LOCFRAME IOVERLAY, 0, STATIC
        LOCFRAME DOVERLAY, 0, STATIC
        ARGFRAME ISTACK, 0, STACK
        ARGFRAME PSTACK, 0, STACK
        ARGFRAME XSTACK, 27, STACK
        ARGFRAME IOVERLAY, 0, STATIC
        ARGFRAME DOVERLAY, 0, STATIC
        FUNCALL dmp_set_tap_thresh, mpu_write_mem
        LOCFRAME ISTACK, 0, STACK
        LOCFRAME PSTACK, 0, STACK
        LOCFRAME XSTACK, 27, STACK
        LOCFRAME IOVERLAY, 0, STATIC
        LOCFRAME DOVERLAY, 0, STATIC
        ARGFRAME ISTACK, 0, STACK
        ARGFRAME PSTACK, 0, STACK
        ARGFRAME XSTACK, 27, STACK
        ARGFRAME IOVERLAY, 0, STATIC
        ARGFRAME DOVERLAY, 0, STATIC
        MOV     A,#-0x14
        LCALL   ?BANKED_ENTER_XDATA
        CFI DPH0 load(1, XDATA, add(CFA_XSP16, literal(-1)))
        CFI DPL0 load(1, XDATA, add(CFA_XSP16, literal(-2)))
        CFI ?BRET_EXT load(1, XDATA, add(CFA_XSP16, literal(-3)))
        CFI ?RET_HIGH load(1, XDATA, add(CFA_XSP16, literal(-4)))
        CFI ?RET_LOW load(1, XDATA, add(CFA_XSP16, literal(-5)))
        CFI R7 load(1, XDATA, add(CFA_XSP16, literal(-6)))
        CFI V11 load(1, XDATA, add(CFA_XSP16, literal(-7)))
        CFI V10 load(1, XDATA, add(CFA_XSP16, literal(-8)))
        CFI V9 load(1, XDATA, add(CFA_XSP16, literal(-9)))
        CFI V8 load(1, XDATA, add(CFA_XSP16, literal(-10)))
        CFI V7 load(1, XDATA, add(CFA_XSP16, literal(-11)))
        CFI V6 load(1, XDATA, add(CFA_XSP16, literal(-12)))
        CFI V5 load(1, XDATA, add(CFA_XSP16, literal(-13)))
        CFI V4 load(1, XDATA, add(CFA_XSP16, literal(-14)))
        CFI V3 load(1, XDATA, add(CFA_XSP16, literal(-15)))
        CFI V2 load(1, XDATA, add(CFA_XSP16, literal(-16)))
        CFI V1 load(1, XDATA, add(CFA_XSP16, literal(-17)))
        CFI V0 load(1, XDATA, add(CFA_XSP16, literal(-18)))
        CFI VB load(1, XDATA, add(CFA_XSP16, literal(-19)))
        CFI R6 load(1, XDATA, add(CFA_XSP16, literal(-20)))
        CFI CFA_SP SP+0
        CFI CFA_XSP16 add(XSP16, 20)
        ; Saved register size: 20
        ; Auto size: 5
        MOV     A,#-0x5
        LCALL   ?ALLOC_XSTACK8
        CFI CFA_XSP16 add(XSP16, 25)
        MOV     A,R1
        MOV     R6,A
//  724     unsigned char tmp[4], accel_fsr;
//  725     float scaled_thresh;
//  726     unsigned short dmp_thresh, dmp_thresh_2;
//  727     if (!(axis & TAP_XYZ) || thresh > 1600)
        MOV     A,#0x7
        ANL     A,R6
        JZ      ??dmp_set_tap_thresh_0
        CLR     C
        MOV     A,R2
        SUBB    A,#0x41
        MOV     A,R3
        SUBB    A,#0x6
        JC      ??dmp_set_tap_thresh_1
//  728         return -1;
??dmp_set_tap_thresh_0:
        MOV     R2,#-0x1
        MOV     R3,#-0x1
        LJMP    ??dmp_set_tap_thresh_2 & 0xFFFF
//  729 
//  730     scaled_thresh = (float)thresh / DMP_SAMPLE_RATE;
??dmp_set_tap_thresh_1:
        MOV     ?V0 + 4,R2
        MOV     ?V0 + 5,R3
        CLR     A
        MOV     ?V0 + 6,A
        MOV     ?V0 + 7,A
        MOV     R0,#?V0 + 4
        LCALL   ?UL_TO_FLT
        MOV     DPTR,#__Constant_43480000
        MOV     R0,#?V0 + 0
        LCALL   ?L_MOV_X
        MOV     R0,#?V0 + 4
        MOV     R1,#?V0 + 0
        LCALL   ?FLT_DIV
//  731 
//  732     mpu_get_accel_fsr(&accel_fsr);
        ; Setup parameters for call to function mpu_get_accel_fsr
        MOV     DPL,?XSP + 0
        MOV     DPH,?XSP + 1
        MOV     R2,DPL
        MOV     R3,DPH
        LCALL   ??mpu_get_accel_fsr?relay
//  733     switch (accel_fsr) {
        MOV     DPL,?XSP + 0
        MOV     DPH,?XSP + 1
        MOVX    A,@DPTR
        ADD     A,#-0x2
        JZ      ??dmp_set_tap_thresh_3
        ADD     A,#-0x2
        JZ      ??dmp_set_tap_thresh_4
        ADD     A,#-0x4
        JZ      ??dmp_set_tap_thresh_5
        ADD     A,#-0x8
        JZ      ??dmp_set_tap_thresh_6
        SJMP    ??dmp_set_tap_thresh_0
//  734     case 2:
//  735         dmp_thresh = (unsigned short)(scaled_thresh * 16384);
??dmp_set_tap_thresh_3:
        MOV     ?V0 + 0,?V0 + 4
        MOV     ?V0 + 1,?V0 + 5
        MOV     ?V0 + 2,?V0 + 6
        MOV     ?V0 + 3,?V0 + 7
        MOV     DPTR,#__Constant_46800000
        MOV     R0,#?V0 + 8
        LCALL   ?L_MOV_X
        MOV     R0,#?V0 + 0
        MOV     R1,#?V0 + 8
        LCALL   ?FLT_MUL
        MOV     R0,#?V0 + 0
        LCALL   ?FLT_TO_L
        MOV     R2,?V0 + 0
        MOV     R3,?V0 + 1
//  736         /* dmp_thresh * 0.75 */
//  737         dmp_thresh_2 = (unsigned short)(scaled_thresh * 12288);
        MOV     DPTR,#__Constant_46400000
        SJMP    ??dmp_set_tap_thresh_7
//  738         break;
//  739     case 4:
//  740         dmp_thresh = (unsigned short)(scaled_thresh * 8192);
??dmp_set_tap_thresh_4:
        MOV     ?V0 + 0,?V0 + 4
        MOV     ?V0 + 1,?V0 + 5
        MOV     ?V0 + 2,?V0 + 6
        MOV     ?V0 + 3,?V0 + 7
        MOV     DPTR,#__Constant_46000000
        MOV     R0,#?V0 + 8
        LCALL   ?L_MOV_X
        MOV     R0,#?V0 + 0
        MOV     R1,#?V0 + 8
        LCALL   ?FLT_MUL
        MOV     R0,#?V0 + 0
        LCALL   ?FLT_TO_L
        MOV     R2,?V0 + 0
        MOV     R3,?V0 + 1
//  741         /* dmp_thresh * 0.75 */
//  742         dmp_thresh_2 = (unsigned short)(scaled_thresh * 6144);
        MOV     DPTR,#__Constant_45c00000
        SJMP    ??dmp_set_tap_thresh_7
//  743         break;
//  744     case 8:
//  745         dmp_thresh = (unsigned short)(scaled_thresh * 4096);
??dmp_set_tap_thresh_5:
        MOV     ?V0 + 0,?V0 + 4
        MOV     ?V0 + 1,?V0 + 5
        MOV     ?V0 + 2,?V0 + 6
        MOV     ?V0 + 3,?V0 + 7
        MOV     DPTR,#__Constant_45800000
        MOV     R0,#?V0 + 8
        LCALL   ?L_MOV_X
        MOV     R0,#?V0 + 0
        MOV     R1,#?V0 + 8
        LCALL   ?FLT_MUL
        MOV     R0,#?V0 + 0
        LCALL   ?FLT_TO_L
        MOV     R2,?V0 + 0
        MOV     R3,?V0 + 1
//  746         /* dmp_thresh * 0.75 */
//  747         dmp_thresh_2 = (unsigned short)(scaled_thresh * 3072);
        MOV     DPTR,#__Constant_45400000
        SJMP    ??dmp_set_tap_thresh_7
//  748         break;
//  749     case 16:
//  750         dmp_thresh = (unsigned short)(scaled_thresh * 2048);
??dmp_set_tap_thresh_6:
        MOV     ?V0 + 0,?V0 + 4
        MOV     ?V0 + 1,?V0 + 5
        MOV     ?V0 + 2,?V0 + 6
        MOV     ?V0 + 3,?V0 + 7
        MOV     DPTR,#__Constant_45000000
        MOV     R0,#?V0 + 8
        LCALL   ?L_MOV_X
        MOV     R0,#?V0 + 0
        MOV     R1,#?V0 + 8
        LCALL   ?FLT_MUL
        MOV     R0,#?V0 + 0
        LCALL   ?FLT_TO_L
        MOV     R2,?V0 + 0
        MOV     R3,?V0 + 1
//  751         /* dmp_thresh * 0.75 */
//  752         dmp_thresh_2 = (unsigned short)(scaled_thresh * 1536);
        MOV     DPTR,#__Constant_44c00000
??dmp_set_tap_thresh_7:
        MOV     R0,#?V0 + 0
        LCALL   ?L_MOV_X
        MOV     R0,#?V0 + 4
        MOV     R1,#?V0 + 0
        LCALL   ?FLT_MUL
        MOV     R0,#?V0 + 4
        LCALL   ?FLT_TO_L
        MOV     R4,?V0 + 4
        MOV     R5,?V0 + 5
//  753         break;
//  754     default:
//  755         return -1;
//  756     }
//  757     tmp[0] = (unsigned char)(dmp_thresh >> 8);
        MOV     A,R3
        PUSH    A
        CFI CFA_SP SP+-1
        MOV     A,#0x1
        LCALL   ?XSTACK_DISP0_8
        POP     A
        CFI CFA_SP SP+0
        MOVX    @DPTR,A
//  758     tmp[1] = (unsigned char)(dmp_thresh & 0xFF);
        MOV     A,R2
        PUSH    A
        CFI CFA_SP SP+-1
        MOV     A,#0x2
        LCALL   ?XSTACK_DISP0_8
        POP     A
        CFI CFA_SP SP+0
        MOVX    @DPTR,A
//  759     tmp[2] = (unsigned char)(dmp_thresh_2 >> 8);
        MOV     A,R5
        PUSH    A
        CFI CFA_SP SP+-1
        MOV     A,#0x3
        LCALL   ?XSTACK_DISP0_8
        POP     A
        CFI CFA_SP SP+0
        MOVX    @DPTR,A
//  760     tmp[3] = (unsigned char)(dmp_thresh_2 & 0xFF);
        MOV     A,R4
        PUSH    A
        CFI CFA_SP SP+-1
        MOV     A,#0x4
        LCALL   ?XSTACK_DISP0_8
        POP     A
        CFI CFA_SP SP+0
        MOVX    @DPTR,A
//  761 
//  762     if (axis & TAP_X) {
        MOV     A,R6
        MOV     C,0xE0 /* A   */.0
        JNC     ??dmp_set_tap_thresh_8
//  763         if (mpu_write_mem(DMP_TAP_THX, 2, tmp))
        ; Setup parameters for call to function mpu_write_mem
        MOV     A,#0x1
        LCALL   ?XSTACK_DISP0_8
        MOV     ?V0 + 0,DPL
        MOV     ?V0 + 1,DPH
        MOV     R0,#?V0 + 0
        LCALL   ?PUSH_XSTACK_I_TWO
        CFI CFA_XSP16 add(XSP16, 27)
        MOV     R4,#0x2
        MOV     R5,#0x0
        MOV     R2,#-0x2c
        MOV     R3,#0x1
        LCALL   ??mpu_write_mem?relay
        MOV     A,#0x2
        LCALL   ?DEALLOC_XSTACK8
        CFI CFA_XSP16 add(XSP16, 25)
        MOV     ?V0 + 1,R3
        MOV     A,R2
        ORL     A,?V0 + 1
        JZ      $+5
        LJMP    ??dmp_set_tap_thresh_0 & 0xFFFF
//  764             return -1;
//  765         if (mpu_write_mem(D_1_36, 2, tmp+2))
        ; Setup parameters for call to function mpu_write_mem
        MOV     A,#0x3
        LCALL   ?XSTACK_DISP0_8
        MOV     ?V0 + 0,DPL
        MOV     ?V0 + 1,DPH
        MOV     R0,#?V0 + 0
        LCALL   ?PUSH_XSTACK_I_TWO
        CFI CFA_XSP16 add(XSP16, 27)
        MOV     R4,#0x2
        MOV     R5,#0x0
        MOV     R2,#0x24
        MOV     R3,#0x1
        LCALL   ??mpu_write_mem?relay
        MOV     A,#0x2
        LCALL   ?DEALLOC_XSTACK8
        CFI CFA_XSP16 add(XSP16, 25)
        MOV     ?V0 + 1,R3
        MOV     A,R2
        ORL     A,?V0 + 1
        JZ      $+5
        LJMP    ??dmp_set_tap_thresh_0 & 0xFFFF
//  766             return -1;
//  767     }
//  768     if (axis & TAP_Y) {
??dmp_set_tap_thresh_8:
        MOV     A,R6
        MOV     C,0xE0 /* A   */.1
        JNC     ??dmp_set_tap_thresh_9
//  769         if (mpu_write_mem(DMP_TAP_THY, 2, tmp))
        ; Setup parameters for call to function mpu_write_mem
        MOV     A,#0x1
        LCALL   ?XSTACK_DISP0_8
        MOV     ?V0 + 0,DPL
        MOV     ?V0 + 1,DPH
        MOV     R0,#?V0 + 0
        LCALL   ?PUSH_XSTACK_I_TWO
        CFI CFA_XSP16 add(XSP16, 27)
        MOV     R4,#0x2
        MOV     R5,#0x0
        MOV     R2,#-0x28
        MOV     R3,#0x1
        LCALL   ??mpu_write_mem?relay
        MOV     A,#0x2
        LCALL   ?DEALLOC_XSTACK8
        CFI CFA_XSP16 add(XSP16, 25)
        MOV     ?V0 + 1,R3
        MOV     A,R2
        ORL     A,?V0 + 1
        JZ      $+5
        LJMP    ??dmp_set_tap_thresh_0 & 0xFFFF
//  770             return -1;
//  771         if (mpu_write_mem(D_1_40, 2, tmp+2))
        ; Setup parameters for call to function mpu_write_mem
        MOV     A,#0x3
        LCALL   ?XSTACK_DISP0_8
        MOV     ?V0 + 0,DPL
        MOV     ?V0 + 1,DPH
        MOV     R0,#?V0 + 0
        LCALL   ?PUSH_XSTACK_I_TWO
        CFI CFA_XSP16 add(XSP16, 27)
        MOV     R4,#0x2
        MOV     R5,#0x0
        MOV     R2,#0x28
        MOV     R3,#0x1
        LCALL   ??mpu_write_mem?relay
        MOV     A,#0x2
        LCALL   ?DEALLOC_XSTACK8
        CFI CFA_XSP16 add(XSP16, 25)
        MOV     ?V0 + 1,R3
        MOV     A,R2
        ORL     A,?V0 + 1
        JZ      $+5
        LJMP    ??dmp_set_tap_thresh_0 & 0xFFFF
//  772             return -1;
//  773     }
//  774     if (axis & TAP_Z) {
??dmp_set_tap_thresh_9:
        MOV     A,R6
        MOV     C,0xE0 /* A   */.2
        JNC     ??dmp_set_tap_thresh_10
//  775         if (mpu_write_mem(DMP_TAP_THZ, 2, tmp))
        ; Setup parameters for call to function mpu_write_mem
        MOV     A,#0x1
        LCALL   ?XSTACK_DISP0_8
        MOV     ?V0 + 0,DPL
        MOV     ?V0 + 1,DPH
        MOV     R0,#?V0 + 0
        LCALL   ?PUSH_XSTACK_I_TWO
        CFI CFA_XSP16 add(XSP16, 27)
        MOV     R4,#0x2
        MOV     R5,#0x0
        MOV     R2,#-0x24
        MOV     R3,#0x1
        LCALL   ??mpu_write_mem?relay
        MOV     A,#0x2
        LCALL   ?DEALLOC_XSTACK8
        CFI CFA_XSP16 add(XSP16, 25)
        MOV     ?V0 + 1,R3
        MOV     A,R2
        ORL     A,?V0 + 1
        JZ      $+5
        LJMP    ??dmp_set_tap_thresh_0 & 0xFFFF
//  776             return -1;
//  777         if (mpu_write_mem(D_1_44, 2, tmp+2))
        ; Setup parameters for call to function mpu_write_mem
        MOV     A,#0x3
        LCALL   ?XSTACK_DISP0_8
        MOV     ?V0 + 0,DPL
        MOV     ?V0 + 1,DPH
        MOV     R0,#?V0 + 0
        LCALL   ?PUSH_XSTACK_I_TWO
        CFI CFA_XSP16 add(XSP16, 27)
        MOV     R4,#0x2
        MOV     R5,#0x0
        MOV     R2,#0x2c
        MOV     R3,#0x1
        LCALL   ??mpu_write_mem?relay
        MOV     A,#0x2
        LCALL   ?DEALLOC_XSTACK8
        CFI CFA_XSP16 add(XSP16, 25)
        MOV     ?V0 + 1,R3
        MOV     A,R2
        ORL     A,?V0 + 1
        JZ      $+5
        LJMP    ??dmp_set_tap_thresh_0 & 0xFFFF
//  778             return -1;
//  779     }
//  780     return 0;
??dmp_set_tap_thresh_10:
        MOV     R2,#0x0
        MOV     R3,#0x0
??dmp_set_tap_thresh_2:
        MOV     A,#0x5
        LCALL   ?DEALLOC_XSTACK8
        CFI CFA_XSP16 add(XSP16, 20)
        MOV     R7,#0xc
        LJMP    ?BANKED_LEAVE_XDATA
        CFI EndBlock cfiBlock6
//  781 }
//  782 
//  783 /**
//  784  *  @brief      Set which axes will register a tap.
//  785  *  @param[in]  axis    1, 2, and 4 for XYZ, respectively.
//  786  *  @return     0 if successful.
//  787  */

        RSEG BANKED_CODE:CODE:NOROOT(0)
//  788 int dmp_set_tap_axes(unsigned char axis)
dmp_set_tap_axes:
        CFI Block cfiBlock7 Using cfiCommon0
        CFI Function dmp_set_tap_axes
        CODE
//  789 {
        FUNCALL dmp_set_tap_axes, mpu_write_mem
        LOCFRAME ISTACK, 0, STACK
        LOCFRAME PSTACK, 0, STACK
        LOCFRAME XSTACK, 13, STACK
        LOCFRAME IOVERLAY, 0, STATIC
        LOCFRAME DOVERLAY, 0, STATIC
        ARGFRAME ISTACK, 0, STACK
        ARGFRAME PSTACK, 0, STACK
        ARGFRAME XSTACK, 13, STACK
        ARGFRAME IOVERLAY, 0, STATIC
        ARGFRAME DOVERLAY, 0, STATIC
        MOV     A,#-0xa
        LCALL   ?BANKED_ENTER_XDATA
        CFI DPH0 load(1, XDATA, add(CFA_XSP16, literal(-1)))
        CFI DPL0 load(1, XDATA, add(CFA_XSP16, literal(-2)))
        CFI ?BRET_EXT load(1, XDATA, add(CFA_XSP16, literal(-3)))
        CFI ?RET_HIGH load(1, XDATA, add(CFA_XSP16, literal(-4)))
        CFI ?RET_LOW load(1, XDATA, add(CFA_XSP16, literal(-5)))
        CFI R7 load(1, XDATA, add(CFA_XSP16, literal(-6)))
        CFI V1 load(1, XDATA, add(CFA_XSP16, literal(-7)))
        CFI V0 load(1, XDATA, add(CFA_XSP16, literal(-8)))
        CFI VB load(1, XDATA, add(CFA_XSP16, literal(-9)))
        CFI R6 load(1, XDATA, add(CFA_XSP16, literal(-10)))
        CFI CFA_SP SP+0
        CFI CFA_XSP16 add(XSP16, 10)
        ; Saved register size: 10
        ; Auto size: 1
        MOV     A,#-0x1
        LCALL   ?ALLOC_XSTACK8
        CFI CFA_XSP16 add(XSP16, 11)
        MOV     A,R1
        MOV     R6,A
//  790     unsigned char tmp = 0;
        MOV     DPL,?XSP + 0
        MOV     DPH,?XSP + 1
        CLR     A
        MOVX    @DPTR,A
//  791 
//  792     if (axis & TAP_X)
        MOV     A,R6
        MOV     C,0xE0 /* A   */.0
        JNC     ??dmp_set_tap_axes_0
//  793         tmp |= 0x30;
        MOV     A,#0x30
        MOVX    @DPTR,A
//  794     if (axis & TAP_Y)
??dmp_set_tap_axes_0:
        MOV     A,R6
        MOV     C,0xE0 /* A   */.1
        JNC     ??dmp_set_tap_axes_1
//  795         tmp |= 0x0C;
        MOVX    A,@DPTR
        ORL     A,#0xc
        MOVX    @DPTR,A
//  796     if (axis & TAP_Z)
??dmp_set_tap_axes_1:
        MOV     A,R6
        MOV     C,0xE0 /* A   */.2
        JNC     ??dmp_set_tap_axes_2
//  797         tmp |= 0x03;
        MOVX    A,@DPTR
        ORL     A,#0x3
        MOVX    @DPTR,A
//  798     return mpu_write_mem(D_1_72, 1, &tmp);
??dmp_set_tap_axes_2:
        ; Setup parameters for call to function mpu_write_mem
        MOV     ?V0 + 0,DPL
        MOV     ?V0 + 1,DPH
        MOV     R0,#?V0 + 0
        LCALL   ?PUSH_XSTACK_I_TWO
        CFI CFA_XSP16 add(XSP16, 13)
        MOV     R4,#0x1
        MOV     R5,#0x0
        MOV     R2,#0x48
        MOV     R3,#0x1
        LCALL   ??mpu_write_mem?relay
        MOV     A,#0x2
        LCALL   ?DEALLOC_XSTACK8
        CFI CFA_XSP16 add(XSP16, 11)
        MOV     A,#0x1
        LCALL   ?DEALLOC_XSTACK8
        CFI CFA_XSP16 add(XSP16, 10)
        MOV     R7,#0x2
        LJMP    ?BANKED_LEAVE_XDATA
        CFI EndBlock cfiBlock7
//  799 }
//  800 
//  801 /**
//  802  *  @brief      Set minimum number of taps needed for an interrupt.
//  803  *  @param[in]  min_taps    Minimum consecutive taps (1-4).
//  804  *  @return     0 if successful.
//  805  */

        RSEG BANKED_CODE:CODE:NOROOT(0)
//  806 int dmp_set_tap_count(unsigned char min_taps)
dmp_set_tap_count:
        CFI Block cfiBlock8 Using cfiCommon0
        CFI Function dmp_set_tap_count
        CODE
//  807 {
        FUNCALL dmp_set_tap_count, mpu_write_mem
        LOCFRAME ISTACK, 0, STACK
        LOCFRAME PSTACK, 0, STACK
        LOCFRAME XSTACK, 13, STACK
        LOCFRAME IOVERLAY, 0, STATIC
        LOCFRAME DOVERLAY, 0, STATIC
        ARGFRAME ISTACK, 0, STACK
        ARGFRAME PSTACK, 0, STACK
        ARGFRAME XSTACK, 13, STACK
        ARGFRAME IOVERLAY, 0, STATIC
        ARGFRAME DOVERLAY, 0, STATIC
        MOV     A,#-0xa
        LCALL   ?BANKED_ENTER_XDATA
        CFI DPH0 load(1, XDATA, add(CFA_XSP16, literal(-1)))
        CFI DPL0 load(1, XDATA, add(CFA_XSP16, literal(-2)))
        CFI ?BRET_EXT load(1, XDATA, add(CFA_XSP16, literal(-3)))
        CFI ?RET_HIGH load(1, XDATA, add(CFA_XSP16, literal(-4)))
        CFI ?RET_LOW load(1, XDATA, add(CFA_XSP16, literal(-5)))
        CFI R7 load(1, XDATA, add(CFA_XSP16, literal(-6)))
        CFI V1 load(1, XDATA, add(CFA_XSP16, literal(-7)))
        CFI V0 load(1, XDATA, add(CFA_XSP16, literal(-8)))
        CFI VB load(1, XDATA, add(CFA_XSP16, literal(-9)))
        CFI R6 load(1, XDATA, add(CFA_XSP16, literal(-10)))
        CFI CFA_SP SP+0
        CFI CFA_XSP16 add(XSP16, 10)
        ; Saved register size: 10
        ; Auto size: 1
        MOV     A,#-0x1
        LCALL   ?ALLOC_XSTACK8
        CFI CFA_XSP16 add(XSP16, 11)
        MOV     A,R1
        MOV     R6,A
//  808     unsigned char tmp;
//  809 
//  810     if (min_taps < 1)
        JNZ     ??dmp_set_tap_count_0
//  811         min_taps = 1;
        MOV     R6,#0x1
        SJMP    ??dmp_set_tap_count_1
//  812     else if (min_taps > 4)
??dmp_set_tap_count_0:
        CLR     C
        SUBB    A,#0x5
        JC      ??dmp_set_tap_count_1
//  813         min_taps = 4;
        MOV     R6,#0x4
//  814 
//  815     tmp = min_taps - 1;
??dmp_set_tap_count_1:
        MOV     A,#-0x1
        ADD     A,R6
        MOV     DPL,?XSP + 0
        MOV     DPH,?XSP + 1
        MOVX    @DPTR,A
//  816     return mpu_write_mem(D_1_79, 1, &tmp);
        ; Setup parameters for call to function mpu_write_mem
        MOV     ?V0 + 0,DPL
        MOV     ?V0 + 1,DPH
        MOV     R0,#?V0 + 0
        LCALL   ?PUSH_XSTACK_I_TWO
        CFI CFA_XSP16 add(XSP16, 13)
        MOV     R4,#0x1
        MOV     R5,#0x0
        MOV     R2,#0x4f
        MOV     R3,#0x1
        LCALL   ??mpu_write_mem?relay
        MOV     A,#0x2
        LCALL   ?DEALLOC_XSTACK8
        CFI CFA_XSP16 add(XSP16, 11)
        MOV     A,#0x1
        LCALL   ?DEALLOC_XSTACK8
        CFI CFA_XSP16 add(XSP16, 10)
        MOV     R7,#0x2
        LJMP    ?BANKED_LEAVE_XDATA
        CFI EndBlock cfiBlock8
//  817 }
//  818 
//  819 /**
//  820  *  @brief      Set length between valid taps.
//  821  *  @param[in]  time    Milliseconds between taps.
//  822  *  @return     0 if successful.
//  823  */

        RSEG BANKED_CODE:CODE:NOROOT(0)
//  824 int dmp_set_tap_time(unsigned short time)
dmp_set_tap_time:
        CFI Block cfiBlock9 Using cfiCommon0
        CFI Function dmp_set_tap_time
        CODE
//  825 {
        FUNCALL dmp_set_tap_time, mpu_write_mem
        LOCFRAME ISTACK, 0, STACK
        LOCFRAME PSTACK, 0, STACK
        LOCFRAME XSTACK, 14, STACK
        LOCFRAME IOVERLAY, 0, STATIC
        LOCFRAME DOVERLAY, 0, STATIC
        ARGFRAME ISTACK, 0, STACK
        ARGFRAME PSTACK, 0, STACK
        ARGFRAME XSTACK, 14, STACK
        ARGFRAME IOVERLAY, 0, STATIC
        ARGFRAME DOVERLAY, 0, STATIC
        MOV     A,#-0xa
        LCALL   ?BANKED_ENTER_XDATA
        CFI DPH0 load(1, XDATA, add(CFA_XSP16, literal(-1)))
        CFI DPL0 load(1, XDATA, add(CFA_XSP16, literal(-2)))
        CFI ?BRET_EXT load(1, XDATA, add(CFA_XSP16, literal(-3)))
        CFI ?RET_HIGH load(1, XDATA, add(CFA_XSP16, literal(-4)))
        CFI ?RET_LOW load(1, XDATA, add(CFA_XSP16, literal(-5)))
        CFI R7 load(1, XDATA, add(CFA_XSP16, literal(-6)))
        CFI V1 load(1, XDATA, add(CFA_XSP16, literal(-7)))
        CFI V0 load(1, XDATA, add(CFA_XSP16, literal(-8)))
        CFI VB load(1, XDATA, add(CFA_XSP16, literal(-9)))
        CFI R6 load(1, XDATA, add(CFA_XSP16, literal(-10)))
        CFI CFA_SP SP+0
        CFI CFA_XSP16 add(XSP16, 10)
        ; Saved register size: 10
        ; Auto size: 2
        MOV     A,#-0x2
        LCALL   ?ALLOC_XSTACK8
        CFI CFA_XSP16 add(XSP16, 12)
//  826     unsigned short dmp_time;
//  827     unsigned char tmp[2];
//  828 
//  829     dmp_time = time / (1000 / DMP_SAMPLE_RATE);
        MOV     A,R2
        MOV     R0,A
        MOV     A,R3
        MOV     R1,A
        MOV     R2,#0x5
        MOV     R3,#0x0
        LCALL   ?US_DIV_MOD
//  830     tmp[0] = (unsigned char)(dmp_time >> 8);
        MOV     DPL,?XSP + 0
        MOV     DPH,?XSP + 1
        MOV     A,R1
        MOVX    @DPTR,A
//  831     tmp[1] = (unsigned char)(dmp_time & 0xFF);
        MOV     A,#0x1
        LCALL   ?XSTACK_DISP0_8
        MOV     A,R0
        MOVX    @DPTR,A
//  832     return mpu_write_mem(DMP_TAPW_MIN, 2, tmp);
        ; Setup parameters for call to function mpu_write_mem
        MOV     DPL,?XSP + 0
        MOV     DPH,?XSP + 1
        MOV     ?V0 + 0,DPL
        MOV     ?V0 + 1,DPH
        MOV     R0,#?V0 + 0
        LCALL   ?PUSH_XSTACK_I_TWO
        CFI CFA_XSP16 add(XSP16, 14)
        MOV     R4,#0x2
        MOV     R5,#0x0
        MOV     R2,#-0x22
        MOV     R3,#0x1
        LCALL   ??mpu_write_mem?relay
        MOV     A,#0x2
        LCALL   ?DEALLOC_XSTACK8
        CFI CFA_XSP16 add(XSP16, 12)
        MOV     A,#0x2
        LCALL   ?DEALLOC_XSTACK8
        CFI CFA_XSP16 add(XSP16, 10)
        MOV     R7,#0x2
        LJMP    ?BANKED_LEAVE_XDATA
        CFI EndBlock cfiBlock9
//  833 }
//  834 
//  835 /**
//  836  *  @brief      Set max time between taps to register as a multi-tap.
//  837  *  @param[in]  time    Max milliseconds between taps.
//  838  *  @return     0 if successful.
//  839  */

        RSEG BANKED_CODE:CODE:NOROOT(0)
//  840 int dmp_set_tap_time_multi(unsigned short time)
dmp_set_tap_time_multi:
        CFI Block cfiBlock10 Using cfiCommon0
        CFI Function dmp_set_tap_time_multi
        CODE
//  841 {
        FUNCALL dmp_set_tap_time_multi, mpu_write_mem
        LOCFRAME ISTACK, 0, STACK
        LOCFRAME PSTACK, 0, STACK
        LOCFRAME XSTACK, 14, STACK
        LOCFRAME IOVERLAY, 0, STATIC
        LOCFRAME DOVERLAY, 0, STATIC
        ARGFRAME ISTACK, 0, STACK
        ARGFRAME PSTACK, 0, STACK
        ARGFRAME XSTACK, 14, STACK
        ARGFRAME IOVERLAY, 0, STATIC
        ARGFRAME DOVERLAY, 0, STATIC
        MOV     A,#-0xa
        LCALL   ?BANKED_ENTER_XDATA
        CFI DPH0 load(1, XDATA, add(CFA_XSP16, literal(-1)))
        CFI DPL0 load(1, XDATA, add(CFA_XSP16, literal(-2)))
        CFI ?BRET_EXT load(1, XDATA, add(CFA_XSP16, literal(-3)))
        CFI ?RET_HIGH load(1, XDATA, add(CFA_XSP16, literal(-4)))
        CFI ?RET_LOW load(1, XDATA, add(CFA_XSP16, literal(-5)))
        CFI R7 load(1, XDATA, add(CFA_XSP16, literal(-6)))
        CFI V1 load(1, XDATA, add(CFA_XSP16, literal(-7)))
        CFI V0 load(1, XDATA, add(CFA_XSP16, literal(-8)))
        CFI VB load(1, XDATA, add(CFA_XSP16, literal(-9)))
        CFI R6 load(1, XDATA, add(CFA_XSP16, literal(-10)))
        CFI CFA_SP SP+0
        CFI CFA_XSP16 add(XSP16, 10)
        ; Saved register size: 10
        ; Auto size: 2
        MOV     A,#-0x2
        LCALL   ?ALLOC_XSTACK8
        CFI CFA_XSP16 add(XSP16, 12)
//  842     unsigned short dmp_time;
//  843     unsigned char tmp[2];
//  844 
//  845     dmp_time = time / (1000 / DMP_SAMPLE_RATE);
        MOV     A,R2
        MOV     R0,A
        MOV     A,R3
        MOV     R1,A
        MOV     R2,#0x5
        MOV     R3,#0x0
        LCALL   ?US_DIV_MOD
//  846     tmp[0] = (unsigned char)(dmp_time >> 8);
        MOV     DPL,?XSP + 0
        MOV     DPH,?XSP + 1
        MOV     A,R1
        MOVX    @DPTR,A
//  847     tmp[1] = (unsigned char)(dmp_time & 0xFF);
        MOV     A,#0x1
        LCALL   ?XSTACK_DISP0_8
        MOV     A,R0
        MOVX    @DPTR,A
//  848     return mpu_write_mem(D_1_218, 2, tmp);
        ; Setup parameters for call to function mpu_write_mem
        MOV     DPL,?XSP + 0
        MOV     DPH,?XSP + 1
        MOV     ?V0 + 0,DPL
        MOV     ?V0 + 1,DPH
        MOV     R0,#?V0 + 0
        LCALL   ?PUSH_XSTACK_I_TWO
        CFI CFA_XSP16 add(XSP16, 14)
        MOV     R4,#0x2
        MOV     R5,#0x0
        MOV     R2,#-0x26
        MOV     R3,#0x1
        LCALL   ??mpu_write_mem?relay
        MOV     A,#0x2
        LCALL   ?DEALLOC_XSTACK8
        CFI CFA_XSP16 add(XSP16, 12)
        MOV     A,#0x2
        LCALL   ?DEALLOC_XSTACK8
        CFI CFA_XSP16 add(XSP16, 10)
        MOV     R7,#0x2
        LJMP    ?BANKED_LEAVE_XDATA
        CFI EndBlock cfiBlock10
//  849 }
//  850 
//  851 /**
//  852  *  @brief      Set shake rejection threshold.
//  853  *  If the DMP detects a gyro sample larger than @e thresh, taps are rejected.
//  854  *  @param[in]  sf      Gyro scale factor.
//  855  *  @param[in]  thresh  Gyro threshold in dps.
//  856  *  @return     0 if successful.
//  857  */

        RSEG BANKED_CODE:CODE:NOROOT(0)
//  858 int dmp_set_shake_reject_thresh(long sf, unsigned short thresh)
dmp_set_shake_reject_thresh:
        CFI Block cfiBlock11 Using cfiCommon0
        CFI Function dmp_set_shake_reject_thresh
        CODE
//  859 {
        FUNCALL dmp_set_shake_reject_thresh, mpu_write_mem
        LOCFRAME ISTACK, 0, STACK
        LOCFRAME PSTACK, 0, STACK
        LOCFRAME XSTACK, 26, STACK
        LOCFRAME IOVERLAY, 0, STATIC
        LOCFRAME DOVERLAY, 0, STATIC
        ARGFRAME ISTACK, 0, STACK
        ARGFRAME PSTACK, 0, STACK
        ARGFRAME XSTACK, 26, STACK
        ARGFRAME IOVERLAY, 0, STATIC
        ARGFRAME DOVERLAY, 0, STATIC
        MOV     A,#-0x14
        LCALL   ?BANKED_ENTER_XDATA
        CFI DPH0 load(1, XDATA, add(CFA_XSP16, literal(-1)))
        CFI DPL0 load(1, XDATA, add(CFA_XSP16, literal(-2)))
        CFI ?BRET_EXT load(1, XDATA, add(CFA_XSP16, literal(-3)))
        CFI ?RET_HIGH load(1, XDATA, add(CFA_XSP16, literal(-4)))
        CFI ?RET_LOW load(1, XDATA, add(CFA_XSP16, literal(-5)))
        CFI R7 load(1, XDATA, add(CFA_XSP16, literal(-6)))
        CFI V11 load(1, XDATA, add(CFA_XSP16, literal(-7)))
        CFI V10 load(1, XDATA, add(CFA_XSP16, literal(-8)))
        CFI V9 load(1, XDATA, add(CFA_XSP16, literal(-9)))
        CFI V8 load(1, XDATA, add(CFA_XSP16, literal(-10)))
        CFI V7 load(1, XDATA, add(CFA_XSP16, literal(-11)))
        CFI V6 load(1, XDATA, add(CFA_XSP16, literal(-12)))
        CFI V5 load(1, XDATA, add(CFA_XSP16, literal(-13)))
        CFI V4 load(1, XDATA, add(CFA_XSP16, literal(-14)))
        CFI V3 load(1, XDATA, add(CFA_XSP16, literal(-15)))
        CFI V2 load(1, XDATA, add(CFA_XSP16, literal(-16)))
        CFI V1 load(1, XDATA, add(CFA_XSP16, literal(-17)))
        CFI V0 load(1, XDATA, add(CFA_XSP16, literal(-18)))
        CFI VB load(1, XDATA, add(CFA_XSP16, literal(-19)))
        CFI R6 load(1, XDATA, add(CFA_XSP16, literal(-20)))
        CFI CFA_SP SP+0
        CFI CFA_XSP16 add(XSP16, 20)
        ; Saved register size: 20
        ; Auto size: 4
        MOV     A,#-0x4
        LCALL   ?ALLOC_XSTACK8
        CFI CFA_XSP16 add(XSP16, 24)
        MOV     ?V0 + 4,R2
        MOV     ?V0 + 5,R3
        MOV     ?V0 + 6,R4
        MOV     ?V0 + 7,R5
        MOV     A,#0x18
        LCALL   ?XSTACK_DISP0_8
        MOVX    A,@DPTR
        MOV     ?V0 + 0,A
        INC     DPTR
        MOVX    A,@DPTR
        MOV     ?V0 + 1,A
//  860     unsigned char tmp[4];
//  861     long thresh_scaled = sf / 1000 * thresh;
        MOV     DPTR,#__Constant_3e8
        MOV     R0,#?V0 + 8
        LCALL   ?L_MOV_X
        MOV     R0,#?V0 + 4
        MOV     R1,#?V0 + 8
        LCALL   ?L_DIV_MOD
        CLR     A
        MOV     ?V0 + 2,A
        MOV     ?V0 + 3,A
        MOV     R0,#?V0 + 4
        MOV     R1,#?V0 + 0
        LCALL   ?L_MUL
//  862     tmp[0] = (unsigned char)(((long)thresh_scaled >> 24) & 0xFF);
        MOV     ?V0 + 0,?V0 + 4
        MOV     ?V0 + 1,?V0 + 5
        MOV     ?V0 + 2,?V0 + 6
        MOV     ?V0 + 3,?V0 + 7
        MOV     A,#0x18
        MOV     R0,#?V0 + 0
        LCALL   ?SL_SHR
        MOV     DPL,?XSP + 0
        MOV     DPH,?XSP + 1
        MOV     A,?V0 + 0
        MOVX    @DPTR,A
//  863     tmp[1] = (unsigned char)(((long)thresh_scaled >> 16) & 0xFF);
        MOV     ?V0 + 0,?V0 + 4
        MOV     ?V0 + 1,?V0 + 5
        MOV     ?V0 + 2,?V0 + 6
        MOV     ?V0 + 3,?V0 + 7
        MOV     A,#0x10
        MOV     R0,#?V0 + 0
        LCALL   ?SL_SHR
        INC     A
        LCALL   ?XSTACK_DISP0_8
        MOV     A,?V0 + 0
        MOVX    @DPTR,A
//  864     tmp[2] = (unsigned char)(((long)thresh_scaled >> 8) & 0xFF);
        MOV     ?V0 + 0,?V0 + 4
        MOV     ?V0 + 1,?V0 + 5
        MOV     A,#0x8
        MOV     R0,#?V0 + 0
        LCALL   ?SS_SHR
        MOV     A,#0x2
        LCALL   ?XSTACK_DISP0_8
        MOV     A,?V0 + 0
        MOVX    @DPTR,A
//  865     tmp[3] = (unsigned char)((long)thresh_scaled & 0xFF);
        MOV     A,#0x3
        LCALL   ?XSTACK_DISP0_8
        MOV     A,?V0 + 4
        MOVX    @DPTR,A
//  866     return mpu_write_mem(D_1_92, 4, tmp);
        ; Setup parameters for call to function mpu_write_mem
        MOV     DPL,?XSP + 0
        MOV     DPH,?XSP + 1
        MOV     ?V0 + 0,DPL
        MOV     ?V0 + 1,DPH
        MOV     R0,#?V0 + 0
        LCALL   ?PUSH_XSTACK_I_TWO
        CFI CFA_XSP16 add(XSP16, 26)
        MOV     R4,#0x4
        MOV     R5,#0x0
        MOV     R2,#0x5c
        MOV     R3,#0x1
        LCALL   ??mpu_write_mem?relay
        MOV     A,#0x2
        LCALL   ?DEALLOC_XSTACK8
        CFI CFA_XSP16 add(XSP16, 24)
        MOV     A,#0x4
        LCALL   ?DEALLOC_XSTACK8
        CFI CFA_XSP16 add(XSP16, 20)
        MOV     R7,#0xc
        LJMP    ?BANKED_LEAVE_XDATA
        CFI EndBlock cfiBlock11
//  867 }
//  868 
//  869 /**
//  870  *  @brief      Set shake rejection time.
//  871  *  Sets the length of time that the gyro must be outside of the threshold set
//  872  *  by @e gyro_set_shake_reject_thresh before taps are rejected. A mandatory
//  873  *  60 ms is added to this parameter.
//  874  *  @param[in]  time    Time in milliseconds.
//  875  *  @return     0 if successful.
//  876  */

        RSEG BANKED_CODE:CODE:NOROOT(0)
//  877 int dmp_set_shake_reject_time(unsigned short time)
dmp_set_shake_reject_time:
        CFI Block cfiBlock12 Using cfiCommon0
        CFI Function dmp_set_shake_reject_time
        CODE
//  878 {
        FUNCALL dmp_set_shake_reject_time, mpu_write_mem
        LOCFRAME ISTACK, 0, STACK
        LOCFRAME PSTACK, 0, STACK
        LOCFRAME XSTACK, 14, STACK
        LOCFRAME IOVERLAY, 0, STATIC
        LOCFRAME DOVERLAY, 0, STATIC
        ARGFRAME ISTACK, 0, STACK
        ARGFRAME PSTACK, 0, STACK
        ARGFRAME XSTACK, 14, STACK
        ARGFRAME IOVERLAY, 0, STATIC
        ARGFRAME DOVERLAY, 0, STATIC
        MOV     A,#-0xa
        LCALL   ?BANKED_ENTER_XDATA
        CFI DPH0 load(1, XDATA, add(CFA_XSP16, literal(-1)))
        CFI DPL0 load(1, XDATA, add(CFA_XSP16, literal(-2)))
        CFI ?BRET_EXT load(1, XDATA, add(CFA_XSP16, literal(-3)))
        CFI ?RET_HIGH load(1, XDATA, add(CFA_XSP16, literal(-4)))
        CFI ?RET_LOW load(1, XDATA, add(CFA_XSP16, literal(-5)))
        CFI R7 load(1, XDATA, add(CFA_XSP16, literal(-6)))
        CFI V1 load(1, XDATA, add(CFA_XSP16, literal(-7)))
        CFI V0 load(1, XDATA, add(CFA_XSP16, literal(-8)))
        CFI VB load(1, XDATA, add(CFA_XSP16, literal(-9)))
        CFI R6 load(1, XDATA, add(CFA_XSP16, literal(-10)))
        CFI CFA_SP SP+0
        CFI CFA_XSP16 add(XSP16, 10)
        ; Saved register size: 10
        ; Auto size: 2
        MOV     A,#-0x2
        LCALL   ?ALLOC_XSTACK8
        CFI CFA_XSP16 add(XSP16, 12)
//  879     unsigned char tmp[2];
//  880 
//  881     time /= (1000 / DMP_SAMPLE_RATE);
        MOV     A,R2
        MOV     R0,A
        MOV     A,R3
        MOV     R1,A
        MOV     R2,#0x5
        MOV     R3,#0x0
        LCALL   ?US_DIV_MOD
//  882     tmp[0] = time >> 8;
        MOV     DPL,?XSP + 0
        MOV     DPH,?XSP + 1
        MOV     A,R1
        MOVX    @DPTR,A
//  883     tmp[1] = time & 0xFF;
        MOV     A,#0x1
        LCALL   ?XSTACK_DISP0_8
        MOV     A,R0
        MOVX    @DPTR,A
//  884     return mpu_write_mem(D_1_90,2,tmp);
        ; Setup parameters for call to function mpu_write_mem
        MOV     DPL,?XSP + 0
        MOV     DPH,?XSP + 1
        MOV     ?V0 + 0,DPL
        MOV     ?V0 + 1,DPH
        MOV     R0,#?V0 + 0
        LCALL   ?PUSH_XSTACK_I_TWO
        CFI CFA_XSP16 add(XSP16, 14)
        MOV     R4,#0x2
        MOV     R5,#0x0
        MOV     R2,#0x5a
        MOV     R3,#0x1
        LCALL   ??mpu_write_mem?relay
        MOV     A,#0x2
        LCALL   ?DEALLOC_XSTACK8
        CFI CFA_XSP16 add(XSP16, 12)
        MOV     A,#0x2
        LCALL   ?DEALLOC_XSTACK8
        CFI CFA_XSP16 add(XSP16, 10)
        MOV     R7,#0x2
        LJMP    ?BANKED_LEAVE_XDATA
        CFI EndBlock cfiBlock12
//  885 }
//  886 
//  887 /**
//  888  *  @brief      Set shake rejection timeout.
//  889  *  Sets the length of time after a shake rejection that the gyro must stay
//  890  *  inside of the threshold before taps can be detected again. A mandatory
//  891  *  60 ms is added to this parameter.
//  892  *  @param[in]  time    Time in milliseconds.
//  893  *  @return     0 if successful.
//  894  */

        RSEG BANKED_CODE:CODE:NOROOT(0)
//  895 int dmp_set_shake_reject_timeout(unsigned short time)
dmp_set_shake_reject_timeout:
        CFI Block cfiBlock13 Using cfiCommon0
        CFI Function dmp_set_shake_reject_timeout
        CODE
//  896 {
        FUNCALL dmp_set_shake_reject_timeout, mpu_write_mem
        LOCFRAME ISTACK, 0, STACK
        LOCFRAME PSTACK, 0, STACK
        LOCFRAME XSTACK, 14, STACK
        LOCFRAME IOVERLAY, 0, STATIC
        LOCFRAME DOVERLAY, 0, STATIC
        ARGFRAME ISTACK, 0, STACK
        ARGFRAME PSTACK, 0, STACK
        ARGFRAME XSTACK, 14, STACK
        ARGFRAME IOVERLAY, 0, STATIC
        ARGFRAME DOVERLAY, 0, STATIC
        MOV     A,#-0xa
        LCALL   ?BANKED_ENTER_XDATA
        CFI DPH0 load(1, XDATA, add(CFA_XSP16, literal(-1)))
        CFI DPL0 load(1, XDATA, add(CFA_XSP16, literal(-2)))
        CFI ?BRET_EXT load(1, XDATA, add(CFA_XSP16, literal(-3)))
        CFI ?RET_HIGH load(1, XDATA, add(CFA_XSP16, literal(-4)))
        CFI ?RET_LOW load(1, XDATA, add(CFA_XSP16, literal(-5)))
        CFI R7 load(1, XDATA, add(CFA_XSP16, literal(-6)))
        CFI V1 load(1, XDATA, add(CFA_XSP16, literal(-7)))
        CFI V0 load(1, XDATA, add(CFA_XSP16, literal(-8)))
        CFI VB load(1, XDATA, add(CFA_XSP16, literal(-9)))
        CFI R6 load(1, XDATA, add(CFA_XSP16, literal(-10)))
        CFI CFA_SP SP+0
        CFI CFA_XSP16 add(XSP16, 10)
        ; Saved register size: 10
        ; Auto size: 2
        MOV     A,#-0x2
        LCALL   ?ALLOC_XSTACK8
        CFI CFA_XSP16 add(XSP16, 12)
//  897     unsigned char tmp[2];
//  898 
//  899     time /= (1000 / DMP_SAMPLE_RATE);
        MOV     A,R2
        MOV     R0,A
        MOV     A,R3
        MOV     R1,A
        MOV     R2,#0x5
        MOV     R3,#0x0
        LCALL   ?US_DIV_MOD
//  900     tmp[0] = time >> 8;
        MOV     DPL,?XSP + 0
        MOV     DPH,?XSP + 1
        MOV     A,R1
        MOVX    @DPTR,A
//  901     tmp[1] = time & 0xFF;
        MOV     A,#0x1
        LCALL   ?XSTACK_DISP0_8
        MOV     A,R0
        MOVX    @DPTR,A
//  902     return mpu_write_mem(D_1_88,2,tmp);
        ; Setup parameters for call to function mpu_write_mem
        MOV     DPL,?XSP + 0
        MOV     DPH,?XSP + 1
        MOV     ?V0 + 0,DPL
        MOV     ?V0 + 1,DPH
        MOV     R0,#?V0 + 0
        LCALL   ?PUSH_XSTACK_I_TWO
        CFI CFA_XSP16 add(XSP16, 14)
        MOV     R4,#0x2
        MOV     R5,#0x0
        MOV     R2,#0x58
        MOV     R3,#0x1
        LCALL   ??mpu_write_mem?relay
        MOV     A,#0x2
        LCALL   ?DEALLOC_XSTACK8
        CFI CFA_XSP16 add(XSP16, 12)
        MOV     A,#0x2
        LCALL   ?DEALLOC_XSTACK8
        CFI CFA_XSP16 add(XSP16, 10)
        MOV     R7,#0x2
        LJMP    ?BANKED_LEAVE_XDATA
        CFI EndBlock cfiBlock13
//  903 }
//  904 
//  905 /**
//  906  *  @brief      Get current step count.
//  907  *  @param[out] count   Number of steps detected.
//  908  *  @return     0 if successful.
//  909  */

        RSEG BANKED_CODE:CODE:NOROOT(0)
//  910 int dmp_get_pedometer_step_count(unsigned long *count)
dmp_get_pedometer_step_count:
        CFI Block cfiBlock14 Using cfiCommon0
        CFI Function dmp_get_pedometer_step_count
        CODE
//  911 {
        FUNCALL dmp_get_pedometer_step_count, mpu_read_mem
        LOCFRAME ISTACK, 0, STACK
        LOCFRAME PSTACK, 0, STACK
        LOCFRAME XSTACK, 22, STACK
        LOCFRAME IOVERLAY, 0, STATIC
        LOCFRAME DOVERLAY, 0, STATIC
        ARGFRAME ISTACK, 0, STACK
        ARGFRAME PSTACK, 0, STACK
        ARGFRAME XSTACK, 22, STACK
        ARGFRAME IOVERLAY, 0, STATIC
        ARGFRAME DOVERLAY, 0, STATIC
        MOV     A,#-0x10
        LCALL   ?BANKED_ENTER_XDATA
        CFI DPH0 load(1, XDATA, add(CFA_XSP16, literal(-1)))
        CFI DPL0 load(1, XDATA, add(CFA_XSP16, literal(-2)))
        CFI ?BRET_EXT load(1, XDATA, add(CFA_XSP16, literal(-3)))
        CFI ?RET_HIGH load(1, XDATA, add(CFA_XSP16, literal(-4)))
        CFI ?RET_LOW load(1, XDATA, add(CFA_XSP16, literal(-5)))
        CFI R7 load(1, XDATA, add(CFA_XSP16, literal(-6)))
        CFI V7 load(1, XDATA, add(CFA_XSP16, literal(-7)))
        CFI V6 load(1, XDATA, add(CFA_XSP16, literal(-8)))
        CFI V5 load(1, XDATA, add(CFA_XSP16, literal(-9)))
        CFI V4 load(1, XDATA, add(CFA_XSP16, literal(-10)))
        CFI V3 load(1, XDATA, add(CFA_XSP16, literal(-11)))
        CFI V2 load(1, XDATA, add(CFA_XSP16, literal(-12)))
        CFI V1 load(1, XDATA, add(CFA_XSP16, literal(-13)))
        CFI V0 load(1, XDATA, add(CFA_XSP16, literal(-14)))
        CFI VB load(1, XDATA, add(CFA_XSP16, literal(-15)))
        CFI R6 load(1, XDATA, add(CFA_XSP16, literal(-16)))
        CFI CFA_SP SP+0
        CFI CFA_XSP16 add(XSP16, 16)
        ; Saved register size: 16
        ; Auto size: 4
        MOV     A,#-0x4
        LCALL   ?ALLOC_XSTACK8
        CFI CFA_XSP16 add(XSP16, 20)
        MOV     A,R2
        MOV     R6,A
        MOV     A,R3
        MOV     R7,A
//  912     unsigned char tmp[4];
//  913     if (!count)
        MOV     A,R6
        ORL     A,R7
        JNZ     ??dmp_get_pedometer_step_count_0
//  914         return -1;
??dmp_get_pedometer_step_count_1:
        MOV     R2,#-0x1
        MOV     R3,#-0x1
        LJMP    ??dmp_get_pedometer_step_count_2 & 0xFFFF
//  915 
//  916     if (mpu_read_mem(D_PEDSTD_STEPCTR, 4, tmp))
??dmp_get_pedometer_step_count_0:
        ; Setup parameters for call to function mpu_read_mem
        MOV     DPL,?XSP + 0
        MOV     DPH,?XSP + 1
        MOV     ?V0 + 0,DPL
        MOV     ?V0 + 1,DPH
        MOV     R0,#?V0 + 0
        LCALL   ?PUSH_XSTACK_I_TWO
        CFI CFA_XSP16 add(XSP16, 22)
        MOV     R4,#0x4
        MOV     R5,#0x0
        MOV     R2,#0x60
        MOV     R3,#0x3
        LCALL   ??mpu_read_mem?relay
        MOV     A,#0x2
        LCALL   ?DEALLOC_XSTACK8
        CFI CFA_XSP16 add(XSP16, 20)
        MOV     ?V0 + 1,R3
        MOV     A,R2
        ORL     A,?V0 + 1
        JNZ     ??dmp_get_pedometer_step_count_1
//  917         return -1;
//  918 
//  919     count[0] = ((unsigned long)tmp[0] << 24) | ((unsigned long)tmp[1] << 16) |
//  920         ((unsigned long)tmp[2] << 8) | tmp[3];
        MOV     DPL,?XSP + 0
        MOV     DPH,?XSP + 1
        MOVX    A,@DPTR
        MOV     ?V0 + 0,A
        CLR     A
        MOV     ?V0 + 1,A
        MOV     ?V0 + 2,A
        MOV     ?V0 + 3,A
        MOV     A,#0x18
        MOV     R0,#?V0 + 0
        LCALL   ?L_SHL
        INC     A
        LCALL   ?XSTACK_DISP0_8
        MOVX    A,@DPTR
        MOV     ?V0 + 4,A
        CLR     A
        MOV     ?V0 + 5,A
        MOV     ?V0 + 6,A
        MOV     ?V0 + 7,A
        MOV     A,#0x10
        MOV     R0,#?V0 + 4
        LCALL   ?L_SHL
        MOV     R0,#?V0 + 0
        MOV     R1,#?V0 + 4
        LCALL   ?L_IOR
        MOV     A,#0x2
        LCALL   ?XSTACK_DISP0_8
        MOVX    A,@DPTR
        MOV     ?V0 + 4,A
        CLR     A
        MOV     ?V0 + 6,A
        MOV     A,#0x8
        MOV     R0,#?V0 + 4
        LCALL   ?L_SHL
        MOV     R0,#?V0 + 0
        MOV     R1,#?V0 + 4
        LCALL   ?L_IOR
        MOV     A,#0x3
        LCALL   ?XSTACK_DISP0_8
        MOVX    A,@DPTR
        MOV     ?V0 + 4,A
        CLR     A
        MOV     ?V0 + 5,A
        MOV     R0,#?V0 + 0
        MOV     R1,#?V0 + 4
        LCALL   ?L_IOR
        MOV     DPL,R6
        MOV     DPH,R7
        MOV     R0,#?V0 + 0
        LCALL   ?L_MOV_TO_X
//  921     return 0;
        MOV     R2,#0x0
        MOV     R3,#0x0
??dmp_get_pedometer_step_count_2:
        MOV     A,#0x4
        LCALL   ?DEALLOC_XSTACK8
        CFI CFA_XSP16 add(XSP16, 16)
        MOV     R7,#0x8
        LJMP    ?BANKED_LEAVE_XDATA
        CFI EndBlock cfiBlock14
//  922 }
//  923 
//  924 /**
//  925  *  @brief      Overwrite current step count.
//  926  *  WARNING: This function writes to DMP memory and could potentially encounter
//  927  *  a race condition if called while the pedometer is enabled.
//  928  *  @param[in]  count   New step count.
//  929  *  @return     0 if successful.
//  930  */

        RSEG BANKED_CODE:CODE:NOROOT(0)
//  931 int dmp_set_pedometer_step_count(unsigned long count)
dmp_set_pedometer_step_count:
        CFI Block cfiBlock15 Using cfiCommon0
        CFI Function dmp_set_pedometer_step_count
        CODE
//  932 {
        FUNCALL dmp_set_pedometer_step_count, mpu_write_mem
        LOCFRAME ISTACK, 0, STACK
        LOCFRAME PSTACK, 0, STACK
        LOCFRAME XSTACK, 22, STACK
        LOCFRAME IOVERLAY, 0, STATIC
        LOCFRAME DOVERLAY, 0, STATIC
        ARGFRAME ISTACK, 0, STACK
        ARGFRAME PSTACK, 0, STACK
        ARGFRAME XSTACK, 22, STACK
        ARGFRAME IOVERLAY, 0, STATIC
        ARGFRAME DOVERLAY, 0, STATIC
        MOV     A,#-0x10
        LCALL   ?BANKED_ENTER_XDATA
        CFI DPH0 load(1, XDATA, add(CFA_XSP16, literal(-1)))
        CFI DPL0 load(1, XDATA, add(CFA_XSP16, literal(-2)))
        CFI ?BRET_EXT load(1, XDATA, add(CFA_XSP16, literal(-3)))
        CFI ?RET_HIGH load(1, XDATA, add(CFA_XSP16, literal(-4)))
        CFI ?RET_LOW load(1, XDATA, add(CFA_XSP16, literal(-5)))
        CFI R7 load(1, XDATA, add(CFA_XSP16, literal(-6)))
        CFI V7 load(1, XDATA, add(CFA_XSP16, literal(-7)))
        CFI V6 load(1, XDATA, add(CFA_XSP16, literal(-8)))
        CFI V5 load(1, XDATA, add(CFA_XSP16, literal(-9)))
        CFI V4 load(1, XDATA, add(CFA_XSP16, literal(-10)))
        CFI V3 load(1, XDATA, add(CFA_XSP16, literal(-11)))
        CFI V2 load(1, XDATA, add(CFA_XSP16, literal(-12)))
        CFI V1 load(1, XDATA, add(CFA_XSP16, literal(-13)))
        CFI V0 load(1, XDATA, add(CFA_XSP16, literal(-14)))
        CFI VB load(1, XDATA, add(CFA_XSP16, literal(-15)))
        CFI R6 load(1, XDATA, add(CFA_XSP16, literal(-16)))
        CFI CFA_SP SP+0
        CFI CFA_XSP16 add(XSP16, 16)
        ; Saved register size: 16
        ; Auto size: 4
        MOV     A,#-0x4
        LCALL   ?ALLOC_XSTACK8
        CFI CFA_XSP16 add(XSP16, 20)
//  933     unsigned char tmp[4];
//  934 
//  935     tmp[0] = (unsigned char)((count >> 24) & 0xFF);
        MOV     DPL,?XSP + 0
        MOV     DPH,?XSP + 1
        MOV     A,R5
        MOVX    @DPTR,A
//  936     tmp[1] = (unsigned char)((count >> 16) & 0xFF);
        MOV     ?V0 + 0,R2
        MOV     ?V0 + 1,R3
        MOV     ?V0 + 2,R4
        MOV     ?V0 + 3,A
        MOV     A,#0x10
        MOV     R0,#?V0 + 0
        LCALL   ?UL_SHR
        INC     A
        LCALL   ?XSTACK_DISP0_8
        MOV     A,R4
        MOVX    @DPTR,A
//  937     tmp[2] = (unsigned char)((count >> 8) & 0xFF);
        MOV     A,#0x2
        LCALL   ?XSTACK_DISP0_8
        MOV     A,R3
        MOVX    @DPTR,A
//  938     tmp[3] = (unsigned char)(count & 0xFF);
        MOV     A,#0x3
        LCALL   ?XSTACK_DISP0_8
        MOV     A,R2
        MOVX    @DPTR,A
//  939     return mpu_write_mem(D_PEDSTD_STEPCTR, 4, tmp);
        ; Setup parameters for call to function mpu_write_mem
        MOV     DPL,?XSP + 0
        MOV     DPH,?XSP + 1
        MOV     ?V0 + 0,DPL
        MOV     ?V0 + 1,DPH
        MOV     R0,#?V0 + 0
        LCALL   ?PUSH_XSTACK_I_TWO
        CFI CFA_XSP16 add(XSP16, 22)
        MOV     R4,#0x4
        MOV     R5,#0x0
        MOV     R2,#0x60
        MOV     R3,#0x3
        LCALL   ??mpu_write_mem?relay
        MOV     A,#0x2
        LCALL   ?DEALLOC_XSTACK8
        CFI CFA_XSP16 add(XSP16, 20)
        MOV     A,#0x4
        LCALL   ?DEALLOC_XSTACK8
        CFI CFA_XSP16 add(XSP16, 16)
        MOV     R7,#0x8
        LJMP    ?BANKED_LEAVE_XDATA
        CFI EndBlock cfiBlock15
//  940 }
//  941 
//  942 /**
//  943  *  @brief      Get duration of walking time.
//  944  *  @param[in]  time    Walk time in milliseconds.
//  945  *  @return     0 if successful.
//  946  */

        RSEG BANKED_CODE:CODE:NOROOT(0)
//  947 int dmp_get_pedometer_walk_time(unsigned long *time)
dmp_get_pedometer_walk_time:
        CFI Block cfiBlock16 Using cfiCommon0
        CFI Function dmp_get_pedometer_walk_time
        CODE
//  948 {
        FUNCALL dmp_get_pedometer_walk_time, mpu_read_mem
        LOCFRAME ISTACK, 0, STACK
        LOCFRAME PSTACK, 0, STACK
        LOCFRAME XSTACK, 22, STACK
        LOCFRAME IOVERLAY, 0, STATIC
        LOCFRAME DOVERLAY, 0, STATIC
        ARGFRAME ISTACK, 0, STACK
        ARGFRAME PSTACK, 0, STACK
        ARGFRAME XSTACK, 22, STACK
        ARGFRAME IOVERLAY, 0, STATIC
        ARGFRAME DOVERLAY, 0, STATIC
        MOV     A,#-0x10
        LCALL   ?BANKED_ENTER_XDATA
        CFI DPH0 load(1, XDATA, add(CFA_XSP16, literal(-1)))
        CFI DPL0 load(1, XDATA, add(CFA_XSP16, literal(-2)))
        CFI ?BRET_EXT load(1, XDATA, add(CFA_XSP16, literal(-3)))
        CFI ?RET_HIGH load(1, XDATA, add(CFA_XSP16, literal(-4)))
        CFI ?RET_LOW load(1, XDATA, add(CFA_XSP16, literal(-5)))
        CFI R7 load(1, XDATA, add(CFA_XSP16, literal(-6)))
        CFI V7 load(1, XDATA, add(CFA_XSP16, literal(-7)))
        CFI V6 load(1, XDATA, add(CFA_XSP16, literal(-8)))
        CFI V5 load(1, XDATA, add(CFA_XSP16, literal(-9)))
        CFI V4 load(1, XDATA, add(CFA_XSP16, literal(-10)))
        CFI V3 load(1, XDATA, add(CFA_XSP16, literal(-11)))
        CFI V2 load(1, XDATA, add(CFA_XSP16, literal(-12)))
        CFI V1 load(1, XDATA, add(CFA_XSP16, literal(-13)))
        CFI V0 load(1, XDATA, add(CFA_XSP16, literal(-14)))
        CFI VB load(1, XDATA, add(CFA_XSP16, literal(-15)))
        CFI R6 load(1, XDATA, add(CFA_XSP16, literal(-16)))
        CFI CFA_SP SP+0
        CFI CFA_XSP16 add(XSP16, 16)
        ; Saved register size: 16
        ; Auto size: 4
        MOV     A,#-0x4
        LCALL   ?ALLOC_XSTACK8
        CFI CFA_XSP16 add(XSP16, 20)
        MOV     A,R2
        MOV     R6,A
        MOV     A,R3
        MOV     R7,A
//  949     unsigned char tmp[4];
//  950     if (!time)
        MOV     A,R6
        ORL     A,R7
        JNZ     ??dmp_get_pedometer_walk_time_0
//  951         return -1;
??dmp_get_pedometer_walk_time_1:
        MOV     R2,#-0x1
        MOV     R3,#-0x1
        LJMP    ??dmp_get_pedometer_walk_time_2 & 0xFFFF
//  952 
//  953     if (mpu_read_mem(D_PEDSTD_TIMECTR, 4, tmp))
??dmp_get_pedometer_walk_time_0:
        ; Setup parameters for call to function mpu_read_mem
        MOV     DPL,?XSP + 0
        MOV     DPH,?XSP + 1
        MOV     ?V0 + 0,DPL
        MOV     ?V0 + 1,DPH
        MOV     R0,#?V0 + 0
        LCALL   ?PUSH_XSTACK_I_TWO
        CFI CFA_XSP16 add(XSP16, 22)
        MOV     R4,#0x4
        MOV     R5,#0x0
        MOV     R2,#-0x3c
        MOV     R3,#0x3
        LCALL   ??mpu_read_mem?relay
        MOV     A,#0x2
        LCALL   ?DEALLOC_XSTACK8
        CFI CFA_XSP16 add(XSP16, 20)
        MOV     ?V0 + 1,R3
        MOV     A,R2
        ORL     A,?V0 + 1
        JNZ     ??dmp_get_pedometer_walk_time_1
//  954         return -1;
//  955 
//  956     time[0] = (((unsigned long)tmp[0] << 24) | ((unsigned long)tmp[1] << 16) |
//  957         ((unsigned long)tmp[2] << 8) | tmp[3]) * 20;
        MOV     DPL,?XSP + 0
        MOV     DPH,?XSP + 1
        MOVX    A,@DPTR
        MOV     ?V0 + 0,A
        CLR     A
        MOV     ?V0 + 1,A
        MOV     ?V0 + 2,A
        MOV     ?V0 + 3,A
        MOV     A,#0x18
        MOV     R0,#?V0 + 0
        LCALL   ?L_SHL
        INC     A
        LCALL   ?XSTACK_DISP0_8
        MOVX    A,@DPTR
        MOV     ?V0 + 4,A
        CLR     A
        MOV     ?V0 + 5,A
        MOV     ?V0 + 6,A
        MOV     ?V0 + 7,A
        MOV     A,#0x10
        MOV     R0,#?V0 + 4
        LCALL   ?L_SHL
        MOV     R0,#?V0 + 0
        MOV     R1,#?V0 + 4
        LCALL   ?L_IOR
        MOV     A,#0x2
        LCALL   ?XSTACK_DISP0_8
        MOVX    A,@DPTR
        MOV     ?V0 + 4,A
        CLR     A
        MOV     ?V0 + 6,A
        MOV     A,#0x8
        MOV     R0,#?V0 + 4
        LCALL   ?L_SHL
        MOV     R0,#?V0 + 0
        MOV     R1,#?V0 + 4
        LCALL   ?L_IOR
        MOV     A,#0x3
        LCALL   ?XSTACK_DISP0_8
        MOVX    A,@DPTR
        MOV     ?V0 + 4,A
        CLR     A
        MOV     ?V0 + 5,A
        MOV     R0,#?V0 + 0
        MOV     R1,#?V0 + 4
        LCALL   ?L_IOR
        MOV     DPTR,#__Constant_14
        MOV     R0,#?V0 + 4
        LCALL   ?L_MOV_X
        MOV     R0,#?V0 + 0
        MOV     R1,#?V0 + 4
        LCALL   ?L_MUL
        MOV     DPL,R6
        MOV     DPH,R7
        MOV     R0,#?V0 + 0
        LCALL   ?L_MOV_TO_X
//  958     return 0;
        MOV     R2,#0x0
        MOV     R3,#0x0
??dmp_get_pedometer_walk_time_2:
        MOV     A,#0x4
        LCALL   ?DEALLOC_XSTACK8
        CFI CFA_XSP16 add(XSP16, 16)
        MOV     R7,#0x8
        LJMP    ?BANKED_LEAVE_XDATA
        CFI EndBlock cfiBlock16
//  959 }
//  960 
//  961 /**
//  962  *  @brief      Overwrite current walk time.
//  963  *  WARNING: This function writes to DMP memory and could potentially encounter
//  964  *  a race condition if called while the pedometer is enabled.
//  965  *  @param[in]  time    New walk time in milliseconds.
//  966  */

        RSEG BANKED_CODE:CODE:NOROOT(0)
//  967 int dmp_set_pedometer_walk_time(unsigned long time)
dmp_set_pedometer_walk_time:
        CFI Block cfiBlock17 Using cfiCommon0
        CFI Function dmp_set_pedometer_walk_time
        CODE
//  968 {
        FUNCALL dmp_set_pedometer_walk_time, mpu_write_mem
        LOCFRAME ISTACK, 0, STACK
        LOCFRAME PSTACK, 0, STACK
        LOCFRAME XSTACK, 22, STACK
        LOCFRAME IOVERLAY, 0, STATIC
        LOCFRAME DOVERLAY, 0, STATIC
        ARGFRAME ISTACK, 0, STACK
        ARGFRAME PSTACK, 0, STACK
        ARGFRAME XSTACK, 22, STACK
        ARGFRAME IOVERLAY, 0, STATIC
        ARGFRAME DOVERLAY, 0, STATIC
        MOV     A,#-0x10
        LCALL   ?BANKED_ENTER_XDATA
        CFI DPH0 load(1, XDATA, add(CFA_XSP16, literal(-1)))
        CFI DPL0 load(1, XDATA, add(CFA_XSP16, literal(-2)))
        CFI ?BRET_EXT load(1, XDATA, add(CFA_XSP16, literal(-3)))
        CFI ?RET_HIGH load(1, XDATA, add(CFA_XSP16, literal(-4)))
        CFI ?RET_LOW load(1, XDATA, add(CFA_XSP16, literal(-5)))
        CFI R7 load(1, XDATA, add(CFA_XSP16, literal(-6)))
        CFI V7 load(1, XDATA, add(CFA_XSP16, literal(-7)))
        CFI V6 load(1, XDATA, add(CFA_XSP16, literal(-8)))
        CFI V5 load(1, XDATA, add(CFA_XSP16, literal(-9)))
        CFI V4 load(1, XDATA, add(CFA_XSP16, literal(-10)))
        CFI V3 load(1, XDATA, add(CFA_XSP16, literal(-11)))
        CFI V2 load(1, XDATA, add(CFA_XSP16, literal(-12)))
        CFI V1 load(1, XDATA, add(CFA_XSP16, literal(-13)))
        CFI V0 load(1, XDATA, add(CFA_XSP16, literal(-14)))
        CFI VB load(1, XDATA, add(CFA_XSP16, literal(-15)))
        CFI R6 load(1, XDATA, add(CFA_XSP16, literal(-16)))
        CFI CFA_SP SP+0
        CFI CFA_XSP16 add(XSP16, 16)
        ; Saved register size: 16
        ; Auto size: 4
        MOV     A,#-0x4
        LCALL   ?ALLOC_XSTACK8
        CFI CFA_XSP16 add(XSP16, 20)
        MOV     ?V0 + 4,R2
        MOV     ?V0 + 5,R3
        MOV     ?V0 + 6,R4
        MOV     ?V0 + 7,R5
//  969     unsigned char tmp[4];
//  970 
//  971     time /= 20;
        MOV     DPTR,#__Constant_14
        MOV     R0,#?V0 + 0
        LCALL   ?L_MOV_X
        MOV     R0,#?V0 + 4
        MOV     R1,#?V0 + 0
        LCALL   ?UL_DIV_MOD
//  972 
//  973     tmp[0] = (unsigned char)((time >> 24) & 0xFF);
        MOV     ?V0 + 0,?V0 + 4
        MOV     ?V0 + 1,?V0 + 5
        MOV     ?V0 + 2,?V0 + 6
        MOV     ?V0 + 3,?V0 + 7
        MOV     A,#0x18
        MOV     R0,#?V0 + 0
        LCALL   ?UL_SHR
        MOV     DPL,?XSP + 0
        MOV     DPH,?XSP + 1
        MOV     A,?V0 + 0
        MOVX    @DPTR,A
//  974     tmp[1] = (unsigned char)((time >> 16) & 0xFF);
        MOV     ?V0 + 0,?V0 + 4
        MOV     ?V0 + 1,?V0 + 5
        MOV     ?V0 + 2,?V0 + 6
        MOV     ?V0 + 3,A
        MOV     A,#0x10
        MOV     R0,#?V0 + 0
        LCALL   ?UL_SHR
        INC     A
        LCALL   ?XSTACK_DISP0_8
        MOV     A,?V0 + 0
        MOVX    @DPTR,A
//  975     tmp[2] = (unsigned char)((time >> 8) & 0xFF);
        MOV     ?V0 + 1,?V0 + 5
        MOV     A,?V0 + 1
        MOV     ?V0 + 0,A
        MOV     A,#0x2
        LCALL   ?XSTACK_DISP0_8
        MOV     A,?V0 + 0
        MOVX    @DPTR,A
//  976     tmp[3] = (unsigned char)(time & 0xFF);
        MOV     A,#0x3
        LCALL   ?XSTACK_DISP0_8
        MOV     A,?V0 + 4
        MOVX    @DPTR,A
//  977     return mpu_write_mem(D_PEDSTD_TIMECTR, 4, tmp);
        ; Setup parameters for call to function mpu_write_mem
        MOV     DPL,?XSP + 0
        MOV     DPH,?XSP + 1
        MOV     ?V0 + 0,DPL
        MOV     ?V0 + 1,DPH
        MOV     R0,#?V0 + 0
        LCALL   ?PUSH_XSTACK_I_TWO
        CFI CFA_XSP16 add(XSP16, 22)
        MOV     R4,#0x4
        MOV     R5,#0x0
        MOV     R2,#-0x3c
        MOV     R3,#0x3
        LCALL   ??mpu_write_mem?relay
        MOV     A,#0x2
        LCALL   ?DEALLOC_XSTACK8
        CFI CFA_XSP16 add(XSP16, 20)
        MOV     A,#0x4
        LCALL   ?DEALLOC_XSTACK8
        CFI CFA_XSP16 add(XSP16, 16)
        MOV     R7,#0x8
        LJMP    ?BANKED_LEAVE_XDATA
        CFI EndBlock cfiBlock17
//  978 }
//  979 
//  980 /**
//  981  *  @brief      Enable DMP features.
//  982  *  The following \#define's are used in the input mask:
//  983  *  \n DMP_FEATURE_TAP
//  984  *  \n DMP_FEATURE_ANDROID_ORIENT
//  985  *  \n DMP_FEATURE_LP_QUAT
//  986  *  \n DMP_FEATURE_6X_LP_QUAT
//  987  *  \n DMP_FEATURE_GYRO_CAL
//  988  *  \n DMP_FEATURE_SEND_RAW_ACCEL
//  989  *  \n DMP_FEATURE_SEND_RAW_GYRO
//  990  *  \n NOTE: DMP_FEATURE_LP_QUAT and DMP_FEATURE_6X_LP_QUAT are mutually
//  991  *  exclusive.
//  992  *  \n NOTE: DMP_FEATURE_SEND_RAW_GYRO and DMP_FEATURE_SEND_CAL_GYRO are also
//  993  *  mutually exclusive.
//  994  *  @param[in]  mask    Mask of features to enable.
//  995  *  @return     0 if successful.
//  996  */

        RSEG BANKED_CODE:CODE:NOROOT(0)
//  997 int dmp_enable_feature(unsigned short mask)
dmp_enable_feature:
        CFI Block cfiBlock18 Using cfiCommon0
        CFI Function dmp_enable_feature
        CODE
//  998 {
        FUNCALL dmp_enable_feature, mpu_write_mem
        LOCFRAME ISTACK, 0, STACK
        LOCFRAME PSTACK, 0, STACK
        LOCFRAME XSTACK, 26, STACK
        LOCFRAME IOVERLAY, 0, STATIC
        LOCFRAME DOVERLAY, 0, STATIC
        ARGFRAME ISTACK, 0, STACK
        ARGFRAME PSTACK, 0, STACK
        ARGFRAME XSTACK, 26, STACK
        ARGFRAME IOVERLAY, 0, STATIC
        ARGFRAME DOVERLAY, 0, STATIC
        FUNCALL dmp_enable_feature, mpu_write_mem
        LOCFRAME ISTACK, 0, STACK
        LOCFRAME PSTACK, 0, STACK
        LOCFRAME XSTACK, 26, STACK
        LOCFRAME IOVERLAY, 0, STATIC
        LOCFRAME DOVERLAY, 0, STATIC
        ARGFRAME ISTACK, 0, STACK
        ARGFRAME PSTACK, 0, STACK
        ARGFRAME XSTACK, 26, STACK
        ARGFRAME IOVERLAY, 0, STATIC
        ARGFRAME DOVERLAY, 0, STATIC
        FUNCALL dmp_enable_feature, mpu_write_mem
        LOCFRAME ISTACK, 0, STACK
        LOCFRAME PSTACK, 0, STACK
        LOCFRAME XSTACK, 26, STACK
        LOCFRAME IOVERLAY, 0, STATIC
        LOCFRAME DOVERLAY, 0, STATIC
        ARGFRAME ISTACK, 0, STACK
        ARGFRAME PSTACK, 0, STACK
        ARGFRAME XSTACK, 26, STACK
        ARGFRAME IOVERLAY, 0, STATIC
        ARGFRAME DOVERLAY, 0, STATIC
        FUNCALL dmp_enable_feature, dmp_enable_gyro_cal
        LOCFRAME ISTACK, 0, STACK
        LOCFRAME PSTACK, 0, STACK
        LOCFRAME XSTACK, 24, STACK
        LOCFRAME IOVERLAY, 0, STATIC
        LOCFRAME DOVERLAY, 0, STATIC
        ARGFRAME ISTACK, 0, STACK
        ARGFRAME PSTACK, 0, STACK
        ARGFRAME XSTACK, 24, STACK
        ARGFRAME IOVERLAY, 0, STATIC
        ARGFRAME DOVERLAY, 0, STATIC
        FUNCALL dmp_enable_feature, dmp_enable_gyro_cal
        LOCFRAME ISTACK, 0, STACK
        LOCFRAME PSTACK, 0, STACK
        LOCFRAME XSTACK, 24, STACK
        LOCFRAME IOVERLAY, 0, STATIC
        LOCFRAME DOVERLAY, 0, STATIC
        ARGFRAME ISTACK, 0, STACK
        ARGFRAME PSTACK, 0, STACK
        ARGFRAME XSTACK, 24, STACK
        ARGFRAME IOVERLAY, 0, STATIC
        ARGFRAME DOVERLAY, 0, STATIC
        FUNCALL dmp_enable_feature, mpu_write_mem
        LOCFRAME ISTACK, 0, STACK
        LOCFRAME PSTACK, 0, STACK
        LOCFRAME XSTACK, 26, STACK
        LOCFRAME IOVERLAY, 0, STATIC
        LOCFRAME DOVERLAY, 0, STATIC
        ARGFRAME ISTACK, 0, STACK
        ARGFRAME PSTACK, 0, STACK
        ARGFRAME XSTACK, 26, STACK
        ARGFRAME IOVERLAY, 0, STATIC
        ARGFRAME DOVERLAY, 0, STATIC
        FUNCALL dmp_enable_feature, mpu_write_mem
        LOCFRAME ISTACK, 0, STACK
        LOCFRAME PSTACK, 0, STACK
        LOCFRAME XSTACK, 26, STACK
        LOCFRAME IOVERLAY, 0, STATIC
        LOCFRAME DOVERLAY, 0, STATIC
        ARGFRAME ISTACK, 0, STACK
        ARGFRAME PSTACK, 0, STACK
        ARGFRAME XSTACK, 26, STACK
        ARGFRAME IOVERLAY, 0, STATIC
        ARGFRAME DOVERLAY, 0, STATIC
        FUNCALL dmp_enable_feature, dmp_set_tap_thresh
        LOCFRAME ISTACK, 0, STACK
        LOCFRAME PSTACK, 0, STACK
        LOCFRAME XSTACK, 24, STACK
        LOCFRAME IOVERLAY, 0, STATIC
        LOCFRAME DOVERLAY, 0, STATIC
        ARGFRAME ISTACK, 0, STACK
        ARGFRAME PSTACK, 0, STACK
        ARGFRAME XSTACK, 24, STACK
        ARGFRAME IOVERLAY, 0, STATIC
        ARGFRAME DOVERLAY, 0, STATIC
        FUNCALL dmp_enable_feature, dmp_set_tap_axes
        LOCFRAME ISTACK, 0, STACK
        LOCFRAME PSTACK, 0, STACK
        LOCFRAME XSTACK, 24, STACK
        LOCFRAME IOVERLAY, 0, STATIC
        LOCFRAME DOVERLAY, 0, STATIC
        ARGFRAME ISTACK, 0, STACK
        ARGFRAME PSTACK, 0, STACK
        ARGFRAME XSTACK, 24, STACK
        ARGFRAME IOVERLAY, 0, STATIC
        ARGFRAME DOVERLAY, 0, STATIC
        FUNCALL dmp_enable_feature, dmp_set_tap_count
        LOCFRAME ISTACK, 0, STACK
        LOCFRAME PSTACK, 0, STACK
        LOCFRAME XSTACK, 24, STACK
        LOCFRAME IOVERLAY, 0, STATIC
        LOCFRAME DOVERLAY, 0, STATIC
        ARGFRAME ISTACK, 0, STACK
        ARGFRAME PSTACK, 0, STACK
        ARGFRAME XSTACK, 24, STACK
        ARGFRAME IOVERLAY, 0, STATIC
        ARGFRAME DOVERLAY, 0, STATIC
        FUNCALL dmp_enable_feature, dmp_set_tap_time
        LOCFRAME ISTACK, 0, STACK
        LOCFRAME PSTACK, 0, STACK
        LOCFRAME XSTACK, 24, STACK
        LOCFRAME IOVERLAY, 0, STATIC
        LOCFRAME DOVERLAY, 0, STATIC
        ARGFRAME ISTACK, 0, STACK
        ARGFRAME PSTACK, 0, STACK
        ARGFRAME XSTACK, 24, STACK
        ARGFRAME IOVERLAY, 0, STATIC
        ARGFRAME DOVERLAY, 0, STATIC
        FUNCALL dmp_enable_feature, dmp_set_tap_time_multi
        LOCFRAME ISTACK, 0, STACK
        LOCFRAME PSTACK, 0, STACK
        LOCFRAME XSTACK, 24, STACK
        LOCFRAME IOVERLAY, 0, STATIC
        LOCFRAME DOVERLAY, 0, STATIC
        ARGFRAME ISTACK, 0, STACK
        ARGFRAME PSTACK, 0, STACK
        ARGFRAME XSTACK, 24, STACK
        ARGFRAME IOVERLAY, 0, STATIC
        ARGFRAME DOVERLAY, 0, STATIC
        FUNCALL dmp_enable_feature, dmp_set_shake_reject_thresh
        LOCFRAME ISTACK, 0, STACK
        LOCFRAME PSTACK, 0, STACK
        LOCFRAME XSTACK, 26, STACK
        LOCFRAME IOVERLAY, 0, STATIC
        LOCFRAME DOVERLAY, 0, STATIC
        ARGFRAME ISTACK, 0, STACK
        ARGFRAME PSTACK, 0, STACK
        ARGFRAME XSTACK, 26, STACK
        ARGFRAME IOVERLAY, 0, STATIC
        ARGFRAME DOVERLAY, 0, STATIC
        FUNCALL dmp_enable_feature, dmp_set_shake_reject_time
        LOCFRAME ISTACK, 0, STACK
        LOCFRAME PSTACK, 0, STACK
        LOCFRAME XSTACK, 24, STACK
        LOCFRAME IOVERLAY, 0, STATIC
        LOCFRAME DOVERLAY, 0, STATIC
        ARGFRAME ISTACK, 0, STACK
        ARGFRAME PSTACK, 0, STACK
        ARGFRAME XSTACK, 24, STACK
        ARGFRAME IOVERLAY, 0, STATIC
        ARGFRAME DOVERLAY, 0, STATIC
        FUNCALL dmp_enable_feature, dmp_set_shake_reject_timeout
        LOCFRAME ISTACK, 0, STACK
        LOCFRAME PSTACK, 0, STACK
        LOCFRAME XSTACK, 24, STACK
        LOCFRAME IOVERLAY, 0, STATIC
        LOCFRAME DOVERLAY, 0, STATIC
        ARGFRAME ISTACK, 0, STACK
        ARGFRAME PSTACK, 0, STACK
        ARGFRAME XSTACK, 24, STACK
        ARGFRAME IOVERLAY, 0, STATIC
        ARGFRAME DOVERLAY, 0, STATIC
        FUNCALL dmp_enable_feature, mpu_write_mem
        LOCFRAME ISTACK, 0, STACK
        LOCFRAME PSTACK, 0, STACK
        LOCFRAME XSTACK, 26, STACK
        LOCFRAME IOVERLAY, 0, STATIC
        LOCFRAME DOVERLAY, 0, STATIC
        ARGFRAME ISTACK, 0, STACK
        ARGFRAME PSTACK, 0, STACK
        ARGFRAME XSTACK, 26, STACK
        ARGFRAME IOVERLAY, 0, STATIC
        ARGFRAME DOVERLAY, 0, STATIC
        FUNCALL dmp_enable_feature, mpu_write_mem
        LOCFRAME ISTACK, 0, STACK
        LOCFRAME PSTACK, 0, STACK
        LOCFRAME XSTACK, 26, STACK
        LOCFRAME IOVERLAY, 0, STATIC
        LOCFRAME DOVERLAY, 0, STATIC
        ARGFRAME ISTACK, 0, STACK
        ARGFRAME PSTACK, 0, STACK
        ARGFRAME XSTACK, 26, STACK
        ARGFRAME IOVERLAY, 0, STATIC
        ARGFRAME DOVERLAY, 0, STATIC
        FUNCALL dmp_enable_feature, dmp_enable_lp_quat
        LOCFRAME ISTACK, 0, STACK
        LOCFRAME PSTACK, 0, STACK
        LOCFRAME XSTACK, 24, STACK
        LOCFRAME IOVERLAY, 0, STATIC
        LOCFRAME DOVERLAY, 0, STATIC
        ARGFRAME ISTACK, 0, STACK
        ARGFRAME PSTACK, 0, STACK
        ARGFRAME XSTACK, 24, STACK
        ARGFRAME IOVERLAY, 0, STATIC
        ARGFRAME DOVERLAY, 0, STATIC
        FUNCALL dmp_enable_feature, dmp_enable_lp_quat
        LOCFRAME ISTACK, 0, STACK
        LOCFRAME PSTACK, 0, STACK
        LOCFRAME XSTACK, 24, STACK
        LOCFRAME IOVERLAY, 0, STATIC
        LOCFRAME DOVERLAY, 0, STATIC
        ARGFRAME ISTACK, 0, STACK
        ARGFRAME PSTACK, 0, STACK
        ARGFRAME XSTACK, 24, STACK
        ARGFRAME IOVERLAY, 0, STATIC
        ARGFRAME DOVERLAY, 0, STATIC
        FUNCALL dmp_enable_feature, dmp_enable_6x_lp_quat
        LOCFRAME ISTACK, 0, STACK
        LOCFRAME PSTACK, 0, STACK
        LOCFRAME XSTACK, 24, STACK
        LOCFRAME IOVERLAY, 0, STATIC
        LOCFRAME DOVERLAY, 0, STATIC
        ARGFRAME ISTACK, 0, STACK
        ARGFRAME PSTACK, 0, STACK
        ARGFRAME XSTACK, 24, STACK
        ARGFRAME IOVERLAY, 0, STATIC
        ARGFRAME DOVERLAY, 0, STATIC
        FUNCALL dmp_enable_feature, dmp_enable_6x_lp_quat
        LOCFRAME ISTACK, 0, STACK
        LOCFRAME PSTACK, 0, STACK
        LOCFRAME XSTACK, 24, STACK
        LOCFRAME IOVERLAY, 0, STATIC
        LOCFRAME DOVERLAY, 0, STATIC
        ARGFRAME ISTACK, 0, STACK
        ARGFRAME PSTACK, 0, STACK
        ARGFRAME XSTACK, 24, STACK
        ARGFRAME IOVERLAY, 0, STATIC
        ARGFRAME DOVERLAY, 0, STATIC
        FUNCALL dmp_enable_feature, mpu_reset_fifo
        LOCFRAME ISTACK, 0, STACK
        LOCFRAME PSTACK, 0, STACK
        LOCFRAME XSTACK, 24, STACK
        LOCFRAME IOVERLAY, 0, STATIC
        LOCFRAME DOVERLAY, 0, STATIC
        ARGFRAME ISTACK, 0, STACK
        ARGFRAME PSTACK, 0, STACK
        ARGFRAME XSTACK, 24, STACK
        ARGFRAME IOVERLAY, 0, STATIC
        ARGFRAME DOVERLAY, 0, STATIC
        MOV     A,#-0xe
        LCALL   ?BANKED_ENTER_XDATA
        CFI DPH0 load(1, XDATA, add(CFA_XSP16, literal(-1)))
        CFI DPL0 load(1, XDATA, add(CFA_XSP16, literal(-2)))
        CFI ?BRET_EXT load(1, XDATA, add(CFA_XSP16, literal(-3)))
        CFI ?RET_HIGH load(1, XDATA, add(CFA_XSP16, literal(-4)))
        CFI ?RET_LOW load(1, XDATA, add(CFA_XSP16, literal(-5)))
        CFI R7 load(1, XDATA, add(CFA_XSP16, literal(-6)))
        CFI V5 load(1, XDATA, add(CFA_XSP16, literal(-7)))
        CFI V4 load(1, XDATA, add(CFA_XSP16, literal(-8)))
        CFI V3 load(1, XDATA, add(CFA_XSP16, literal(-9)))
        CFI V2 load(1, XDATA, add(CFA_XSP16, literal(-10)))
        CFI V1 load(1, XDATA, add(CFA_XSP16, literal(-11)))
        CFI V0 load(1, XDATA, add(CFA_XSP16, literal(-12)))
        CFI VB load(1, XDATA, add(CFA_XSP16, literal(-13)))
        CFI R6 load(1, XDATA, add(CFA_XSP16, literal(-14)))
        CFI CFA_SP SP+0
        CFI CFA_XSP16 add(XSP16, 14)
        ; Saved register size: 14
        ; Auto size: 10
        MOV     A,#-0xa
        LCALL   ?ALLOC_XSTACK8
        CFI CFA_XSP16 add(XSP16, 24)
        MOV     A,R2
        MOV     R6,A
        MOV     A,R3
        MOV     R7,A
//  999     unsigned char tmp[10];
// 1000 
// 1001     /* TODO: All of these settings can probably be integrated into the default
// 1002      * DMP image.
// 1003      */
// 1004     /* Set integration scale factor. */
// 1005     tmp[0] = (unsigned char)((GYRO_SF >> 24) & 0xFF);
        MOV     DPL,?XSP + 0
        MOV     DPH,?XSP + 1
        CLR     A
        MOVX    @DPTR,A
// 1006     tmp[1] = (unsigned char)((GYRO_SF >> 16) & 0xFF);
        INC     A
        LCALL   ?XSTACK_DISP0_8
        MOV     A,#0x3b
        MOVX    @DPTR,A
// 1007     tmp[2] = (unsigned char)((GYRO_SF >> 8) & 0xFF);
        MOV     A,#0x2
        LCALL   ?XSTACK_DISP0_8
        MOV     A,#-0x7a
        MOVX    @DPTR,A
// 1008     tmp[3] = (unsigned char)(GYRO_SF & 0xFF);
        MOV     A,#0x3
        LCALL   ?XSTACK_DISP0_8
        MOV     A,#-0x20
        MOVX    @DPTR,A
// 1009     mpu_write_mem(D_0_104, 4, tmp);
        ; Setup parameters for call to function mpu_write_mem
        MOV     DPL,?XSP + 0
        MOV     DPH,?XSP + 1
        MOV     ?V0 + 0,DPL
        MOV     ?V0 + 1,DPH
        MOV     R0,#?V0 + 0
        LCALL   ?PUSH_XSTACK_I_TWO
        CFI CFA_XSP16 add(XSP16, 26)
        MOV     R4,#0x4
        MOV     R5,#0x0
        MOV     R2,#0x68
        MOV     R3,#0x0
        LCALL   ??mpu_write_mem?relay
        MOV     A,#0x2
        LCALL   ?DEALLOC_XSTACK8
        CFI CFA_XSP16 add(XSP16, 24)
// 1010 
// 1011     /* Send sensor data to the FIFO. */
// 1012     tmp[0] = 0xA3;
        MOV     DPL,?XSP + 0
        MOV     DPH,?XSP + 1
        MOV     A,#-0x5d
        MOVX    @DPTR,A
// 1013     if (mask & DMP_FEATURE_SEND_RAW_ACCEL) {
        MOV     A,R6
        ANL     A,#0x40
        MOV     ?V0 + 3,A
        JZ      ??dmp_enable_feature_0
// 1014         tmp[1] = 0xC0;
        MOV     A,#0x1
        LCALL   ?XSTACK_DISP0_8
        MOV     A,#-0x40
        MOVX    @DPTR,A
// 1015         tmp[2] = 0xC8;
        MOV     A,#0x2
        LCALL   ?XSTACK_DISP0_8
        MOV     A,#-0x38
        MOVX    @DPTR,A
// 1016         tmp[3] = 0xC2;
        MOV     A,#0x3
        LCALL   ?XSTACK_DISP0_8
        MOV     A,#-0x3e
        SJMP    ??dmp_enable_feature_1
// 1017     } else {
// 1018         tmp[1] = 0xA3;
??dmp_enable_feature_0:
        MOV     A,#0x1
        LCALL   ?XSTACK_DISP0_8
        MOV     A,#-0x5d
        MOVX    @DPTR,A
// 1019         tmp[2] = 0xA3;
        MOV     A,#0x2
        LCALL   ?XSTACK_DISP0_8
        MOV     A,#-0x5d
        MOVX    @DPTR,A
// 1020         tmp[3] = 0xA3;
        MOV     A,#0x3
        LCALL   ?XSTACK_DISP0_8
        MOV     A,#-0x5d
??dmp_enable_feature_1:
        MOVX    @DPTR,A
// 1021     }
// 1022     if (mask & DMP_FEATURE_SEND_ANY_GYRO) {
        MOV     A,R6
        ANL     A,#0x80
        MOV     ?V0 + 0,A
        MOV     A,R7
        ANL     A,#0x1
        MOV     ?V0 + 1,A
        MOV     A,?V0 + 0
        ORL     A,?V0 + 1
        JZ      ??dmp_enable_feature_2
// 1023         tmp[4] = 0xC4;
        MOV     A,#0x4
        LCALL   ?XSTACK_DISP0_8
        MOV     A,#-0x3c
        MOVX    @DPTR,A
// 1024         tmp[5] = 0xCC;
        MOV     A,#0x5
        LCALL   ?XSTACK_DISP0_8
        MOV     A,#-0x34
        MOVX    @DPTR,A
// 1025         tmp[6] = 0xC6;
        MOV     A,#0x6
        LCALL   ?XSTACK_DISP0_8
        MOV     A,#-0x3a
        SJMP    ??dmp_enable_feature_3
// 1026     } else {
// 1027         tmp[4] = 0xA3;
??dmp_enable_feature_2:
        MOV     A,#0x4
        LCALL   ?XSTACK_DISP0_8
        MOV     A,#-0x5d
        MOVX    @DPTR,A
// 1028         tmp[5] = 0xA3;
        MOV     A,#0x5
        LCALL   ?XSTACK_DISP0_8
        MOV     A,#-0x5d
        MOVX    @DPTR,A
// 1029         tmp[6] = 0xA3;
        MOV     A,#0x6
        LCALL   ?XSTACK_DISP0_8
        MOV     A,#-0x5d
??dmp_enable_feature_3:
        MOVX    @DPTR,A
// 1030     }
// 1031     tmp[7] = 0xA3;
        MOV     A,#0x7
        LCALL   ?XSTACK_DISP0_8
        MOV     A,#-0x5d
        MOVX    @DPTR,A
// 1032     tmp[8] = 0xA3;
        MOV     A,#0x8
        LCALL   ?XSTACK_DISP0_8
        MOV     A,#-0x5d
        MOVX    @DPTR,A
// 1033     tmp[9] = 0xA3;
        MOV     A,#0x9
        LCALL   ?XSTACK_DISP0_8
        MOV     A,#-0x5d
        MOVX    @DPTR,A
// 1034     mpu_write_mem(CFG_15,10,tmp);
        ; Setup parameters for call to function mpu_write_mem
        MOV     DPL,?XSP + 0
        MOV     DPH,?XSP + 1
        MOV     ?V0 + 4,DPL
        MOV     ?V0 + 5,DPH
        MOV     R0,#?V0 + 4
        LCALL   ?PUSH_XSTACK_I_TWO
        CFI CFA_XSP16 add(XSP16, 26)
        MOV     R4,#0xa
        MOV     R5,#0x0
        MOV     R2,#-0x59
        MOV     R3,#0xa
        LCALL   ??mpu_write_mem?relay
        MOV     A,#0x2
        LCALL   ?DEALLOC_XSTACK8
        CFI CFA_XSP16 add(XSP16, 24)
// 1035 
// 1036     /* Send gesture data to the FIFO. */
// 1037     if (mask & (DMP_FEATURE_TAP | DMP_FEATURE_ANDROID_ORIENT))
        MOV     A,R6
        ANL     A,#0x3
        MOV     ?V0 + 2,A
        MOV     DPL,?XSP + 0
        MOV     DPH,?XSP + 1
        JZ      ??dmp_enable_feature_4
// 1038         tmp[0] = DINA20;
        MOV     A,#0x20
        SJMP    ??dmp_enable_feature_5
// 1039     else
// 1040         tmp[0] = 0xD8;
??dmp_enable_feature_4:
        MOV     A,#-0x28
??dmp_enable_feature_5:
        MOVX    @DPTR,A
// 1041     mpu_write_mem(CFG_27,1,tmp);
        ; Setup parameters for call to function mpu_write_mem
        MOV     R0,#?V0 + 4
        LCALL   ?PUSH_XSTACK_I_TWO
        CFI CFA_XSP16 add(XSP16, 26)
        MOV     R4,#0x1
        MOV     R5,#0x0
        MOV     R2,#-0x4a
        MOV     R3,#0xa
        LCALL   ??mpu_write_mem?relay
        MOV     A,#0x2
        LCALL   ?DEALLOC_XSTACK8
        CFI CFA_XSP16 add(XSP16, 24)
// 1042 
// 1043     if (mask & DMP_FEATURE_GYRO_CAL)
        MOV     A,R6
        ANL     A,#0x20
        JZ      ??dmp_enable_feature_6
// 1044         dmp_enable_gyro_cal(1);
        ; Setup parameters for call to function dmp_enable_gyro_cal
        MOV     R1,#0x1
        SJMP    ??dmp_enable_feature_7
// 1045     else
// 1046         dmp_enable_gyro_cal(0);
??dmp_enable_feature_6:
        ; Setup parameters for call to function dmp_enable_gyro_cal
        MOV     R1,#0x0
??dmp_enable_feature_7:
        LCALL   ??dmp_enable_gyro_cal?relay
// 1047 
// 1048     if (mask & DMP_FEATURE_SEND_ANY_GYRO) {
        MOV     A,?V0 + 0
        ORL     A,?V0 + 1
        JZ      ??dmp_enable_feature_8
// 1049         if (mask & DMP_FEATURE_SEND_CAL_GYRO) {
        MOV     A,R7
        ANL     A,#0x1
        MOV     DPL,?XSP + 0
        MOV     DPH,?XSP + 1
        JZ      ??dmp_enable_feature_9
// 1050             tmp[0] = 0xB2;
        MOV     A,#-0x4e
        MOVX    @DPTR,A
// 1051             tmp[1] = 0x8B;
        MOV     A,#0x1
        LCALL   ?XSTACK_DISP0_8
        MOV     A,#-0x75
        MOVX    @DPTR,A
// 1052             tmp[2] = 0xB6;
        MOV     A,#0x2
        LCALL   ?XSTACK_DISP0_8
        MOV     A,#-0x4a
        MOVX    @DPTR,A
// 1053             tmp[3] = 0x9B;
        MOV     A,#0x3
        LCALL   ?XSTACK_DISP0_8
        MOV     A,#-0x65
        SJMP    ??dmp_enable_feature_10
// 1054         } else {
// 1055             tmp[0] = DINAC0;
??dmp_enable_feature_9:
        MOV     A,#-0x50
        MOVX    @DPTR,A
// 1056             tmp[1] = DINA80;
        MOV     A,#0x1
        LCALL   ?XSTACK_DISP0_8
        MOV     A,#-0x80
        MOVX    @DPTR,A
// 1057             tmp[2] = DINAC2;
        MOV     A,#0x2
        LCALL   ?XSTACK_DISP0_8
        MOV     A,#-0x4c
        MOVX    @DPTR,A
// 1058             tmp[3] = DINA90;
        MOV     A,#0x3
        LCALL   ?XSTACK_DISP0_8
        MOV     A,#-0x70
??dmp_enable_feature_10:
        MOVX    @DPTR,A
// 1059         }
// 1060         mpu_write_mem(CFG_GYRO_RAW_DATA, 4, tmp);
        ; Setup parameters for call to function mpu_write_mem
        MOV     R0,#?V0 + 4
        LCALL   ?PUSH_XSTACK_I_TWO
        CFI CFA_XSP16 add(XSP16, 26)
        MOV     R4,#0x4
        MOV     R5,#0x0
        MOV     R2,#-0x5e
        MOV     R3,#0xa
        LCALL   ??mpu_write_mem?relay
        MOV     A,#0x2
        LCALL   ?DEALLOC_XSTACK8
        CFI CFA_XSP16 add(XSP16, 24)
// 1061     }
// 1062 
// 1063     if (mask & DMP_FEATURE_TAP) {
??dmp_enable_feature_8:
        MOV     A,R6
        MOV     C,0xE0 /* A   */.0
        MOV     DPL,?XSP + 0
        MOV     DPH,?XSP + 1
        JNC     ??dmp_enable_feature_11
// 1064         /* Enable tap. */
// 1065         tmp[0] = 0xF8;
        MOV     A,#-0x8
        MOVX    @DPTR,A
// 1066         mpu_write_mem(CFG_20, 1, tmp);
        ; Setup parameters for call to function mpu_write_mem
        MOV     R0,#?V0 + 4
        LCALL   ?PUSH_XSTACK_I_TWO
        CFI CFA_XSP16 add(XSP16, 26)
        MOV     R4,#0x1
        MOV     R5,#0x0
        MOV     R2,#-0x50
        MOV     R3,#0x8
        LCALL   ??mpu_write_mem?relay
        MOV     A,#0x2
        LCALL   ?DEALLOC_XSTACK8
        CFI CFA_XSP16 add(XSP16, 24)
// 1067         dmp_set_tap_thresh(TAP_XYZ, 250);
        ; Setup parameters for call to function dmp_set_tap_thresh
        MOV     R2,#-0x6
        MOV     R3,#0x0
        MOV     R1,#0x7
        LCALL   ??dmp_set_tap_thresh?relay
// 1068         dmp_set_tap_axes(TAP_XYZ);
        ; Setup parameters for call to function dmp_set_tap_axes
        MOV     R1,#0x7
        LCALL   ??dmp_set_tap_axes?relay
// 1069         dmp_set_tap_count(1);
        ; Setup parameters for call to function dmp_set_tap_count
        MOV     R1,#0x1
        LCALL   ??dmp_set_tap_count?relay
// 1070         dmp_set_tap_time(100);
        ; Setup parameters for call to function dmp_set_tap_time
        MOV     R2,#0x64
        MOV     R3,#0x0
        LCALL   ??dmp_set_tap_time?relay
// 1071         dmp_set_tap_time_multi(500);
        ; Setup parameters for call to function dmp_set_tap_time_multi
        MOV     R2,#-0xc
        MOV     R3,#0x1
        LCALL   ??dmp_set_tap_time_multi?relay
// 1072 
// 1073         dmp_set_shake_reject_thresh(GYRO_SF, 200);
        ; Setup parameters for call to function dmp_set_shake_reject_thresh
        MOV     ?V0 + 4,#-0x38
        MOV     ?V0 + 5,#0x0
        MOV     R0,#?V0 + 4
        LCALL   ?PUSH_XSTACK_I_TWO
        CFI CFA_XSP16 add(XSP16, 26)
        MOV     DPTR,#__Constant_3b86e0
        LCALL   ?XLOAD_R2345
        LCALL   ??dmp_set_shake_reject_thresh?relay
        MOV     A,#0x2
        LCALL   ?DEALLOC_XSTACK8
        CFI CFA_XSP16 add(XSP16, 24)
// 1074         dmp_set_shake_reject_time(40);
        ; Setup parameters for call to function dmp_set_shake_reject_time
        MOV     R2,#0x28
        MOV     R3,#0x0
        LCALL   ??dmp_set_shake_reject_time?relay
// 1075         dmp_set_shake_reject_timeout(10);
        ; Setup parameters for call to function dmp_set_shake_reject_timeout
        MOV     R2,#0xa
        MOV     R3,#0x0
        LCALL   ??dmp_set_shake_reject_timeout?relay
        SJMP    ??dmp_enable_feature_12
// 1076     } else {
// 1077         tmp[0] = 0xD8;
??dmp_enable_feature_11:
        MOV     A,#-0x28
        MOVX    @DPTR,A
// 1078         mpu_write_mem(CFG_20, 1, tmp);
        ; Setup parameters for call to function mpu_write_mem
        MOV     R0,#?V0 + 4
        LCALL   ?PUSH_XSTACK_I_TWO
        CFI CFA_XSP16 add(XSP16, 26)
        MOV     R4,#0x1
        MOV     R5,#0x0
        MOV     R2,#-0x50
        MOV     R3,#0x8
        LCALL   ??mpu_write_mem?relay
        MOV     A,#0x2
        LCALL   ?DEALLOC_XSTACK8
        CFI CFA_XSP16 add(XSP16, 24)
// 1079     }
// 1080 
// 1081     if (mask & DMP_FEATURE_ANDROID_ORIENT) {
??dmp_enable_feature_12:
        MOV     A,R6
        ANL     A,#0x2
        MOV     DPL,?XSP + 0
        MOV     DPH,?XSP + 1
        JZ      ??dmp_enable_feature_13
// 1082         tmp[0] = 0xD9;
        MOV     A,#-0x27
        SJMP    ??dmp_enable_feature_14
// 1083     } else
// 1084         tmp[0] = 0xD8;
??dmp_enable_feature_13:
        MOV     A,#-0x28
??dmp_enable_feature_14:
        MOVX    @DPTR,A
// 1085     mpu_write_mem(CFG_ANDROID_ORIENT_INT, 1, tmp);
        ; Setup parameters for call to function mpu_write_mem
        MOV     ?V0 + 4,DPL
        MOV     ?V0 + 5,DPH
        MOV     R0,#?V0 + 4
        LCALL   ?PUSH_XSTACK_I_TWO
        CFI CFA_XSP16 add(XSP16, 26)
        MOV     R4,#0x1
        MOV     R5,#0x0
        MOV     R2,#0x3d
        MOV     R3,#0x7
        LCALL   ??mpu_write_mem?relay
        MOV     A,#0x2
        LCALL   ?DEALLOC_XSTACK8
        CFI CFA_XSP16 add(XSP16, 24)
// 1086 
// 1087     if (mask & DMP_FEATURE_LP_QUAT)
        MOV     A,R6
        ANL     A,#0x4
        JZ      ??dmp_enable_feature_15
// 1088         dmp_enable_lp_quat(1);
        ; Setup parameters for call to function dmp_enable_lp_quat
        MOV     R1,#0x1
        SJMP    ??dmp_enable_feature_16
// 1089     else
// 1090         dmp_enable_lp_quat(0);
??dmp_enable_feature_15:
        ; Setup parameters for call to function dmp_enable_lp_quat
        MOV     R1,#0x0
??dmp_enable_feature_16:
        LCALL   ??dmp_enable_lp_quat?relay
// 1091 
// 1092     if (mask & DMP_FEATURE_6X_LP_QUAT)
        MOV     A,R6
        ANL     A,#0x10
        JZ      ??dmp_enable_feature_17
// 1093         dmp_enable_6x_lp_quat(1);
        ; Setup parameters for call to function dmp_enable_6x_lp_quat
        MOV     R1,#0x1
        SJMP    ??dmp_enable_feature_18
// 1094     else
// 1095         dmp_enable_6x_lp_quat(0);
??dmp_enable_feature_17:
        ; Setup parameters for call to function dmp_enable_6x_lp_quat
        MOV     R1,#0x0
??dmp_enable_feature_18:
        LCALL   ??dmp_enable_6x_lp_quat?relay
// 1096 
// 1097     /* Pedometer is always enabled. */
// 1098     dmp.feature_mask = mask | DMP_FEATURE_PEDOMETER;
        MOV     A,R6
        ORL     A,#0x8
        MOV     R0,A
        MOV     A,R7
        MOV     R1,A
        MOV     DPTR,#dmp + 6
        MOV     A,R0
        MOVX    @DPTR,A
        INC     DPTR
        MOV     A,R1
        MOVX    @DPTR,A
// 1099     mpu_reset_fifo();
        ; Setup parameters for call to function mpu_reset_fifo
        LCALL   ??mpu_reset_fifo?relay
// 1100 
// 1101     dmp.packet_length = 0;
        MOV     DPTR,#dmp + 10
        CLR     A
        MOVX    @DPTR,A
// 1102     if (mask & DMP_FEATURE_SEND_RAW_ACCEL)
        MOV     A,?V0 + 3
        JZ      ??dmp_enable_feature_19
// 1103         dmp.packet_length += 6;
        MOV     A,#0x6
        MOVX    @DPTR,A
// 1104     if (mask & DMP_FEATURE_SEND_ANY_GYRO)
??dmp_enable_feature_19:
        MOV     A,?V0 + 0
        ORL     A,?V0 + 1
        JZ      ??dmp_enable_feature_20
// 1105         dmp.packet_length += 6;
        MOVX    A,@DPTR
        ADD     A,#0x6
        MOVX    @DPTR,A
// 1106     if (mask & (DMP_FEATURE_LP_QUAT | DMP_FEATURE_6X_LP_QUAT))
??dmp_enable_feature_20:
        MOV     A,R6
        ANL     A,#0x14
        JZ      ??dmp_enable_feature_21
// 1107         dmp.packet_length += 16;
        MOVX    A,@DPTR
        ADD     A,#0x10
        MOVX    @DPTR,A
// 1108     if (mask & (DMP_FEATURE_TAP | DMP_FEATURE_ANDROID_ORIENT))
??dmp_enable_feature_21:
        MOV     A,?V0 + 2
        JZ      ??dmp_enable_feature_22
// 1109         dmp.packet_length += 4;
        MOVX    A,@DPTR
        ADD     A,#0x4
        MOVX    @DPTR,A
// 1110 
// 1111     return 0;
??dmp_enable_feature_22:
        MOV     R2,#0x0
        MOV     R3,#0x0
        MOV     A,#0xa
        LCALL   ?DEALLOC_XSTACK8
        CFI CFA_XSP16 add(XSP16, 14)
        MOV     R7,#0x6
        LJMP    ?BANKED_LEAVE_XDATA
        CFI EndBlock cfiBlock18
// 1112 }
// 1113 
// 1114 /**
// 1115  *  @brief      Get list of currently enabled DMP features.
// 1116  *  @param[out] Mask of enabled features.
// 1117  *  @return     0 if successful.
// 1118  */

        RSEG BANKED_CODE:CODE:NOROOT(0)
// 1119 int dmp_get_enabled_features(unsigned short *mask)
dmp_get_enabled_features:
        CFI Block cfiBlock19 Using cfiCommon0
        CFI Function dmp_get_enabled_features
        CODE
// 1120 {
        PUSH    DPL
        CFI DPL0 Frame(CFA_SP, 4)
        CFI CFA_SP SP+-4
        PUSH    DPH
        CFI DPH0 Frame(CFA_SP, 5)
        CFI CFA_SP SP+-5
        ; Saved register size: 2
        ; Auto size: 0
// 1121     mask[0] = dmp.feature_mask;
        MOV     DPTR,#dmp + 6
        MOVX    A,@DPTR
        MOV     R0,A
        INC     DPTR
        MOVX    A,@DPTR
        MOV     R1,A
        MOV     DPL,R2
        MOV     DPH,R3
        MOV     A,R0
        MOVX    @DPTR,A
        INC     DPTR
        MOV     A,R1
        MOVX    @DPTR,A
// 1122     return 0;
        MOV     R2,#0x0
        MOV     R3,#0x0
        POP     DPH
        CFI DPH0 SameValue
        CFI CFA_SP SP+-4
        POP     DPL
        CFI DPL0 SameValue
        CFI CFA_SP SP+-3
        LJMP    ?BRET
        CFI EndBlock cfiBlock19
// 1123 }
// 1124 
// 1125 /**
// 1126  *  @brief      Calibrate the gyro data in the DMP.
// 1127  *  After eight seconds of no motion, the DMP will compute gyro biases and
// 1128  *  subtract them from the quaternion output. If @e dmp_enable_feature is
// 1129  *  called with @e DMP_FEATURE_SEND_CAL_GYRO, the biases will also be
// 1130  *  subtracted from the gyro output.
// 1131  *  @param[in]  enable  1 to enable gyro calibration.
// 1132  *  @return     0 if successful.
// 1133  */

        RSEG BANKED_CODE:CODE:NOROOT(0)
// 1134 int dmp_enable_gyro_cal(unsigned char enable)
dmp_enable_gyro_cal:
        CFI Block cfiBlock20 Using cfiCommon0
        CFI Function dmp_enable_gyro_cal
        CODE
// 1135 {
        FUNCALL dmp_enable_gyro_cal, mpu_write_mem
        LOCFRAME ISTACK, 0, STACK
        LOCFRAME PSTACK, 0, STACK
        LOCFRAME XSTACK, 21, STACK
        LOCFRAME IOVERLAY, 0, STATIC
        LOCFRAME DOVERLAY, 0, STATIC
        ARGFRAME ISTACK, 0, STACK
        ARGFRAME PSTACK, 0, STACK
        ARGFRAME XSTACK, 21, STACK
        ARGFRAME IOVERLAY, 0, STATIC
        ARGFRAME DOVERLAY, 0, STATIC
        FUNCALL dmp_enable_gyro_cal, mpu_write_mem
        LOCFRAME ISTACK, 0, STACK
        LOCFRAME PSTACK, 0, STACK
        LOCFRAME XSTACK, 21, STACK
        LOCFRAME IOVERLAY, 0, STATIC
        LOCFRAME DOVERLAY, 0, STATIC
        ARGFRAME ISTACK, 0, STACK
        ARGFRAME PSTACK, 0, STACK
        ARGFRAME XSTACK, 21, STACK
        ARGFRAME IOVERLAY, 0, STATIC
        ARGFRAME DOVERLAY, 0, STATIC
        MOV     A,#-0xa
        LCALL   ?BANKED_ENTER_XDATA
        CFI DPH0 load(1, XDATA, add(CFA_XSP16, literal(-1)))
        CFI DPL0 load(1, XDATA, add(CFA_XSP16, literal(-2)))
        CFI ?BRET_EXT load(1, XDATA, add(CFA_XSP16, literal(-3)))
        CFI ?RET_HIGH load(1, XDATA, add(CFA_XSP16, literal(-4)))
        CFI ?RET_LOW load(1, XDATA, add(CFA_XSP16, literal(-5)))
        CFI R7 load(1, XDATA, add(CFA_XSP16, literal(-6)))
        CFI V1 load(1, XDATA, add(CFA_XSP16, literal(-7)))
        CFI V0 load(1, XDATA, add(CFA_XSP16, literal(-8)))
        CFI VB load(1, XDATA, add(CFA_XSP16, literal(-9)))
        CFI R6 load(1, XDATA, add(CFA_XSP16, literal(-10)))
        CFI CFA_SP SP+0
        CFI CFA_XSP16 add(XSP16, 10)
        ; Saved register size: 10
        ; Auto size: 9
        MOV     A,#-0x9
        LCALL   ?ALLOC_XSTACK8
        CFI CFA_XSP16 add(XSP16, 19)
        MOV     A,R1
// 1136     if (enable) {
        JZ      ??dmp_enable_gyro_cal_0
// 1137         unsigned char regs[9] = {0xb8, 0xaa, 0xb3, 0x8d, 0xb4, 0x98, 0x0d, 0x35, 0x5d};
        MOV     DPTR,#`?<Constant {184, 170, 179, 141, 180, 152, 13, `
        SJMP    ??dmp_enable_gyro_cal_1
// 1138         return mpu_write_mem(CFG_MOTION_BIAS, 9, regs);
// 1139     } else {
// 1140         unsigned char regs[9] = {0xb8, 0xaa, 0xaa, 0xaa, 0xb0, 0x88, 0xc3, 0xc5, 0xc7};
??dmp_enable_gyro_cal_0:
        MOV     DPTR,#`?<Constant {184, 170, 170, 170, 176, 136, 195,`
??dmp_enable_gyro_cal_1:
        PUSH    DPL
        CFI CFA_SP SP+-1
        PUSH    DPH
        CFI CFA_SP SP+-2
        MOV     DPL,?XSP + 0
        MOV     DPH,?XSP + 1
        MOV     R4,DPL
        MOV     R5,DPH
        POP     DPH
        CFI CFA_SP SP+-1
        POP     DPL
        CFI CFA_SP SP+0
        MOV     A,#0x9
        LCALL   ?MOVE_LONG8_XDATA_XDATA
// 1141         return mpu_write_mem(CFG_MOTION_BIAS, 9, regs);
        ; Setup parameters for call to function mpu_write_mem
        MOV     DPL,?XSP + 0
        MOV     DPH,?XSP + 1
        MOV     ?V0 + 0,DPL
        MOV     ?V0 + 1,DPH
        MOV     R0,#?V0 + 0
        LCALL   ?PUSH_XSTACK_I_TWO
        CFI CFA_XSP16 add(XSP16, 21)
        MOV     R4,#0x9
        MOV     R5,#0x0
        MOV     R2,#-0x48
        MOV     R3,#0x4
        LCALL   ??mpu_write_mem?relay
        MOV     A,#0x2
        LCALL   ?DEALLOC_XSTACK8
        CFI CFA_XSP16 add(XSP16, 19)
        MOV     A,#0x9
        LCALL   ?DEALLOC_XSTACK8
        CFI CFA_XSP16 add(XSP16, 10)
        MOV     R7,#0x2
        LJMP    ?BANKED_LEAVE_XDATA
        CFI EndBlock cfiBlock20
// 1142     }
// 1143 }
// 1144 
// 1145 /**
// 1146  *  @brief      Generate 3-axis quaternions from the DMP.
// 1147  *  In this driver, the 3-axis and 6-axis DMP quaternion features are mutually
// 1148  *  exclusive.
// 1149  *  @param[in]  enable  1 to enable 3-axis quaternion.
// 1150  *  @return     0 if successful.
// 1151  */

        RSEG BANKED_CODE:CODE:NOROOT(0)
// 1152 int dmp_enable_lp_quat(unsigned char enable)
dmp_enable_lp_quat:
        CFI Block cfiBlock21 Using cfiCommon0
        CFI Function dmp_enable_lp_quat
        CODE
// 1153 {
        FUNCALL dmp_enable_lp_quat, memset
        LOCFRAME ISTACK, 0, STACK
        LOCFRAME PSTACK, 0, STACK
        LOCFRAME XSTACK, 16, STACK
        LOCFRAME IOVERLAY, 0, STATIC
        LOCFRAME DOVERLAY, 0, STATIC
        ARGFRAME ISTACK, 0, STACK
        ARGFRAME PSTACK, 0, STACK
        ARGFRAME XSTACK, 16, STACK
        ARGFRAME IOVERLAY, 0, STATIC
        ARGFRAME DOVERLAY, 0, STATIC
        FUNCALL dmp_enable_lp_quat, mpu_write_mem
        LOCFRAME ISTACK, 0, STACK
        LOCFRAME PSTACK, 0, STACK
        LOCFRAME XSTACK, 16, STACK
        LOCFRAME IOVERLAY, 0, STATIC
        LOCFRAME DOVERLAY, 0, STATIC
        ARGFRAME ISTACK, 0, STACK
        ARGFRAME PSTACK, 0, STACK
        ARGFRAME XSTACK, 16, STACK
        ARGFRAME IOVERLAY, 0, STATIC
        ARGFRAME DOVERLAY, 0, STATIC
        FUNCALL dmp_enable_lp_quat, mpu_reset_fifo
        LOCFRAME ISTACK, 0, STACK
        LOCFRAME PSTACK, 0, STACK
        LOCFRAME XSTACK, 14, STACK
        LOCFRAME IOVERLAY, 0, STATIC
        LOCFRAME DOVERLAY, 0, STATIC
        ARGFRAME ISTACK, 0, STACK
        ARGFRAME PSTACK, 0, STACK
        ARGFRAME XSTACK, 14, STACK
        ARGFRAME IOVERLAY, 0, STATIC
        ARGFRAME DOVERLAY, 0, STATIC
        MOV     A,#-0xa
        LCALL   ?BANKED_ENTER_XDATA
        CFI DPH0 load(1, XDATA, add(CFA_XSP16, literal(-1)))
        CFI DPL0 load(1, XDATA, add(CFA_XSP16, literal(-2)))
        CFI ?BRET_EXT load(1, XDATA, add(CFA_XSP16, literal(-3)))
        CFI ?RET_HIGH load(1, XDATA, add(CFA_XSP16, literal(-4)))
        CFI ?RET_LOW load(1, XDATA, add(CFA_XSP16, literal(-5)))
        CFI R7 load(1, XDATA, add(CFA_XSP16, literal(-6)))
        CFI V1 load(1, XDATA, add(CFA_XSP16, literal(-7)))
        CFI V0 load(1, XDATA, add(CFA_XSP16, literal(-8)))
        CFI VB load(1, XDATA, add(CFA_XSP16, literal(-9)))
        CFI R6 load(1, XDATA, add(CFA_XSP16, literal(-10)))
        CFI CFA_SP SP+0
        CFI CFA_XSP16 add(XSP16, 10)
        ; Saved register size: 10
        ; Auto size: 4
        MOV     A,#-0x4
        LCALL   ?ALLOC_XSTACK8
        CFI CFA_XSP16 add(XSP16, 14)
        MOV     A,R1
// 1154     unsigned char regs[4];
// 1155     if (enable) {
        JZ      ??dmp_enable_lp_quat_0
// 1156         regs[0] = DINBC0;
        MOV     DPL,?XSP + 0
        MOV     DPH,?XSP + 1
        MOV     A,#-0x40
        MOVX    @DPTR,A
// 1157         regs[1] = DINBC2;
        MOV     A,#0x1
        LCALL   ?XSTACK_DISP0_8
        MOV     A,#-0x3e
        MOVX    @DPTR,A
// 1158         regs[2] = DINBC4;
        MOV     A,#0x2
        LCALL   ?XSTACK_DISP0_8
        MOV     A,#-0x3c
        MOVX    @DPTR,A
// 1159         regs[3] = DINBC6;
        MOV     A,#0x3
        LCALL   ?XSTACK_DISP0_8
        MOV     A,#-0x3a
        MOVX    @DPTR,A
        SJMP    ??dmp_enable_lp_quat_1
// 1160     }
// 1161     else
// 1162         memset(regs, 0x8B, 4);
??dmp_enable_lp_quat_0:
        ; Setup parameters for call to function memset
        MOV     ?V0 + 0,#0x4
        MOV     ?V0 + 1,#0x0
        MOV     R0,#?V0 + 0
        LCALL   ?PUSH_XSTACK_I_TWO
        CFI CFA_XSP16 add(XSP16, 16)
        MOV     R4,#-0x75
        MOV     R5,#0x0
        MOV     A,#0x2
        LCALL   ?XSTACK_DISP0_8
        MOV     R2,DPL
        MOV     R3,DPH
        LCALL   ??memset?relay
        MOV     A,#0x2
        LCALL   ?DEALLOC_XSTACK8
        CFI CFA_XSP16 add(XSP16, 14)
// 1163 
// 1164     mpu_write_mem(CFG_LP_QUAT, 4, regs);
??dmp_enable_lp_quat_1:
        ; Setup parameters for call to function mpu_write_mem
        MOV     DPL,?XSP + 0
        MOV     DPH,?XSP + 1
        MOV     ?V0 + 0,DPL
        MOV     ?V0 + 1,DPH
        MOV     R0,#?V0 + 0
        LCALL   ?PUSH_XSTACK_I_TWO
        CFI CFA_XSP16 add(XSP16, 16)
        MOV     R4,#0x4
        MOV     R5,#0x0
        MOV     R2,#-0x68
        MOV     R3,#0xa
        LCALL   ??mpu_write_mem?relay
        MOV     A,#0x2
        LCALL   ?DEALLOC_XSTACK8
        CFI CFA_XSP16 add(XSP16, 14)
// 1165 
// 1166     return mpu_reset_fifo();
        ; Setup parameters for call to function mpu_reset_fifo
        LCALL   ??mpu_reset_fifo?relay
        MOV     A,#0x4
        LCALL   ?DEALLOC_XSTACK8
        CFI CFA_XSP16 add(XSP16, 10)
        MOV     R7,#0x2
        LJMP    ?BANKED_LEAVE_XDATA
        CFI EndBlock cfiBlock21
// 1167 }
// 1168 
// 1169 /**
// 1170  *  @brief       Generate 6-axis quaternions from the DMP.
// 1171  *  In this driver, the 3-axis and 6-axis DMP quaternion features are mutually
// 1172  *  exclusive.
// 1173  *  @param[in]   enable  1 to enable 6-axis quaternion.
// 1174  *  @return      0 if successful.
// 1175  */

        RSEG BANKED_CODE:CODE:NOROOT(0)
// 1176 int dmp_enable_6x_lp_quat(unsigned char enable)
dmp_enable_6x_lp_quat:
        CFI Block cfiBlock22 Using cfiCommon0
        CFI Function dmp_enable_6x_lp_quat
        CODE
// 1177 {
        FUNCALL dmp_enable_6x_lp_quat, memset
        LOCFRAME ISTACK, 0, STACK
        LOCFRAME PSTACK, 0, STACK
        LOCFRAME XSTACK, 16, STACK
        LOCFRAME IOVERLAY, 0, STATIC
        LOCFRAME DOVERLAY, 0, STATIC
        ARGFRAME ISTACK, 0, STACK
        ARGFRAME PSTACK, 0, STACK
        ARGFRAME XSTACK, 16, STACK
        ARGFRAME IOVERLAY, 0, STATIC
        ARGFRAME DOVERLAY, 0, STATIC
        FUNCALL dmp_enable_6x_lp_quat, mpu_write_mem
        LOCFRAME ISTACK, 0, STACK
        LOCFRAME PSTACK, 0, STACK
        LOCFRAME XSTACK, 16, STACK
        LOCFRAME IOVERLAY, 0, STATIC
        LOCFRAME DOVERLAY, 0, STATIC
        ARGFRAME ISTACK, 0, STACK
        ARGFRAME PSTACK, 0, STACK
        ARGFRAME XSTACK, 16, STACK
        ARGFRAME IOVERLAY, 0, STATIC
        ARGFRAME DOVERLAY, 0, STATIC
        FUNCALL dmp_enable_6x_lp_quat, mpu_reset_fifo
        LOCFRAME ISTACK, 0, STACK
        LOCFRAME PSTACK, 0, STACK
        LOCFRAME XSTACK, 14, STACK
        LOCFRAME IOVERLAY, 0, STATIC
        LOCFRAME DOVERLAY, 0, STATIC
        ARGFRAME ISTACK, 0, STACK
        ARGFRAME PSTACK, 0, STACK
        ARGFRAME XSTACK, 14, STACK
        ARGFRAME IOVERLAY, 0, STATIC
        ARGFRAME DOVERLAY, 0, STATIC
        MOV     A,#-0xa
        LCALL   ?BANKED_ENTER_XDATA
        CFI DPH0 load(1, XDATA, add(CFA_XSP16, literal(-1)))
        CFI DPL0 load(1, XDATA, add(CFA_XSP16, literal(-2)))
        CFI ?BRET_EXT load(1, XDATA, add(CFA_XSP16, literal(-3)))
        CFI ?RET_HIGH load(1, XDATA, add(CFA_XSP16, literal(-4)))
        CFI ?RET_LOW load(1, XDATA, add(CFA_XSP16, literal(-5)))
        CFI R7 load(1, XDATA, add(CFA_XSP16, literal(-6)))
        CFI V1 load(1, XDATA, add(CFA_XSP16, literal(-7)))
        CFI V0 load(1, XDATA, add(CFA_XSP16, literal(-8)))
        CFI VB load(1, XDATA, add(CFA_XSP16, literal(-9)))
        CFI R6 load(1, XDATA, add(CFA_XSP16, literal(-10)))
        CFI CFA_SP SP+0
        CFI CFA_XSP16 add(XSP16, 10)
        ; Saved register size: 10
        ; Auto size: 4
        MOV     A,#-0x4
        LCALL   ?ALLOC_XSTACK8
        CFI CFA_XSP16 add(XSP16, 14)
        MOV     A,R1
// 1178     unsigned char regs[4];
// 1179     if (enable) {
        JZ      ??dmp_enable_6x_lp_quat_0
// 1180         regs[0] = DINA20;
        MOV     DPL,?XSP + 0
        MOV     DPH,?XSP + 1
        MOV     A,#0x20
        MOVX    @DPTR,A
// 1181         regs[1] = DINA28;
        MOV     A,#0x1
        LCALL   ?XSTACK_DISP0_8
        MOV     A,#0x28
        MOVX    @DPTR,A
// 1182         regs[2] = DINA30;
        MOV     A,#0x2
        LCALL   ?XSTACK_DISP0_8
        MOV     A,#0x30
        MOVX    @DPTR,A
// 1183         regs[3] = DINA38;
        MOV     A,#0x3
        LCALL   ?XSTACK_DISP0_8
        MOV     A,#0x38
        MOVX    @DPTR,A
        SJMP    ??dmp_enable_6x_lp_quat_1
// 1184     } else
// 1185         memset(regs, 0xA3, 4);
??dmp_enable_6x_lp_quat_0:
        ; Setup parameters for call to function memset
        MOV     ?V0 + 0,#0x4
        MOV     ?V0 + 1,#0x0
        MOV     R0,#?V0 + 0
        LCALL   ?PUSH_XSTACK_I_TWO
        CFI CFA_XSP16 add(XSP16, 16)
        MOV     R4,#-0x5d
        MOV     R5,#0x0
        MOV     A,#0x2
        LCALL   ?XSTACK_DISP0_8
        MOV     R2,DPL
        MOV     R3,DPH
        LCALL   ??memset?relay
        MOV     A,#0x2
        LCALL   ?DEALLOC_XSTACK8
        CFI CFA_XSP16 add(XSP16, 14)
// 1186 
// 1187     mpu_write_mem(CFG_8, 4, regs);
??dmp_enable_6x_lp_quat_1:
        ; Setup parameters for call to function mpu_write_mem
        MOV     DPL,?XSP + 0
        MOV     DPH,?XSP + 1
        MOV     ?V0 + 0,DPL
        MOV     ?V0 + 1,DPH
        MOV     R0,#?V0 + 0
        LCALL   ?PUSH_XSTACK_I_TWO
        CFI CFA_XSP16 add(XSP16, 16)
        MOV     R4,#0x4
        MOV     R5,#0x0
        MOV     R2,#-0x62
        MOV     R3,#0xa
        LCALL   ??mpu_write_mem?relay
        MOV     A,#0x2
        LCALL   ?DEALLOC_XSTACK8
        CFI CFA_XSP16 add(XSP16, 14)
// 1188 
// 1189     return mpu_reset_fifo();
        ; Setup parameters for call to function mpu_reset_fifo
        LCALL   ??mpu_reset_fifo?relay
        MOV     A,#0x4
        LCALL   ?DEALLOC_XSTACK8
        CFI CFA_XSP16 add(XSP16, 10)
        MOV     R7,#0x2
        LJMP    ?BANKED_LEAVE_XDATA
        CFI EndBlock cfiBlock22
// 1190 }
// 1191 
// 1192 /**
// 1193  *  @brief      Decode the four-byte gesture data and execute any callbacks.
// 1194  *  @param[in]  gesture Gesture data from DMP packet.
// 1195  *  @return     0 if successful.
// 1196  */

        RSEG BANKED_CODE:CODE:NOROOT(0)
// 1197 static int decode_gesture(unsigned char *gesture)
decode_gesture:
        CFI Block cfiBlock23 Using cfiCommon0
        CFI Function decode_gesture
        CODE
// 1198 {
        MOV     A,#-0x9
        LCALL   ?BANKED_ENTER_XDATA
        CFI DPH0 load(1, XDATA, add(CFA_XSP16, literal(-1)))
        CFI DPL0 load(1, XDATA, add(CFA_XSP16, literal(-2)))
        CFI ?BRET_EXT load(1, XDATA, add(CFA_XSP16, literal(-3)))
        CFI ?RET_HIGH load(1, XDATA, add(CFA_XSP16, literal(-4)))
        CFI ?RET_LOW load(1, XDATA, add(CFA_XSP16, literal(-5)))
        CFI R7 load(1, XDATA, add(CFA_XSP16, literal(-6)))
        CFI V0 load(1, XDATA, add(CFA_XSP16, literal(-7)))
        CFI VB load(1, XDATA, add(CFA_XSP16, literal(-8)))
        CFI R6 load(1, XDATA, add(CFA_XSP16, literal(-9)))
        CFI CFA_SP SP+0
        CFI CFA_XSP16 add(XSP16, 9)
        ; Saved register size: 9
        ; Auto size: 0
// 1199     unsigned char tap, android_orient;
// 1200 
// 1201     android_orient = gesture[3] & 0xC0;
        MOV     A,R2
        ADD     A,#0x3
        MOV     DPL,A
        MOV     A,R3
        ADDC    A,#0x0
        MOV     DPH,A
        MOVX    A,@DPTR
        ANL     A,#0xc0
        MOV     ?V0 + 0,A
// 1202     tap = 0x3F & gesture[3];
        MOVX    A,@DPTR
        ANL     A,#0x3f
        MOV     R4,A
// 1203 
// 1204     if (gesture[1] & INT_SRC_TAP) {
        MOV     DPL,R2
        MOV     DPH,R3
        INC     DPTR
        MOV     R6,DPL
        MOV     R7,DPH
        MOVX    A,@DPTR
        MOV     C,0xE0 /* A   */.0
        JNC     ??decode_gesture_0
// 1205         unsigned char direction, count;
// 1206         direction = tap >> 3;
// 1207         count = (tap % 8) + 1;
// 1208         if (dmp.tap_cb)
        MOV     DPTR,#dmp
        MOVX    A,@DPTR
        MOV     R0,A
        INC     DPTR
        MOVX    A,@DPTR
        MOV     R1,A
        MOV     A,R0
        ORL     A,R1
        JZ      ??decode_gesture_0
// 1209             dmp.tap_cb(direction, count);
        ; Setup parameters for indirect call
        MOV     A,#0x7
        ANL     A,R4
        ADD     A,#0x1
        MOV     R2,A
        MOV     A,R4
        RRC     A
        RRC     A
        RRC     A
        ANL     A,#0x1f
        MOV     R1,A
        MOV     DPTR,#dmp
        MOVX    A,@DPTR
        MOV     R0,A
        INC     DPTR
        MOVX    A,@DPTR
        MOV     DPH,A
        MOV     DPL,R0
        LCALL   ?CALL_IND
// 1210     }
// 1211 
// 1212     if (gesture[1] & INT_SRC_ANDROID_ORIENT) {
??decode_gesture_0:
        MOV     DPL,R6
        MOV     DPH,R7
        MOVX    A,@DPTR
        MOV     C,0xE0 /* A   */.3
        JNC     ??decode_gesture_1
// 1213         if (dmp.android_orient_cb)
        MOV     DPTR,#dmp + 2
        MOVX    A,@DPTR
        MOV     R0,A
        INC     DPTR
        MOVX    A,@DPTR
        MOV     R1,A
        MOV     DPL,R0
        MOV     DPH,R1
        MOV     A,DPL
        ORL     A,DPH
        JZ      ??decode_gesture_1
// 1214             dmp.android_orient_cb(android_orient >> 6);
        ; Setup parameters for indirect call
        MOV     A,?V0 + 0
        SWAP    A
        RRC     A
        RRC     A
        ANL     A,#0x3
        MOV     R1,A
        LCALL   ?CALL_IND
// 1215     }
// 1216 
// 1217     return 0;
??decode_gesture_1:
        MOV     R2,#0x0
        MOV     R3,#0x0
        MOV     R7,#0x1
        LJMP    ?BANKED_LEAVE_XDATA
        CFI EndBlock cfiBlock23
// 1218 }
// 1219 
// 1220 /**
// 1221  *  @brief      Specify when a DMP interrupt should occur.
// 1222  *  A DMP interrupt can be configured to trigger on either of the two
// 1223  *  conditions below:
// 1224  *  \n a. One FIFO period has elapsed (set by @e mpu_set_sample_rate).
// 1225  *  \n b. A tap event has been detected.
// 1226  *  @param[in]  mode    DMP_INT_GESTURE or DMP_INT_CONTINUOUS.
// 1227  *  @return     0 if successful.
// 1228  */

        RSEG BANKED_CODE:CODE:NOROOT(0)
// 1229 int dmp_set_interrupt_mode(unsigned char mode)
dmp_set_interrupt_mode:
        CFI Block cfiBlock24 Using cfiCommon0
        CFI Function dmp_set_interrupt_mode
        CODE
// 1230 {
        FUNCALL dmp_set_interrupt_mode, mpu_write_mem
        LOCFRAME ISTACK, 0, STACK
        LOCFRAME PSTACK, 0, STACK
        LOCFRAME XSTACK, 34, STACK
        LOCFRAME IOVERLAY, 0, STATIC
        LOCFRAME DOVERLAY, 0, STATIC
        ARGFRAME ISTACK, 0, STACK
        ARGFRAME PSTACK, 0, STACK
        ARGFRAME XSTACK, 34, STACK
        ARGFRAME IOVERLAY, 0, STATIC
        ARGFRAME DOVERLAY, 0, STATIC
        FUNCALL dmp_set_interrupt_mode, mpu_write_mem
        LOCFRAME ISTACK, 0, STACK
        LOCFRAME PSTACK, 0, STACK
        LOCFRAME XSTACK, 34, STACK
        LOCFRAME IOVERLAY, 0, STATIC
        LOCFRAME DOVERLAY, 0, STATIC
        ARGFRAME ISTACK, 0, STACK
        ARGFRAME PSTACK, 0, STACK
        ARGFRAME XSTACK, 34, STACK
        ARGFRAME IOVERLAY, 0, STATIC
        ARGFRAME DOVERLAY, 0, STATIC
        MOV     A,#-0xa
        LCALL   ?BANKED_ENTER_XDATA
        CFI DPH0 load(1, XDATA, add(CFA_XSP16, literal(-1)))
        CFI DPL0 load(1, XDATA, add(CFA_XSP16, literal(-2)))
        CFI ?BRET_EXT load(1, XDATA, add(CFA_XSP16, literal(-3)))
        CFI ?RET_HIGH load(1, XDATA, add(CFA_XSP16, literal(-4)))
        CFI ?RET_LOW load(1, XDATA, add(CFA_XSP16, literal(-5)))
        CFI R7 load(1, XDATA, add(CFA_XSP16, literal(-6)))
        CFI V1 load(1, XDATA, add(CFA_XSP16, literal(-7)))
        CFI V0 load(1, XDATA, add(CFA_XSP16, literal(-8)))
        CFI VB load(1, XDATA, add(CFA_XSP16, literal(-9)))
        CFI R6 load(1, XDATA, add(CFA_XSP16, literal(-10)))
        CFI CFA_SP SP+0
        CFI CFA_XSP16 add(XSP16, 10)
        ; Saved register size: 10
        ; Auto size: 22
        MOV     A,#-0x16
        LCALL   ?ALLOC_XSTACK8
        CFI CFA_XSP16 add(XSP16, 32)
        MOV     A,R1
        MOV     R6,A
// 1231     const unsigned char regs_continuous[11] =
// 1232         {0xd8, 0xb1, 0xb9, 0xf3, 0x8b, 0xa3, 0x91, 0xb6, 0x09, 0xb4, 0xd9};
        MOV     DPTR,#`?<Constant {216, 177, 185, 243, 139, 163, 145,`
        PUSH    DPL
        CFI CFA_SP SP+-1
        PUSH    DPH
        CFI CFA_SP SP+-2
        MOV     A,#0xb
        LCALL   ?XSTACK_DISP0_8
        MOV     R4,DPL
        MOV     R5,DPH
        POP     DPH
        CFI CFA_SP SP+-1
        POP     DPL
        CFI CFA_SP SP+0
        MOV     A,#0xb
        LCALL   ?MOVE_LONG8_XDATA_XDATA
// 1233     const unsigned char regs_gesture[11] =
// 1234         {0xda, 0xb1, 0xb9, 0xf3, 0x8b, 0xa3, 0x91, 0xb6, 0xda, 0xb4, 0xda};
        MOV     DPTR,#`?<Constant {218, 177, 185, 243, 139, 163, 145,`
        PUSH    DPL
        CFI CFA_SP SP+-1
        PUSH    DPH
        CFI CFA_SP SP+-2
        MOV     DPL,?XSP + 0
        MOV     DPH,?XSP + 1
        MOV     R4,DPL
        MOV     R5,DPH
        POP     DPH
        CFI CFA_SP SP+-1
        POP     DPL
        CFI CFA_SP SP+0
        MOV     A,#0xb
        LCALL   ?MOVE_LONG8_XDATA_XDATA
// 1235 
// 1236     switch (mode) {
        MOV     A,R6
        DEC     A
        JZ      ??dmp_set_interrupt_mode_0
        DEC     A
        JNZ     ??dmp_set_interrupt_mode_1
// 1237     case DMP_INT_CONTINUOUS:
// 1238         return mpu_write_mem(CFG_FIFO_ON_EVENT, 11,
// 1239             (unsigned char*)regs_continuous);
        ; Setup parameters for call to function mpu_write_mem
        MOV     A,#0xb
        LCALL   ?XSTACK_DISP0_8
??dmp_set_interrupt_mode_2:
        MOV     ?V0 + 0,DPL
        MOV     ?V0 + 1,DPH
        MOV     R0,#?V0 + 0
        LCALL   ?PUSH_XSTACK_I_TWO
        CFI CFA_XSP16 add(XSP16, 34)
        MOV     R4,#0xb
        MOV     R5,#0x0
        MOV     R2,#-0x7e
        MOV     R3,#0xa
        LCALL   ??mpu_write_mem?relay
        MOV     A,#0x2
        LCALL   ?DEALLOC_XSTACK8
        CFI CFA_XSP16 add(XSP16, 32)
        SJMP    ??dmp_set_interrupt_mode_3
// 1240     case DMP_INT_GESTURE:
// 1241         return mpu_write_mem(CFG_FIFO_ON_EVENT, 11,
// 1242             (unsigned char*)regs_gesture);
??dmp_set_interrupt_mode_0:
        ; Setup parameters for call to function mpu_write_mem
        MOV     DPL,?XSP + 0
        MOV     DPH,?XSP + 1
        SJMP    ??dmp_set_interrupt_mode_2
// 1243     default:
// 1244         return -1;
??dmp_set_interrupt_mode_1:
        MOV     R2,#-0x1
        MOV     R3,#-0x1
??dmp_set_interrupt_mode_3:
        MOV     A,#0x16
        LCALL   ?DEALLOC_XSTACK8
        CFI CFA_XSP16 add(XSP16, 10)
        MOV     R7,#0x2
        LJMP    ?BANKED_LEAVE_XDATA
        CFI EndBlock cfiBlock24
// 1245     }
// 1246 }
// 1247 
// 1248 /**
// 1249  *  @brief      Get one packet from the FIFO.
// 1250  *  If @e sensors does not contain a particular sensor, disregard the data
// 1251  *  returned to that pointer.
// 1252  *  \n @e sensors can contain a combination of the following flags:
// 1253  *  \n INV_X_GYRO, INV_Y_GYRO, INV_Z_GYRO
// 1254  *  \n INV_XYZ_GYRO
// 1255  *  \n INV_XYZ_ACCEL
// 1256  *  \n INV_WXYZ_QUAT
// 1257  *  \n If the FIFO has no new data, @e sensors will be zero.
// 1258  *  \n If the FIFO is disabled, @e sensors will be zero and this function will
// 1259  *  return a non-zero error code.
// 1260  *  @param[out] gyro        Gyro data in hardware units.
// 1261  *  @param[out] accel       Accel data in hardware units.
// 1262  *  @param[out] quat        3-axis quaternion data in hardware units.
// 1263  *  @param[out] timestamp   Timestamp in milliseconds.
// 1264  *  @param[out] sensors     Mask of sensors read from FIFO.
// 1265  *  @param[out] more        Number of remaining packets.
// 1266  *  @return     0 if successful.
// 1267  */

        RSEG BANKED_CODE:CODE:NOROOT(0)
// 1268 int dmp_read_fifo(short *gyro, short *accel, long *quat,
dmp_read_fifo:
        CFI Block cfiBlock25 Using cfiCommon0
        CFI Function dmp_read_fifo
        CODE
// 1269     unsigned long *timestamp, short *sensors, unsigned char *more)
// 1270 {
        FUNCALL dmp_read_fifo, mpu_read_fifo_stream
        LOCFRAME ISTACK, 0, STACK
        LOCFRAME PSTACK, 0, STACK
        LOCFRAME XSTACK, 83, STACK
        LOCFRAME IOVERLAY, 0, STATIC
        LOCFRAME DOVERLAY, 0, STATIC
        ARGFRAME ISTACK, 0, STACK
        ARGFRAME PSTACK, 0, STACK
        ARGFRAME XSTACK, 83, STACK
        ARGFRAME IOVERLAY, 0, STATIC
        ARGFRAME DOVERLAY, 0, STATIC
        FUNCALL dmp_read_fifo, mpu_reset_fifo
        LOCFRAME ISTACK, 0, STACK
        LOCFRAME PSTACK, 0, STACK
        LOCFRAME XSTACK, 81, STACK
        LOCFRAME IOVERLAY, 0, STATIC
        LOCFRAME DOVERLAY, 0, STATIC
        ARGFRAME ISTACK, 0, STACK
        ARGFRAME PSTACK, 0, STACK
        ARGFRAME XSTACK, 81, STACK
        ARGFRAME IOVERLAY, 0, STATIC
        ARGFRAME DOVERLAY, 0, STATIC
        FUNCALL dmp_read_fifo, decode_gesture
        LOCFRAME ISTACK, 0, STACK
        LOCFRAME PSTACK, 0, STACK
        LOCFRAME XSTACK, 81, STACK
        LOCFRAME IOVERLAY, 0, STATIC
        LOCFRAME DOVERLAY, 0, STATIC
        ARGFRAME ISTACK, 0, STACK
        ARGFRAME PSTACK, 0, STACK
        ARGFRAME XSTACK, 81, STACK
        ARGFRAME IOVERLAY, 0, STATIC
        ARGFRAME DOVERLAY, 0, STATIC
        FUNCALL dmp_read_fifo, mget_ms
        LOCFRAME ISTACK, 0, STACK
        LOCFRAME PSTACK, 0, STACK
        LOCFRAME XSTACK, 81, STACK
        LOCFRAME IOVERLAY, 0, STATIC
        LOCFRAME DOVERLAY, 0, STATIC
        ARGFRAME ISTACK, 0, STACK
        ARGFRAME PSTACK, 0, STACK
        ARGFRAME XSTACK, 81, STACK
        ARGFRAME IOVERLAY, 0, STATIC
        ARGFRAME DOVERLAY, 0, STATIC
        MOV     A,#-0x18
        LCALL   ?BANKED_ENTER_XDATA
        CFI DPH0 load(1, XDATA, add(CFA_XSP16, literal(-1)))
        CFI DPL0 load(1, XDATA, add(CFA_XSP16, literal(-2)))
        CFI ?BRET_EXT load(1, XDATA, add(CFA_XSP16, literal(-3)))
        CFI ?RET_HIGH load(1, XDATA, add(CFA_XSP16, literal(-4)))
        CFI ?RET_LOW load(1, XDATA, add(CFA_XSP16, literal(-5)))
        CFI R7 load(1, XDATA, add(CFA_XSP16, literal(-6)))
        CFI V15 load(1, XDATA, add(CFA_XSP16, literal(-7)))
        CFI V14 load(1, XDATA, add(CFA_XSP16, literal(-8)))
        CFI V13 load(1, XDATA, add(CFA_XSP16, literal(-9)))
        CFI V12 load(1, XDATA, add(CFA_XSP16, literal(-10)))
        CFI V11 load(1, XDATA, add(CFA_XSP16, literal(-11)))
        CFI V10 load(1, XDATA, add(CFA_XSP16, literal(-12)))
        CFI V9 load(1, XDATA, add(CFA_XSP16, literal(-13)))
        CFI V8 load(1, XDATA, add(CFA_XSP16, literal(-14)))
        CFI V7 load(1, XDATA, add(CFA_XSP16, literal(-15)))
        CFI V6 load(1, XDATA, add(CFA_XSP16, literal(-16)))
        CFI V5 load(1, XDATA, add(CFA_XSP16, literal(-17)))
        CFI V4 load(1, XDATA, add(CFA_XSP16, literal(-18)))
        CFI V3 load(1, XDATA, add(CFA_XSP16, literal(-19)))
        CFI V2 load(1, XDATA, add(CFA_XSP16, literal(-20)))
        CFI V1 load(1, XDATA, add(CFA_XSP16, literal(-21)))
        CFI V0 load(1, XDATA, add(CFA_XSP16, literal(-22)))
        CFI VB load(1, XDATA, add(CFA_XSP16, literal(-23)))
        CFI R6 load(1, XDATA, add(CFA_XSP16, literal(-24)))
        CFI CFA_SP SP+0
        CFI CFA_XSP16 add(XSP16, 24)
        ; Saved register size: 24
        ; Auto size: 57
        MOV     A,#-0x39
        LCALL   ?ALLOC_XSTACK8
        CFI CFA_XSP16 add(XSP16, 81)
        MOV     A,#0x3
        LCALL   ?XSTACK_DISP0_8
        MOV     A,R2
        MOVX    @DPTR,A
        INC     DPTR
        MOV     A,R3
        MOVX    @DPTR,A
        MOV     A,#0x1
        LCALL   ?XSTACK_DISP0_8
        MOV     A,R4
        MOVX    @DPTR,A
        INC     DPTR
        MOV     A,R5
        MOVX    @DPTR,A
        MOV     A,#0x51
        LCALL   ?XSTACK_DISP0_8
        MOVX    A,@DPTR
        MOV     ?V0 + 0,A
        INC     DPTR
        MOVX    A,@DPTR
        MOV     ?V0 + 1,A
        MOV     A,#0x57
        LCALL   ?XSTACK_DISP0_8
        MOVX    A,@DPTR
        MOV     ?V0 + 2,A
        INC     DPTR
        MOVX    A,@DPTR
        MOV     ?V0 + 3,A
// 1271     unsigned char fifo_data[MAX_PACKET_LENGTH];
// 1272     unsigned char ii = 0;
        MOV     DPL,?XSP + 0
        MOV     DPH,?XSP + 1
        CLR     A
        MOVX    @DPTR,A
// 1273 
// 1274     /* TODO: sensors[0] only changes when dmp_enable_feature is called. We can
// 1275      * cache this value and save some cycles.
// 1276      */
// 1277     sensors[0] = 0;
        MOV     A,#0x55
        LCALL   ?XSTACK_DISP0_8
        MOVX    A,@DPTR
        MOV     R0,A
        INC     DPTR
        MOVX    A,@DPTR
        MOV     DPH,A
        MOV     DPL,R0
        CLR     A
        MOVX    @DPTR,A
        INC     DPTR
        MOVX    @DPTR,A
// 1278 
// 1279     /* Get a packet. */
// 1280     if (mpu_read_fifo_stream(dmp.packet_length, fifo_data, more))
        ; Setup parameters for call to function mpu_read_fifo_stream
        MOV     R0,#?V0 + 2
        LCALL   ?PUSH_XSTACK_I_TWO
        CFI CFA_XSP16 add(XSP16, 83)
        MOV     A,#0xb
        LCALL   ?XSTACK_DISP0_8
        MOV     R4,DPL
        MOV     R5,DPH
        MOV     DPTR,#dmp + 10
        MOVX    A,@DPTR
        MOV     R2,A
        MOV     R3,#0x0
        LCALL   ??mpu_read_fifo_stream?relay
        MOV     A,#0x2
        LCALL   ?DEALLOC_XSTACK8
        CFI CFA_XSP16 add(XSP16, 81)
        MOV     ?V0 + 3,R3
        MOV     A,R2
        ORL     A,?V0 + 3
        JZ      ??dmp_read_fifo_0
// 1281         return -1;
??dmp_read_fifo_1:
        MOV     R2,#-0x1
        MOV     R3,#-0x1
        LJMP    ??dmp_read_fifo_2 & 0xFFFF
// 1282 
// 1283     /* Parse DMP packet. */
// 1284     if (dmp.feature_mask & (DMP_FEATURE_LP_QUAT | DMP_FEATURE_6X_LP_QUAT)) {
??dmp_read_fifo_0:
        MOV     DPTR,#dmp + 6
        MOVX    A,@DPTR
        MOV     R6,A
        INC     DPTR
        MOVX    A,@DPTR
        MOV     R7,A
        MOV     A,R6
        ANL     A,#0x14
        JNZ     $+5
        LJMP    ??dmp_read_fifo_3 & 0xFFFF
// 1285 #ifdef FIFO_CORRUPTION_CHECK
// 1286         long quat_q14[4], quat_mag_sq;
// 1287 #endif
// 1288         quat[0] = ((long)fifo_data[0] << 24) | ((long)fifo_data[1] << 16) |
// 1289             ((long)fifo_data[2] << 8) | fifo_data[3];
        MOV     A,#0x9
        LCALL   ?XSTACK_DISP0_8
        MOVX    A,@DPTR
        MOV     ?V0 + 4,A
        CLR     A
        MOV     ?V0 + 5,A
        MOV     ?V0 + 6,A
        MOV     ?V0 + 7,A
        MOV     A,#0x18
        MOV     R0,#?V0 + 4
        LCALL   ?L_SHL
        MOV     A,#0xa
        LCALL   ?XSTACK_DISP0_8
        MOVX    A,@DPTR
        MOV     ?V0 + 8,A
        CLR     A
        MOV     ?V0 + 9,A
        MOV     ?V0 + 10,A
        MOV     ?V0 + 11,A
        MOV     A,#0x10
        MOV     R0,#?V0 + 8
        LCALL   ?L_SHL
        MOV     R0,#?V0 + 4
        MOV     R1,#?V0 + 8
        LCALL   ?L_IOR
        MOV     A,#0xb
        LCALL   ?XSTACK_DISP0_8
        MOVX    A,@DPTR
        MOV     ?V0 + 8,A
        CLR     A
        MOV     ?V0 + 10,A
        MOV     A,#0x8
        MOV     R0,#?V0 + 8
        LCALL   ?L_SHL
        MOV     R0,#?V0 + 4
        MOV     R1,#?V0 + 8
        LCALL   ?L_IOR
        MOV     A,#0xc
        LCALL   ?XSTACK_DISP0_8
        MOVX    A,@DPTR
        MOV     ?V0 + 8,A
        CLR     A
        MOV     ?V0 + 9,A
        MOV     R0,#?V0 + 4
        MOV     R1,#?V0 + 8
        LCALL   ?L_IOR
        MOV     DPL,?V0 + 0
        MOV     DPH,?V0 + 1
        MOV     R0,#?V0 + 4
        LCALL   ?L_MOV_TO_X
        MOV     A,#0xd
        LCALL   ?XSTACK_DISP0_8
        MOVX    A,@DPTR
        MOV     ?V0 + 4,A
        CLR     A
        MOV     ?V0 + 5,A
        MOV     ?V0 + 6,A
        MOV     ?V0 + 7,A
        MOV     A,#0x18
        MOV     R0,#?V0 + 4
        LCALL   ?L_SHL
        MOV     A,#0xe
        LCALL   ?XSTACK_DISP0_8
        MOVX    A,@DPTR
        MOV     ?V0 + 8,A
        MOV     A,#0x10
        MOV     R0,#?V0 + 8
        LCALL   ?L_SHL
        MOV     R0,#?V0 + 4
        MOV     R1,#?V0 + 8
        LCALL   ?L_IOR
        MOV     A,#0xf
        LCALL   ?XSTACK_DISP0_8
        MOVX    A,@DPTR
        MOV     ?V0 + 8,A
        CLR     A
        MOV     ?V0 + 10,A
        MOV     A,#0x8
        MOV     R0,#?V0 + 8
        LCALL   ?L_SHL
        MOV     R0,#?V0 + 4
        MOV     R1,#?V0 + 8
        LCALL   ?L_IOR
        MOV     A,#0x10
        LCALL   ?XSTACK_DISP0_8
        MOVX    A,@DPTR
        MOV     ?V0 + 8,A
        CLR     A
        MOV     ?V0 + 9,A
        MOV     R0,#?V0 + 4
        MOV     R1,#?V0 + 8
        LCALL   ?L_IOR
        MOV     DPL,?V0 + 0
        MOV     DPH,?V0 + 1
        INC     DPTR
        INC     DPTR
        INC     DPTR
        INC     DPTR
        MOV     R0,#?V0 + 4
        LCALL   ?L_MOV_TO_X
// 1290         quat[1] = ((long)fifo_data[4] << 24) | ((long)fifo_data[5] << 16) |
// 1291             ((long)fifo_data[6] << 8) | fifo_data[7];
// 1292         quat[2] = ((long)fifo_data[8] << 24) | ((long)fifo_data[9] << 16) |
// 1293             ((long)fifo_data[10] << 8) | fifo_data[11];
        MOV     A,?V0 + 0
        ADD     A,#0x8
        MOV     ?V0 + 14,A
        MOV     A,?V0 + 1
        ADDC    A,#0x0
        MOV     ?V0 + 15,A
        MOV     A,#0x11
        LCALL   ?XSTACK_DISP0_8
        MOVX    A,@DPTR
        MOV     ?V0 + 4,A
        CLR     A
        MOV     ?V0 + 5,A
        MOV     ?V0 + 6,A
        MOV     ?V0 + 7,A
        MOV     A,#0x18
        MOV     R0,#?V0 + 4
        LCALL   ?L_SHL
        MOV     A,#0x12
        LCALL   ?XSTACK_DISP0_8
        MOVX    A,@DPTR
        MOV     ?V0 + 8,A
        MOV     A,#0x10
        MOV     R0,#?V0 + 8
        LCALL   ?L_SHL
        MOV     R0,#?V0 + 4
        MOV     R1,#?V0 + 8
        LCALL   ?L_IOR
        MOV     A,#0x13
        LCALL   ?XSTACK_DISP0_8
        MOVX    A,@DPTR
        MOV     ?V0 + 8,A
        CLR     A
        MOV     ?V0 + 10,A
        MOV     A,#0x8
        MOV     R0,#?V0 + 8
        LCALL   ?L_SHL
        MOV     R0,#?V0 + 4
        MOV     R1,#?V0 + 8
        LCALL   ?L_IOR
        MOV     A,#0x14
        LCALL   ?XSTACK_DISP0_8
        MOVX    A,@DPTR
        MOV     ?V0 + 8,A
        CLR     A
        MOV     ?V0 + 9,A
        MOV     R0,#?V0 + 4
        MOV     R1,#?V0 + 8
        LCALL   ?L_IOR
        MOV     DPL,?V0 + 14
        MOV     DPH,?V0 + 15
        MOV     A,?V0 + 4
        MOVX    @DPTR,A
        INC     DPTR
        MOV     A,?V0 + 5
        MOVX    @DPTR,A
        INC     DPTR
        MOV     A,?V0 + 6
        MOVX    @DPTR,A
        INC     DPTR
        MOV     A,?V0 + 7
        MOVX    @DPTR,A
// 1294         quat[3] = ((long)fifo_data[12] << 24) | ((long)fifo_data[13] << 16) |
// 1295             ((long)fifo_data[14] << 8) | fifo_data[15];
        MOV     A,?V0 + 0
        ADD     A,#0xc
        MOV     ?V0 + 12,A
        MOV     A,?V0 + 1
        ADDC    A,#0x0
        MOV     ?V0 + 13,A
        MOV     A,#0x15
        LCALL   ?XSTACK_DISP0_8
        MOVX    A,@DPTR
        MOV     ?V0 + 4,A
        CLR     A
        MOV     ?V0 + 5,A
        MOV     ?V0 + 6,A
        MOV     ?V0 + 7,A
        MOV     A,#0x18
        MOV     R0,#?V0 + 4
        LCALL   ?L_SHL
        MOV     A,#0x16
        LCALL   ?XSTACK_DISP0_8
        MOVX    A,@DPTR
        MOV     ?V0 + 8,A
        MOV     A,#0x10
        MOV     R0,#?V0 + 8
        LCALL   ?L_SHL
        MOV     R0,#?V0 + 4
        MOV     R1,#?V0 + 8
        LCALL   ?L_IOR
        MOV     A,#0x17
        LCALL   ?XSTACK_DISP0_8
        MOVX    A,@DPTR
        MOV     ?V0 + 8,A
        CLR     A
        MOV     ?V0 + 10,A
        MOV     A,#0x8
        MOV     R0,#?V0 + 8
        LCALL   ?L_SHL
        MOV     R0,#?V0 + 4
        MOV     R1,#?V0 + 8
        LCALL   ?L_IOR
        MOV     A,#0x18
        LCALL   ?XSTACK_DISP0_8
        MOVX    A,@DPTR
        MOV     ?V0 + 8,A
        CLR     A
        MOV     ?V0 + 9,A
        MOV     R0,#?V0 + 4
        MOV     R1,#?V0 + 8
        LCALL   ?L_IOR
        MOV     DPL,?V0 + 12
        MOV     DPH,?V0 + 13
        MOV     A,?V0 + 4
        MOVX    @DPTR,A
        INC     DPTR
        MOV     A,?V0 + 5
        MOVX    @DPTR,A
        INC     DPTR
        MOV     A,?V0 + 6
        MOVX    @DPTR,A
        INC     DPTR
        MOV     A,?V0 + 7
        MOVX    @DPTR,A
// 1296         ii += 16;
        MOV     DPL,?XSP + 0
        MOV     DPH,?XSP + 1
        MOV     A,#0x10
        MOVX    @DPTR,A
// 1297 #ifdef FIFO_CORRUPTION_CHECK
// 1298         /* We can detect a corrupted FIFO by monitoring the quaternion data and
// 1299          * ensuring that the magnitude is always normalized to one. This
// 1300          * shouldn't happen in normal operation, but if an I2C error occurs,
// 1301          * the FIFO reads might become misaligned.
// 1302          *
// 1303          * Let's start by scaling down the quaternion data to avoid long long
// 1304          * math.
// 1305          */
// 1306         quat_q14[0] = quat[0] >> 16;
        MOV     DPL,?V0 + 0
        MOV     DPH,?V0 + 1
        MOV     R0,#?V0 + 4
        LCALL   ?L_MOV_X
        MOV     A,#0x10
        MOV     R0,#?V0 + 4
        LCALL   ?SL_SHR
        MOV     A,#0x29
        LCALL   ?XSTACK_DISP0_8
        MOV     A,?V0 + 4
        MOVX    @DPTR,A
        INC     DPTR
        MOV     A,?V0 + 5
        MOVX    @DPTR,A
        INC     DPTR
        MOV     A,?V0 + 6
        MOVX    @DPTR,A
        INC     DPTR
        MOV     A,?V0 + 7
        MOVX    @DPTR,A
// 1307         quat_q14[1] = quat[1] >> 16;
        MOV     DPL,?V0 + 0
        MOV     DPH,?V0 + 1
        INC     DPTR
        INC     DPTR
        INC     DPTR
        INC     DPTR
        MOV     R0,#?V0 + 0
        LCALL   ?L_MOV_X
        MOV     A,#0x10
        MOV     R0,#?V0 + 0
        LCALL   ?SL_SHR
        MOV     A,#0x2d
        LCALL   ?XSTACK_DISP0_8
        MOV     R0,#?V0 + 0
        LCALL   ?L_MOV_TO_X
// 1308         quat_q14[2] = quat[2] >> 16;
        MOV     DPL,?V0 + 14
        MOV     DPH,?V0 + 15
        MOV     R0,#?V0 + 4
        LCALL   ?L_MOV_X
        MOV     A,#0x10
        MOV     R0,#?V0 + 4
        LCALL   ?SL_SHR
        MOV     A,#0x31
        LCALL   ?XSTACK_DISP0_8
        MOV     R0,#?V0 + 4
        LCALL   ?L_MOV_TO_X
// 1309         quat_q14[3] = quat[3] >> 16;
        MOV     DPL,?V0 + 12
        MOV     DPH,?V0 + 13
        MOV     R0,#?V0 + 8
        LCALL   ?L_MOV_X
        MOV     A,#0x10
        MOV     R0,#?V0 + 8
        LCALL   ?SL_SHR
        MOV     A,#0x5
        LCALL   ?XSTACK_DISP0_8
        MOV     R0,#?V0 + 8
        LCALL   ?L_MOV_TO_X
        MOV     A,#0x5
        LCALL   ?XSTACK_DISP0_8
        LCALL   ?XLOAD_R2345
        MOV     A,#0x35
        LCALL   ?XSTACK_DISP0_8
        LCALL   ?XSTORE_R2345
// 1310         quat_mag_sq = quat_q14[0] * quat_q14[0] + quat_q14[1] * quat_q14[1] +
// 1311             quat_q14[2] * quat_q14[2] + quat_q14[3] * quat_q14[3];
// 1312         if ((quat_mag_sq < QUAT_MAG_SQ_MIN) ||
// 1313             (quat_mag_sq > QUAT_MAG_SQ_MAX)) {
        MOV     A,#0x29
        LCALL   ?XSTACK_DISP0_8
        MOV     R0,#?V0 + 12
        LCALL   ?L_MOV_X
        MOV     A,#0x29
        LCALL   ?XSTACK_DISP0_8
        MOV     R0,#?V0 + 8
        LCALL   ?L_MOV_X
        MOV     R0,#?V0 + 12
        MOV     R1,#?V0 + 8
        LCALL   ?L_MUL
        MOV     ?V0 + 8,?V0 + 0
        MOV     ?V0 + 9,?V0 + 1
        MOV     ?V0 + 10,?V0 + 2
        MOV     ?V0 + 11,?V0 + 3
        MOV     R0,#?V0 + 8
        MOV     R1,#?V0 + 0
        LCALL   ?L_MUL
        MOV     R0,#?V0 + 12
        MOV     R1,#?V0 + 8
        LCALL   ?L_ADD
        MOV     ?V0 + 0,?V0 + 4
        MOV     ?V0 + 1,?V0 + 5
        MOV     ?V0 + 2,?V0 + 6
        MOV     ?V0 + 3,?V0 + 7
        MOV     R0,#?V0 + 0
        MOV     R1,#?V0 + 4
        LCALL   ?L_MUL
        MOV     R0,#?V0 + 12
        MOV     R1,#?V0 + 0
        LCALL   ?L_ADD
        MOV     A,#0x5
        LCALL   ?XSTACK_DISP0_8
        MOV     R0,#?V0 + 0
        LCALL   ?L_MOV_X
        MOV     A,#0x5
        LCALL   ?XSTACK_DISP0_8
        MOV     R0,#?V0 + 4
        LCALL   ?L_MOV_X
        MOV     R0,#?V0 + 0
        MOV     R1,#?V0 + 4
        LCALL   ?L_MUL
        MOV     R0,#?V0 + 12
        MOV     R1,#?V0 + 0
        LCALL   ?L_ADD
        MOV     DPTR,#__Constant_f1000000
        MOV     R0,#?V0 + 12
        LCALL   ?L_ADD_X
        MOV     DPTR,#__Constant_2000001
        MOV     R0,#?V0 + 12
        LCALL   ?UL_GE_X
        JNC     ??dmp_read_fifo_4
// 1314             /* Quaternion is outside of the acceptable threshold. */
// 1315             mpu_reset_fifo();
        ; Setup parameters for call to function mpu_reset_fifo
        LCALL   ??mpu_reset_fifo?relay
// 1316             sensors[0] = 0;
        MOV     A,#0x55
        LCALL   ?XSTACK_DISP0_8
        MOVX    A,@DPTR
        MOV     R0,A
        INC     DPTR
        MOVX    A,@DPTR
        MOV     DPH,A
        MOV     DPL,R0
        CLR     A
        MOVX    @DPTR,A
        INC     DPTR
        MOVX    @DPTR,A
// 1317             return -1;
        LJMP    ??dmp_read_fifo_1 & 0xFFFF
// 1318         }
// 1319         sensors[0] |= INV_WXYZ_QUAT;
??dmp_read_fifo_4:
        MOV     A,#0x55
        LCALL   ?XSTACK_DISP0_8
        MOVX    A,@DPTR
        MOV     R0,A
        INC     DPTR
        MOVX    A,@DPTR
        MOV     DPH,A
        MOV     DPL,R0
        INC     DPTR
        MOVX    A,@DPTR
        ORL     A,#0x1
        MOVX    @DPTR,A
// 1320 #endif
// 1321     }
// 1322 
// 1323     if (dmp.feature_mask & DMP_FEATURE_SEND_RAW_ACCEL) {
??dmp_read_fifo_3:
        MOV     A,R6
        ANL     A,#0x40
        JNZ     $+5
        LJMP    ??dmp_read_fifo_5 & 0xFFFF
// 1324         accel[0] = ((short)fifo_data[ii+0] << 8) | fifo_data[ii+1];
        MOV     DPL,?XSP + 0
        MOV     DPH,?XSP + 1
        MOVX    A,@DPTR
        MOV     R0,A
        MOV     A,#0x9
        LCALL   ?XSTACK_DISP0_8
        MOV     A,DPL
        ADD     A,R0
        MOV     R0,A
        MOV     A,DPH
        ADDC    A,#0x0
        MOV     R1,A
        MOV     DPL,R0
        MOV     DPH,R1
        MOVX    A,@DPTR
        MOV     R3,A
        INC     DPTR
        MOVX    A,@DPTR
        MOV     R2,A
        MOV     A,#0x1
        LCALL   ?XSTACK_DISP0_8
        MOVX    A,@DPTR
        MOV     R4,A
        INC     DPTR
        MOVX    A,@DPTR
        MOV     DPH,A
        MOV     DPL,R4
        MOV     A,R2
        MOVX    @DPTR,A
        INC     DPTR
        MOV     A,R3
        MOVX    @DPTR,A
// 1325         accel[1] = ((short)fifo_data[ii+2] << 8) | fifo_data[ii+3];
        MOV     DPL,R0
        MOV     DPH,R1
        INC     DPTR
        INC     DPTR
        MOVX    A,@DPTR
        MOV     R3,A
        MOV     DPL,R0
        MOV     DPH,R1
        INC     DPTR
        INC     DPTR
        INC     DPTR
        MOVX    A,@DPTR
        MOV     R2,A
        MOV     A,#0x1
        LCALL   ?XSTACK_DISP0_8
        MOVX    A,@DPTR
        MOV     R4,A
        INC     DPTR
        MOVX    A,@DPTR
        MOV     DPH,A
        MOV     DPL,R4
        INC     DPTR
        INC     DPTR
        MOV     A,R2
        MOVX    @DPTR,A
        INC     DPTR
        MOV     A,R3
        MOVX    @DPTR,A
// 1326         accel[2] = ((short)fifo_data[ii+4] << 8) | fifo_data[ii+5];
        MOV     DPL,R0
        MOV     DPH,R1
        INC     DPTR
        INC     DPTR
        INC     DPTR
        INC     DPTR
        MOVX    A,@DPTR
        MOV     R3,A
        MOV     DPL,R0
        MOV     DPH,R1
        INC     DPTR
        INC     DPTR
        INC     DPTR
        INC     DPTR
        INC     DPTR
        MOVX    A,@DPTR
        MOV     R0,A
        MOV     A,R3
        MOV     R1,A
        MOV     A,#0x1
        LCALL   ?XSTACK_DISP0_8
        MOVX    A,@DPTR
        MOV     R2,A
        INC     DPTR
        MOVX    A,@DPTR
        MOV     DPH,A
        MOV     DPL,R2
        INC     DPTR
        INC     DPTR
        INC     DPTR
        INC     DPTR
        MOV     A,R0
        MOVX    @DPTR,A
        INC     DPTR
        MOV     A,R1
        MOVX    @DPTR,A
// 1327         ii += 6;
        MOV     DPL,?XSP + 0
        MOV     DPH,?XSP + 1
        MOVX    A,@DPTR
        ADD     A,#0x6
        MOVX    @DPTR,A
// 1328         sensors[0] |= INV_XYZ_ACCEL;
        MOV     A,#0x55
        LCALL   ?XSTACK_DISP0_8
        MOVX    A,@DPTR
        MOV     R0,A
        INC     DPTR
        MOVX    A,@DPTR
        MOV     DPH,A
        MOV     DPL,R0
        MOVX    A,@DPTR
        ORL     A,#0x8
        MOVX    @DPTR,A
// 1329     }
// 1330 
// 1331     if (dmp.feature_mask & DMP_FEATURE_SEND_ANY_GYRO) {
??dmp_read_fifo_5:
        MOV     A,R6
        ANL     A,#0x80
        MOV     R0,A
        MOV     A,R7
        ANL     A,#0x1
        MOV     R1,A
        MOV     A,R0
        ORL     A,R1
        JNZ     $+5
        LJMP    ??dmp_read_fifo_6 & 0xFFFF
// 1332         gyro[0] = ((short)fifo_data[ii+0] << 8) | fifo_data[ii+1];
        MOV     DPL,?XSP + 0
        MOV     DPH,?XSP + 1
        MOVX    A,@DPTR
        MOV     R0,A
        MOV     A,#0x9
        LCALL   ?XSTACK_DISP0_8
        MOV     A,DPL
        ADD     A,R0
        MOV     R0,A
        MOV     A,DPH
        ADDC    A,#0x0
        MOV     R1,A
        MOV     DPL,R0
        MOV     DPH,R1
        MOVX    A,@DPTR
        MOV     R3,A
        INC     DPTR
        MOVX    A,@DPTR
        MOV     R2,A
        MOV     A,#0x3
        LCALL   ?XSTACK_DISP0_8
        MOVX    A,@DPTR
        MOV     R4,A
        INC     DPTR
        MOVX    A,@DPTR
        MOV     DPH,A
        MOV     DPL,R4
        MOV     A,R2
        MOVX    @DPTR,A
        INC     DPTR
        MOV     A,R3
        MOVX    @DPTR,A
// 1333         gyro[1] = ((short)fifo_data[ii+2] << 8) | fifo_data[ii+3];
        MOV     DPL,R0
        MOV     DPH,R1
        INC     DPTR
        INC     DPTR
        MOVX    A,@DPTR
        MOV     R3,A
        MOV     DPL,R0
        MOV     DPH,R1
        INC     DPTR
        INC     DPTR
        INC     DPTR
        MOVX    A,@DPTR
        MOV     R2,A
        MOV     A,#0x3
        LCALL   ?XSTACK_DISP0_8
        MOVX    A,@DPTR
        MOV     R4,A
        INC     DPTR
        MOVX    A,@DPTR
        MOV     DPH,A
        MOV     DPL,R4
        INC     DPTR
        INC     DPTR
        MOV     A,R2
        MOVX    @DPTR,A
        INC     DPTR
        MOV     A,R3
        MOVX    @DPTR,A
// 1334         gyro[2] = ((short)fifo_data[ii+4] << 8) | fifo_data[ii+5];
        MOV     DPL,R0
        MOV     DPH,R1
        INC     DPTR
        INC     DPTR
        INC     DPTR
        INC     DPTR
        MOVX    A,@DPTR
        MOV     R3,A
        MOV     DPL,R0
        MOV     DPH,R1
        INC     DPTR
        INC     DPTR
        INC     DPTR
        INC     DPTR
        INC     DPTR
        MOVX    A,@DPTR
        MOV     R0,A
        MOV     A,R3
        MOV     R1,A
        MOV     A,#0x3
        LCALL   ?XSTACK_DISP0_8
        MOVX    A,@DPTR
        MOV     R2,A
        INC     DPTR
        MOVX    A,@DPTR
        MOV     DPH,A
        MOV     DPL,R2
        INC     DPTR
        INC     DPTR
        INC     DPTR
        INC     DPTR
        MOV     A,R0
        MOVX    @DPTR,A
        INC     DPTR
        MOV     A,R1
        MOVX    @DPTR,A
// 1335         ii += 6;
        MOV     DPL,?XSP + 0
        MOV     DPH,?XSP + 1
        MOVX    A,@DPTR
        ADD     A,#0x6
        MOVX    @DPTR,A
// 1336         sensors[0] |= INV_XYZ_GYRO;
        MOV     A,#0x55
        LCALL   ?XSTACK_DISP0_8
        MOVX    A,@DPTR
        MOV     R0,A
        INC     DPTR
        MOVX    A,@DPTR
        MOV     DPH,A
        MOV     DPL,R0
        MOVX    A,@DPTR
        ORL     A,#0x70
        MOVX    @DPTR,A
// 1337     }
// 1338 
// 1339     /* Gesture data is at the end of the DMP packet. Parse it and call
// 1340      * the gesture callbacks (if registered).
// 1341      */
// 1342     if (dmp.feature_mask & (DMP_FEATURE_TAP | DMP_FEATURE_ANDROID_ORIENT))
??dmp_read_fifo_6:
        MOV     A,R6
        ANL     A,#0x3
        JZ      ??dmp_read_fifo_7
// 1343         decode_gesture(fifo_data + ii);
        ; Setup parameters for call to function decode_gesture
        MOV     DPL,?XSP + 0
        MOV     DPH,?XSP + 1
        MOVX    A,@DPTR
        MOV     R0,A
        MOV     A,#0x9
        LCALL   ?XSTACK_DISP0_8
        MOV     A,DPL
        ADD     A,R0
        MOV     R2,A
        MOV     A,DPH
        ADDC    A,#0x0
        MOV     R3,A
        LCALL   ??decode_gesture?relay
// 1344 
// 1345     get_ms(timestamp);
??dmp_read_fifo_7:
        ; Setup parameters for call to function mget_ms
        MOV     A,#0x53
        LCALL   ?XSTACK_DISP0_8
        MOVX    A,@DPTR
        MOV     R2,A
        INC     DPTR
        MOVX    A,@DPTR
        MOV     R3,A
        LCALL   ??mget_ms?relay
// 1346     return 0;
        MOV     R2,#0x0
        MOV     R3,#0x0
??dmp_read_fifo_2:
        MOV     A,#0x39
        LCALL   ?DEALLOC_XSTACK8
        CFI CFA_XSP16 add(XSP16, 24)
        MOV     R7,#0x10
        LJMP    ?BANKED_LEAVE_XDATA
        CFI EndBlock cfiBlock25
// 1347 }
// 1348 
// 1349 /**
// 1350  *  @brief      Register a function to be executed on a tap event.
// 1351  *  The tap direction is represented by one of the following:
// 1352  *  \n TAP_X_UP
// 1353  *  \n TAP_X_DOWN
// 1354  *  \n TAP_Y_UP
// 1355  *  \n TAP_Y_DOWN
// 1356  *  \n TAP_Z_UP
// 1357  *  \n TAP_Z_DOWN
// 1358  *  @param[in]  func    Callback function.
// 1359  *  @return     0 if successful.
// 1360  */

        RSEG BANKED_CODE:CODE:NOROOT(0)
// 1361 int dmp_register_tap_cb(void (*func)(unsigned char, unsigned char))
dmp_register_tap_cb:
        CFI Block cfiBlock26 Using cfiCommon0
        CFI Function dmp_register_tap_cb
        CODE
// 1362 {
        PUSH    DPL
        CFI DPL0 Frame(CFA_SP, 4)
        CFI CFA_SP SP+-4
        PUSH    DPH
        CFI DPH0 Frame(CFA_SP, 5)
        CFI CFA_SP SP+-5
        ; Saved register size: 2
        ; Auto size: 0
// 1363     dmp.tap_cb = func;
        MOV     DPTR,#dmp
        MOV     A,R2
        MOVX    @DPTR,A
        INC     DPTR
        MOV     A,R3
        MOVX    @DPTR,A
// 1364     return 0;
        MOV     R2,#0x0
        MOV     R3,#0x0
        POP     DPH
        CFI DPH0 SameValue
        CFI CFA_SP SP+-4
        POP     DPL
        CFI DPL0 SameValue
        CFI CFA_SP SP+-3
        LJMP    ?BRET
        CFI EndBlock cfiBlock26
// 1365 }
// 1366 
// 1367 /**
// 1368  *  @brief      Register a function to be executed on a android orientation event.
// 1369  *  @param[in]  func    Callback function.
// 1370  *  @return     0 if successful.
// 1371  */

        RSEG BANKED_CODE:CODE:NOROOT(0)
// 1372 int dmp_register_android_orient_cb(void (*func)(unsigned char))
dmp_register_android_orient_cb:
        CFI Block cfiBlock27 Using cfiCommon0
        CFI Function dmp_register_android_orient_cb
        CODE
// 1373 {
        PUSH    DPL
        CFI DPL0 Frame(CFA_SP, 4)
        CFI CFA_SP SP+-4
        PUSH    DPH
        CFI DPH0 Frame(CFA_SP, 5)
        CFI CFA_SP SP+-5
        ; Saved register size: 2
        ; Auto size: 0
// 1374     dmp.android_orient_cb = func;
        MOV     DPTR,#dmp + 2
        MOV     A,R2
        MOVX    @DPTR,A
        INC     DPTR
        MOV     A,R3
        MOVX    @DPTR,A
// 1375     return 0;
        MOV     R2,#0x0
        MOV     R3,#0x0
        POP     DPH
        CFI DPH0 SameValue
        CFI CFA_SP SP+-4
        POP     DPL
        CFI DPL0 SameValue
        CFI CFA_SP SP+-3
        LJMP    ?BRET
        CFI EndBlock cfiBlock27
// 1376 }

        RSEG BANK_RELAYS:CODE:REORDER:NOROOT(0)
??dmp_load_motion_driver_firmware?relay:
        LCALL   ?BDISPATCH
        DATA
        DC24    dmp_load_motion_driver_firmware

        RSEG BANK_RELAYS:CODE:REORDER:NOROOT(0)
??dmp_set_orientation?relay:
        LCALL   ?BDISPATCH
        DATA
        DC24    dmp_set_orientation

        RSEG BANK_RELAYS:CODE:REORDER:NOROOT(0)
??dmp_set_gyro_bias?relay:
        LCALL   ?BDISPATCH
        DATA
        DC24    dmp_set_gyro_bias

        RSEG BANK_RELAYS:CODE:REORDER:NOROOT(0)
??dmp_set_accel_bias?relay:
        LCALL   ?BDISPATCH
        DATA
        DC24    dmp_set_accel_bias

        RSEG BANK_RELAYS:CODE:REORDER:NOROOT(0)
??dmp_set_fifo_rate?relay:
        LCALL   ?BDISPATCH
        DATA
        DC24    dmp_set_fifo_rate

        RSEG BANK_RELAYS:CODE:REORDER:NOROOT(0)
??dmp_get_fifo_rate?relay:
        LCALL   ?BDISPATCH
        DATA
        DC24    dmp_get_fifo_rate

        RSEG BANK_RELAYS:CODE:REORDER:NOROOT(0)
??dmp_set_tap_thresh?relay:
        LCALL   ?BDISPATCH
        DATA
        DC24    dmp_set_tap_thresh

        RSEG BANK_RELAYS:CODE:REORDER:NOROOT(0)
??dmp_set_tap_axes?relay:
        LCALL   ?BDISPATCH
        DATA
        DC24    dmp_set_tap_axes

        RSEG BANK_RELAYS:CODE:REORDER:NOROOT(0)
??dmp_set_tap_count?relay:
        LCALL   ?BDISPATCH
        DATA
        DC24    dmp_set_tap_count

        RSEG BANK_RELAYS:CODE:REORDER:NOROOT(0)
??dmp_set_tap_time?relay:
        LCALL   ?BDISPATCH
        DATA
        DC24    dmp_set_tap_time

        RSEG BANK_RELAYS:CODE:REORDER:NOROOT(0)
??dmp_set_tap_time_multi?relay:
        LCALL   ?BDISPATCH
        DATA
        DC24    dmp_set_tap_time_multi

        RSEG BANK_RELAYS:CODE:REORDER:NOROOT(0)
??dmp_set_shake_reject_thresh?relay:
        LCALL   ?BDISPATCH
        DATA
        DC24    dmp_set_shake_reject_thresh

        RSEG BANK_RELAYS:CODE:REORDER:NOROOT(0)
??dmp_set_shake_reject_time?relay:
        LCALL   ?BDISPATCH
        DATA
        DC24    dmp_set_shake_reject_time

        RSEG BANK_RELAYS:CODE:REORDER:NOROOT(0)
??dmp_set_shake_reject_timeout?relay:
        LCALL   ?BDISPATCH
        DATA
        DC24    dmp_set_shake_reject_timeout

        RSEG BANK_RELAYS:CODE:REORDER:NOROOT(0)
??dmp_get_pedometer_step_count?relay:
        LCALL   ?BDISPATCH
        DATA
        DC24    dmp_get_pedometer_step_count

        RSEG BANK_RELAYS:CODE:REORDER:NOROOT(0)
??dmp_set_pedometer_step_count?relay:
        LCALL   ?BDISPATCH
        DATA
        DC24    dmp_set_pedometer_step_count

        RSEG BANK_RELAYS:CODE:REORDER:NOROOT(0)
??dmp_get_pedometer_walk_time?relay:
        LCALL   ?BDISPATCH
        DATA
        DC24    dmp_get_pedometer_walk_time

        RSEG BANK_RELAYS:CODE:REORDER:NOROOT(0)
??dmp_set_pedometer_walk_time?relay:
        LCALL   ?BDISPATCH
        DATA
        DC24    dmp_set_pedometer_walk_time

        RSEG BANK_RELAYS:CODE:REORDER:NOROOT(0)
??dmp_enable_feature?relay:
        LCALL   ?BDISPATCH
        DATA
        DC24    dmp_enable_feature

        RSEG BANK_RELAYS:CODE:REORDER:NOROOT(0)
??dmp_get_enabled_features?relay:
        LCALL   ?BDISPATCH
        DATA
        DC24    dmp_get_enabled_features

        RSEG BANK_RELAYS:CODE:REORDER:NOROOT(0)
??dmp_enable_gyro_cal?relay:
        LCALL   ?BDISPATCH
        DATA
        DC24    dmp_enable_gyro_cal

        RSEG BANK_RELAYS:CODE:REORDER:NOROOT(0)
??dmp_enable_lp_quat?relay:
        LCALL   ?BDISPATCH
        DATA
        DC24    dmp_enable_lp_quat

        RSEG BANK_RELAYS:CODE:REORDER:NOROOT(0)
??dmp_enable_6x_lp_quat?relay:
        LCALL   ?BDISPATCH
        DATA
        DC24    dmp_enable_6x_lp_quat

        RSEG BANK_RELAYS:CODE:REORDER:NOROOT(0)
??decode_gesture?relay:
        LCALL   ?BDISPATCH
        DATA
        DC24    decode_gesture

        RSEG BANK_RELAYS:CODE:REORDER:NOROOT(0)
??dmp_set_interrupt_mode?relay:
        LCALL   ?BDISPATCH
        DATA
        DC24    dmp_set_interrupt_mode

        RSEG BANK_RELAYS:CODE:REORDER:NOROOT(0)
??dmp_read_fifo?relay:
        LCALL   ?BDISPATCH
        DATA
        DC24    dmp_read_fifo

        RSEG BANK_RELAYS:CODE:REORDER:NOROOT(0)
??dmp_register_tap_cb?relay:
        LCALL   ?BDISPATCH
        DATA
        DC24    dmp_register_tap_cb

        RSEG BANK_RELAYS:CODE:REORDER:NOROOT(0)
??dmp_register_android_orient_cb?relay:
        LCALL   ?BDISPATCH
        DATA
        DC24    dmp_register_android_orient_cb

        RSEG XDATA_ROM_C:CONST:REORDER:NOROOT(0)
        DATA8
`?<Constant {76, 205, 108}>`:
        DB 76
        DB 205
        DB 108

        RSEG XDATA_ROM_C:CONST:REORDER:NOROOT(0)
        DATA8
`?<Constant {12, 201, 44}>`:
        DB 12
        DB 201
        DB 44

        RSEG XDATA_ROM_C:CONST:REORDER:NOROOT(0)
        DATA8
`?<Constant {54, 86, 118}>`:
        DB 54
        DB 86
        DB 118

        RSEG XDATA_ROM_C:CONST:REORDER:NOROOT(0)
        DATA8
`?<Constant {38, 70, 102}>`:
        DB 38
        DB 70
        DB 102

        RSEG XDATA_ROM_C:CONST:REORDER:NOROOT(0)
        DATA8
`?<Constant {254, 242, 171, 196, 170, 241, 223,`:
        DB 254
        DB 242
        DB 171
        DB 196
        DB 170
        DB 241
        DB 223
        DB 223
        DB 187
        DB 175
        DB 223
        DB 223

        RSEG XDATA_ROM_C:CONST:REORDER:NOROOT(0)
        DATA8
`?<Constant {184, 170, 179, 141, 180, 152, 13, `:
        DB 184
        DB 170
        DB 179
        DB 141
        DB 180
        DB 152
        DB 13
        DB 53
        DB 93

        RSEG XDATA_ROM_C:CONST:REORDER:NOROOT(0)
        DATA8
`?<Constant {184, 170, 170, 170, 176, 136, 195,`:
        DB 184
        DB 170
        DB 170
        DB 170
        DB 176
        DB 136
        DB 195
        DB 197
        DB 199

        RSEG XDATA_ROM_C:CONST:REORDER:NOROOT(0)
        DATA8
`?<Constant {216, 177, 185, 243, 139, 163, 145,`:
        DB 216
        DB 177
        DB 185
        DB 243
        DB 139
        DB 163
        DB 145
        DB 182
        DB 9
        DB 180
        DB 217

        RSEG XDATA_ROM_C:CONST:REORDER:NOROOT(0)
        DATA8
`?<Constant {218, 177, 185, 243, 139, 163, 145,`:
        DB 218
        DB 177
        DB 185
        DB 243
        DB 139
        DB 163
        DB 145
        DB 182
        DB 218
        DB 180
        DB 218

        RSEG XDATA_ROM_C:CONST:REORDER:NOROOT(0)
        DATA32
__Constant_3b86e0:
        DD 3901152

        RSEG XDATA_ROM_C:CONST:REORDER:NOROOT(0)
        DATA32
__Constant_43480000:
        DD 43480000H

        RSEG XDATA_ROM_C:CONST:REORDER:NOROOT(0)
        DATA32
__Constant_46800000:
        DD 46800000H

        RSEG XDATA_ROM_C:CONST:REORDER:NOROOT(0)
        DATA32
__Constant_46400000:
        DD 46400000H

        RSEG XDATA_ROM_C:CONST:REORDER:NOROOT(0)
        DATA32
__Constant_46000000:
        DD 46000000H

        RSEG XDATA_ROM_C:CONST:REORDER:NOROOT(0)
        DATA32
__Constant_45c00000:
        DD 45C00000H

        RSEG XDATA_ROM_C:CONST:REORDER:NOROOT(0)
        DATA32
__Constant_45800000:
        DD 45800000H

        RSEG XDATA_ROM_C:CONST:REORDER:NOROOT(0)
        DATA32
__Constant_45400000:
        DD 45400000H

        RSEG XDATA_ROM_C:CONST:REORDER:NOROOT(0)
        DATA32
__Constant_45000000:
        DD 45000000H

        RSEG XDATA_ROM_C:CONST:REORDER:NOROOT(0)
        DATA32
__Constant_44c00000:
        DD 44C00000H

        RSEG XDATA_ROM_C:CONST:REORDER:NOROOT(0)
        DATA32
__Constant_3e8:
        DD 1000

        RSEG XDATA_ROM_C:CONST:REORDER:NOROOT(0)
        DATA32
__Constant_14:
        DD 20

        RSEG XDATA_ROM_C:CONST:REORDER:NOROOT(0)
        DATA32
__Constant_f1000000:
        DD 4043309056

        RSEG XDATA_ROM_C:CONST:REORDER:NOROOT(0)
        DATA32
__Constant_2000001:
        DD 33554433

        END
// 1377 
// 1378 /**
// 1379  *  @}
// 1380  */
// 1381 
// 
// 6 831 bytes in segment BANKED_CODE
//   168 bytes in segment BANK_RELAYS
// 3 182 bytes in segment XDATA_ROM_C
//    11 bytes in segment XDATA_Z
// 
// 6 999 bytes of CODE  memory
// 3 126 bytes of CONST memory (+ 56 bytes shared)
//    11 bytes of XDATA memory
//
//Errors: none
//Warnings: none
