                                      1 ;--------------------------------------------------------
                                      2 ; File Created by SDCC : free open source ANSI-C Compiler
                                      3 ; Version 3.8.4 #10774 (Linux)
                                      4 ;--------------------------------------------------------
                                      5 	.module LORA
                                      6 	.optsdcc -mmcs51 --model-huge
                                      7 	
                                      8 ;--------------------------------------------------------
                                      9 ; Public variables in this module
                                     10 ;--------------------------------------------------------
                                     11 	.globl _SX1276LoRaSetRFFrequency
                                     12 	.globl _SPI1_ReadWriteByte
                                     13 	.globl _printf
                                     14 	.globl _ACTIVE
                                     15 	.globl _TX_BYTE
                                     16 	.globl _RX_BYTE
                                     17 	.globl _ERR
                                     18 	.globl _FE
                                     19 	.globl _SLAVE
                                     20 	.globl _RE
                                     21 	.globl _MODE
                                     22 	.globl _T3OVFIF
                                     23 	.globl _T3CH0IF
                                     24 	.globl _T3CH1IF
                                     25 	.globl _T4OVFIF
                                     26 	.globl _T4CH0IF
                                     27 	.globl _T4CH1IF
                                     28 	.globl _OVFIM
                                     29 	.globl _B_0
                                     30 	.globl _B_1
                                     31 	.globl _B_2
                                     32 	.globl _B_3
                                     33 	.globl _B_4
                                     34 	.globl _B_5
                                     35 	.globl _B_6
                                     36 	.globl _B_7
                                     37 	.globl _P2IF
                                     38 	.globl _UTX0IF
                                     39 	.globl _UTX1IF
                                     40 	.globl _P1IF
                                     41 	.globl _WDTIF
                                     42 	.globl _ACC_0
                                     43 	.globl _ACC_1
                                     44 	.globl _ACC_2
                                     45 	.globl _ACC_3
                                     46 	.globl _ACC_4
                                     47 	.globl _ACC_5
                                     48 	.globl _ACC_6
                                     49 	.globl _ACC_7
                                     50 	.globl _P
                                     51 	.globl _F1
                                     52 	.globl _OV
                                     53 	.globl _RS0
                                     54 	.globl _RS1
                                     55 	.globl _F0
                                     56 	.globl _AC
                                     57 	.globl _CY
                                     58 	.globl _DMAIF
                                     59 	.globl _T1IF
                                     60 	.globl _T2IF
                                     61 	.globl _T3IF
                                     62 	.globl _T4IF
                                     63 	.globl _P0IF
                                     64 	.globl _STIF
                                     65 	.globl _DMAIE
                                     66 	.globl _T1IE
                                     67 	.globl _T2IE
                                     68 	.globl _T3IE
                                     69 	.globl _T4IE
                                     70 	.globl _P0IE
                                     71 	.globl _RFERRIE
                                     72 	.globl _ADCIE
                                     73 	.globl _URX0IE
                                     74 	.globl _URX1IE
                                     75 	.globl _ENCIE
                                     76 	.globl _STIE
                                     77 	.globl _EA
                                     78 	.globl _P2_0
                                     79 	.globl _P2_1
                                     80 	.globl _P2_2
                                     81 	.globl _P2_3
                                     82 	.globl _P2_4
                                     83 	.globl _P2_5
                                     84 	.globl _P2_6
                                     85 	.globl _P2_7
                                     86 	.globl _ENCIF_0
                                     87 	.globl _ENCIF_1
                                     88 	.globl _P1_0
                                     89 	.globl _P1_1
                                     90 	.globl _P1_2
                                     91 	.globl _P1_3
                                     92 	.globl _P1_4
                                     93 	.globl _P1_5
                                     94 	.globl _P1_6
                                     95 	.globl _P1_7
                                     96 	.globl _IT0
                                     97 	.globl _RFERRIF
                                     98 	.globl _IT1
                                     99 	.globl _URX0IF
                                    100 	.globl _ADCIF
                                    101 	.globl _URX1IF
                                    102 	.globl _P0_0
                                    103 	.globl _P0_1
                                    104 	.globl _P0_2
                                    105 	.globl _P0_3
                                    106 	.globl _P0_4
                                    107 	.globl _P0_5
                                    108 	.globl _P0_6
                                    109 	.globl _P0_7
                                    110 	.globl _WDCTL
                                    111 	.globl _U1GCR
                                    112 	.globl _U1UCR
                                    113 	.globl _U1BAUD
                                    114 	.globl _U1DBUF
                                    115 	.globl _U1CSR
                                    116 	.globl _U0GCR
                                    117 	.globl _U0UCR
                                    118 	.globl _U0BAUD
                                    119 	.globl _U0DBUF
                                    120 	.globl _U0CSR
                                    121 	.globl _TIMIF
                                    122 	.globl _T4CC1
                                    123 	.globl _T4CCTL1
                                    124 	.globl _T4CC0
                                    125 	.globl _T4CCTL0
                                    126 	.globl _T4CTL
                                    127 	.globl _T4CNT
                                    128 	.globl _T3CC1
                                    129 	.globl _T3CCTL1
                                    130 	.globl _T3CC0
                                    131 	.globl _T3CCTL0
                                    132 	.globl _T3CTL
                                    133 	.globl _T3CNT
                                    134 	.globl _T2MSEL
                                    135 	.globl _T2IRQM
                                    136 	.globl _T2MOVF2
                                    137 	.globl _T2MOVF1
                                    138 	.globl _T2MOVF0
                                    139 	.globl _T2M1
                                    140 	.globl _T2M0
                                    141 	.globl _T2IRQF
                                    142 	.globl _T2EVTCFG
                                    143 	.globl _T2CTRL
                                    144 	.globl _T1STAT
                                    145 	.globl _T1CCTL2
                                    146 	.globl _T1CCTL1
                                    147 	.globl _T1CCTL0
                                    148 	.globl _T1CTL
                                    149 	.globl _T1CNTH
                                    150 	.globl _T1CNTL
                                    151 	.globl _T1CC2H
                                    152 	.globl _T1CC2L
                                    153 	.globl _T1CC1H
                                    154 	.globl _T1CC1L
                                    155 	.globl _T1CC0H
                                    156 	.globl _T1CC0L
                                    157 	.globl _CLKCONSTA
                                    158 	.globl _CLKCONCMD
                                    159 	.globl _SLEEPSTA
                                    160 	.globl _SLEEPCMD
                                    161 	.globl _STLOAD
                                    162 	.globl _ST2
                                    163 	.globl _ST1
                                    164 	.globl _ST0
                                    165 	.globl _RFERRF
                                    166 	.globl _RFIRQF0
                                    167 	.globl _RFST
                                    168 	.globl _RFD
                                    169 	.globl _RFIRQF1
                                    170 	.globl _PSBANK
                                    171 	.globl _FMAP
                                    172 	.globl _MEMCTR
                                    173 	.globl __XPAGE
                                    174 	.globl _MPAGE
                                    175 	.globl _PMUX
                                    176 	.globl _P2DIR
                                    177 	.globl _P1DIR
                                    178 	.globl _P0DIR
                                    179 	.globl _P2INP
                                    180 	.globl _P1INP
                                    181 	.globl _P2SEL
                                    182 	.globl _P1SEL
                                    183 	.globl _P0SEL
                                    184 	.globl _APCFG
                                    185 	.globl _PERCFG
                                    186 	.globl _P0INP
                                    187 	.globl _P2IEN
                                    188 	.globl _P1IEN
                                    189 	.globl _P0IEN
                                    190 	.globl _PICTL
                                    191 	.globl _P2IFG
                                    192 	.globl _P1IFG
                                    193 	.globl _P0IFG
                                    194 	.globl _DMAREQ
                                    195 	.globl _DMAARM
                                    196 	.globl _DMA0CFGH
                                    197 	.globl _DMA0CFGL
                                    198 	.globl _DMA1CFGH
                                    199 	.globl _DMA1CFGL
                                    200 	.globl _DMAIRQ
                                    201 	.globl _ENCCS
                                    202 	.globl _ENCDO
                                    203 	.globl _ENCDI
                                    204 	.globl _RNDH
                                    205 	.globl _RNDL
                                    206 	.globl _ADCH
                                    207 	.globl _ADCL
                                    208 	.globl _ADCCON3
                                    209 	.globl _ADCCON2
                                    210 	.globl _ADCCON1
                                    211 	.globl _B
                                    212 	.globl _IRCON2
                                    213 	.globl _ACC
                                    214 	.globl _PSW
                                    215 	.globl _IRCON
                                    216 	.globl _IP1
                                    217 	.globl _IEN1
                                    218 	.globl _IP0
                                    219 	.globl _IEN0
                                    220 	.globl _P2
                                    221 	.globl _S1CON
                                    222 	.globl _IEN2
                                    223 	.globl _S0CON
                                    224 	.globl _DPS
                                    225 	.globl _P1
                                    226 	.globl _TCON
                                    227 	.globl _PCON
                                    228 	.globl _DPH1
                                    229 	.globl _DPL1
                                    230 	.globl _DPH0
                                    231 	.globl _DPL0
                                    232 	.globl _SP
                                    233 	.globl _P0
                                    234 	.globl _power_data
                                    235 	.globl _powerValue
                                    236 	.globl _Bw_Frequency
                                    237 	.globl _CodingRate
                                    238 	.globl _SpreadingFactor
                                    239 	.globl _Frequency
                                    240 	.globl _LR_Version
                                    241 	.globl _RF_REC_RLEN_i
                                    242 	.globl _CRC_Value
                                    243 	.globl _RF_EX0_STATUS
                                    244 	.globl _SX1278_RLEN
                                    245 	.globl _X_IEEE_ADDR
                                    246 	.globl _X_INFOPAGE
                                    247 	.globl _X_P2DIR
                                    248 	.globl _X_P1DIR
                                    249 	.globl _X_P0DIR
                                    250 	.globl _X_U1GCR
                                    251 	.globl _X_U1UCR
                                    252 	.globl _X_U1BAUD
                                    253 	.globl _X_U1DBUF
                                    254 	.globl _X_U1CSR
                                    255 	.globl _X_P2INP
                                    256 	.globl _X_P1INP
                                    257 	.globl _X_P2SEL
                                    258 	.globl _X_P1SEL
                                    259 	.globl _X_P0SEL
                                    260 	.globl _X_APCFG
                                    261 	.globl _X_PERCFG
                                    262 	.globl _X_T4CC1
                                    263 	.globl _X_T4CCTL1
                                    264 	.globl _X_T4CC0
                                    265 	.globl _X_T4CCTL0
                                    266 	.globl _X_T4CTL
                                    267 	.globl _X_T4CNT
                                    268 	.globl _X_RFIRQF0
                                    269 	.globl _X_T1CCTL2
                                    270 	.globl _X_T1CCTL1
                                    271 	.globl _X_T1CCTL0
                                    272 	.globl _X_T1CTL
                                    273 	.globl _X_T1CNTH
                                    274 	.globl _X_T1CNTL
                                    275 	.globl _X_RFST
                                    276 	.globl _X_T1CC2H
                                    277 	.globl _X_T1CC2L
                                    278 	.globl _X_T1CC1H
                                    279 	.globl _X_T1CC1L
                                    280 	.globl _X_T1CC0H
                                    281 	.globl _X_T1CC0L
                                    282 	.globl _X_RFD
                                    283 	.globl _X_TIMIF
                                    284 	.globl _X_DMAREQ
                                    285 	.globl _X_DMAARM
                                    286 	.globl _X_DMA0CFGH
                                    287 	.globl _X_DMA0CFGL
                                    288 	.globl _X_DMA1CFGH
                                    289 	.globl _X_DMA1CFGL
                                    290 	.globl _X_DMAIRQ
                                    291 	.globl _X_T3CC1
                                    292 	.globl _X_T3CCTL1
                                    293 	.globl _X_T3CC0
                                    294 	.globl _X_T3CCTL0
                                    295 	.globl _X_T3CTL
                                    296 	.globl _X_T3CNT
                                    297 	.globl _X_WDCTL
                                    298 	.globl _X_MEMCTR
                                    299 	.globl _X_CLKCONCMD
                                    300 	.globl _X_U0GCR
                                    301 	.globl _X_U0UCR
                                    302 	.globl _X_T2MSEL
                                    303 	.globl _X_U0BAUD
                                    304 	.globl _X_U0DBUF
                                    305 	.globl _X_RFERRF
                                    306 	.globl _X_SLEEPCMD
                                    307 	.globl _X_RNDH
                                    308 	.globl _X_RNDL
                                    309 	.globl _X_ADCH
                                    310 	.globl _X_ADCL
                                    311 	.globl _X_ADCCON3
                                    312 	.globl _X_ADCCON2
                                    313 	.globl _X_ADCCON1
                                    314 	.globl _X_ENCCS
                                    315 	.globl _X_ENCDO
                                    316 	.globl _X_ENCDI
                                    317 	.globl _X_T1STAT
                                    318 	.globl _X_PMUX
                                    319 	.globl _X_STLOAD
                                    320 	.globl _X_P2IEN
                                    321 	.globl _X_P0IEN
                                    322 	.globl _X_T2IRQM
                                    323 	.globl _X_T2MOVF2
                                    324 	.globl _X_T2MOVF1
                                    325 	.globl _X_T2MOVF0
                                    326 	.globl _X_T2M1
                                    327 	.globl _X_T2M0
                                    328 	.globl _X_T2IRQF
                                    329 	.globl _X_P2
                                    330 	.globl _X_PSBANK
                                    331 	.globl _X_FMAP
                                    332 	.globl _X_CLKCONSTA
                                    333 	.globl _X_SLEEPSTA
                                    334 	.globl _X_T2EVTCFG
                                    335 	.globl _X_ST2
                                    336 	.globl _X_ST1
                                    337 	.globl _X_ST0
                                    338 	.globl _X_T2CTRL
                                    339 	.globl _X__XPAGE
                                    340 	.globl _X_MPAGE
                                    341 	.globl _X_RFIRQF1
                                    342 	.globl _X_P1
                                    343 	.globl _X_P0INP
                                    344 	.globl _X_P1IEN
                                    345 	.globl _X_PICTL
                                    346 	.globl _X_P2IFG
                                    347 	.globl _X_P1IFG
                                    348 	.globl _X_P0IFG
                                    349 	.globl _X_U0CSR
                                    350 	.globl _X_P0
                                    351 	.globl _USBF5
                                    352 	.globl _USBF4
                                    353 	.globl _USBF3
                                    354 	.globl _USBF2
                                    355 	.globl _USBF1
                                    356 	.globl _USBF0
                                    357 	.globl _USBCNTH
                                    358 	.globl _USBCNTL
                                    359 	.globl _USBCNT0
                                    360 	.globl _USBCSOH
                                    361 	.globl _USBCSOL
                                    362 	.globl _USBMAXO
                                    363 	.globl _USBCSIH
                                    364 	.globl _USBCSIL
                                    365 	.globl _USBCS0
                                    366 	.globl _USBMAXI
                                    367 	.globl _USBCTRL
                                    368 	.globl _USBINDEX
                                    369 	.globl _USBFRMH
                                    370 	.globl _USBFRML
                                    371 	.globl _USBCIE
                                    372 	.globl _USBOIE
                                    373 	.globl _USBIIE
                                    374 	.globl _USBCIF
                                    375 	.globl _USBOIF
                                    376 	.globl _USBIIF
                                    377 	.globl _USBPOW
                                    378 	.globl _USBADDR
                                    379 	.globl _CSPT
                                    380 	.globl _CSPZ
                                    381 	.globl _CSPY
                                    382 	.globl _CSPX
                                    383 	.globl _CSPSTAT
                                    384 	.globl _CSPCTRL
                                    385 	.globl _CSPPROG23
                                    386 	.globl _CSPPROG22
                                    387 	.globl _CSPPROG21
                                    388 	.globl _CSPPROG20
                                    389 	.globl _CSPPROG19
                                    390 	.globl _CSPPROG18
                                    391 	.globl _CSPPROG17
                                    392 	.globl _CSPPROG16
                                    393 	.globl _CSPPROG15
                                    394 	.globl _CSPPROG14
                                    395 	.globl _CSPPROG13
                                    396 	.globl _CSPPROG12
                                    397 	.globl _CSPPROG11
                                    398 	.globl _CSPPROG10
                                    399 	.globl _CSPPROG9
                                    400 	.globl _CSPPROG8
                                    401 	.globl _CSPPROG7
                                    402 	.globl _CSPPROG6
                                    403 	.globl _CSPPROG5
                                    404 	.globl _CSPPROG4
                                    405 	.globl _CSPPROG3
                                    406 	.globl _CSPPROG2
                                    407 	.globl _CSPPROG1
                                    408 	.globl _CSPPROG0
                                    409 	.globl _RFC_OBS_CTRL2
                                    410 	.globl _RFC_OBS_CTRL1
                                    411 	.globl _RFC_OBS_CTRL0
                                    412 	.globl _TXFILTCFG
                                    413 	.globl _PTEST1
                                    414 	.globl _PTEST0
                                    415 	.globl _ATEST
                                    416 	.globl _DACTEST2
                                    417 	.globl _DACTEST1
                                    418 	.globl _DACTEST0
                                    419 	.globl _MDMTEST1
                                    420 	.globl _MDMTEST0
                                    421 	.globl _ADCTEST2
                                    422 	.globl _ADCTEST1
                                    423 	.globl _ADCTEST0
                                    424 	.globl _AGCCTRL3
                                    425 	.globl _AGCCTRL2
                                    426 	.globl _AGCCTRL1
                                    427 	.globl _AGCCTRL0
                                    428 	.globl _FSCAL3
                                    429 	.globl _FSCAL2
                                    430 	.globl _FSCAL1
                                    431 	.globl _FSCAL0
                                    432 	.globl _FSCTRL
                                    433 	.globl _RXCTRL
                                    434 	.globl _FREQEST
                                    435 	.globl _MDMCTRL1
                                    436 	.globl _MDMCTRL0
                                    437 	.globl _RFRND
                                    438 	.globl _RFERRM
                                    439 	.globl _RFIRQM1
                                    440 	.globl _RFIRQM0
                                    441 	.globl _TXLAST_PTR
                                    442 	.globl _TXFIRST_PTR
                                    443 	.globl _RXP1_PTR
                                    444 	.globl _RXLAST_PTR
                                    445 	.globl _RXFIRST_PTR
                                    446 	.globl _TXFIFOCNT
                                    447 	.globl _RXFIFOCNT
                                    448 	.globl _RXFIRST
                                    449 	.globl _RSSISTAT
                                    450 	.globl _RSSI
                                    451 	.globl _CCACTRL1
                                    452 	.globl _CCACTRL0
                                    453 	.globl _FSMCTRL
                                    454 	.globl _FIFOPCTRL
                                    455 	.globl _FSMSTAT1
                                    456 	.globl _FSMSTAT0
                                    457 	.globl _TXCTRL
                                    458 	.globl _TXPOWER
                                    459 	.globl _FREQCTRL
                                    460 	.globl _FREQTUNE
                                    461 	.globl _RXMASKCLR
                                    462 	.globl _RXMASKSET
                                    463 	.globl _RXENABLE
                                    464 	.globl _FRMCTRL1
                                    465 	.globl _FRMCTRL0
                                    466 	.globl _SRCEXTEN2
                                    467 	.globl _SRCEXTEN1
                                    468 	.globl _SRCEXTEN0
                                    469 	.globl _SRCSHORTEN2
                                    470 	.globl _SRCSHORTEN1
                                    471 	.globl _SRCSHORTEN0
                                    472 	.globl _SRCMATCH
                                    473 	.globl _FRMFILT1
                                    474 	.globl _FRMFILT0
                                    475 	.globl _SHORT_ADDR1
                                    476 	.globl _SHORT_ADDR0
                                    477 	.globl _PAN_ID1
                                    478 	.globl _PAN_ID0
                                    479 	.globl _EXT_ADDR7
                                    480 	.globl _EXT_ADDR6
                                    481 	.globl _EXT_ADDR5
                                    482 	.globl _EXT_ADDR4
                                    483 	.globl _EXT_ADDR3
                                    484 	.globl _EXT_ADDR2
                                    485 	.globl _EXT_ADDR1
                                    486 	.globl _EXT_ADDR0
                                    487 	.globl _SRCSHORTPENDEN2
                                    488 	.globl _SRCSHORTPENDEN1
                                    489 	.globl _SRCSHORTPENDEN0
                                    490 	.globl _SRCEXTPENDEN2
                                    491 	.globl _SRCEXTPENDEN1
                                    492 	.globl _SRCEXTPENDEN0
                                    493 	.globl _SRCRESINDEX
                                    494 	.globl _SRCRESMASK2
                                    495 	.globl _SRCRESMASK1
                                    496 	.globl _SRCRESMASK0
                                    497 	.globl _SRC_ADDR_TABLE
                                    498 	.globl _TXFIFO
                                    499 	.globl _RXFIFO
                                    500 	.globl _RFCORE_RAM
                                    501 	.globl _CMPCTL
                                    502 	.globl _OPAMPS
                                    503 	.globl _OPAMPC
                                    504 	.globl _STCV2
                                    505 	.globl _STCV1
                                    506 	.globl _STCV0
                                    507 	.globl _STCS
                                    508 	.globl _STCC
                                    509 	.globl _T1CC4H
                                    510 	.globl _T1CC4L
                                    511 	.globl _T1CC3H
                                    512 	.globl _T1CC3L
                                    513 	.globl _XX_T1CC2H
                                    514 	.globl _XX_T1CC2L
                                    515 	.globl _XX_T1CC1H
                                    516 	.globl _XX_T1CC1L
                                    517 	.globl _XX_T1CC0H
                                    518 	.globl _XX_T1CC0L
                                    519 	.globl _T1CCTL4
                                    520 	.globl _T1CCTL3
                                    521 	.globl _XX_T1CCTL2
                                    522 	.globl _XX_T1CCTL1
                                    523 	.globl _XX_T1CCTL0
                                    524 	.globl _CLD
                                    525 	.globl _IRCTL
                                    526 	.globl _CHIPINFO1
                                    527 	.globl _CHIPINFO0
                                    528 	.globl _FWDATA
                                    529 	.globl _FADDRH
                                    530 	.globl _FADDRL
                                    531 	.globl _FCTL
                                    532 	.globl _IVCTRL
                                    533 	.globl _BATTMON
                                    534 	.globl _SRCRC
                                    535 	.globl _DBGDATA
                                    536 	.globl _TESTREG0
                                    537 	.globl _CHIPID
                                    538 	.globl _CHVER
                                    539 	.globl _OBSSEL5
                                    540 	.globl _OBSSEL4
                                    541 	.globl _OBSSEL3
                                    542 	.globl _OBSSEL2
                                    543 	.globl _OBSSEL1
                                    544 	.globl _OBSSEL0
                                    545 	.globl _I2CIO
                                    546 	.globl _I2CWC
                                    547 	.globl _I2CADDR
                                    548 	.globl _I2CDATA
                                    549 	.globl _I2CSTAT
                                    550 	.globl _I2CCFG
                                    551 	.globl _OPAMPMC
                                    552 	.globl _MONMUX
                                    553 	.globl _SX1278_Init
                                    554 	.globl _LORA_Init
                                    555 	.globl _SX1278Reset
                                    556 	.globl _SX1276WriteBuffer
                                    557 	.globl _SX1276ReadBuffer
                                    558 	.globl _SX1276LoRaSetOpMode
                                    559 	.globl _SX1276LoRaFsk
                                    560 	.globl _SX1276LoRaSetRFPower
                                    561 	.globl _SX1276LoRaSetNbTrigPeaks
                                    562 	.globl _SX1276LoRaSetSpreadingFactor
                                    563 	.globl _SX1276LoRaSetErrorCoding
                                    564 	.globl _SX1276LoRaSetPacketCrcOn
                                    565 	.globl _SX1276LoRaSetSignalBandwidth
                                    566 	.globl _SX1276LoRaSetImplicitHeaderOn
                                    567 	.globl _SX1276LoRaSetSymbTimeout
                                    568 	.globl _SX1276LoRaSetPayloadLength
                                    569 	.globl _SX1276LoRaSetMobileNode
                                    570 	.globl _SX1276LORA_INT
                                    571 	.globl _FUN_RF_SENDPACKET
                                    572 	.globl _RF_RECEIVE
                                    573 	.globl _SX1278_InteruptHandler
                                    574 	.globl _Sx1278SendLong
                                    575 	.globl _ProcessRecv
                                    576 ;--------------------------------------------------------
                                    577 ; special function registers
                                    578 ;--------------------------------------------------------
                                    579 	.area RSEG    (ABS,DATA)
      000000                        580 	.org 0x0000
                           000080   581 _P0	=	0x0080
                           000081   582 _SP	=	0x0081
                           000082   583 _DPL0	=	0x0082
                           000083   584 _DPH0	=	0x0083
                           000084   585 _DPL1	=	0x0084
                           000085   586 _DPH1	=	0x0085
                           000087   587 _PCON	=	0x0087
                           000088   588 _TCON	=	0x0088
                           000090   589 _P1	=	0x0090
                           000092   590 _DPS	=	0x0092
                           000098   591 _S0CON	=	0x0098
                           00009A   592 _IEN2	=	0x009a
                           00009B   593 _S1CON	=	0x009b
                           0000A0   594 _P2	=	0x00a0
                           0000A8   595 _IEN0	=	0x00a8
                           0000A9   596 _IP0	=	0x00a9
                           0000B8   597 _IEN1	=	0x00b8
                           0000B9   598 _IP1	=	0x00b9
                           0000C0   599 _IRCON	=	0x00c0
                           0000D0   600 _PSW	=	0x00d0
                           0000E0   601 _ACC	=	0x00e0
                           0000E8   602 _IRCON2	=	0x00e8
                           0000F0   603 _B	=	0x00f0
                           0000B4   604 _ADCCON1	=	0x00b4
                           0000B5   605 _ADCCON2	=	0x00b5
                           0000B6   606 _ADCCON3	=	0x00b6
                           0000BA   607 _ADCL	=	0x00ba
                           0000BB   608 _ADCH	=	0x00bb
                           0000BC   609 _RNDL	=	0x00bc
                           0000BD   610 _RNDH	=	0x00bd
                           0000B1   611 _ENCDI	=	0x00b1
                           0000B2   612 _ENCDO	=	0x00b2
                           0000B3   613 _ENCCS	=	0x00b3
                           0000D1   614 _DMAIRQ	=	0x00d1
                           0000D2   615 _DMA1CFGL	=	0x00d2
                           0000D3   616 _DMA1CFGH	=	0x00d3
                           0000D4   617 _DMA0CFGL	=	0x00d4
                           0000D5   618 _DMA0CFGH	=	0x00d5
                           0000D6   619 _DMAARM	=	0x00d6
                           0000D7   620 _DMAREQ	=	0x00d7
                           000089   621 _P0IFG	=	0x0089
                           00008A   622 _P1IFG	=	0x008a
                           00008B   623 _P2IFG	=	0x008b
                           00008C   624 _PICTL	=	0x008c
                           0000AB   625 _P0IEN	=	0x00ab
                           00008D   626 _P1IEN	=	0x008d
                           0000AC   627 _P2IEN	=	0x00ac
                           00008F   628 _P0INP	=	0x008f
                           0000F1   629 _PERCFG	=	0x00f1
                           0000F2   630 _APCFG	=	0x00f2
                           0000F3   631 _P0SEL	=	0x00f3
                           0000F4   632 _P1SEL	=	0x00f4
                           0000F5   633 _P2SEL	=	0x00f5
                           0000F6   634 _P1INP	=	0x00f6
                           0000F7   635 _P2INP	=	0x00f7
                           0000FD   636 _P0DIR	=	0x00fd
                           0000FE   637 _P1DIR	=	0x00fe
                           0000FF   638 _P2DIR	=	0x00ff
                           0000AE   639 _PMUX	=	0x00ae
                           000093   640 _MPAGE	=	0x0093
                           000093   641 __XPAGE	=	0x0093
                           0000C7   642 _MEMCTR	=	0x00c7
                           00009F   643 _FMAP	=	0x009f
                           00009F   644 _PSBANK	=	0x009f
                           000091   645 _RFIRQF1	=	0x0091
                           0000D9   646 _RFD	=	0x00d9
                           0000E1   647 _RFST	=	0x00e1
                           0000E9   648 _RFIRQF0	=	0x00e9
                           0000BF   649 _RFERRF	=	0x00bf
                           000095   650 _ST0	=	0x0095
                           000096   651 _ST1	=	0x0096
                           000097   652 _ST2	=	0x0097
                           0000AD   653 _STLOAD	=	0x00ad
                           0000BE   654 _SLEEPCMD	=	0x00be
                           00009D   655 _SLEEPSTA	=	0x009d
                           0000C6   656 _CLKCONCMD	=	0x00c6
                           00009E   657 _CLKCONSTA	=	0x009e
                           0000DA   658 _T1CC0L	=	0x00da
                           0000DB   659 _T1CC0H	=	0x00db
                           0000DC   660 _T1CC1L	=	0x00dc
                           0000DD   661 _T1CC1H	=	0x00dd
                           0000DE   662 _T1CC2L	=	0x00de
                           0000DF   663 _T1CC2H	=	0x00df
                           0000E2   664 _T1CNTL	=	0x00e2
                           0000E3   665 _T1CNTH	=	0x00e3
                           0000E4   666 _T1CTL	=	0x00e4
                           0000E5   667 _T1CCTL0	=	0x00e5
                           0000E6   668 _T1CCTL1	=	0x00e6
                           0000E7   669 _T1CCTL2	=	0x00e7
                           0000AF   670 _T1STAT	=	0x00af
                           000094   671 _T2CTRL	=	0x0094
                           00009C   672 _T2EVTCFG	=	0x009c
                           0000A1   673 _T2IRQF	=	0x00a1
                           0000A2   674 _T2M0	=	0x00a2
                           0000A3   675 _T2M1	=	0x00a3
                           0000A4   676 _T2MOVF0	=	0x00a4
                           0000A5   677 _T2MOVF1	=	0x00a5
                           0000A6   678 _T2MOVF2	=	0x00a6
                           0000A7   679 _T2IRQM	=	0x00a7
                           0000C3   680 _T2MSEL	=	0x00c3
                           0000CA   681 _T3CNT	=	0x00ca
                           0000CB   682 _T3CTL	=	0x00cb
                           0000CC   683 _T3CCTL0	=	0x00cc
                           0000CD   684 _T3CC0	=	0x00cd
                           0000CE   685 _T3CCTL1	=	0x00ce
                           0000CF   686 _T3CC1	=	0x00cf
                           0000EA   687 _T4CNT	=	0x00ea
                           0000EB   688 _T4CTL	=	0x00eb
                           0000EC   689 _T4CCTL0	=	0x00ec
                           0000ED   690 _T4CC0	=	0x00ed
                           0000EE   691 _T4CCTL1	=	0x00ee
                           0000EF   692 _T4CC1	=	0x00ef
                           0000D8   693 _TIMIF	=	0x00d8
                           000086   694 _U0CSR	=	0x0086
                           0000C1   695 _U0DBUF	=	0x00c1
                           0000C2   696 _U0BAUD	=	0x00c2
                           0000C4   697 _U0UCR	=	0x00c4
                           0000C5   698 _U0GCR	=	0x00c5
                           0000F8   699 _U1CSR	=	0x00f8
                           0000F9   700 _U1DBUF	=	0x00f9
                           0000FA   701 _U1BAUD	=	0x00fa
                           0000FB   702 _U1UCR	=	0x00fb
                           0000FC   703 _U1GCR	=	0x00fc
                           0000C9   704 _WDCTL	=	0x00c9
                                    705 ;--------------------------------------------------------
                                    706 ; special function bits
                                    707 ;--------------------------------------------------------
                                    708 	.area RSEG    (ABS,DATA)
      000000                        709 	.org 0x0000
                           000087   710 _P0_7	=	0x0087
                           000086   711 _P0_6	=	0x0086
                           000085   712 _P0_5	=	0x0085
                           000084   713 _P0_4	=	0x0084
                           000083   714 _P0_3	=	0x0083
                           000082   715 _P0_2	=	0x0082
                           000081   716 _P0_1	=	0x0081
                           000080   717 _P0_0	=	0x0080
                           00008F   718 _URX1IF	=	0x008f
                           00008D   719 _ADCIF	=	0x008d
                           00008B   720 _URX0IF	=	0x008b
                           00008A   721 _IT1	=	0x008a
                           000089   722 _RFERRIF	=	0x0089
                           000088   723 _IT0	=	0x0088
                           000097   724 _P1_7	=	0x0097
                           000096   725 _P1_6	=	0x0096
                           000095   726 _P1_5	=	0x0095
                           000094   727 _P1_4	=	0x0094
                           000093   728 _P1_3	=	0x0093
                           000092   729 _P1_2	=	0x0092
                           000091   730 _P1_1	=	0x0091
                           000090   731 _P1_0	=	0x0090
                           000099   732 _ENCIF_1	=	0x0099
                           000098   733 _ENCIF_0	=	0x0098
                           0000A7   734 _P2_7	=	0x00a7
                           0000A6   735 _P2_6	=	0x00a6
                           0000A5   736 _P2_5	=	0x00a5
                           0000A4   737 _P2_4	=	0x00a4
                           0000A3   738 _P2_3	=	0x00a3
                           0000A2   739 _P2_2	=	0x00a2
                           0000A1   740 _P2_1	=	0x00a1
                           0000A0   741 _P2_0	=	0x00a0
                           0000AF   742 _EA	=	0x00af
                           0000AD   743 _STIE	=	0x00ad
                           0000AC   744 _ENCIE	=	0x00ac
                           0000AB   745 _URX1IE	=	0x00ab
                           0000AA   746 _URX0IE	=	0x00aa
                           0000A9   747 _ADCIE	=	0x00a9
                           0000A8   748 _RFERRIE	=	0x00a8
                           0000BD   749 _P0IE	=	0x00bd
                           0000BC   750 _T4IE	=	0x00bc
                           0000BB   751 _T3IE	=	0x00bb
                           0000BA   752 _T2IE	=	0x00ba
                           0000B9   753 _T1IE	=	0x00b9
                           0000B8   754 _DMAIE	=	0x00b8
                           0000C7   755 _STIF	=	0x00c7
                           0000C5   756 _P0IF	=	0x00c5
                           0000C4   757 _T4IF	=	0x00c4
                           0000C3   758 _T3IF	=	0x00c3
                           0000C2   759 _T2IF	=	0x00c2
                           0000C1   760 _T1IF	=	0x00c1
                           0000C0   761 _DMAIF	=	0x00c0
                           0000D7   762 _CY	=	0x00d7
                           0000D6   763 _AC	=	0x00d6
                           0000D5   764 _F0	=	0x00d5
                           0000D4   765 _RS1	=	0x00d4
                           0000D3   766 _RS0	=	0x00d3
                           0000D2   767 _OV	=	0x00d2
                           0000D1   768 _F1	=	0x00d1
                           0000D0   769 _P	=	0x00d0
                           0000E7   770 _ACC_7	=	0x00e7
                           0000E6   771 _ACC_6	=	0x00e6
                           0000E5   772 _ACC_5	=	0x00e5
                           0000E4   773 _ACC_4	=	0x00e4
                           0000E3   774 _ACC_3	=	0x00e3
                           0000E2   775 _ACC_2	=	0x00e2
                           0000E1   776 _ACC_1	=	0x00e1
                           0000E0   777 _ACC_0	=	0x00e0
                           0000EC   778 _WDTIF	=	0x00ec
                           0000EB   779 _P1IF	=	0x00eb
                           0000EA   780 _UTX1IF	=	0x00ea
                           0000E9   781 _UTX0IF	=	0x00e9
                           0000E8   782 _P2IF	=	0x00e8
                           0000F7   783 _B_7	=	0x00f7
                           0000F6   784 _B_6	=	0x00f6
                           0000F5   785 _B_5	=	0x00f5
                           0000F4   786 _B_4	=	0x00f4
                           0000F3   787 _B_3	=	0x00f3
                           0000F2   788 _B_2	=	0x00f2
                           0000F1   789 _B_1	=	0x00f1
                           0000F0   790 _B_0	=	0x00f0
                           0000DE   791 _OVFIM	=	0x00de
                           0000DD   792 _T4CH1IF	=	0x00dd
                           0000DC   793 _T4CH0IF	=	0x00dc
                           0000DB   794 _T4OVFIF	=	0x00db
                           0000DA   795 _T3CH1IF	=	0x00da
                           0000D9   796 _T3CH0IF	=	0x00d9
                           0000D8   797 _T3OVFIF	=	0x00d8
                           0000FF   798 _MODE	=	0x00ff
                           0000FE   799 _RE	=	0x00fe
                           0000FD   800 _SLAVE	=	0x00fd
                           0000FC   801 _FE	=	0x00fc
                           0000FB   802 _ERR	=	0x00fb
                           0000FA   803 _RX_BYTE	=	0x00fa
                           0000F9   804 _TX_BYTE	=	0x00f9
                           0000F8   805 _ACTIVE	=	0x00f8
                                    806 ;--------------------------------------------------------
                                    807 ; overlayable register banks
                                    808 ;--------------------------------------------------------
                                    809 	.area REG_BANK_0	(REL,OVR,DATA)
      000000                        810 	.ds 8
                                    811 ;--------------------------------------------------------
                                    812 ; internal ram data
                                    813 ;--------------------------------------------------------
                                    814 	.area DSEG    (DATA)
                                    815 ;--------------------------------------------------------
                                    816 ; overlayable items in internal ram 
                                    817 ;--------------------------------------------------------
                                    818 ;--------------------------------------------------------
                                    819 ; indirectly addressable internal ram data
                                    820 ;--------------------------------------------------------
                                    821 	.area ISEG    (DATA)
                                    822 ;--------------------------------------------------------
                                    823 ; absolute internal ram data
                                    824 ;--------------------------------------------------------
                                    825 	.area IABS    (ABS,DATA)
                                    826 	.area IABS    (ABS,DATA)
                                    827 ;--------------------------------------------------------
                                    828 ; bit data
                                    829 ;--------------------------------------------------------
                                    830 	.area BSEG    (BIT)
                                    831 ;--------------------------------------------------------
                                    832 ; paged external ram data
                                    833 ;--------------------------------------------------------
                                    834 	.area PSEG    (PAG,XDATA)
                                    835 ;--------------------------------------------------------
                                    836 ; external ram data
                                    837 ;--------------------------------------------------------
                                    838 	.area XSEG    (XDATA)
                           0061A6   839 _MONMUX	=	0x61a6
                           0061A6   840 _OPAMPMC	=	0x61a6
                           006230   841 _I2CCFG	=	0x6230
                           006231   842 _I2CSTAT	=	0x6231
                           006232   843 _I2CDATA	=	0x6232
                           006233   844 _I2CADDR	=	0x6233
                           006234   845 _I2CWC	=	0x6234
                           006235   846 _I2CIO	=	0x6235
                           006243   847 _OBSSEL0	=	0x6243
                           006244   848 _OBSSEL1	=	0x6244
                           006245   849 _OBSSEL2	=	0x6245
                           006246   850 _OBSSEL3	=	0x6246
                           006247   851 _OBSSEL4	=	0x6247
                           006248   852 _OBSSEL5	=	0x6248
                           006249   853 _CHVER	=	0x6249
                           00624A   854 _CHIPID	=	0x624a
                           00624B   855 _TESTREG0	=	0x624b
                           006260   856 _DBGDATA	=	0x6260
                           006262   857 _SRCRC	=	0x6262
                           006264   858 _BATTMON	=	0x6264
                           006265   859 _IVCTRL	=	0x6265
                           006270   860 _FCTL	=	0x6270
                           006271   861 _FADDRL	=	0x6271
                           006272   862 _FADDRH	=	0x6272
                           006273   863 _FWDATA	=	0x6273
                           006276   864 _CHIPINFO0	=	0x6276
                           006277   865 _CHIPINFO1	=	0x6277
                           006281   866 _IRCTL	=	0x6281
                           006290   867 _CLD	=	0x6290
                           0062A0   868 _XX_T1CCTL0	=	0x62a0
                           0062A1   869 _XX_T1CCTL1	=	0x62a1
                           0062A2   870 _XX_T1CCTL2	=	0x62a2
                           0062A3   871 _T1CCTL3	=	0x62a3
                           0062A4   872 _T1CCTL4	=	0x62a4
                           0062A6   873 _XX_T1CC0L	=	0x62a6
                           0062A7   874 _XX_T1CC0H	=	0x62a7
                           0062A8   875 _XX_T1CC1L	=	0x62a8
                           0062A9   876 _XX_T1CC1H	=	0x62a9
                           0062AA   877 _XX_T1CC2L	=	0x62aa
                           0062AB   878 _XX_T1CC2H	=	0x62ab
                           0062AC   879 _T1CC3L	=	0x62ac
                           0062AD   880 _T1CC3H	=	0x62ad
                           0062AE   881 _T1CC4L	=	0x62ae
                           0062AF   882 _T1CC4H	=	0x62af
                           0062B0   883 _STCC	=	0x62b0
                           0062B1   884 _STCS	=	0x62b1
                           0062B2   885 _STCV0	=	0x62b2
                           0062B3   886 _STCV1	=	0x62b3
                           0062B4   887 _STCV2	=	0x62b4
                           0062C0   888 _OPAMPC	=	0x62c0
                           0062C1   889 _OPAMPS	=	0x62c1
                           0062D0   890 _CMPCTL	=	0x62d0
                           006000   891 _RFCORE_RAM	=	0x6000
                           006000   892 _RXFIFO	=	0x6000
                           006080   893 _TXFIFO	=	0x6080
                           006100   894 _SRC_ADDR_TABLE	=	0x6100
                           006160   895 _SRCRESMASK0	=	0x6160
                           006161   896 _SRCRESMASK1	=	0x6161
                           006162   897 _SRCRESMASK2	=	0x6162
                           006163   898 _SRCRESINDEX	=	0x6163
                           006164   899 _SRCEXTPENDEN0	=	0x6164
                           006165   900 _SRCEXTPENDEN1	=	0x6165
                           006166   901 _SRCEXTPENDEN2	=	0x6166
                           006167   902 _SRCSHORTPENDEN0	=	0x6167
                           006168   903 _SRCSHORTPENDEN1	=	0x6168
                           006169   904 _SRCSHORTPENDEN2	=	0x6169
                           00616A   905 _EXT_ADDR0	=	0x616a
                           00616B   906 _EXT_ADDR1	=	0x616b
                           00616C   907 _EXT_ADDR2	=	0x616c
                           00616D   908 _EXT_ADDR3	=	0x616d
                           00616E   909 _EXT_ADDR4	=	0x616e
                           00616F   910 _EXT_ADDR5	=	0x616f
                           006170   911 _EXT_ADDR6	=	0x6170
                           006171   912 _EXT_ADDR7	=	0x6171
                           006172   913 _PAN_ID0	=	0x6172
                           006173   914 _PAN_ID1	=	0x6173
                           006174   915 _SHORT_ADDR0	=	0x6174
                           006175   916 _SHORT_ADDR1	=	0x6175
                           006180   917 _FRMFILT0	=	0x6180
                           006181   918 _FRMFILT1	=	0x6181
                           006182   919 _SRCMATCH	=	0x6182
                           006183   920 _SRCSHORTEN0	=	0x6183
                           006184   921 _SRCSHORTEN1	=	0x6184
                           006185   922 _SRCSHORTEN2	=	0x6185
                           006186   923 _SRCEXTEN0	=	0x6186
                           006187   924 _SRCEXTEN1	=	0x6187
                           006188   925 _SRCEXTEN2	=	0x6188
                           006189   926 _FRMCTRL0	=	0x6189
                           00618A   927 _FRMCTRL1	=	0x618a
                           00618B   928 _RXENABLE	=	0x618b
                           00618C   929 _RXMASKSET	=	0x618c
                           00618D   930 _RXMASKCLR	=	0x618d
                           00618E   931 _FREQTUNE	=	0x618e
                           00618F   932 _FREQCTRL	=	0x618f
                           006190   933 _TXPOWER	=	0x6190
                           006191   934 _TXCTRL	=	0x6191
                           006192   935 _FSMSTAT0	=	0x6192
                           006193   936 _FSMSTAT1	=	0x6193
                           006194   937 _FIFOPCTRL	=	0x6194
                           006195   938 _FSMCTRL	=	0x6195
                           006196   939 _CCACTRL0	=	0x6196
                           006197   940 _CCACTRL1	=	0x6197
                           006198   941 _RSSI	=	0x6198
                           006199   942 _RSSISTAT	=	0x6199
                           00619A   943 _RXFIRST	=	0x619a
                           00619B   944 _RXFIFOCNT	=	0x619b
                           00619C   945 _TXFIFOCNT	=	0x619c
                           00619D   946 _RXFIRST_PTR	=	0x619d
                           00619E   947 _RXLAST_PTR	=	0x619e
                           00619F   948 _RXP1_PTR	=	0x619f
                           0061A1   949 _TXFIRST_PTR	=	0x61a1
                           0061A2   950 _TXLAST_PTR	=	0x61a2
                           0061A3   951 _RFIRQM0	=	0x61a3
                           0061A4   952 _RFIRQM1	=	0x61a4
                           0061A5   953 _RFERRM	=	0x61a5
                           0061A7   954 _RFRND	=	0x61a7
                           0061A8   955 _MDMCTRL0	=	0x61a8
                           0061A9   956 _MDMCTRL1	=	0x61a9
                           0061AA   957 _FREQEST	=	0x61aa
                           0061AB   958 _RXCTRL	=	0x61ab
                           0061AC   959 _FSCTRL	=	0x61ac
                           0061AD   960 _FSCAL0	=	0x61ad
                           0061AE   961 _FSCAL1	=	0x61ae
                           0061AF   962 _FSCAL2	=	0x61af
                           0061B0   963 _FSCAL3	=	0x61b0
                           0061B1   964 _AGCCTRL0	=	0x61b1
                           0061B2   965 _AGCCTRL1	=	0x61b2
                           0061B3   966 _AGCCTRL2	=	0x61b3
                           0061B4   967 _AGCCTRL3	=	0x61b4
                           0061B5   968 _ADCTEST0	=	0x61b5
                           0061B6   969 _ADCTEST1	=	0x61b6
                           0061B7   970 _ADCTEST2	=	0x61b7
                           0061B8   971 _MDMTEST0	=	0x61b8
                           0061B9   972 _MDMTEST1	=	0x61b9
                           0061BA   973 _DACTEST0	=	0x61ba
                           0061BB   974 _DACTEST1	=	0x61bb
                           0061BC   975 _DACTEST2	=	0x61bc
                           0061BD   976 _ATEST	=	0x61bd
                           0061BE   977 _PTEST0	=	0x61be
                           0061BF   978 _PTEST1	=	0x61bf
                           0061FA   979 _TXFILTCFG	=	0x61fa
                           0061EB   980 _RFC_OBS_CTRL0	=	0x61eb
                           0061EC   981 _RFC_OBS_CTRL1	=	0x61ec
                           0061ED   982 _RFC_OBS_CTRL2	=	0x61ed
                           0061C0   983 _CSPPROG0	=	0x61c0
                           0061C1   984 _CSPPROG1	=	0x61c1
                           0061C2   985 _CSPPROG2	=	0x61c2
                           0061C3   986 _CSPPROG3	=	0x61c3
                           0061C4   987 _CSPPROG4	=	0x61c4
                           0061C5   988 _CSPPROG5	=	0x61c5
                           0061C6   989 _CSPPROG6	=	0x61c6
                           0061C7   990 _CSPPROG7	=	0x61c7
                           0061C8   991 _CSPPROG8	=	0x61c8
                           0061C9   992 _CSPPROG9	=	0x61c9
                           0061CA   993 _CSPPROG10	=	0x61ca
                           0061CB   994 _CSPPROG11	=	0x61cb
                           0061CC   995 _CSPPROG12	=	0x61cc
                           0061CD   996 _CSPPROG13	=	0x61cd
                           0061CE   997 _CSPPROG14	=	0x61ce
                           0061CF   998 _CSPPROG15	=	0x61cf
                           0061D0   999 _CSPPROG16	=	0x61d0
                           0061D1  1000 _CSPPROG17	=	0x61d1
                           0061D2  1001 _CSPPROG18	=	0x61d2
                           0061D3  1002 _CSPPROG19	=	0x61d3
                           0061D4  1003 _CSPPROG20	=	0x61d4
                           0061D5  1004 _CSPPROG21	=	0x61d5
                           0061D6  1005 _CSPPROG22	=	0x61d6
                           0061D7  1006 _CSPPROG23	=	0x61d7
                           0061E0  1007 _CSPCTRL	=	0x61e0
                           0061E1  1008 _CSPSTAT	=	0x61e1
                           0061E2  1009 _CSPX	=	0x61e2
                           0061E3  1010 _CSPY	=	0x61e3
                           0061E4  1011 _CSPZ	=	0x61e4
                           0061E5  1012 _CSPT	=	0x61e5
                           006200  1013 _USBADDR	=	0x6200
                           006201  1014 _USBPOW	=	0x6201
                           006202  1015 _USBIIF	=	0x6202
                           006204  1016 _USBOIF	=	0x6204
                           006206  1017 _USBCIF	=	0x6206
                           006207  1018 _USBIIE	=	0x6207
                           006209  1019 _USBOIE	=	0x6209
                           00620B  1020 _USBCIE	=	0x620b
                           00620C  1021 _USBFRML	=	0x620c
                           00620D  1022 _USBFRMH	=	0x620d
                           00620E  1023 _USBINDEX	=	0x620e
                           00620F  1024 _USBCTRL	=	0x620f
                           006210  1025 _USBMAXI	=	0x6210
                           006211  1026 _USBCS0	=	0x6211
                           006211  1027 _USBCSIL	=	0x6211
                           006212  1028 _USBCSIH	=	0x6212
                           006213  1029 _USBMAXO	=	0x6213
                           006214  1030 _USBCSOL	=	0x6214
                           006215  1031 _USBCSOH	=	0x6215
                           006216  1032 _USBCNT0	=	0x6216
                           006216  1033 _USBCNTL	=	0x6216
                           006217  1034 _USBCNTH	=	0x6217
                           006220  1035 _USBF0	=	0x6220
                           006222  1036 _USBF1	=	0x6222
                           006224  1037 _USBF2	=	0x6224
                           006226  1038 _USBF3	=	0x6226
                           006228  1039 _USBF4	=	0x6228
                           00622A  1040 _USBF5	=	0x622a
                           007080  1041 _X_P0	=	0x7080
                           007086  1042 _X_U0CSR	=	0x7086
                           007089  1043 _X_P0IFG	=	0x7089
                           00708A  1044 _X_P1IFG	=	0x708a
                           00708B  1045 _X_P2IFG	=	0x708b
                           00708C  1046 _X_PICTL	=	0x708c
                           00708D  1047 _X_P1IEN	=	0x708d
                           00708F  1048 _X_P0INP	=	0x708f
                           007090  1049 _X_P1	=	0x7090
                           007091  1050 _X_RFIRQF1	=	0x7091
                           007093  1051 _X_MPAGE	=	0x7093
                           007093  1052 _X__XPAGE	=	0x7093
                           007094  1053 _X_T2CTRL	=	0x7094
                           007095  1054 _X_ST0	=	0x7095
                           007096  1055 _X_ST1	=	0x7096
                           007097  1056 _X_ST2	=	0x7097
                           00709C  1057 _X_T2EVTCFG	=	0x709c
                           00709D  1058 _X_SLEEPSTA	=	0x709d
                           00709E  1059 _X_CLKCONSTA	=	0x709e
                           00709F  1060 _X_FMAP	=	0x709f
                           00709F  1061 _X_PSBANK	=	0x709f
                           0070A0  1062 _X_P2	=	0x70a0
                           0070A1  1063 _X_T2IRQF	=	0x70a1
                           0070A2  1064 _X_T2M0	=	0x70a2
                           0070A3  1065 _X_T2M1	=	0x70a3
                           0070A4  1066 _X_T2MOVF0	=	0x70a4
                           0070A5  1067 _X_T2MOVF1	=	0x70a5
                           0070A6  1068 _X_T2MOVF2	=	0x70a6
                           0070A7  1069 _X_T2IRQM	=	0x70a7
                           0070AB  1070 _X_P0IEN	=	0x70ab
                           0070AC  1071 _X_P2IEN	=	0x70ac
                           0070AD  1072 _X_STLOAD	=	0x70ad
                           0070AE  1073 _X_PMUX	=	0x70ae
                           0070AF  1074 _X_T1STAT	=	0x70af
                           0070B1  1075 _X_ENCDI	=	0x70b1
                           0070B2  1076 _X_ENCDO	=	0x70b2
                           0070B3  1077 _X_ENCCS	=	0x70b3
                           0070B4  1078 _X_ADCCON1	=	0x70b4
                           0070B5  1079 _X_ADCCON2	=	0x70b5
                           0070B6  1080 _X_ADCCON3	=	0x70b6
                           0070BA  1081 _X_ADCL	=	0x70ba
                           0070BB  1082 _X_ADCH	=	0x70bb
                           0070BC  1083 _X_RNDL	=	0x70bc
                           0070BD  1084 _X_RNDH	=	0x70bd
                           0070BE  1085 _X_SLEEPCMD	=	0x70be
                           0070BF  1086 _X_RFERRF	=	0x70bf
                           0070C1  1087 _X_U0DBUF	=	0x70c1
                           0070C2  1088 _X_U0BAUD	=	0x70c2
                           0070C3  1089 _X_T2MSEL	=	0x70c3
                           0070C4  1090 _X_U0UCR	=	0x70c4
                           0070C5  1091 _X_U0GCR	=	0x70c5
                           0070C6  1092 _X_CLKCONCMD	=	0x70c6
                           0070C7  1093 _X_MEMCTR	=	0x70c7
                           0070C9  1094 _X_WDCTL	=	0x70c9
                           0070CA  1095 _X_T3CNT	=	0x70ca
                           0070CB  1096 _X_T3CTL	=	0x70cb
                           0070CC  1097 _X_T3CCTL0	=	0x70cc
                           0070CD  1098 _X_T3CC0	=	0x70cd
                           0070CE  1099 _X_T3CCTL1	=	0x70ce
                           0070CF  1100 _X_T3CC1	=	0x70cf
                           0070D1  1101 _X_DMAIRQ	=	0x70d1
                           0070D2  1102 _X_DMA1CFGL	=	0x70d2
                           0070D3  1103 _X_DMA1CFGH	=	0x70d3
                           0070D4  1104 _X_DMA0CFGL	=	0x70d4
                           0070D5  1105 _X_DMA0CFGH	=	0x70d5
                           0070D6  1106 _X_DMAARM	=	0x70d6
                           0070D7  1107 _X_DMAREQ	=	0x70d7
                           0070D8  1108 _X_TIMIF	=	0x70d8
                           0070D9  1109 _X_RFD	=	0x70d9
                           0070DA  1110 _X_T1CC0L	=	0x70da
                           0070DB  1111 _X_T1CC0H	=	0x70db
                           0070DC  1112 _X_T1CC1L	=	0x70dc
                           0070DD  1113 _X_T1CC1H	=	0x70dd
                           0070DE  1114 _X_T1CC2L	=	0x70de
                           0070DF  1115 _X_T1CC2H	=	0x70df
                           0070E1  1116 _X_RFST	=	0x70e1
                           0070E2  1117 _X_T1CNTL	=	0x70e2
                           0070E3  1118 _X_T1CNTH	=	0x70e3
                           0070E4  1119 _X_T1CTL	=	0x70e4
                           0070E5  1120 _X_T1CCTL0	=	0x70e5
                           0070E6  1121 _X_T1CCTL1	=	0x70e6
                           0070E7  1122 _X_T1CCTL2	=	0x70e7
                           0070E9  1123 _X_RFIRQF0	=	0x70e9
                           0070EA  1124 _X_T4CNT	=	0x70ea
                           0070EB  1125 _X_T4CTL	=	0x70eb
                           0070EC  1126 _X_T4CCTL0	=	0x70ec
                           0070ED  1127 _X_T4CC0	=	0x70ed
                           0070EE  1128 _X_T4CCTL1	=	0x70ee
                           0070EF  1129 _X_T4CC1	=	0x70ef
                           0070F1  1130 _X_PERCFG	=	0x70f1
                           0070F2  1131 _X_APCFG	=	0x70f2
                           0070F3  1132 _X_P0SEL	=	0x70f3
                           0070F4  1133 _X_P1SEL	=	0x70f4
                           0070F5  1134 _X_P2SEL	=	0x70f5
                           0070F6  1135 _X_P1INP	=	0x70f6
                           0070F7  1136 _X_P2INP	=	0x70f7
                           0070F8  1137 _X_U1CSR	=	0x70f8
                           0070F9  1138 _X_U1DBUF	=	0x70f9
                           0070FA  1139 _X_U1BAUD	=	0x70fa
                           0070FB  1140 _X_U1UCR	=	0x70fb
                           0070FC  1141 _X_U1GCR	=	0x70fc
                           0070FD  1142 _X_P0DIR	=	0x70fd
                           0070FE  1143 _X_P1DIR	=	0x70fe
                           0070FF  1144 _X_P2DIR	=	0x70ff
                           007800  1145 _X_INFOPAGE	=	0x7800
                           00780C  1146 _X_IEEE_ADDR	=	0x780c
      000000                       1147 _SX1278_RLEN::
      000000                       1148 	.ds 1
      000001                       1149 _RF_EX0_STATUS::
      000001                       1150 	.ds 1
      000002                       1151 _CRC_Value::
      000002                       1152 	.ds 1
      000003                       1153 _SX1276LoRaSetRFFrequency_FreqWord_65536_559:
      000003                       1154 	.ds 4
      000007                       1155 _RF_REC_RLEN_i::
      000007                       1156 	.ds 1
      000008                       1157 _state:
      000008                       1158 	.ds 1
      000009                       1159 _LR_Version::
      000009                       1160 	.ds 1
                                   1161 ;--------------------------------------------------------
                                   1162 ; absolute external ram data
                                   1163 ;--------------------------------------------------------
                                   1164 	.area XABS    (ABS,XDATA)
                                   1165 ;--------------------------------------------------------
                                   1166 ; external initialized ram data
                                   1167 ;--------------------------------------------------------
                                   1168 	.area XISEG   (XDATA)
      000000                       1169 _Frequency::
      000000                       1170 	.ds 3
      000003                       1171 _SpreadingFactor::
      000003                       1172 	.ds 1
      000004                       1173 _CodingRate::
      000004                       1174 	.ds 1
      000005                       1175 _Bw_Frequency::
      000005                       1176 	.ds 1
      000006                       1177 _powerValue::
      000006                       1178 	.ds 1
      000007                       1179 _power_data::
      000007                       1180 	.ds 8
      00000F                       1181 _Wait_FLAG:
      00000F                       1182 	.ds 2
                                   1183 	.area HOME    (CODE)
                                   1184 	.area GSINIT0 (CODE)
                                   1185 	.area GSINIT1 (CODE)
                                   1186 	.area GSINIT2 (CODE)
                                   1187 	.area GSINIT3 (CODE)
                                   1188 	.area GSINIT4 (CODE)
                                   1189 	.area GSINIT5 (CODE)
                                   1190 	.area GSINIT  (CODE)
                                   1191 	.area GSFINAL (CODE)
                                   1192 	.area CSEG    (CODE)
                                   1193 ;--------------------------------------------------------
                                   1194 ; global & static initialisations
                                   1195 ;--------------------------------------------------------
                                   1196 	.area HOME    (CODE)
                                   1197 	.area GSINIT  (CODE)
                                   1198 	.area GSFINAL (CODE)
                                   1199 	.area GSINIT  (CODE)
                                   1200 ;--------------------------------------------------------
                                   1201 ; Home
                                   1202 ;--------------------------------------------------------
                                   1203 	.area HOME    (CODE)
                                   1204 	.area HOME    (CODE)
                                   1205 ;--------------------------------------------------------
                                   1206 ; code
                                   1207 ;--------------------------------------------------------
                                   1208 	.area BANK1   (CODE)
                                   1209 ;------------------------------------------------------------
                                   1210 ;Allocation info for local variables in function 'SX1278_Init'
                                   1211 ;------------------------------------------------------------
                                   1212 ;	../../../platform/cc2530dk/LORA/LORA.c:6: void SX1278_Init(void)
                                   1213 ;	-----------------------------------------
                                   1214 ;	 function SX1278_Init
                                   1215 ;	-----------------------------------------
      000000                       1216 _SX1278_Init:
                           000007  1217 	ar7 = 0x07
                           000006  1218 	ar6 = 0x06
                           000005  1219 	ar5 = 0x05
                           000004  1220 	ar4 = 0x04
                           000003  1221 	ar3 = 0x03
                           000002  1222 	ar2 = 0x02
                           000001  1223 	ar1 = 0x01
                           000000  1224 	ar0 = 0x00
                                   1225 ;	../../../platform/cc2530dk/LORA/LORA.c:8: P0DIR |= BV(2);// for LED 
      000000 43 FD 04         [24] 1226 	orl	_P0DIR,#0x04
                                   1227 ;	../../../platform/cc2530dk/LORA/LORA.c:9: P1DIR |= BV(6);// for MOSI 	
      000003 43 FE 40         [24] 1228 	orl	_P1DIR,#0x40
                                   1229 ;	../../../platform/cc2530dk/LORA/LORA.c:10: P1DIR |= BV(5);// for SCK
      000006 43 FE 20         [24] 1230 	orl	_P1DIR,#0x20
                                   1231 ;	../../../platform/cc2530dk/LORA/LORA.c:11: P1DIR |= BV(0);// for CS
      000009 43 FE 01         [24] 1232 	orl	_P1DIR,#0x01
                                   1233 ;	../../../platform/cc2530dk/LORA/LORA.c:13: P1DIR &= ~BV(7);// for MISO input
      00000C 53 FE 7F         [24] 1234 	anl	_P1DIR,#0x7f
                                   1235 ;	../../../platform/cc2530dk/LORA/LORA.c:14: P1INP |= BV(7);	
      00000F 43 F6 80         [24] 1236 	orl	_P1INP,#0x80
                                   1237 ;	../../../platform/cc2530dk/LORA/LORA.c:16: P1DIR |= BV(1);// for RST
      000012 43 FE 02         [24] 1238 	orl	_P1DIR,#0x02
                                   1239 ;	../../../platform/cc2530dk/LORA/LORA.c:18: P0DIR &= ~BV(3);// for KEY input
      000015 53 FD F7         [24] 1240 	anl	_P0DIR,#0xf7
                                   1241 ;	../../../platform/cc2530dk/LORA/LORA.c:19: P0INP |= BV(3);	
      000018 43 8F 08         [24] 1242 	orl	_P0INP,#0x08
                                   1243 ;	../../../platform/cc2530dk/LORA/LORA.c:21: LED_SET = 1;
                                   1244 ;	assignBit
      00001B D2 82            [12] 1245 	setb	_P0_2
                                   1246 ;	../../../platform/cc2530dk/LORA/LORA.c:22: SPI_SCK = 0;
                                   1247 ;	assignBit
      00001D C2 95            [12] 1248 	clr	_P1_5
                                   1249 ;	../../../platform/cc2530dk/LORA/LORA.c:23: SX1278_CS_L();
                                   1250 ;	assignBit
      00001F C2 90            [12] 1251 	clr	_P1_0
                                   1252 ;	../../../platform/cc2530dk/LORA/LORA.c:24: }
      000021 02r00r00         [24] 1253 	ljmp	__sdcc_banked_ret
                                   1254 ;------------------------------------------------------------
                                   1255 ;Allocation info for local variables in function 'SPI_RW_Dly'
                                   1256 ;------------------------------------------------------------
                                   1257 ;n                         Allocated to registers 
                                   1258 ;------------------------------------------------------------
                                   1259 ;	../../../platform/cc2530dk/LORA/LORA.c:25: static void SPI_RW_Dly(uint32_t n)
                                   1260 ;	-----------------------------------------
                                   1261 ;	 function SPI_RW_Dly
                                   1262 ;	-----------------------------------------
      000024                       1263 _SPI_RW_Dly:
      000024 AC 82            [24] 1264 	mov	r4,dpl
      000026 AD 83            [24] 1265 	mov	r5,dph
      000028 AE F0            [24] 1266 	mov	r6,b
      00002A FF               [12] 1267 	mov	r7,a
                                   1268 ;	../../../platform/cc2530dk/LORA/LORA.c:27: while(n--);
      00002B                       1269 00101$:
      00002B 8C 00            [24] 1270 	mov	ar0,r4
      00002D 8D 01            [24] 1271 	mov	ar1,r5
      00002F 8E 02            [24] 1272 	mov	ar2,r6
      000031 8F 03            [24] 1273 	mov	ar3,r7
      000033 1C               [12] 1274 	dec	r4
      000034 BC FF 09         [24] 1275 	cjne	r4,#0xff,00111$
      000037 1D               [12] 1276 	dec	r5
      000038 BD FF 05         [24] 1277 	cjne	r5,#0xff,00111$
      00003B 1E               [12] 1278 	dec	r6
      00003C BE FF 01         [24] 1279 	cjne	r6,#0xff,00111$
      00003F 1F               [12] 1280 	dec	r7
      000040                       1281 00111$:
      000040 E8               [12] 1282 	mov	a,r0
      000041 49               [12] 1283 	orl	a,r1
      000042 4A               [12] 1284 	orl	a,r2
      000043 4B               [12] 1285 	orl	a,r3
      000044 70 E5            [24] 1286 	jnz	00101$
                                   1287 ;	../../../platform/cc2530dk/LORA/LORA.c:28: }
      000046 02r00r00         [24] 1288 	ljmp	__sdcc_banked_ret
                                   1289 ;------------------------------------------------------------
                                   1290 ;Allocation info for local variables in function 'SPI1_ReadWriteByte'
                                   1291 ;------------------------------------------------------------
                                   1292 ;TxData                    Allocated to registers r7 
                                   1293 ;SPI_TxData                Allocated to registers r7 
                                   1294 ;k                         Allocated to registers 
                                   1295 ;RetData                   Allocated to registers r6 
                                   1296 ;------------------------------------------------------------
                                   1297 ;	../../../platform/cc2530dk/LORA/LORA.c:29: uint8_t SPI1_ReadWriteByte(uint8_t TxData)
                                   1298 ;	-----------------------------------------
                                   1299 ;	 function SPI1_ReadWriteByte
                                   1300 ;	-----------------------------------------
      000049                       1301 _SPI1_ReadWriteByte:
      000049 AF 82            [24] 1302 	mov	r7,dpl
                                   1303 ;	../../../platform/cc2530dk/LORA/LORA.c:32: uint8_t RetData=0;
      00004B 7E 00            [12] 1304 	mov	r6,#0x00
                                   1305 ;	../../../platform/cc2530dk/LORA/LORA.c:33: SPI_TxData = TxData;
                                   1306 ;	../../../platform/cc2530dk/LORA/LORA.c:35: for(k=0;k<8;k++)
      00004D 7D 00            [12] 1307 	mov	r5,#0x00
      00004F                       1308 00107$:
                                   1309 ;	../../../platform/cc2530dk/LORA/LORA.c:37: if(SPI_TxData&0x80)
      00004F EF               [12] 1310 	mov	a,r7
      000050 30 E7 04         [24] 1311 	jnb	acc.7,00102$
                                   1312 ;	../../../platform/cc2530dk/LORA/LORA.c:39: SPI_MOSI = 1;
                                   1313 ;	assignBit
      000053 D2 96            [12] 1314 	setb	_P1_6
      000055 80 02            [24] 1315 	sjmp	00103$
      000057                       1316 00102$:
                                   1317 ;	../../../platform/cc2530dk/LORA/LORA.c:43: SPI_MOSI = 0;
                                   1318 ;	assignBit
      000057 C2 96            [12] 1319 	clr	_P1_6
      000059                       1320 00103$:
                                   1321 ;	../../../platform/cc2530dk/LORA/LORA.c:45: SPI_RW_Dly(15); 		
      000059 90 00 0F         [24] 1322 	mov	dptr,#(0x0f&0x00ff)
      00005C E4               [12] 1323 	clr	a
      00005D F5 F0            [12] 1324 	mov	b,a
      00005F C0 07            [24] 1325 	push	ar7
      000061 C0 06            [24] 1326 	push	ar6
      000063 C0 05            [24] 1327 	push	ar5
      000065 78r24            [12] 1328 	mov	r0,#_SPI_RW_Dly
      000067 79s00            [12] 1329 	mov	r1,#(_SPI_RW_Dly >> 8)
      000069 7As00            [12] 1330 	mov	r2,#(_SPI_RW_Dly >> 16)
      00006B 12r00r00         [24] 1331 	lcall	__sdcc_banked_call
      00006E D0 05            [24] 1332 	pop	ar5
      000070 D0 06            [24] 1333 	pop	ar6
      000072 D0 07            [24] 1334 	pop	ar7
                                   1335 ;	../../../platform/cc2530dk/LORA/LORA.c:46: SPI_TxData = SPI_TxData <<1;
      000074 8F 04            [24] 1336 	mov	ar4,r7
      000076 EC               [12] 1337 	mov	a,r4
      000077 2C               [12] 1338 	add	a,r4
      000078 FF               [12] 1339 	mov	r7,a
                                   1340 ;	../../../platform/cc2530dk/LORA/LORA.c:47: SPI_RW_Dly(15);
      000079 90 00 0F         [24] 1341 	mov	dptr,#(0x0f&0x00ff)
      00007C E4               [12] 1342 	clr	a
      00007D F5 F0            [12] 1343 	mov	b,a
      00007F C0 07            [24] 1344 	push	ar7
      000081 C0 06            [24] 1345 	push	ar6
      000083 C0 05            [24] 1346 	push	ar5
      000085 78r24            [12] 1347 	mov	r0,#_SPI_RW_Dly
      000087 79s00            [12] 1348 	mov	r1,#(_SPI_RW_Dly >> 8)
      000089 7As00            [12] 1349 	mov	r2,#(_SPI_RW_Dly >> 16)
      00008B 12r00r00         [24] 1350 	lcall	__sdcc_banked_call
      00008E D0 05            [24] 1351 	pop	ar5
      000090 D0 06            [24] 1352 	pop	ar6
      000092 D0 07            [24] 1353 	pop	ar7
                                   1354 ;	../../../platform/cc2530dk/LORA/LORA.c:48: SPI_SCK = 1;
                                   1355 ;	assignBit
      000094 D2 95            [12] 1356 	setb	_P1_5
                                   1357 ;	../../../platform/cc2530dk/LORA/LORA.c:49: RetData = RetData <<1;	
      000096 8E 04            [24] 1358 	mov	ar4,r6
      000098 EC               [12] 1359 	mov	a,r4
      000099 2C               [12] 1360 	add	a,r4
      00009A FE               [12] 1361 	mov	r6,a
                                   1362 ;	../../../platform/cc2530dk/LORA/LORA.c:50: if(SPI_MISO) 
      00009B 30 97 05         [24] 1363 	jnb	_P1_7,00105$
                                   1364 ;	../../../platform/cc2530dk/LORA/LORA.c:52: RetData=RetData+0x01;
      00009E 8E 04            [24] 1365 	mov	ar4,r6
      0000A0 EC               [12] 1366 	mov	a,r4
      0000A1 04               [12] 1367 	inc	a
      0000A2 FE               [12] 1368 	mov	r6,a
      0000A3                       1369 00105$:
                                   1370 ;	../../../platform/cc2530dk/LORA/LORA.c:54: SPI_SCK = 0;
                                   1371 ;	assignBit
      0000A3 C2 95            [12] 1372 	clr	_P1_5
                                   1373 ;	../../../platform/cc2530dk/LORA/LORA.c:35: for(k=0;k<8;k++)
      0000A5 0D               [12] 1374 	inc	r5
      0000A6 BD 08 00         [24] 1375 	cjne	r5,#0x08,00130$
      0000A9                       1376 00130$:
      0000A9 40 A4            [24] 1377 	jc	00107$
                                   1378 ;	../../../platform/cc2530dk/LORA/LORA.c:56: SPI_SCK = 0;
                                   1379 ;	assignBit
      0000AB C2 95            [12] 1380 	clr	_P1_5
                                   1381 ;	../../../platform/cc2530dk/LORA/LORA.c:57: return(RetData);       // return read byte        
      0000AD 8E 82            [24] 1382 	mov	dpl,r6
                                   1383 ;	../../../platform/cc2530dk/LORA/LORA.c:58: }
      0000AF 02r00r00         [24] 1384 	ljmp	__sdcc_banked_ret
                                   1385 ;------------------------------------------------------------
                                   1386 ;Allocation info for local variables in function 'LORA_Init'
                                   1387 ;------------------------------------------------------------
                                   1388 ;freq                      Allocated to registers r6 r7 
                                   1389 ;------------------------------------------------------------
                                   1390 ;	../../../platform/cc2530dk/LORA/LORA.c:60: void LORA_Init(uint16_t freq)
                                   1391 ;	-----------------------------------------
                                   1392 ;	 function LORA_Init
                                   1393 ;	-----------------------------------------
      0000B2                       1394 _LORA_Init:
      0000B2 AE 82            [24] 1395 	mov	r6,dpl
      0000B4 AF 83            [24] 1396 	mov	r7,dph
                                   1397 ;	../../../platform/cc2530dk/LORA/LORA.c:62: SX1278_Init();
      0000B6 C0 07            [24] 1398 	push	ar7
      0000B8 C0 06            [24] 1399 	push	ar6
      0000BA 78r00            [12] 1400 	mov	r0,#_SX1278_Init
      0000BC 79s00            [12] 1401 	mov	r1,#(_SX1278_Init >> 8)
      0000BE 7As00            [12] 1402 	mov	r2,#(_SX1278_Init >> 16)
      0000C0 12r00r00         [24] 1403 	lcall	__sdcc_banked_call
                                   1404 ;	../../../platform/cc2530dk/LORA/LORA.c:63: SX1278Reset();
      0000C3 78r13            [12] 1405 	mov	r0,#_SX1278Reset
      0000C5 79s01            [12] 1406 	mov	r1,#(_SX1278Reset >> 8)
      0000C7 7As00            [12] 1407 	mov	r2,#(_SX1278Reset >> 16)
      0000C9 12r00r00         [24] 1408 	lcall	__sdcc_banked_call
      0000CC D0 06            [24] 1409 	pop	ar6
      0000CE D0 07            [24] 1410 	pop	ar7
                                   1411 ;	../../../platform/cc2530dk/LORA/LORA.c:64: SX1276LORA_INT(freq);
      0000D0 8E 82            [24] 1412 	mov	dpl,r6
      0000D2 8F 83            [24] 1413 	mov	dph,r7
      0000D4 78rFE            [12] 1414 	mov	r0,#_SX1276LORA_INT
      0000D6 79s04            [12] 1415 	mov	r1,#(_SX1276LORA_INT >> 8)
      0000D8 7As00            [12] 1416 	mov	r2,#(_SX1276LORA_INT >> 16)
      0000DA 12r00r00         [24] 1417 	lcall	__sdcc_banked_call
                                   1418 ;	../../../platform/cc2530dk/LORA/LORA.c:65: SX1278_RLEN = 0; 
      0000DD 90r00r00         [24] 1419 	mov	dptr,#_SX1278_RLEN
      0000E0 E4               [12] 1420 	clr	a
      0000E1 F0               [24] 1421 	movx	@dptr,a
                                   1422 ;	../../../platform/cc2530dk/LORA/LORA.c:67: if(SX1276ReadBuffer(REG_LR_VERSION) == 0x12)
      0000E2 75 82 42         [24] 1423 	mov	dpl,#0x42
      0000E5 78r7B            [12] 1424 	mov	r0,#_SX1276ReadBuffer
      0000E7 79s01            [12] 1425 	mov	r1,#(_SX1276ReadBuffer >> 8)
      0000E9 7As00            [12] 1426 	mov	r2,#(_SX1276ReadBuffer >> 16)
      0000EB 12r00r00         [24] 1427 	lcall	__sdcc_banked_call
      0000EE AF 82            [24] 1428 	mov	r7,dpl
      0000F0 BF 12 1D         [24] 1429 	cjne	r7,#0x12,00103$
                                   1430 ;	../../../platform/cc2530dk/LORA/LORA.c:69: LED_SET=0;
                                   1431 ;	assignBit
      0000F3 C2 82            [12] 1432 	clr	_P0_2
                                   1433 ;	../../../platform/cc2530dk/LORA/LORA.c:70: printf("lora on\r\n");
      0000F5 74r00            [12] 1434 	mov	a,#___str_0
      0000F7 C0 E0            [24] 1435 	push	acc
      0000F9 74s00            [12] 1436 	mov	a,#(___str_0 >> 8)
      0000FB C0 E0            [24] 1437 	push	acc
      0000FD 74 80            [12] 1438 	mov	a,#0x80
      0000FF C0 E0            [24] 1439 	push	acc
      000101 78r00            [12] 1440 	mov	r0,#_printf
      000103 79s00            [12] 1441 	mov	r1,#(_printf >> 8)
      000105 7As00            [12] 1442 	mov	r2,#(_printf >> 16)
      000107 12r00r00         [24] 1443 	lcall	__sdcc_banked_call
      00010A 15 81            [12] 1444 	dec	sp
      00010C 15 81            [12] 1445 	dec	sp
      00010E 15 81            [12] 1446 	dec	sp
      000110                       1447 00103$:
                                   1448 ;	../../../platform/cc2530dk/LORA/LORA.c:72: }
      000110 02r00r00         [24] 1449 	ljmp	__sdcc_banked_ret
                                   1450 ;------------------------------------------------------------
                                   1451 ;Allocation info for local variables in function 'SX1278Reset'
                                   1452 ;------------------------------------------------------------
                                   1453 ;i                         Allocated to registers 
                                   1454 ;------------------------------------------------------------
                                   1455 ;	../../../platform/cc2530dk/LORA/LORA.c:87: void SX1278Reset(void)
                                   1456 ;	-----------------------------------------
                                   1457 ;	 function SX1278Reset
                                   1458 ;	-----------------------------------------
      000113                       1459 _SX1278Reset:
                                   1460 ;	../../../platform/cc2530dk/LORA/LORA.c:90: SX1278_RST_L();
                                   1461 ;	assignBit
      000113 C2 91            [12] 1462 	clr	_P1_1
                                   1463 ;	../../../platform/cc2530dk/LORA/LORA.c:91: i=10000;
      000115 7C 10            [12] 1464 	mov	r4,#0x10
      000117 7D 27            [12] 1465 	mov	r5,#0x27
      000119 7E 00            [12] 1466 	mov	r6,#0x00
      00011B 7F 00            [12] 1467 	mov	r7,#0x00
                                   1468 ;	../../../platform/cc2530dk/LORA/LORA.c:92: for(i=i;i>0;i--);
      00011D                       1469 00104$:
      00011D EC               [12] 1470 	mov	a,r4
      00011E 4D               [12] 1471 	orl	a,r5
      00011F 4E               [12] 1472 	orl	a,r6
      000120 4F               [12] 1473 	orl	a,r7
      000121 60 0F            [24] 1474 	jz	00101$
      000123 1C               [12] 1475 	dec	r4
      000124 BC FF 09         [24] 1476 	cjne	r4,#0xff,00138$
      000127 1D               [12] 1477 	dec	r5
      000128 BD FF 05         [24] 1478 	cjne	r5,#0xff,00138$
      00012B 1E               [12] 1479 	dec	r6
      00012C BE FF 01         [24] 1480 	cjne	r6,#0xff,00138$
      00012F 1F               [12] 1481 	dec	r7
      000130                       1482 00138$:
      000130 80 EB            [24] 1483 	sjmp	00104$
      000132                       1484 00101$:
                                   1485 ;	../../../platform/cc2530dk/LORA/LORA.c:93: SX1278_RST_H();
                                   1486 ;	assignBit
      000132 D2 91            [12] 1487 	setb	_P1_1
                                   1488 ;	../../../platform/cc2530dk/LORA/LORA.c:94: i=10000;
      000134 7C 10            [12] 1489 	mov	r4,#0x10
      000136 7D 27            [12] 1490 	mov	r5,#0x27
      000138 7E 00            [12] 1491 	mov	r6,#0x00
      00013A 7F 00            [12] 1492 	mov	r7,#0x00
                                   1493 ;	../../../platform/cc2530dk/LORA/LORA.c:95: for(i=i;i>0;i--);
      00013C                       1494 00107$:
      00013C EC               [12] 1495 	mov	a,r4
      00013D 4D               [12] 1496 	orl	a,r5
      00013E 4E               [12] 1497 	orl	a,r6
      00013F 4F               [12] 1498 	orl	a,r7
      000140 60 0F            [24] 1499 	jz	00109$
      000142 1C               [12] 1500 	dec	r4
      000143 BC FF 09         [24] 1501 	cjne	r4,#0xff,00140$
      000146 1D               [12] 1502 	dec	r5
      000147 BD FF 05         [24] 1503 	cjne	r5,#0xff,00140$
      00014A 1E               [12] 1504 	dec	r6
      00014B BE FF 01         [24] 1505 	cjne	r6,#0xff,00140$
      00014E 1F               [12] 1506 	dec	r7
      00014F                       1507 00140$:
      00014F 80 EB            [24] 1508 	sjmp	00107$
      000151                       1509 00109$:
                                   1510 ;	../../../platform/cc2530dk/LORA/LORA.c:96: }
      000151 02r00r00         [24] 1511 	ljmp	__sdcc_banked_ret
                                   1512 ;------------------------------------------------------------
                                   1513 ;Allocation info for local variables in function 'SX1276WriteBuffer'
                                   1514 ;------------------------------------------------------------
                                   1515 ;buffer                    Allocated to stack - sp -3
                                   1516 ;addr                      Allocated to registers r7 
                                   1517 ;------------------------------------------------------------
                                   1518 ;	../../../platform/cc2530dk/LORA/LORA.c:99: void SX1276WriteBuffer( unsigned char addr, unsigned char buffer)
                                   1519 ;	-----------------------------------------
                                   1520 ;	 function SX1276WriteBuffer
                                   1521 ;	-----------------------------------------
      000154                       1522 _SX1276WriteBuffer:
      000154 AF 82            [24] 1523 	mov	r7,dpl
                                   1524 ;	../../../platform/cc2530dk/LORA/LORA.c:101: SX1278_CS_L(); //NSS = 0;
                                   1525 ;	assignBit
      000156 C2 90            [12] 1526 	clr	_P1_0
                                   1527 ;	../../../platform/cc2530dk/LORA/LORA.c:102: SPI1_ReadWriteByte( addr | 0x80 );
      000158 43 07 80         [24] 1528 	orl	ar7,#0x80
      00015B 8F 82            [24] 1529 	mov	dpl,r7
      00015D 78r49            [12] 1530 	mov	r0,#_SPI1_ReadWriteByte
      00015F 79s00            [12] 1531 	mov	r1,#(_SPI1_ReadWriteByte >> 8)
      000161 7As00            [12] 1532 	mov	r2,#(_SPI1_ReadWriteByte >> 16)
      000163 12r00r00         [24] 1533 	lcall	__sdcc_banked_call
                                   1534 ;	../../../platform/cc2530dk/LORA/LORA.c:103: SPI1_ReadWriteByte( buffer);
      000166 E5 81            [12] 1535 	mov	a,sp
      000168 24 FD            [12] 1536 	add	a,#0xfd
      00016A F8               [12] 1537 	mov	r0,a
      00016B 86 82            [24] 1538 	mov	dpl,@r0
      00016D 78r49            [12] 1539 	mov	r0,#_SPI1_ReadWriteByte
      00016F 79s00            [12] 1540 	mov	r1,#(_SPI1_ReadWriteByte >> 8)
      000171 7As00            [12] 1541 	mov	r2,#(_SPI1_ReadWriteByte >> 16)
      000173 12r00r00         [24] 1542 	lcall	__sdcc_banked_call
                                   1543 ;	../../../platform/cc2530dk/LORA/LORA.c:104: SX1278_CS_H(); //NSS = 1;
                                   1544 ;	assignBit
      000176 D2 90            [12] 1545 	setb	_P1_0
                                   1546 ;	../../../platform/cc2530dk/LORA/LORA.c:106: }
      000178 02r00r00         [24] 1547 	ljmp	__sdcc_banked_ret
                                   1548 ;------------------------------------------------------------
                                   1549 ;Allocation info for local variables in function 'SX1276ReadBuffer'
                                   1550 ;------------------------------------------------------------
                                   1551 ;addr                      Allocated to registers r7 
                                   1552 ;Value                     Allocated to registers r7 
                                   1553 ;------------------------------------------------------------
                                   1554 ;	../../../platform/cc2530dk/LORA/LORA.c:109: uint8_t SX1276ReadBuffer(unsigned char addr)
                                   1555 ;	-----------------------------------------
                                   1556 ;	 function SX1276ReadBuffer
                                   1557 ;	-----------------------------------------
      00017B                       1558 _SX1276ReadBuffer:
      00017B AF 82            [24] 1559 	mov	r7,dpl
                                   1560 ;	../../../platform/cc2530dk/LORA/LORA.c:112: SX1278_CS_L(); //NSS = 0;
                                   1561 ;	assignBit
      00017D C2 90            [12] 1562 	clr	_P1_0
                                   1563 ;	../../../platform/cc2530dk/LORA/LORA.c:113: SPI1_ReadWriteByte( addr & 0x7f  );
      00017F 53 07 7F         [24] 1564 	anl	ar7,#0x7f
      000182 8F 82            [24] 1565 	mov	dpl,r7
      000184 78r49            [12] 1566 	mov	r0,#_SPI1_ReadWriteByte
      000186 79s00            [12] 1567 	mov	r1,#(_SPI1_ReadWriteByte >> 8)
      000188 7As00            [12] 1568 	mov	r2,#(_SPI1_ReadWriteByte >> 16)
      00018A 12r00r00         [24] 1569 	lcall	__sdcc_banked_call
                                   1570 ;	../../../platform/cc2530dk/LORA/LORA.c:114: Value = SPI1_ReadWriteByte(0xff);
      00018D 75 82 FF         [24] 1571 	mov	dpl,#0xff
      000190 78r49            [12] 1572 	mov	r0,#_SPI1_ReadWriteByte
      000192 79s00            [12] 1573 	mov	r1,#(_SPI1_ReadWriteByte >> 8)
      000194 7As00            [12] 1574 	mov	r2,#(_SPI1_ReadWriteByte >> 16)
      000196 12r00r00         [24] 1575 	lcall	__sdcc_banked_call
      000199 AF 82            [24] 1576 	mov	r7,dpl
                                   1577 ;	../../../platform/cc2530dk/LORA/LORA.c:115: SX1278_CS_H();//NSS = 1;
                                   1578 ;	assignBit
      00019B D2 90            [12] 1579 	setb	_P1_0
                                   1580 ;	../../../platform/cc2530dk/LORA/LORA.c:116: return Value; 
      00019D 8F 82            [24] 1581 	mov	dpl,r7
                                   1582 ;	../../../platform/cc2530dk/LORA/LORA.c:117: }
      00019F 02r00r00         [24] 1583 	ljmp	__sdcc_banked_ret
                                   1584 ;------------------------------------------------------------
                                   1585 ;Allocation info for local variables in function 'SX1276LoRaSetOpMode'
                                   1586 ;------------------------------------------------------------
                                   1587 ;opMode                    Allocated to registers r7 
                                   1588 ;opModePrev                Allocated to registers r6 
                                   1589 ;------------------------------------------------------------
                                   1590 ;	../../../platform/cc2530dk/LORA/LORA.c:119: void SX1276LoRaSetOpMode( RFMode_SET opMode )
                                   1591 ;	-----------------------------------------
                                   1592 ;	 function SX1276LoRaSetOpMode
                                   1593 ;	-----------------------------------------
      0001A2                       1594 _SX1276LoRaSetOpMode:
      0001A2 AF 82            [24] 1595 	mov	r7,dpl
                                   1596 ;	../../../platform/cc2530dk/LORA/LORA.c:122: opModePrev=SX1276ReadBuffer(REG_LR_OPMODE);  //0x01
      0001A4 75 82 01         [24] 1597 	mov	dpl,#0x01
      0001A7 C0 07            [24] 1598 	push	ar7
      0001A9 78r7B            [12] 1599 	mov	r0,#_SX1276ReadBuffer
      0001AB 79s01            [12] 1600 	mov	r1,#(_SX1276ReadBuffer >> 8)
      0001AD 7As00            [12] 1601 	mov	r2,#(_SX1276ReadBuffer >> 16)
      0001AF 12r00r00         [24] 1602 	lcall	__sdcc_banked_call
      0001B2 AE 82            [24] 1603 	mov	r6,dpl
      0001B4 D0 07            [24] 1604 	pop	ar7
                                   1605 ;	../../../platform/cc2530dk/LORA/LORA.c:123: opModePrev &=0xf8;  //
      0001B6 53 06 F8         [24] 1606 	anl	ar6,#0xf8
                                   1607 ;	../../../platform/cc2530dk/LORA/LORA.c:124: opModePrev |= (unsigned char)opMode; //
      0001B9 EE               [12] 1608 	mov	a,r6
      0001BA 42 07            [12] 1609 	orl	ar7,a
                                   1610 ;	../../../platform/cc2530dk/LORA/LORA.c:125: SX1276WriteBuffer( REG_LR_OPMODE, opModePrev); //	
      0001BC C0 07            [24] 1611 	push	ar7
      0001BE 75 82 01         [24] 1612 	mov	dpl,#0x01
      0001C1 78r54            [12] 1613 	mov	r0,#_SX1276WriteBuffer
      0001C3 79s01            [12] 1614 	mov	r1,#(_SX1276WriteBuffer >> 8)
      0001C5 7As00            [12] 1615 	mov	r2,#(_SX1276WriteBuffer >> 16)
      0001C7 12r00r00         [24] 1616 	lcall	__sdcc_banked_call
      0001CA 15 81            [12] 1617 	dec	sp
                                   1618 ;	../../../platform/cc2530dk/LORA/LORA.c:126: }
      0001CC 02r00r00         [24] 1619 	ljmp	__sdcc_banked_ret
                                   1620 ;------------------------------------------------------------
                                   1621 ;Allocation info for local variables in function 'SX1276LoRaFsk'
                                   1622 ;------------------------------------------------------------
                                   1623 ;opMode                    Allocated to registers r7 
                                   1624 ;opModePrev                Allocated to registers r6 
                                   1625 ;------------------------------------------------------------
                                   1626 ;	../../../platform/cc2530dk/LORA/LORA.c:128: void SX1276LoRaFsk( Debugging_fsk_ook opMode )
                                   1627 ;	-----------------------------------------
                                   1628 ;	 function SX1276LoRaFsk
                                   1629 ;	-----------------------------------------
      0001CF                       1630 _SX1276LoRaFsk:
      0001CF AF 82            [24] 1631 	mov	r7,dpl
                                   1632 ;	../../../platform/cc2530dk/LORA/LORA.c:131: opModePrev=SX1276ReadBuffer(REG_LR_OPMODE); //0x01
      0001D1 75 82 01         [24] 1633 	mov	dpl,#0x01
      0001D4 C0 07            [24] 1634 	push	ar7
      0001D6 78r7B            [12] 1635 	mov	r0,#_SX1276ReadBuffer
      0001D8 79s01            [12] 1636 	mov	r1,#(_SX1276ReadBuffer >> 8)
      0001DA 7As00            [12] 1637 	mov	r2,#(_SX1276ReadBuffer >> 16)
      0001DC 12r00r00         [24] 1638 	lcall	__sdcc_banked_call
      0001DF AE 82            [24] 1639 	mov	r6,dpl
      0001E1 D0 07            [24] 1640 	pop	ar7
                                   1641 ;	../../../platform/cc2530dk/LORA/LORA.c:132: opModePrev &=0x7F; //
      0001E3 53 06 7F         [24] 1642 	anl	ar6,#0x7f
                                   1643 ;	../../../platform/cc2530dk/LORA/LORA.c:133: opModePrev |= (unsigned char)opMode;  //
      0001E6 EE               [12] 1644 	mov	a,r6
      0001E7 42 07            [12] 1645 	orl	ar7,a
                                   1646 ;	../../../platform/cc2530dk/LORA/LORA.c:134: SX1276WriteBuffer( REG_LR_OPMODE, opModePrev); //		
      0001E9 C0 07            [24] 1647 	push	ar7
      0001EB 75 82 01         [24] 1648 	mov	dpl,#0x01
      0001EE 78r54            [12] 1649 	mov	r0,#_SX1276WriteBuffer
      0001F0 79s01            [12] 1650 	mov	r1,#(_SX1276WriteBuffer >> 8)
      0001F2 7As00            [12] 1651 	mov	r2,#(_SX1276WriteBuffer >> 16)
      0001F4 12r00r00         [24] 1652 	lcall	__sdcc_banked_call
      0001F7 15 81            [12] 1653 	dec	sp
                                   1654 ;	../../../platform/cc2530dk/LORA/LORA.c:135: }
      0001F9 02r00r00         [24] 1655 	ljmp	__sdcc_banked_ret
                                   1656 ;------------------------------------------------------------
                                   1657 ;Allocation info for local variables in function 'SX1276LoRaSetRFFrequency'
                                   1658 ;------------------------------------------------------------
                                   1659 ;freq                      Allocated to registers r6 r7 
                                   1660 ;factor                    Allocated to registers 
                                   1661 ;FreqWord                  Allocated with name '_SX1276LoRaSetRFFrequency_FreqWord_65536_559'
                                   1662 ;------------------------------------------------------------
                                   1663 ;	../../../platform/cc2530dk/LORA/LORA.c:137: void SX1276LoRaSetRFFrequency(uint16_t freq)
                                   1664 ;	-----------------------------------------
                                   1665 ;	 function SX1276LoRaSetRFFrequency
                                   1666 ;	-----------------------------------------
      0001FC                       1667 _SX1276LoRaSetRFFrequency:
      0001FC AE 82            [24] 1668 	mov	r6,dpl
      0001FE AF 83            [24] 1669 	mov	r7,dph
                                   1670 ;	../../../platform/cc2530dk/LORA/LORA.c:141: FreqWord = (freq*1000000)/factor;
      000200 7D 00            [12] 1671 	mov	r5,#0x00
      000202 7C 00            [12] 1672 	mov	r4,#0x00
      000204 C0 06            [24] 1673 	push	ar6
      000206 C0 07            [24] 1674 	push	ar7
      000208 C0 05            [24] 1675 	push	ar5
      00020A C0 04            [24] 1676 	push	ar4
      00020C 90 42 40         [24] 1677 	mov	dptr,#0x4240
      00020F 75 F0 0F         [24] 1678 	mov	b,#0x0f
      000212 E4               [12] 1679 	clr	a
      000213 12r00r00         [24] 1680 	lcall	__mullong
      000216 AC 82            [24] 1681 	mov	r4,dpl
      000218 AD 83            [24] 1682 	mov	r5,dph
      00021A AE F0            [24] 1683 	mov	r6,b
      00021C FF               [12] 1684 	mov	r7,a
      00021D E5 81            [12] 1685 	mov	a,sp
      00021F 24 FC            [12] 1686 	add	a,#0xfc
      000221 F5 81            [12] 1687 	mov	sp,a
      000223 8C 82            [24] 1688 	mov	dpl,r4
      000225 8D 83            [24] 1689 	mov	dph,r5
      000227 8E F0            [24] 1690 	mov	b,r6
      000229 EF               [12] 1691 	mov	a,r7
      00022A 12r00r00         [24] 1692 	lcall	___slong2fs
      00022D AC 82            [24] 1693 	mov	r4,dpl
      00022F AD 83            [24] 1694 	mov	r5,dph
      000231 AE F0            [24] 1695 	mov	r6,b
      000233 FF               [12] 1696 	mov	r7,a
      000234 74 D7            [12] 1697 	mov	a,#0xd7
      000236 C0 E0            [24] 1698 	push	acc
      000238 74 23            [12] 1699 	mov	a,#0x23
      00023A C0 E0            [24] 1700 	push	acc
      00023C 74 74            [12] 1701 	mov	a,#0x74
      00023E C0 E0            [24] 1702 	push	acc
      000240 74 42            [12] 1703 	mov	a,#0x42
      000242 C0 E0            [24] 1704 	push	acc
      000244 8C 82            [24] 1705 	mov	dpl,r4
      000246 8D 83            [24] 1706 	mov	dph,r5
      000248 8E F0            [24] 1707 	mov	b,r6
      00024A EF               [12] 1708 	mov	a,r7
      00024B 12r00r00         [24] 1709 	lcall	___fsdiv
      00024E AC 82            [24] 1710 	mov	r4,dpl
      000250 AD 83            [24] 1711 	mov	r5,dph
      000252 AE F0            [24] 1712 	mov	r6,b
      000254 FF               [12] 1713 	mov	r7,a
      000255 E5 81            [12] 1714 	mov	a,sp
      000257 24 FC            [12] 1715 	add	a,#0xfc
      000259 F5 81            [12] 1716 	mov	sp,a
      00025B 8C 82            [24] 1717 	mov	dpl,r4
      00025D 8D 83            [24] 1718 	mov	dph,r5
      00025F 8E F0            [24] 1719 	mov	b,r6
      000261 EF               [12] 1720 	mov	a,r7
      000262 12r00r00         [24] 1721 	lcall	___fs2ulong
      000265 AC 82            [24] 1722 	mov	r4,dpl
      000267 AD 83            [24] 1723 	mov	r5,dph
      000269 AE F0            [24] 1724 	mov	r6,b
      00026B FF               [12] 1725 	mov	r7,a
      00026C 90r00r03         [24] 1726 	mov	dptr,#_SX1276LoRaSetRFFrequency_FreqWord_65536_559
      00026F EC               [12] 1727 	mov	a,r4
      000270 F0               [24] 1728 	movx	@dptr,a
      000271 ED               [12] 1729 	mov	a,r5
      000272 A3               [24] 1730 	inc	dptr
      000273 F0               [24] 1731 	movx	@dptr,a
      000274 EE               [12] 1732 	mov	a,r6
      000275 A3               [24] 1733 	inc	dptr
      000276 F0               [24] 1734 	movx	@dptr,a
      000277 EF               [12] 1735 	mov	a,r7
      000278 A3               [24] 1736 	inc	dptr
      000279 F0               [24] 1737 	movx	@dptr,a
                                   1738 ;	../../../platform/cc2530dk/LORA/LORA.c:143: Frequency[2] = (FreqWord&0xFF);
      00027A 90r00r02         [24] 1739 	mov	dptr,#(_Frequency + 0x0002)
      00027D EC               [12] 1740 	mov	a,r4
      00027E F0               [24] 1741 	movx	@dptr,a
                                   1742 ;	../../../platform/cc2530dk/LORA/LORA.c:144: Frequency[1] = ((FreqWord>>8)&0xFF);
      00027F 90r00r03         [24] 1743 	mov	dptr,#_SX1276LoRaSetRFFrequency_FreqWord_65536_559
      000282 E0               [24] 1744 	movx	a,@dptr
      000283 A3               [24] 1745 	inc	dptr
      000284 E0               [24] 1746 	movx	a,@dptr
      000285 FD               [12] 1747 	mov	r5,a
      000286 A3               [24] 1748 	inc	dptr
      000287 E0               [24] 1749 	movx	a,@dptr
      000288 A3               [24] 1750 	inc	dptr
      000289 E0               [24] 1751 	movx	a,@dptr
      00028A 8D 04            [24] 1752 	mov	ar4,r5
      00028C 90r00r01         [24] 1753 	mov	dptr,#(_Frequency + 0x0001)
      00028F EC               [12] 1754 	mov	a,r4
      000290 F0               [24] 1755 	movx	@dptr,a
                                   1756 ;	../../../platform/cc2530dk/LORA/LORA.c:145: Frequency[0] = ((FreqWord>>16)&0xFF);
      000291 90r00r03         [24] 1757 	mov	dptr,#_SX1276LoRaSetRFFrequency_FreqWord_65536_559
      000294 E0               [24] 1758 	movx	a,@dptr
      000295 A3               [24] 1759 	inc	dptr
      000296 E0               [24] 1760 	movx	a,@dptr
      000297 A3               [24] 1761 	inc	dptr
      000298 E0               [24] 1762 	movx	a,@dptr
      000299 FE               [12] 1763 	mov	r6,a
      00029A A3               [24] 1764 	inc	dptr
      00029B E0               [24] 1765 	movx	a,@dptr
      00029C 8E 04            [24] 1766 	mov	ar4,r6
      00029E 90r00r00         [24] 1767 	mov	dptr,#_Frequency
      0002A1 EC               [12] 1768 	mov	a,r4
      0002A2 F0               [24] 1769 	movx	@dptr,a
                                   1770 ;	../../../platform/cc2530dk/LORA/LORA.c:147: SX1276WriteBuffer( REG_LR_FRFMSB, Frequency[0]);  //0x06
      0002A3 C0 04            [24] 1771 	push	ar4
      0002A5 75 82 06         [24] 1772 	mov	dpl,#0x06
      0002A8 78r54            [12] 1773 	mov	r0,#_SX1276WriteBuffer
      0002AA 79s01            [12] 1774 	mov	r1,#(_SX1276WriteBuffer >> 8)
      0002AC 7As00            [12] 1775 	mov	r2,#(_SX1276WriteBuffer >> 16)
      0002AE 12r00r00         [24] 1776 	lcall	__sdcc_banked_call
      0002B1 15 81            [12] 1777 	dec	sp
                                   1778 ;	../../../platform/cc2530dk/LORA/LORA.c:148: SX1276WriteBuffer( REG_LR_FRFMID, Frequency[1]);  //0x07
      0002B3 90r00r01         [24] 1779 	mov	dptr,#(_Frequency + 0x0001)
      0002B6 E0               [24] 1780 	movx	a,@dptr
      0002B7 FF               [12] 1781 	mov	r7,a
      0002B8 C0 07            [24] 1782 	push	ar7
      0002BA 75 82 07         [24] 1783 	mov	dpl,#0x07
      0002BD 78r54            [12] 1784 	mov	r0,#_SX1276WriteBuffer
      0002BF 79s01            [12] 1785 	mov	r1,#(_SX1276WriteBuffer >> 8)
      0002C1 7As00            [12] 1786 	mov	r2,#(_SX1276WriteBuffer >> 16)
      0002C3 12r00r00         [24] 1787 	lcall	__sdcc_banked_call
      0002C6 15 81            [12] 1788 	dec	sp
                                   1789 ;	../../../platform/cc2530dk/LORA/LORA.c:149: SX1276WriteBuffer( REG_LR_FRFLSB, Frequency[2]);  //0x08
      0002C8 90r00r02         [24] 1790 	mov	dptr,#(_Frequency + 0x0002)
      0002CB E0               [24] 1791 	movx	a,@dptr
      0002CC FF               [12] 1792 	mov	r7,a
      0002CD C0 07            [24] 1793 	push	ar7
      0002CF 75 82 08         [24] 1794 	mov	dpl,#0x08
      0002D2 78r54            [12] 1795 	mov	r0,#_SX1276WriteBuffer
      0002D4 79s01            [12] 1796 	mov	r1,#(_SX1276WriteBuffer >> 8)
      0002D6 7As00            [12] 1797 	mov	r2,#(_SX1276WriteBuffer >> 16)
      0002D8 12r00r00         [24] 1798 	lcall	__sdcc_banked_call
      0002DB 15 81            [12] 1799 	dec	sp
                                   1800 ;	../../../platform/cc2530dk/LORA/LORA.c:150: }
      0002DD 02r00r00         [24] 1801 	ljmp	__sdcc_banked_ret
                                   1802 ;------------------------------------------------------------
                                   1803 ;Allocation info for local variables in function 'SX1276LoRaSetRFPower'
                                   1804 ;------------------------------------------------------------
                                   1805 ;power                     Allocated to registers r7 
                                   1806 ;------------------------------------------------------------
                                   1807 ;	../../../platform/cc2530dk/LORA/LORA.c:152: void SX1276LoRaSetRFPower(unsigned char power )
                                   1808 ;	-----------------------------------------
                                   1809 ;	 function SX1276LoRaSetRFPower
                                   1810 ;	-----------------------------------------
      0002E0                       1811 _SX1276LoRaSetRFPower:
      0002E0 AF 82            [24] 1812 	mov	r7,dpl
                                   1813 ;	../../../platform/cc2530dk/LORA/LORA.c:158: SX1276WriteBuffer( REG_LR_PADAC, 0x87);  //high power
      0002E2 C0 07            [24] 1814 	push	ar7
      0002E4 74 87            [12] 1815 	mov	a,#0x87
      0002E6 C0 E0            [24] 1816 	push	acc
      0002E8 75 82 4D         [24] 1817 	mov	dpl,#0x4d
      0002EB 78r54            [12] 1818 	mov	r0,#_SX1276WriteBuffer
      0002ED 79s01            [12] 1819 	mov	r1,#(_SX1276WriteBuffer >> 8)
      0002EF 7As00            [12] 1820 	mov	r2,#(_SX1276WriteBuffer >> 16)
      0002F1 12r00r00         [24] 1821 	lcall	__sdcc_banked_call
      0002F4 15 81            [12] 1822 	dec	sp
      0002F6 D0 07            [24] 1823 	pop	ar7
                                   1824 ;	../../../platform/cc2530dk/LORA/LORA.c:159: SX1276WriteBuffer( REG_LR_PACONFIG,  power_data[power] ); //,
      0002F8 EF               [12] 1825 	mov	a,r7
      0002F9 24r07            [12] 1826 	add	a,#_power_data
      0002FB F5 82            [12] 1827 	mov	dpl,a
      0002FD E4               [12] 1828 	clr	a
      0002FE 34s00            [12] 1829 	addc	a,#(_power_data >> 8)
      000300 F5 83            [12] 1830 	mov	dph,a
      000302 E0               [24] 1831 	movx	a,@dptr
      000303 FF               [12] 1832 	mov	r7,a
      000304 C0 07            [24] 1833 	push	ar7
      000306 75 82 09         [24] 1834 	mov	dpl,#0x09
      000309 78r54            [12] 1835 	mov	r0,#_SX1276WriteBuffer
      00030B 79s01            [12] 1836 	mov	r1,#(_SX1276WriteBuffer >> 8)
      00030D 7As00            [12] 1837 	mov	r2,#(_SX1276WriteBuffer >> 16)
      00030F 12r00r00         [24] 1838 	lcall	__sdcc_banked_call
      000312 15 81            [12] 1839 	dec	sp
                                   1840 ;	../../../platform/cc2530dk/LORA/LORA.c:164: }
      000314 02r00r00         [24] 1841 	ljmp	__sdcc_banked_ret
                                   1842 ;------------------------------------------------------------
                                   1843 ;Allocation info for local variables in function 'SX1276LoRaSetNbTrigPeaks'
                                   1844 ;------------------------------------------------------------
                                   1845 ;value                     Allocated to registers r7 
                                   1846 ;RECVER_DAT                Allocated to registers 
                                   1847 ;------------------------------------------------------------
                                   1848 ;	../../../platform/cc2530dk/LORA/LORA.c:166: void SX1276LoRaSetNbTrigPeaks(unsigned char value )
                                   1849 ;	-----------------------------------------
                                   1850 ;	 function SX1276LoRaSetNbTrigPeaks
                                   1851 ;	-----------------------------------------
      000317                       1852 _SX1276LoRaSetNbTrigPeaks:
      000317 AF 82            [24] 1853 	mov	r7,dpl
                                   1854 ;	../../../platform/cc2530dk/LORA/LORA.c:169: RECVER_DAT = SX1276ReadBuffer( 0x31);  //Read RegDetectOptimize,
      000319 75 82 31         [24] 1855 	mov	dpl,#0x31
      00031C C0 07            [24] 1856 	push	ar7
      00031E 78r7B            [12] 1857 	mov	r0,#_SX1276ReadBuffer
      000320 79s01            [12] 1858 	mov	r1,#(_SX1276ReadBuffer >> 8)
      000322 7As00            [12] 1859 	mov	r2,#(_SX1276ReadBuffer >> 16)
      000324 12r00r00         [24] 1860 	lcall	__sdcc_banked_call
      000327 AE 82            [24] 1861 	mov	r6,dpl
      000329 D0 07            [24] 1862 	pop	ar7
                                   1863 ;	../../../platform/cc2530dk/LORA/LORA.c:170: RECVER_DAT = ( RECVER_DAT & 0xF8 ) | value; //process;
      00032B 53 06 F8         [24] 1864 	anl	ar6,#0xf8
      00032E EE               [12] 1865 	mov	a,r6
      00032F 42 07            [12] 1866 	orl	ar7,a
                                   1867 ;	../../../platform/cc2530dk/LORA/LORA.c:171: SX1276WriteBuffer( 0x31, RECVER_DAT );  //write back;
      000331 C0 07            [24] 1868 	push	ar7
      000333 75 82 31         [24] 1869 	mov	dpl,#0x31
      000336 78r54            [12] 1870 	mov	r0,#_SX1276WriteBuffer
      000338 79s01            [12] 1871 	mov	r1,#(_SX1276WriteBuffer >> 8)
      00033A 7As00            [12] 1872 	mov	r2,#(_SX1276WriteBuffer >> 16)
      00033C 12r00r00         [24] 1873 	lcall	__sdcc_banked_call
      00033F 15 81            [12] 1874 	dec	sp
                                   1875 ;	../../../platform/cc2530dk/LORA/LORA.c:172: }
      000341 02r00r00         [24] 1876 	ljmp	__sdcc_banked_ret
                                   1877 ;------------------------------------------------------------
                                   1878 ;Allocation info for local variables in function 'SX1276LoRaSetSpreadingFactor'
                                   1879 ;------------------------------------------------------------
                                   1880 ;factor                    Allocated to registers r7 
                                   1881 ;RECVER_DAT                Allocated to registers 
                                   1882 ;------------------------------------------------------------
                                   1883 ;	../../../platform/cc2530dk/LORA/LORA.c:174: void SX1276LoRaSetSpreadingFactor(unsigned char factor )
                                   1884 ;	-----------------------------------------
                                   1885 ;	 function SX1276LoRaSetSpreadingFactor
                                   1886 ;	-----------------------------------------
      000344                       1887 _SX1276LoRaSetSpreadingFactor:
      000344 AF 82            [24] 1888 	mov	r7,dpl
                                   1889 ;	../../../platform/cc2530dk/LORA/LORA.c:177: SX1276LoRaSetNbTrigPeaks( 3 ); //0x03-->SF7 to SF12
      000346 75 82 03         [24] 1890 	mov	dpl,#0x03
      000349 C0 07            [24] 1891 	push	ar7
      00034B 78r17            [12] 1892 	mov	r0,#_SX1276LoRaSetNbTrigPeaks
      00034D 79s03            [12] 1893 	mov	r1,#(_SX1276LoRaSetNbTrigPeaks >> 8)
      00034F 7As00            [12] 1894 	mov	r2,#(_SX1276LoRaSetNbTrigPeaks >> 16)
      000351 12r00r00         [24] 1895 	lcall	__sdcc_banked_call
                                   1896 ;	../../../platform/cc2530dk/LORA/LORA.c:178: RECVER_DAT=SX1276ReadBuffer( REG_LR_MODEMCONFIG2); //0x1E  
      000354 75 82 1E         [24] 1897 	mov	dpl,#0x1e
      000357 78r7B            [12] 1898 	mov	r0,#_SX1276ReadBuffer
      000359 79s01            [12] 1899 	mov	r1,#(_SX1276ReadBuffer >> 8)
      00035B 7As00            [12] 1900 	mov	r2,#(_SX1276ReadBuffer >> 16)
      00035D 12r00r00         [24] 1901 	lcall	__sdcc_banked_call
      000360 AE 82            [24] 1902 	mov	r6,dpl
      000362 D0 07            [24] 1903 	pop	ar7
                                   1904 ;	../../../platform/cc2530dk/LORA/LORA.c:179: RECVER_DAT = ( RECVER_DAT & RFLR_MODEMCONFIG2_SF_MASK ) | ( factor << 4 );
      000364 53 06 0F         [24] 1905 	anl	ar6,#0x0f
      000367 EF               [12] 1906 	mov	a,r7
      000368 C4               [12] 1907 	swap	a
      000369 54 F0            [12] 1908 	anl	a,#0xf0
      00036B 42 06            [12] 1909 	orl	ar6,a
                                   1910 ;	../../../platform/cc2530dk/LORA/LORA.c:180: SX1276WriteBuffer( REG_LR_MODEMCONFIG2, RECVER_DAT );	 
      00036D C0 06            [24] 1911 	push	ar6
      00036F 75 82 1E         [24] 1912 	mov	dpl,#0x1e
      000372 78r54            [12] 1913 	mov	r0,#_SX1276WriteBuffer
      000374 79s01            [12] 1914 	mov	r1,#(_SX1276WriteBuffer >> 8)
      000376 7As00            [12] 1915 	mov	r2,#(_SX1276WriteBuffer >> 16)
      000378 12r00r00         [24] 1916 	lcall	__sdcc_banked_call
      00037B 15 81            [12] 1917 	dec	sp
                                   1918 ;	../../../platform/cc2530dk/LORA/LORA.c:181: }
      00037D 02r00r00         [24] 1919 	ljmp	__sdcc_banked_ret
                                   1920 ;------------------------------------------------------------
                                   1921 ;Allocation info for local variables in function 'SX1276LoRaSetErrorCoding'
                                   1922 ;------------------------------------------------------------
                                   1923 ;value                     Allocated to registers r7 
                                   1924 ;RECVER_DAT                Allocated to registers 
                                   1925 ;------------------------------------------------------------
                                   1926 ;	../../../platform/cc2530dk/LORA/LORA.c:183: void SX1276LoRaSetErrorCoding(unsigned char value )
                                   1927 ;	-----------------------------------------
                                   1928 ;	 function SX1276LoRaSetErrorCoding
                                   1929 ;	-----------------------------------------
      000380                       1930 _SX1276LoRaSetErrorCoding:
      000380 AF 82            [24] 1931 	mov	r7,dpl
                                   1932 ;	../../../platform/cc2530dk/LORA/LORA.c:186: RECVER_DAT=SX1276ReadBuffer( REG_LR_MODEMCONFIG1); //0x1D
      000382 75 82 1D         [24] 1933 	mov	dpl,#0x1d
      000385 C0 07            [24] 1934 	push	ar7
      000387 78r7B            [12] 1935 	mov	r0,#_SX1276ReadBuffer
      000389 79s01            [12] 1936 	mov	r1,#(_SX1276ReadBuffer >> 8)
      00038B 7As00            [12] 1937 	mov	r2,#(_SX1276ReadBuffer >> 16)
      00038D 12r00r00         [24] 1938 	lcall	__sdcc_banked_call
      000390 AE 82            [24] 1939 	mov	r6,dpl
      000392 D0 07            [24] 1940 	pop	ar7
                                   1941 ;	../../../platform/cc2530dk/LORA/LORA.c:187: RECVER_DAT = ( RECVER_DAT & RFLR_MODEMCONFIG1_CODINGRATE_MASK ) | ( value << 1 );
      000394 53 06 F1         [24] 1942 	anl	ar6,#0xf1
      000397 EF               [12] 1943 	mov	a,r7
      000398 2F               [12] 1944 	add	a,r7
      000399 42 06            [12] 1945 	orl	ar6,a
                                   1946 ;	../../../platform/cc2530dk/LORA/LORA.c:188: SX1276WriteBuffer( REG_LR_MODEMCONFIG1, RECVER_DAT);
      00039B C0 06            [24] 1947 	push	ar6
      00039D 75 82 1D         [24] 1948 	mov	dpl,#0x1d
      0003A0 78r54            [12] 1949 	mov	r0,#_SX1276WriteBuffer
      0003A2 79s01            [12] 1950 	mov	r1,#(_SX1276WriteBuffer >> 8)
      0003A4 7As00            [12] 1951 	mov	r2,#(_SX1276WriteBuffer >> 16)
      0003A6 12r00r00         [24] 1952 	lcall	__sdcc_banked_call
      0003A9 15 81            [12] 1953 	dec	sp
                                   1954 ;	../../../platform/cc2530dk/LORA/LORA.c:189: }
      0003AB 02r00r00         [24] 1955 	ljmp	__sdcc_banked_ret
                                   1956 ;------------------------------------------------------------
                                   1957 ;Allocation info for local variables in function 'SX1276LoRaSetPacketCrcOn'
                                   1958 ;------------------------------------------------------------
                                   1959 ;enable                    Allocated to registers r7 
                                   1960 ;RECVER_DAT                Allocated to registers 
                                   1961 ;------------------------------------------------------------
                                   1962 ;	../../../platform/cc2530dk/LORA/LORA.c:191: void SX1276LoRaSetPacketCrcOn(uint8_t enable )
                                   1963 ;	-----------------------------------------
                                   1964 ;	 function SX1276LoRaSetPacketCrcOn
                                   1965 ;	-----------------------------------------
      0003AE                       1966 _SX1276LoRaSetPacketCrcOn:
      0003AE AF 82            [24] 1967 	mov	r7,dpl
                                   1968 ;	../../../platform/cc2530dk/LORA/LORA.c:194: RECVER_DAT= SX1276ReadBuffer( REG_LR_MODEMCONFIG2);  //0x1E 
      0003B0 75 82 1E         [24] 1969 	mov	dpl,#0x1e
      0003B3 C0 07            [24] 1970 	push	ar7
      0003B5 78r7B            [12] 1971 	mov	r0,#_SX1276ReadBuffer
      0003B7 79s01            [12] 1972 	mov	r1,#(_SX1276ReadBuffer >> 8)
      0003B9 7As00            [12] 1973 	mov	r2,#(_SX1276ReadBuffer >> 16)
      0003BB 12r00r00         [24] 1974 	lcall	__sdcc_banked_call
      0003BE AE 82            [24] 1975 	mov	r6,dpl
      0003C0 D0 07            [24] 1976 	pop	ar7
                                   1977 ;	../../../platform/cc2530dk/LORA/LORA.c:195: RECVER_DAT = ( RECVER_DAT & RFLR_MODEMCONFIG2_RXPAYLOADCRC_MASK ) | ( enable << 2 );
      0003C2 53 06 FB         [24] 1978 	anl	ar6,#0xfb
      0003C5 EF               [12] 1979 	mov	a,r7
      0003C6 2F               [12] 1980 	add	a,r7
      0003C7 25 E0            [12] 1981 	add	a,acc
      0003C9 42 06            [12] 1982 	orl	ar6,a
                                   1983 ;	../../../platform/cc2530dk/LORA/LORA.c:196: SX1276WriteBuffer( REG_LR_MODEMCONFIG2, RECVER_DAT );
      0003CB C0 06            [24] 1984 	push	ar6
      0003CD 75 82 1E         [24] 1985 	mov	dpl,#0x1e
      0003D0 78r54            [12] 1986 	mov	r0,#_SX1276WriteBuffer
      0003D2 79s01            [12] 1987 	mov	r1,#(_SX1276WriteBuffer >> 8)
      0003D4 7As00            [12] 1988 	mov	r2,#(_SX1276WriteBuffer >> 16)
      0003D6 12r00r00         [24] 1989 	lcall	__sdcc_banked_call
      0003D9 15 81            [12] 1990 	dec	sp
                                   1991 ;	../../../platform/cc2530dk/LORA/LORA.c:197: }
      0003DB 02r00r00         [24] 1992 	ljmp	__sdcc_banked_ret
                                   1993 ;------------------------------------------------------------
                                   1994 ;Allocation info for local variables in function 'SX1276LoRaSetSignalBandwidth'
                                   1995 ;------------------------------------------------------------
                                   1996 ;bw                        Allocated to registers r7 
                                   1997 ;RECVER_DAT                Allocated to registers 
                                   1998 ;------------------------------------------------------------
                                   1999 ;	../../../platform/cc2530dk/LORA/LORA.c:199: void SX1276LoRaSetSignalBandwidth(unsigned char bw )
                                   2000 ;	-----------------------------------------
                                   2001 ;	 function SX1276LoRaSetSignalBandwidth
                                   2002 ;	-----------------------------------------
      0003DE                       2003 _SX1276LoRaSetSignalBandwidth:
      0003DE AF 82            [24] 2004 	mov	r7,dpl
                                   2005 ;	../../../platform/cc2530dk/LORA/LORA.c:202: RECVER_DAT=SX1276ReadBuffer( REG_LR_MODEMCONFIG1);  //0x1D
      0003E0 75 82 1D         [24] 2006 	mov	dpl,#0x1d
      0003E3 C0 07            [24] 2007 	push	ar7
      0003E5 78r7B            [12] 2008 	mov	r0,#_SX1276ReadBuffer
      0003E7 79s01            [12] 2009 	mov	r1,#(_SX1276ReadBuffer >> 8)
      0003E9 7As00            [12] 2010 	mov	r2,#(_SX1276ReadBuffer >> 16)
      0003EB 12r00r00         [24] 2011 	lcall	__sdcc_banked_call
      0003EE AE 82            [24] 2012 	mov	r6,dpl
      0003F0 D0 07            [24] 2013 	pop	ar7
                                   2014 ;	../../../platform/cc2530dk/LORA/LORA.c:203: RECVER_DAT = ( RECVER_DAT & RFLR_MODEMCONFIG1_BW_MASK ) | ( bw << 4 );
      0003F2 53 06 0F         [24] 2015 	anl	ar6,#0x0f
      0003F5 EF               [12] 2016 	mov	a,r7
      0003F6 C4               [12] 2017 	swap	a
      0003F7 54 F0            [12] 2018 	anl	a,#0xf0
      0003F9 42 06            [12] 2019 	orl	ar6,a
                                   2020 ;	../../../platform/cc2530dk/LORA/LORA.c:204: SX1276WriteBuffer( REG_LR_MODEMCONFIG1, RECVER_DAT );
      0003FB C0 06            [24] 2021 	push	ar6
      0003FD 75 82 1D         [24] 2022 	mov	dpl,#0x1d
      000400 78r54            [12] 2023 	mov	r0,#_SX1276WriteBuffer
      000402 79s01            [12] 2024 	mov	r1,#(_SX1276WriteBuffer >> 8)
      000404 7As00            [12] 2025 	mov	r2,#(_SX1276WriteBuffer >> 16)
      000406 12r00r00         [24] 2026 	lcall	__sdcc_banked_call
      000409 15 81            [12] 2027 	dec	sp
                                   2028 ;	../../../platform/cc2530dk/LORA/LORA.c:205: }
      00040B 02r00r00         [24] 2029 	ljmp	__sdcc_banked_ret
                                   2030 ;------------------------------------------------------------
                                   2031 ;Allocation info for local variables in function 'SX1276LoRaSetImplicitHeaderOn'
                                   2032 ;------------------------------------------------------------
                                   2033 ;enable                    Allocated to registers r7 
                                   2034 ;RECVER_DAT                Allocated to registers 
                                   2035 ;------------------------------------------------------------
                                   2036 ;	../../../platform/cc2530dk/LORA/LORA.c:207: void SX1276LoRaSetImplicitHeaderOn(uint8_t enable )
                                   2037 ;	-----------------------------------------
                                   2038 ;	 function SX1276LoRaSetImplicitHeaderOn
                                   2039 ;	-----------------------------------------
      00040E                       2040 _SX1276LoRaSetImplicitHeaderOn:
      00040E AF 82            [24] 2041 	mov	r7,dpl
                                   2042 ;	../../../platform/cc2530dk/LORA/LORA.c:210: RECVER_DAT=SX1276ReadBuffer( REG_LR_MODEMCONFIG1 );  //0x1D
      000410 75 82 1D         [24] 2043 	mov	dpl,#0x1d
      000413 C0 07            [24] 2044 	push	ar7
      000415 78r7B            [12] 2045 	mov	r0,#_SX1276ReadBuffer
      000417 79s01            [12] 2046 	mov	r1,#(_SX1276ReadBuffer >> 8)
      000419 7As00            [12] 2047 	mov	r2,#(_SX1276ReadBuffer >> 16)
      00041B 12r00r00         [24] 2048 	lcall	__sdcc_banked_call
      00041E AE 82            [24] 2049 	mov	r6,dpl
      000420 D0 07            [24] 2050 	pop	ar7
                                   2051 ;	../../../platform/cc2530dk/LORA/LORA.c:211: RECVER_DAT = ( RECVER_DAT & RFLR_MODEMCONFIG1_IMPLICITHEADER_MASK ) | ( enable );
      000422 53 06 FE         [24] 2052 	anl	ar6,#0xfe
      000425 EE               [12] 2053 	mov	a,r6
      000426 42 07            [12] 2054 	orl	ar7,a
                                   2055 ;	../../../platform/cc2530dk/LORA/LORA.c:212: SX1276WriteBuffer( REG_LR_MODEMCONFIG1, RECVER_DAT );
      000428 C0 07            [24] 2056 	push	ar7
      00042A 75 82 1D         [24] 2057 	mov	dpl,#0x1d
      00042D 78r54            [12] 2058 	mov	r0,#_SX1276WriteBuffer
      00042F 79s01            [12] 2059 	mov	r1,#(_SX1276WriteBuffer >> 8)
      000431 7As00            [12] 2060 	mov	r2,#(_SX1276WriteBuffer >> 16)
      000433 12r00r00         [24] 2061 	lcall	__sdcc_banked_call
      000436 15 81            [12] 2062 	dec	sp
                                   2063 ;	../../../platform/cc2530dk/LORA/LORA.c:213: }
      000438 02r00r00         [24] 2064 	ljmp	__sdcc_banked_ret
                                   2065 ;------------------------------------------------------------
                                   2066 ;Allocation info for local variables in function 'SX1276LoRaSetSymbTimeout'
                                   2067 ;------------------------------------------------------------
                                   2068 ;value                     Allocated to registers r6 r7 
                                   2069 ;RECVER_DAT                Allocated to stack - sp -1
                                   2070 ;------------------------------------------------------------
                                   2071 ;	../../../platform/cc2530dk/LORA/LORA.c:215: void SX1276LoRaSetSymbTimeout(unsigned int value )
                                   2072 ;	-----------------------------------------
                                   2073 ;	 function SX1276LoRaSetSymbTimeout
                                   2074 ;	-----------------------------------------
      00043B                       2075 _SX1276LoRaSetSymbTimeout:
      00043B 05 81            [12] 2076 	inc	sp
      00043D 05 81            [12] 2077 	inc	sp
      00043F AE 82            [24] 2078 	mov	r6,dpl
      000441 AF 83            [24] 2079 	mov	r7,dph
                                   2080 ;	../../../platform/cc2530dk/LORA/LORA.c:218: RECVER_DAT[0]=SX1276ReadBuffer( REG_LR_MODEMCONFIG2 );    //0x1E
      000443 A9 81            [24] 2081 	mov	r1,sp
      000445 19               [12] 2082 	dec	r1
      000446 75 82 1E         [24] 2083 	mov	dpl,#0x1e
      000449 C0 07            [24] 2084 	push	ar7
      00044B C0 06            [24] 2085 	push	ar6
      00044D C0 01            [24] 2086 	push	ar1
      00044F 78r7B            [12] 2087 	mov	r0,#_SX1276ReadBuffer
      000451 79s01            [12] 2088 	mov	r1,#(_SX1276ReadBuffer >> 8)
      000453 7As00            [12] 2089 	mov	r2,#(_SX1276ReadBuffer >> 16)
      000455 12r00r00         [24] 2090 	lcall	__sdcc_banked_call
      000458 E5 82            [12] 2091 	mov	a,dpl
      00045A D0 01            [24] 2092 	pop	ar1
      00045C F7               [12] 2093 	mov	@r1,a
                                   2094 ;	../../../platform/cc2530dk/LORA/LORA.c:219: RECVER_DAT[1]=SX1276ReadBuffer( REG_LR_SYMBTIMEOUTLSB );  //0x1F
      00045D E9               [12] 2095 	mov	a,r1
      00045E 04               [12] 2096 	inc	a
      00045F F8               [12] 2097 	mov	r0,a
      000460 75 82 1F         [24] 2098 	mov	dpl,#0x1f
      000463 C0 01            [24] 2099 	push	ar1
      000465 C0 00            [24] 2100 	push	ar0
      000467 78r7B            [12] 2101 	mov	r0,#_SX1276ReadBuffer
      000469 79s01            [12] 2102 	mov	r1,#(_SX1276ReadBuffer >> 8)
      00046B 7As00            [12] 2103 	mov	r2,#(_SX1276ReadBuffer >> 16)
      00046D 12r00r00         [24] 2104 	lcall	__sdcc_banked_call
      000470 E5 82            [12] 2105 	mov	a,dpl
      000472 D0 00            [24] 2106 	pop	ar0
      000474 D0 01            [24] 2107 	pop	ar1
      000476 D0 06            [24] 2108 	pop	ar6
      000478 D0 07            [24] 2109 	pop	ar7
      00047A F6               [12] 2110 	mov	@r0,a
                                   2111 ;	../../../platform/cc2530dk/LORA/LORA.c:220: RECVER_DAT[0] = ( RECVER_DAT[0] & RFLR_MODEMCONFIG2_SYMBTIMEOUTMSB_MASK ) | ( ( value >> 8 ) & ~RFLR_MODEMCONFIG2_SYMBTIMEOUTMSB_MASK );
      00047B 87 05            [24] 2112 	mov	ar5,@r1
      00047D 53 05 FC         [24] 2113 	anl	ar5,#0xfc
      000480 8F 04            [24] 2114 	mov	ar4,r7
      000482 74 03            [12] 2115 	mov	a,#0x03
      000484 5C               [12] 2116 	anl	a,r4
      000485 42 05            [12] 2117 	orl	ar5,a
      000487 A7 05            [24] 2118 	mov	@r1,ar5
                                   2119 ;	../../../platform/cc2530dk/LORA/LORA.c:221: RECVER_DAT[1] = value & 0xFF;
      000489 A6 06            [24] 2120 	mov	@r0,ar6
                                   2121 ;	../../../platform/cc2530dk/LORA/LORA.c:222: SX1276WriteBuffer( REG_LR_MODEMCONFIG2, RECVER_DAT[0]);
      00048B C0 00            [24] 2122 	push	ar0
      00048D C0 05            [24] 2123 	push	ar5
      00048F 75 82 1E         [24] 2124 	mov	dpl,#0x1e
      000492 78r54            [12] 2125 	mov	r0,#_SX1276WriteBuffer
      000494 79s01            [12] 2126 	mov	r1,#(_SX1276WriteBuffer >> 8)
      000496 7As00            [12] 2127 	mov	r2,#(_SX1276WriteBuffer >> 16)
      000498 12r00r00         [24] 2128 	lcall	__sdcc_banked_call
      00049B 15 81            [12] 2129 	dec	sp
      00049D D0 00            [24] 2130 	pop	ar0
                                   2131 ;	../../../platform/cc2530dk/LORA/LORA.c:223: SX1276WriteBuffer( REG_LR_SYMBTIMEOUTLSB, RECVER_DAT[1]);
      00049F 86 07            [24] 2132 	mov	ar7,@r0
      0004A1 C0 07            [24] 2133 	push	ar7
      0004A3 75 82 1F         [24] 2134 	mov	dpl,#0x1f
      0004A6 78r54            [12] 2135 	mov	r0,#_SX1276WriteBuffer
      0004A8 79s01            [12] 2136 	mov	r1,#(_SX1276WriteBuffer >> 8)
      0004AA 7As00            [12] 2137 	mov	r2,#(_SX1276WriteBuffer >> 16)
      0004AC 12r00r00         [24] 2138 	lcall	__sdcc_banked_call
      0004AF 15 81            [12] 2139 	dec	sp
                                   2140 ;	../../../platform/cc2530dk/LORA/LORA.c:224: }
      0004B1 15 81            [12] 2141 	dec	sp
      0004B3 15 81            [12] 2142 	dec	sp
      0004B5 02r00r00         [24] 2143 	ljmp	__sdcc_banked_ret
                                   2144 ;------------------------------------------------------------
                                   2145 ;Allocation info for local variables in function 'SX1276LoRaSetPayloadLength'
                                   2146 ;------------------------------------------------------------
                                   2147 ;value                     Allocated to registers r7 
                                   2148 ;------------------------------------------------------------
                                   2149 ;	../../../platform/cc2530dk/LORA/LORA.c:226: void SX1276LoRaSetPayloadLength(unsigned char value )
                                   2150 ;	-----------------------------------------
                                   2151 ;	 function SX1276LoRaSetPayloadLength
                                   2152 ;	-----------------------------------------
      0004B8                       2153 _SX1276LoRaSetPayloadLength:
      0004B8 AF 82            [24] 2154 	mov	r7,dpl
                                   2155 ;	../../../platform/cc2530dk/LORA/LORA.c:228: SX1276WriteBuffer( REG_LR_PAYLOADLENGTH, value );  //0x22
      0004BA C0 07            [24] 2156 	push	ar7
      0004BC 75 82 22         [24] 2157 	mov	dpl,#0x22
      0004BF 78r54            [12] 2158 	mov	r0,#_SX1276WriteBuffer
      0004C1 79s01            [12] 2159 	mov	r1,#(_SX1276WriteBuffer >> 8)
      0004C3 7As00            [12] 2160 	mov	r2,#(_SX1276WriteBuffer >> 16)
      0004C5 12r00r00         [24] 2161 	lcall	__sdcc_banked_call
      0004C8 15 81            [12] 2162 	dec	sp
                                   2163 ;	../../../platform/cc2530dk/LORA/LORA.c:229: } 
      0004CA 02r00r00         [24] 2164 	ljmp	__sdcc_banked_ret
                                   2165 ;------------------------------------------------------------
                                   2166 ;Allocation info for local variables in function 'SX1276LoRaSetMobileNode'
                                   2167 ;------------------------------------------------------------
                                   2168 ;enable                    Allocated to registers r7 
                                   2169 ;RECVER_DAT                Allocated to registers 
                                   2170 ;------------------------------------------------------------
                                   2171 ;	../../../platform/cc2530dk/LORA/LORA.c:243: void SX1276LoRaSetMobileNode(BOOL_t enable )
                                   2172 ;	-----------------------------------------
                                   2173 ;	 function SX1276LoRaSetMobileNode
                                   2174 ;	-----------------------------------------
      0004CD                       2175 _SX1276LoRaSetMobileNode:
      0004CD AF 82            [24] 2176 	mov	r7,dpl
                                   2177 ;	../../../platform/cc2530dk/LORA/LORA.c:246: RECVER_DAT=SX1276ReadBuffer( REG_LR_MODEMCONFIG3 );  //0x26
      0004CF 75 82 26         [24] 2178 	mov	dpl,#0x26
      0004D2 C0 07            [24] 2179 	push	ar7
      0004D4 78r7B            [12] 2180 	mov	r0,#_SX1276ReadBuffer
      0004D6 79s01            [12] 2181 	mov	r1,#(_SX1276ReadBuffer >> 8)
      0004D8 7As00            [12] 2182 	mov	r2,#(_SX1276ReadBuffer >> 16)
      0004DA 12r00r00         [24] 2183 	lcall	__sdcc_banked_call
      0004DD AE 82            [24] 2184 	mov	r6,dpl
      0004DF D0 07            [24] 2185 	pop	ar7
                                   2186 ;	../../../platform/cc2530dk/LORA/LORA.c:247: RECVER_DAT = ( RECVER_DAT & RFLR_MODEMCONFIG3_MOBILE_NODE_MASK ) | ( enable << 3 );
      0004E1 53 06 F7         [24] 2187 	anl	ar6,#0xf7
      0004E4 EF               [12] 2188 	mov	a,r7
      0004E5 C4               [12] 2189 	swap	a
      0004E6 03               [12] 2190 	rr	a
      0004E7 54 F8            [12] 2191 	anl	a,#0xf8
      0004E9 42 06            [12] 2192 	orl	ar6,a
                                   2193 ;	../../../platform/cc2530dk/LORA/LORA.c:248: SX1276WriteBuffer( REG_LR_MODEMCONFIG3, RECVER_DAT );
      0004EB C0 06            [24] 2194 	push	ar6
      0004ED 75 82 26         [24] 2195 	mov	dpl,#0x26
      0004F0 78r54            [12] 2196 	mov	r0,#_SX1276WriteBuffer
      0004F2 79s01            [12] 2197 	mov	r1,#(_SX1276WriteBuffer >> 8)
      0004F4 7As00            [12] 2198 	mov	r2,#(_SX1276WriteBuffer >> 16)
      0004F6 12r00r00         [24] 2199 	lcall	__sdcc_banked_call
      0004F9 15 81            [12] 2200 	dec	sp
                                   2201 ;	../../../platform/cc2530dk/LORA/LORA.c:249: }
      0004FB 02r00r00         [24] 2202 	ljmp	__sdcc_banked_ret
                                   2203 ;------------------------------------------------------------
                                   2204 ;Allocation info for local variables in function 'SX1276LORA_INT'
                                   2205 ;------------------------------------------------------------
                                   2206 ;freq                      Allocated to registers r6 r7 
                                   2207 ;------------------------------------------------------------
                                   2208 ;	../../../platform/cc2530dk/LORA/LORA.c:251: void SX1276LORA_INT(uint16_t freq)
                                   2209 ;	-----------------------------------------
                                   2210 ;	 function SX1276LORA_INT
                                   2211 ;	-----------------------------------------
      0004FE                       2212 _SX1276LORA_INT:
      0004FE AE 82            [24] 2213 	mov	r6,dpl
      000500 AF 83            [24] 2214 	mov	r7,dph
                                   2215 ;	../../../platform/cc2530dk/LORA/LORA.c:253: SX1276LoRaSetOpMode(Sleep_mode);  //
      000502 75 82 00         [24] 2216 	mov	dpl,#0x00
      000505 C0 07            [24] 2217 	push	ar7
      000507 C0 06            [24] 2218 	push	ar6
      000509 78rA2            [12] 2219 	mov	r0,#_SX1276LoRaSetOpMode
      00050B 79s01            [12] 2220 	mov	r1,#(_SX1276LoRaSetOpMode >> 8)
      00050D 7As00            [12] 2221 	mov	r2,#(_SX1276LoRaSetOpMode >> 16)
      00050F 12r00r00         [24] 2222 	lcall	__sdcc_banked_call
                                   2223 ;	../../../platform/cc2530dk/LORA/LORA.c:254: SX1276LoRaFsk(LORA_mode);	     		// 
      000512 75 82 80         [24] 2224 	mov	dpl,#0x80
      000515 78rCF            [12] 2225 	mov	r0,#_SX1276LoRaFsk
      000517 79s01            [12] 2226 	mov	r1,#(_SX1276LoRaFsk >> 8)
      000519 7As00            [12] 2227 	mov	r2,#(_SX1276LoRaFsk >> 16)
      00051B 12r00r00         [24] 2228 	lcall	__sdcc_banked_call
                                   2229 ;	../../../platform/cc2530dk/LORA/LORA.c:255: SX1276LoRaSetOpMode(Stdby_mode);  // 
      00051E 75 82 01         [24] 2230 	mov	dpl,#0x01
      000521 78rA2            [12] 2231 	mov	r0,#_SX1276LoRaSetOpMode
      000523 79s01            [12] 2232 	mov	r1,#(_SX1276LoRaSetOpMode >> 8)
      000525 7As00            [12] 2233 	mov	r2,#(_SX1276LoRaSetOpMode >> 16)
      000527 12r00r00         [24] 2234 	lcall	__sdcc_banked_call
                                   2235 ;	../../../platform/cc2530dk/LORA/LORA.c:256: SX1276WriteBuffer( REG_LR_DIOMAPPING1,GPIO_VARE_1); //0x40,DIO
      00052A E4               [12] 2236 	clr	a
      00052B C0 E0            [24] 2237 	push	acc
      00052D 75 82 40         [24] 2238 	mov	dpl,#0x40
      000530 78r54            [12] 2239 	mov	r0,#_SX1276WriteBuffer
      000532 79s01            [12] 2240 	mov	r1,#(_SX1276WriteBuffer >> 8)
      000534 7As00            [12] 2241 	mov	r2,#(_SX1276WriteBuffer >> 16)
      000536 12r00r00         [24] 2242 	lcall	__sdcc_banked_call
      000539 15 81            [12] 2243 	dec	sp
                                   2244 ;	../../../platform/cc2530dk/LORA/LORA.c:257: SX1276WriteBuffer( REG_LR_DIOMAPPING2,GPIO_VARE_2); //0x41
      00053B E4               [12] 2245 	clr	a
      00053C C0 E0            [24] 2246 	push	acc
      00053E 75 82 41         [24] 2247 	mov	dpl,#0x41
      000541 78r54            [12] 2248 	mov	r0,#_SX1276WriteBuffer
      000543 79s01            [12] 2249 	mov	r1,#(_SX1276WriteBuffer >> 8)
      000545 7As00            [12] 2250 	mov	r2,#(_SX1276WriteBuffer >> 16)
      000547 12r00r00         [24] 2251 	lcall	__sdcc_banked_call
      00054A 15 81            [12] 2252 	dec	sp
      00054C D0 06            [24] 2253 	pop	ar6
      00054E D0 07            [24] 2254 	pop	ar7
                                   2255 ;	../../../platform/cc2530dk/LORA/LORA.c:258: SX1276LoRaSetRFFrequency(freq);  			//
      000550 8E 82            [24] 2256 	mov	dpl,r6
      000552 8F 83            [24] 2257 	mov	dph,r7
      000554 78rFC            [12] 2258 	mov	r0,#_SX1276LoRaSetRFFrequency
      000556 79s01            [12] 2259 	mov	r1,#(_SX1276LoRaSetRFFrequency >> 8)
      000558 7As00            [12] 2260 	mov	r2,#(_SX1276LoRaSetRFFrequency >> 16)
      00055A 12r00r00         [24] 2261 	lcall	__sdcc_banked_call
                                   2262 ;	../../../platform/cc2530dk/LORA/LORA.c:259: SX1276LoRaSetRFPower(powerValue); //
      00055D 90r00r06         [24] 2263 	mov	dptr,#_powerValue
      000560 E0               [24] 2264 	movx	a,@dptr
      000561 F5 82            [12] 2265 	mov	dpl,a
      000563 78rE0            [12] 2266 	mov	r0,#_SX1276LoRaSetRFPower
      000565 79s02            [12] 2267 	mov	r1,#(_SX1276LoRaSetRFPower >> 8)
      000567 7As00            [12] 2268 	mov	r2,#(_SX1276LoRaSetRFPower >> 16)
      000569 12r00r00         [24] 2269 	lcall	__sdcc_banked_call
                                   2270 ;	../../../platform/cc2530dk/LORA/LORA.c:260: SX1276LoRaSetSpreadingFactor(SpreadingFactor);	 		// 
      00056C 90r00r03         [24] 2271 	mov	dptr,#_SpreadingFactor
      00056F E0               [24] 2272 	movx	a,@dptr
      000570 F5 82            [12] 2273 	mov	dpl,a
      000572 78r44            [12] 2274 	mov	r0,#_SX1276LoRaSetSpreadingFactor
      000574 79s03            [12] 2275 	mov	r1,#(_SX1276LoRaSetSpreadingFactor >> 8)
      000576 7As00            [12] 2276 	mov	r2,#(_SX1276LoRaSetSpreadingFactor >> 16)
      000578 12r00r00         [24] 2277 	lcall	__sdcc_banked_call
                                   2278 ;	../../../platform/cc2530dk/LORA/LORA.c:261: SX1276LoRaSetErrorCoding(CodingRate);		 	//
      00057B 90r00r04         [24] 2279 	mov	dptr,#_CodingRate
      00057E E0               [24] 2280 	movx	a,@dptr
      00057F F5 82            [12] 2281 	mov	dpl,a
      000581 78r80            [12] 2282 	mov	r0,#_SX1276LoRaSetErrorCoding
      000583 79s03            [12] 2283 	mov	r1,#(_SX1276LoRaSetErrorCoding >> 8)
      000585 7As00            [12] 2284 	mov	r2,#(_SX1276LoRaSetErrorCoding >> 16)
      000587 12r00r00         [24] 2285 	lcall	__sdcc_banked_call
                                   2286 ;	../../../platform/cc2530dk/LORA/LORA.c:262: SX1276LoRaSetPacketCrcOn(true);			 			//CRC 
      00058A 75 82 01         [24] 2287 	mov	dpl,#0x01
      00058D 78rAE            [12] 2288 	mov	r0,#_SX1276LoRaSetPacketCrcOn
      00058F 79s03            [12] 2289 	mov	r1,#(_SX1276LoRaSetPacketCrcOn >> 8)
      000591 7As00            [12] 2290 	mov	r2,#(_SX1276LoRaSetPacketCrcOn >> 16)
      000593 12r00r00         [24] 2291 	lcall	__sdcc_banked_call
                                   2292 ;	../../../platform/cc2530dk/LORA/LORA.c:263: SX1276LoRaSetSignalBandwidth( Bw_Frequency );	 			//, 125khz
      000596 90r00r05         [24] 2293 	mov	dptr,#_Bw_Frequency
      000599 E0               [24] 2294 	movx	a,@dptr
      00059A F5 82            [12] 2295 	mov	dpl,a
      00059C 78rDE            [12] 2296 	mov	r0,#_SX1276LoRaSetSignalBandwidth
      00059E 79s03            [12] 2297 	mov	r1,#(_SX1276LoRaSetSignalBandwidth >> 8)
      0005A0 7As00            [12] 2298 	mov	r2,#(_SX1276LoRaSetSignalBandwidth >> 16)
      0005A2 12r00r00         [24] 2299 	lcall	__sdcc_banked_call
                                   2300 ;	../../../platform/cc2530dk/LORA/LORA.c:264: SX1276LoRaSetImplicitHeaderOn(false);		 	//
      0005A5 75 82 00         [24] 2301 	mov	dpl,#0x00
      0005A8 78r0E            [12] 2302 	mov	r0,#_SX1276LoRaSetImplicitHeaderOn
      0005AA 79s04            [12] 2303 	mov	r1,#(_SX1276LoRaSetImplicitHeaderOn >> 8)
      0005AC 7As00            [12] 2304 	mov	r2,#(_SX1276LoRaSetImplicitHeaderOn >> 16)
      0005AE 12r00r00         [24] 2305 	lcall	__sdcc_banked_call
                                   2306 ;	../../../platform/cc2530dk/LORA/LORA.c:265: SX1276LoRaSetPayloadLength( 0xff);
      0005B1 75 82 FF         [24] 2307 	mov	dpl,#0xff
      0005B4 78rB8            [12] 2308 	mov	r0,#_SX1276LoRaSetPayloadLength
      0005B6 79s04            [12] 2309 	mov	r1,#(_SX1276LoRaSetPayloadLength >> 8)
      0005B8 7As00            [12] 2310 	mov	r2,#(_SX1276LoRaSetPayloadLength >> 16)
      0005BA 12r00r00         [24] 2311 	lcall	__sdcc_banked_call
                                   2312 ;	../../../platform/cc2530dk/LORA/LORA.c:266: SX1276LoRaSetSymbTimeout( 0x3FF );
      0005BD 90 03 FF         [24] 2313 	mov	dptr,#0x03ff
      0005C0 78r3B            [12] 2314 	mov	r0,#_SX1276LoRaSetSymbTimeout
      0005C2 79s04            [12] 2315 	mov	r1,#(_SX1276LoRaSetSymbTimeout >> 8)
      0005C4 7As00            [12] 2316 	mov	r2,#(_SX1276LoRaSetSymbTimeout >> 16)
      0005C6 12r00r00         [24] 2317 	lcall	__sdcc_banked_call
                                   2318 ;	../../../platform/cc2530dk/LORA/LORA.c:267: SX1276LoRaSetMobileNode(true); 			 			// 
      0005C9 75 82 01         [24] 2319 	mov	dpl,#0x01
      0005CC 78rCD            [12] 2320 	mov	r0,#_SX1276LoRaSetMobileNode
      0005CE 79s04            [12] 2321 	mov	r1,#(_SX1276LoRaSetMobileNode >> 8)
      0005D0 7As00            [12] 2322 	mov	r2,#(_SX1276LoRaSetMobileNode >> 16)
      0005D2 12r00r00         [24] 2323 	lcall	__sdcc_banked_call
                                   2324 ;	../../../platform/cc2530dk/LORA/LORA.c:269: RF_RECEIVE();
      0005D5 78rD5            [12] 2325 	mov	r0,#_RF_RECEIVE
      0005D7 79s06            [12] 2326 	mov	r1,#(_RF_RECEIVE >> 8)
      0005D9 7As00            [12] 2327 	mov	r2,#(_RF_RECEIVE >> 16)
      0005DB 12r00r00         [24] 2328 	lcall	__sdcc_banked_call
                                   2329 ;	../../../platform/cc2530dk/LORA/LORA.c:270: }
      0005DE 02r00r00         [24] 2330 	ljmp	__sdcc_banked_ret
                                   2331 ;------------------------------------------------------------
                                   2332 ;Allocation info for local variables in function 'FUN_RF_SENDPACKET'
                                   2333 ;------------------------------------------------------------
                                   2334 ;LEN                       Allocated to stack - sp -3
                                   2335 ;RF_TRAN_P                 Allocated to registers r5 r6 r7 
                                   2336 ;ASM_i                     Allocated to registers 
                                   2337 ;------------------------------------------------------------
                                   2338 ;	../../../platform/cc2530dk/LORA/LORA.c:272: void FUN_RF_SENDPACKET(unsigned char *RF_TRAN_P,unsigned char LEN)
                                   2339 ;	-----------------------------------------
                                   2340 ;	 function FUN_RF_SENDPACKET
                                   2341 ;	-----------------------------------------
      0005E1                       2342 _FUN_RF_SENDPACKET:
      0005E1 AD 82            [24] 2343 	mov	r5,dpl
      0005E3 AE 83            [24] 2344 	mov	r6,dph
      0005E5 AF F0            [24] 2345 	mov	r7,b
                                   2346 ;	../../../platform/cc2530dk/LORA/LORA.c:276: SX1276LoRaSetOpMode( Stdby_mode );
      0005E7 75 82 01         [24] 2347 	mov	dpl,#0x01
      0005EA C0 07            [24] 2348 	push	ar7
      0005EC C0 06            [24] 2349 	push	ar6
      0005EE C0 05            [24] 2350 	push	ar5
      0005F0 78rA2            [12] 2351 	mov	r0,#_SX1276LoRaSetOpMode
      0005F2 79s01            [12] 2352 	mov	r1,#(_SX1276LoRaSetOpMode >> 8)
      0005F4 7As00            [12] 2353 	mov	r2,#(_SX1276LoRaSetOpMode >> 16)
      0005F6 12r00r00         [24] 2354 	lcall	__sdcc_banked_call
                                   2355 ;	../../../platform/cc2530dk/LORA/LORA.c:277: SX1276WriteBuffer( REG_LR_HOPPERIOD, 0 );			//
      0005F9 E4               [12] 2356 	clr	a
      0005FA C0 E0            [24] 2357 	push	acc
      0005FC 75 82 24         [24] 2358 	mov	dpl,#0x24
      0005FF 78r54            [12] 2359 	mov	r0,#_SX1276WriteBuffer
      000601 79s01            [12] 2360 	mov	r1,#(_SX1276WriteBuffer >> 8)
      000603 7As00            [12] 2361 	mov	r2,#(_SX1276WriteBuffer >> 16)
      000605 12r00r00         [24] 2362 	lcall	__sdcc_banked_call
      000608 15 81            [12] 2363 	dec	sp
                                   2364 ;	../../../platform/cc2530dk/LORA/LORA.c:278: SX1276WriteBuffer(REG_LR_IRQFLAGSMASK,IRQN_TXD_Value);	//
      00060A 74 F7            [12] 2365 	mov	a,#0xf7
      00060C C0 E0            [24] 2366 	push	acc
      00060E 75 82 11         [24] 2367 	mov	dpl,#0x11
      000611 78r54            [12] 2368 	mov	r0,#_SX1276WriteBuffer
      000613 79s01            [12] 2369 	mov	r1,#(_SX1276WriteBuffer >> 8)
      000615 7As00            [12] 2370 	mov	r2,#(_SX1276WriteBuffer >> 16)
      000617 12r00r00         [24] 2371 	lcall	__sdcc_banked_call
      00061A 15 81            [12] 2372 	dec	sp
                                   2373 ;	../../../platform/cc2530dk/LORA/LORA.c:279: SX1276WriteBuffer( REG_LR_PAYLOADLENGTH, LEN);//
      00061C E5 81            [12] 2374 	mov	a,sp
      00061E 24 FA            [12] 2375 	add	a,#0xfa
      000620 F8               [12] 2376 	mov	r0,a
      000621 E6               [12] 2377 	mov	a,@r0
      000622 C0 E0            [24] 2378 	push	acc
      000624 75 82 22         [24] 2379 	mov	dpl,#0x22
      000627 78r54            [12] 2380 	mov	r0,#_SX1276WriteBuffer
      000629 79s01            [12] 2381 	mov	r1,#(_SX1276WriteBuffer >> 8)
      00062B 7As00            [12] 2382 	mov	r2,#(_SX1276WriteBuffer >> 16)
      00062D 12r00r00         [24] 2383 	lcall	__sdcc_banked_call
      000630 15 81            [12] 2384 	dec	sp
                                   2385 ;	../../../platform/cc2530dk/LORA/LORA.c:280: SX1276WriteBuffer( REG_LR_FIFOTXBASEADDR, 0); //Tx FIFO
      000632 E4               [12] 2386 	clr	a
      000633 C0 E0            [24] 2387 	push	acc
      000635 75 82 0E         [24] 2388 	mov	dpl,#0x0e
      000638 78r54            [12] 2389 	mov	r0,#_SX1276WriteBuffer
      00063A 79s01            [12] 2390 	mov	r1,#(_SX1276WriteBuffer >> 8)
      00063C 7As00            [12] 2391 	mov	r2,#(_SX1276WriteBuffer >> 16)
      00063E 12r00r00         [24] 2392 	lcall	__sdcc_banked_call
      000641 15 81            [12] 2393 	dec	sp
                                   2394 ;	../../../platform/cc2530dk/LORA/LORA.c:281: SX1276WriteBuffer( REG_LR_FIFOADDRPTR, 0 ); 	//SPI interface address pointer in FIFO data buffer
      000643 E4               [12] 2395 	clr	a
      000644 C0 E0            [24] 2396 	push	acc
      000646 75 82 0D         [24] 2397 	mov	dpl,#0x0d
      000649 78r54            [12] 2398 	mov	r0,#_SX1276WriteBuffer
      00064B 79s01            [12] 2399 	mov	r1,#(_SX1276WriteBuffer >> 8)
      00064D 7As00            [12] 2400 	mov	r2,#(_SX1276WriteBuffer >> 16)
      00064F 12r00r00         [24] 2401 	lcall	__sdcc_banked_call
      000652 15 81            [12] 2402 	dec	sp
                                   2403 ;	../../../platform/cc2530dk/LORA/LORA.c:282: SX1278_CS_L();   //
                                   2404 ;	assignBit
      000654 C2 90            [12] 2405 	clr	_P1_0
                                   2406 ;	../../../platform/cc2530dk/LORA/LORA.c:283: SPI1_ReadWriteByte( 0x80 );
      000656 75 82 80         [24] 2407 	mov	dpl,#0x80
      000659 78r49            [12] 2408 	mov	r0,#_SPI1_ReadWriteByte
      00065B 79s00            [12] 2409 	mov	r1,#(_SPI1_ReadWriteByte >> 8)
      00065D 7As00            [12] 2410 	mov	r2,#(_SPI1_ReadWriteByte >> 16)
      00065F 12r00r00         [24] 2411 	lcall	__sdcc_banked_call
      000662 D0 05            [24] 2412 	pop	ar5
      000664 D0 06            [24] 2413 	pop	ar6
      000666 D0 07            [24] 2414 	pop	ar7
                                   2415 ;	../../../platform/cc2530dk/LORA/LORA.c:284: for( ASM_i = 0; ASM_i < LEN; ASM_i++ )
      000668 7C 00            [12] 2416 	mov	r4,#0x00
      00066A                       2417 00103$:
      00066A E5 81            [12] 2418 	mov	a,sp
      00066C 24 FD            [12] 2419 	add	a,#0xfd
      00066E F8               [12] 2420 	mov	r0,a
      00066F C3               [12] 2421 	clr	c
      000670 EC               [12] 2422 	mov	a,r4
      000671 96               [12] 2423 	subb	a,@r0
      000672 50 2D            [24] 2424 	jnc	00101$
                                   2425 ;	../../../platform/cc2530dk/LORA/LORA.c:286: SPI1_ReadWriteByte( *RF_TRAN_P );RF_TRAN_P++;
      000674 8D 82            [24] 2426 	mov	dpl,r5
      000676 8E 83            [24] 2427 	mov	dph,r6
      000678 8F F0            [24] 2428 	mov	b,r7
      00067A 12r00r00         [24] 2429 	lcall	__gptrget
      00067D FB               [12] 2430 	mov	r3,a
      00067E A3               [24] 2431 	inc	dptr
      00067F AD 82            [24] 2432 	mov	r5,dpl
      000681 AE 83            [24] 2433 	mov	r6,dph
      000683 8B 82            [24] 2434 	mov	dpl,r3
      000685 C0 07            [24] 2435 	push	ar7
      000687 C0 06            [24] 2436 	push	ar6
      000689 C0 05            [24] 2437 	push	ar5
      00068B C0 04            [24] 2438 	push	ar4
      00068D 78r49            [12] 2439 	mov	r0,#_SPI1_ReadWriteByte
      00068F 79s00            [12] 2440 	mov	r1,#(_SPI1_ReadWriteByte >> 8)
      000691 7As00            [12] 2441 	mov	r2,#(_SPI1_ReadWriteByte >> 16)
      000693 12r00r00         [24] 2442 	lcall	__sdcc_banked_call
      000696 D0 04            [24] 2443 	pop	ar4
      000698 D0 05            [24] 2444 	pop	ar5
      00069A D0 06            [24] 2445 	pop	ar6
      00069C D0 07            [24] 2446 	pop	ar7
                                   2447 ;	../../../platform/cc2530dk/LORA/LORA.c:284: for( ASM_i = 0; ASM_i < LEN; ASM_i++ )
      00069E 0C               [12] 2448 	inc	r4
      00069F 80 C9            [24] 2449 	sjmp	00103$
      0006A1                       2450 00101$:
                                   2451 ;	../../../platform/cc2530dk/LORA/LORA.c:288: SX1278_CS_H();  //
                                   2452 ;	assignBit
      0006A1 D2 90            [12] 2453 	setb	_P1_0
                                   2454 ;	../../../platform/cc2530dk/LORA/LORA.c:289: SX1276WriteBuffer(REG_LR_DIOMAPPING1,0x40);  //DIO0
      0006A3 74 40            [12] 2455 	mov	a,#0x40
      0006A5 C0 E0            [24] 2456 	push	acc
      0006A7 75 82 40         [24] 2457 	mov	dpl,#0x40
      0006AA 78r54            [12] 2458 	mov	r0,#_SX1276WriteBuffer
      0006AC 79s01            [12] 2459 	mov	r1,#(_SX1276WriteBuffer >> 8)
      0006AE 7As00            [12] 2460 	mov	r2,#(_SX1276WriteBuffer >> 16)
      0006B0 12r00r00         [24] 2461 	lcall	__sdcc_banked_call
      0006B3 15 81            [12] 2462 	dec	sp
                                   2463 ;	../../../platform/cc2530dk/LORA/LORA.c:290: SX1276WriteBuffer(REG_LR_DIOMAPPING2,0x00);
      0006B5 E4               [12] 2464 	clr	a
      0006B6 C0 E0            [24] 2465 	push	acc
      0006B8 75 82 41         [24] 2466 	mov	dpl,#0x41
      0006BB 78r54            [12] 2467 	mov	r0,#_SX1276WriteBuffer
      0006BD 79s01            [12] 2468 	mov	r1,#(_SX1276WriteBuffer >> 8)
      0006BF 7As00            [12] 2469 	mov	r2,#(_SX1276WriteBuffer >> 16)
      0006C1 12r00r00         [24] 2470 	lcall	__sdcc_banked_call
      0006C4 15 81            [12] 2471 	dec	sp
                                   2472 ;	../../../platform/cc2530dk/LORA/LORA.c:291: SX1276LoRaSetOpMode( Transmitter_mode );     //
      0006C6 75 82 03         [24] 2473 	mov	dpl,#0x03
      0006C9 78rA2            [12] 2474 	mov	r0,#_SX1276LoRaSetOpMode
      0006CB 79s01            [12] 2475 	mov	r1,#(_SX1276LoRaSetOpMode >> 8)
      0006CD 7As00            [12] 2476 	mov	r2,#(_SX1276LoRaSetOpMode >> 16)
      0006CF 12r00r00         [24] 2477 	lcall	__sdcc_banked_call
                                   2478 ;	../../../platform/cc2530dk/LORA/LORA.c:293: }
      0006D2 02r00r00         [24] 2479 	ljmp	__sdcc_banked_ret
                                   2480 ;------------------------------------------------------------
                                   2481 ;Allocation info for local variables in function 'RF_RECEIVE'
                                   2482 ;------------------------------------------------------------
                                   2483 ;	../../../platform/cc2530dk/LORA/LORA.c:294: void RF_RECEIVE (void)
                                   2484 ;	-----------------------------------------
                                   2485 ;	 function RF_RECEIVE
                                   2486 ;	-----------------------------------------
      0006D5                       2487 _RF_RECEIVE:
                                   2488 ;	../../../platform/cc2530dk/LORA/LORA.c:296: SX1276LoRaSetOpMode(Stdby_mode );
      0006D5 75 82 01         [24] 2489 	mov	dpl,#0x01
      0006D8 78rA2            [12] 2490 	mov	r0,#_SX1276LoRaSetOpMode
      0006DA 79s01            [12] 2491 	mov	r1,#(_SX1276LoRaSetOpMode >> 8)
      0006DC 7As00            [12] 2492 	mov	r2,#(_SX1276LoRaSetOpMode >> 16)
      0006DE 12r00r00         [24] 2493 	lcall	__sdcc_banked_call
                                   2494 ;	../../../platform/cc2530dk/LORA/LORA.c:297: SX1276WriteBuffer(REG_LR_IRQFLAGSMASK,IRQN_RXD_Value);  //0x11,
      0006E1 74 9F            [12] 2495 	mov	a,#0x9f
      0006E3 C0 E0            [24] 2496 	push	acc
      0006E5 75 82 11         [24] 2497 	mov	dpl,#0x11
      0006E8 78r54            [12] 2498 	mov	r0,#_SX1276WriteBuffer
      0006EA 79s01            [12] 2499 	mov	r1,#(_SX1276WriteBuffer >> 8)
      0006EC 7As00            [12] 2500 	mov	r2,#(_SX1276WriteBuffer >> 16)
      0006EE 12r00r00         [24] 2501 	lcall	__sdcc_banked_call
      0006F1 15 81            [12] 2502 	dec	sp
                                   2503 ;	../../../platform/cc2530dk/LORA/LORA.c:298: SX1276WriteBuffer(REG_LR_HOPPERIOD,	PACKET_MIAX_Value );//0x24
      0006F3 74 FF            [12] 2504 	mov	a,#0xff
      0006F5 C0 E0            [24] 2505 	push	acc
      0006F7 75 82 24         [24] 2506 	mov	dpl,#0x24
      0006FA 78r54            [12] 2507 	mov	r0,#_SX1276WriteBuffer
      0006FC 79s01            [12] 2508 	mov	r1,#(_SX1276WriteBuffer >> 8)
      0006FE 7As00            [12] 2509 	mov	r2,#(_SX1276WriteBuffer >> 16)
      000700 12r00r00         [24] 2510 	lcall	__sdcc_banked_call
      000703 15 81            [12] 2511 	dec	sp
                                   2512 ;	../../../platform/cc2530dk/LORA/LORA.c:299: SX1276WriteBuffer( REG_LR_DIOMAPPING1, 0X00 ); 					//DIO
      000705 E4               [12] 2513 	clr	a
      000706 C0 E0            [24] 2514 	push	acc
      000708 75 82 40         [24] 2515 	mov	dpl,#0x40
      00070B 78r54            [12] 2516 	mov	r0,#_SX1276WriteBuffer
      00070D 79s01            [12] 2517 	mov	r1,#(_SX1276WriteBuffer >> 8)
      00070F 7As00            [12] 2518 	mov	r2,#(_SX1276WriteBuffer >> 16)
      000711 12r00r00         [24] 2519 	lcall	__sdcc_banked_call
      000714 15 81            [12] 2520 	dec	sp
                                   2521 ;	../../../platform/cc2530dk/LORA/LORA.c:300: SX1276WriteBuffer( REG_LR_DIOMAPPING2, 0X00 );	
      000716 E4               [12] 2522 	clr	a
      000717 C0 E0            [24] 2523 	push	acc
      000719 75 82 41         [24] 2524 	mov	dpl,#0x41
      00071C 78r54            [12] 2525 	mov	r0,#_SX1276WriteBuffer
      00071E 79s01            [12] 2526 	mov	r1,#(_SX1276WriteBuffer >> 8)
      000720 7As00            [12] 2527 	mov	r2,#(_SX1276WriteBuffer >> 16)
      000722 12r00r00         [24] 2528 	lcall	__sdcc_banked_call
      000725 15 81            [12] 2529 	dec	sp
                                   2530 ;	../../../platform/cc2530dk/LORA/LORA.c:301: SX1276LoRaSetOpMode( Receiver_mode );  //
      000727 75 82 05         [24] 2531 	mov	dpl,#0x05
      00072A 78rA2            [12] 2532 	mov	r0,#_SX1276LoRaSetOpMode
      00072C 79s01            [12] 2533 	mov	r1,#(_SX1276LoRaSetOpMode >> 8)
      00072E 7As00            [12] 2534 	mov	r2,#(_SX1276LoRaSetOpMode >> 16)
      000730 12r00r00         [24] 2535 	lcall	__sdcc_banked_call
                                   2536 ;	../../../platform/cc2530dk/LORA/LORA.c:302: }
      000733 02r00r00         [24] 2537 	ljmp	__sdcc_banked_ret
                                   2538 ;------------------------------------------------------------
                                   2539 ;Allocation info for local variables in function 'SX1278_InteruptHandler'
                                   2540 ;------------------------------------------------------------
                                   2541 ;pRecv                     Allocated to stack - sp -3
                                   2542 ;ret                       Allocated to stack - sp +0
                                   2543 ;------------------------------------------------------------
                                   2544 ;	../../../platform/cc2530dk/LORA/LORA.c:346: uint8_t SX1278_InteruptHandler(uint8_t *pRecv)
                                   2545 ;	-----------------------------------------
                                   2546 ;	 function SX1278_InteruptHandler
                                   2547 ;	-----------------------------------------
      000736                       2548 _SX1278_InteruptHandler:
      000736 C0 82            [24] 2549 	push	dpl
      000738 C0 83            [24] 2550 	push	dph
      00073A C0 F0            [24] 2551 	push	b
      00073C 05 81            [12] 2552 	inc	sp
                                   2553 ;	../../../platform/cc2530dk/LORA/LORA.c:349: RF_EX0_STATUS=SX1276ReadBuffer( REG_LR_IRQFLAGS ); 
      00073E 75 82 12         [24] 2554 	mov	dpl,#0x12
      000741 78r7B            [12] 2555 	mov	r0,#_SX1276ReadBuffer
      000743 79s01            [12] 2556 	mov	r1,#(_SX1276ReadBuffer >> 8)
      000745 7As00            [12] 2557 	mov	r2,#(_SX1276ReadBuffer >> 16)
      000747 12r00r00         [24] 2558 	lcall	__sdcc_banked_call
      00074A AC 82            [24] 2559 	mov	r4,dpl
      00074C 90r00r01         [24] 2560 	mov	dptr,#_RF_EX0_STATUS
      00074F EC               [12] 2561 	mov	a,r4
      000750 F0               [24] 2562 	movx	@dptr,a
                                   2563 ;	../../../platform/cc2530dk/LORA/LORA.c:350: if((RF_EX0_STATUS&0x40)==0x40)  //
      000751 53 04 40         [24] 2564 	anl	ar4,#0x40
      000754 7B 00            [12] 2565 	mov	r3,#0x00
      000756 BC 40 05         [24] 2566 	cjne	r4,#0x40,00155$
      000759 BB 00 02         [24] 2567 	cjne	r3,#0x00,00155$
      00075C 80 03            [24] 2568 	sjmp	00156$
      00075E                       2569 00155$:
      00075E 02r08r7E         [24] 2570 	ljmp	00116$
      000761                       2571 00156$:
                                   2572 ;	../../../platform/cc2530dk/LORA/LORA.c:352: CRC_Value=SX1276ReadBuffer( REG_LR_MODEMCONFIG2 );
      000761 75 82 1E         [24] 2573 	mov	dpl,#0x1e
      000764 78r7B            [12] 2574 	mov	r0,#_SX1276ReadBuffer
      000766 79s01            [12] 2575 	mov	r1,#(_SX1276ReadBuffer >> 8)
      000768 7As00            [12] 2576 	mov	r2,#(_SX1276ReadBuffer >> 16)
      00076A 12r00r00         [24] 2577 	lcall	__sdcc_banked_call
      00076D AC 82            [24] 2578 	mov	r4,dpl
      00076F 90r00r02         [24] 2579 	mov	dptr,#_CRC_Value
      000772 EC               [12] 2580 	mov	a,r4
      000773 F0               [24] 2581 	movx	@dptr,a
                                   2582 ;	../../../platform/cc2530dk/LORA/LORA.c:353: if((CRC_Value&0x04)==0x04) //CRC
      000774 53 04 04         [24] 2583 	anl	ar4,#0x04
      000777 7B 00            [12] 2584 	mov	r3,#0x00
      000779 BC 04 05         [24] 2585 	cjne	r4,#0x04,00157$
      00077C BB 00 02         [24] 2586 	cjne	r3,#0x00,00157$
      00077F 80 03            [24] 2587 	sjmp	00158$
      000781                       2588 00157$:
      000781 02r08r1B         [24] 2589 	ljmp	00105$
      000784                       2590 00158$:
                                   2591 ;	../../../platform/cc2530dk/LORA/LORA.c:355: SX1276WriteBuffer (REG_LR_FIFOADDRPTR,0x00);
      000784 E4               [12] 2592 	clr	a
      000785 C0 E0            [24] 2593 	push	acc
      000787 75 82 0D         [24] 2594 	mov	dpl,#0x0d
      00078A 78r54            [12] 2595 	mov	r0,#_SX1276WriteBuffer
      00078C 79s01            [12] 2596 	mov	r1,#(_SX1276WriteBuffer >> 8)
      00078E 7As00            [12] 2597 	mov	r2,#(_SX1276WriteBuffer >> 16)
      000790 12r00r00         [24] 2598 	lcall	__sdcc_banked_call
      000793 15 81            [12] 2599 	dec	sp
                                   2600 ;	../../../platform/cc2530dk/LORA/LORA.c:356: SX1278_RLEN = SX1276ReadBuffer(REG_LR_NBRXBYTES); //
      000795 75 82 13         [24] 2601 	mov	dpl,#0x13
      000798 78r7B            [12] 2602 	mov	r0,#_SX1276ReadBuffer
      00079A 79s01            [12] 2603 	mov	r1,#(_SX1276ReadBuffer >> 8)
      00079C 7As00            [12] 2604 	mov	r2,#(_SX1276ReadBuffer >> 16)
      00079E 12r00r00         [24] 2605 	lcall	__sdcc_banked_call
      0007A1 E5 82            [12] 2606 	mov	a,dpl
      0007A3 90r00r00         [24] 2607 	mov	dptr,#_SX1278_RLEN
      0007A6 F0               [24] 2608 	movx	@dptr,a
                                   2609 ;	../../../platform/cc2530dk/LORA/LORA.c:357: SX1278_CS_L();
                                   2610 ;	assignBit
      0007A7 C2 90            [12] 2611 	clr	_P1_0
                                   2612 ;	../../../platform/cc2530dk/LORA/LORA.c:358: SPI1_ReadWriteByte( 0x00 );
      0007A9 75 82 00         [24] 2613 	mov	dpl,#0x00
      0007AC 78r49            [12] 2614 	mov	r0,#_SPI1_ReadWriteByte
      0007AE 79s00            [12] 2615 	mov	r1,#(_SPI1_ReadWriteByte >> 8)
      0007B0 7As00            [12] 2616 	mov	r2,#(_SPI1_ReadWriteByte >> 16)
      0007B2 12r00r00         [24] 2617 	lcall	__sdcc_banked_call
                                   2618 ;	../../../platform/cc2530dk/LORA/LORA.c:359: if(SX1278_RLEN > 249)  //10
      0007B5 90r00r00         [24] 2619 	mov	dptr,#_SX1278_RLEN
      0007B8 E0               [24] 2620 	movx	a,@dptr
      0007B9 FC               [12] 2621 	mov  r4,a
      0007BA 24 06            [12] 2622 	add	a,#0xff - 0xf9
      0007BC 50 06            [24] 2623 	jnc	00102$
                                   2624 ;	../../../platform/cc2530dk/LORA/LORA.c:360: SX1278_RLEN = 249;			
      0007BE 90r00r00         [24] 2625 	mov	dptr,#_SX1278_RLEN
      0007C1 74 F9            [12] 2626 	mov	a,#0xf9
      0007C3 F0               [24] 2627 	movx	@dptr,a
      0007C4                       2628 00102$:
                                   2629 ;	../../../platform/cc2530dk/LORA/LORA.c:361: for(RF_REC_RLEN_i=0;RF_REC_RLEN_i<SX1278_RLEN;RF_REC_RLEN_i++)
      0007C4 90r00r07         [24] 2630 	mov	dptr,#_RF_REC_RLEN_i
      0007C7 E4               [12] 2631 	clr	a
      0007C8 F0               [24] 2632 	movx	@dptr,a
      0007C9                       2633 00119$:
      0007C9 90r00r07         [24] 2634 	mov	dptr,#_RF_REC_RLEN_i
      0007CC E0               [24] 2635 	movx	a,@dptr
      0007CD FC               [12] 2636 	mov	r4,a
      0007CE 90r00r00         [24] 2637 	mov	dptr,#_SX1278_RLEN
      0007D1 E0               [24] 2638 	movx	a,@dptr
      0007D2 FB               [12] 2639 	mov	r3,a
      0007D3 C3               [12] 2640 	clr	c
      0007D4 EC               [12] 2641 	mov	a,r4
      0007D5 9B               [12] 2642 	subb	a,r3
      0007D6 50 41            [24] 2643 	jnc	00103$
                                   2644 ;	../../../platform/cc2530dk/LORA/LORA.c:363: pRecv[RF_REC_RLEN_i]=SPI1_ReadWriteByte(0xff);		
      0007D8 90r00r07         [24] 2645 	mov	dptr,#_RF_REC_RLEN_i
      0007DB E0               [24] 2646 	movx	a,@dptr
      0007DC FC               [12] 2647 	mov	r4,a
      0007DD E5 81            [12] 2648 	mov	a,sp
      0007DF 24 FD            [12] 2649 	add	a,#0xfd
      0007E1 F8               [12] 2650 	mov	r0,a
      0007E2 EC               [12] 2651 	mov	a,r4
      0007E3 26               [12] 2652 	add	a,@r0
      0007E4 FC               [12] 2653 	mov	r4,a
      0007E5 E4               [12] 2654 	clr	a
      0007E6 08               [12] 2655 	inc	r0
      0007E7 36               [12] 2656 	addc	a,@r0
      0007E8 FB               [12] 2657 	mov	r3,a
      0007E9 08               [12] 2658 	inc	r0
      0007EA 86 02            [24] 2659 	mov	ar2,@r0
      0007EC 75 82 FF         [24] 2660 	mov	dpl,#0xff
      0007EF C0 04            [24] 2661 	push	ar4
      0007F1 C0 03            [24] 2662 	push	ar3
      0007F3 C0 02            [24] 2663 	push	ar2
      0007F5 78r49            [12] 2664 	mov	r0,#_SPI1_ReadWriteByte
      0007F7 79s00            [12] 2665 	mov	r1,#(_SPI1_ReadWriteByte >> 8)
      0007F9 7As00            [12] 2666 	mov	r2,#(_SPI1_ReadWriteByte >> 16)
      0007FB 12r00r00         [24] 2667 	lcall	__sdcc_banked_call
      0007FE AF 82            [24] 2668 	mov	r7,dpl
      000800 D0 02            [24] 2669 	pop	ar2
      000802 D0 03            [24] 2670 	pop	ar3
      000804 D0 04            [24] 2671 	pop	ar4
      000806 8C 82            [24] 2672 	mov	dpl,r4
      000808 8B 83            [24] 2673 	mov	dph,r3
      00080A 8A F0            [24] 2674 	mov	b,r2
      00080C EF               [12] 2675 	mov	a,r7
      00080D 12r00r00         [24] 2676 	lcall	__gptrput
                                   2677 ;	../../../platform/cc2530dk/LORA/LORA.c:361: for(RF_REC_RLEN_i=0;RF_REC_RLEN_i<SX1278_RLEN;RF_REC_RLEN_i++)
      000810 90r00r07         [24] 2678 	mov	dptr,#_RF_REC_RLEN_i
      000813 E0               [24] 2679 	movx	a,@dptr
      000814 24 01            [12] 2680 	add	a,#0x01
      000816 F0               [24] 2681 	movx	@dptr,a
      000817 80 B0            [24] 2682 	sjmp	00119$
      000819                       2683 00103$:
                                   2684 ;	../../../platform/cc2530dk/LORA/LORA.c:365: SX1278_CS_H();
                                   2685 ;	assignBit
      000819 D2 90            [12] 2686 	setb	_P1_0
      00081B                       2687 00105$:
                                   2688 ;	../../../platform/cc2530dk/LORA/LORA.c:367: SX1276LoRaSetOpMode( Stdby_mode );
      00081B 75 82 01         [24] 2689 	mov	dpl,#0x01
      00081E 78rA2            [12] 2690 	mov	r0,#_SX1276LoRaSetOpMode
      000820 79s01            [12] 2691 	mov	r1,#(_SX1276LoRaSetOpMode >> 8)
      000822 7As00            [12] 2692 	mov	r2,#(_SX1276LoRaSetOpMode >> 16)
      000824 12r00r00         [24] 2693 	lcall	__sdcc_banked_call
                                   2694 ;	../../../platform/cc2530dk/LORA/LORA.c:368: SX1276WriteBuffer(REG_LR_IRQFLAGSMASK, IRQN_RXD_Value);  //
      000827 74 9F            [12] 2695 	mov	a,#0x9f
      000829 C0 E0            [24] 2696 	push	acc
      00082B 75 82 11         [24] 2697 	mov	dpl,#0x11
      00082E 78r54            [12] 2698 	mov	r0,#_SX1276WriteBuffer
      000830 79s01            [12] 2699 	mov	r1,#(_SX1276WriteBuffer >> 8)
      000832 7As00            [12] 2700 	mov	r2,#(_SX1276WriteBuffer >> 16)
      000834 12r00r00         [24] 2701 	lcall	__sdcc_banked_call
      000837 15 81            [12] 2702 	dec	sp
                                   2703 ;	../../../platform/cc2530dk/LORA/LORA.c:369: SX1276WriteBuffer(REG_LR_HOPPERIOD,    PACKET_MIAX_Value);
      000839 74 FF            [12] 2704 	mov	a,#0xff
      00083B C0 E0            [24] 2705 	push	acc
      00083D 75 82 24         [24] 2706 	mov	dpl,#0x24
      000840 78r54            [12] 2707 	mov	r0,#_SX1276WriteBuffer
      000842 79s01            [12] 2708 	mov	r1,#(_SX1276WriteBuffer >> 8)
      000844 7As00            [12] 2709 	mov	r2,#(_SX1276WriteBuffer >> 16)
      000846 12r00r00         [24] 2710 	lcall	__sdcc_banked_call
      000849 15 81            [12] 2711 	dec	sp
                                   2712 ;	../../../platform/cc2530dk/LORA/LORA.c:370: SX1276WriteBuffer( REG_LR_DIOMAPPING1, 0X00 );
      00084B E4               [12] 2713 	clr	a
      00084C C0 E0            [24] 2714 	push	acc
      00084E 75 82 40         [24] 2715 	mov	dpl,#0x40
      000851 78r54            [12] 2716 	mov	r0,#_SX1276WriteBuffer
      000853 79s01            [12] 2717 	mov	r1,#(_SX1276WriteBuffer >> 8)
      000855 7As00            [12] 2718 	mov	r2,#(_SX1276WriteBuffer >> 16)
      000857 12r00r00         [24] 2719 	lcall	__sdcc_banked_call
      00085A 15 81            [12] 2720 	dec	sp
                                   2721 ;	../../../platform/cc2530dk/LORA/LORA.c:371: SX1276WriteBuffer( REG_LR_DIOMAPPING2, 0x00 );	
      00085C E4               [12] 2722 	clr	a
      00085D C0 E0            [24] 2723 	push	acc
      00085F 75 82 41         [24] 2724 	mov	dpl,#0x41
      000862 78r54            [12] 2725 	mov	r0,#_SX1276WriteBuffer
      000864 79s01            [12] 2726 	mov	r1,#(_SX1276WriteBuffer >> 8)
      000866 7As00            [12] 2727 	mov	r2,#(_SX1276WriteBuffer >> 16)
      000868 12r00r00         [24] 2728 	lcall	__sdcc_banked_call
      00086B 15 81            [12] 2729 	dec	sp
                                   2730 ;	../../../platform/cc2530dk/LORA/LORA.c:372: SX1276LoRaSetOpMode( Receiver_mode );
      00086D 75 82 05         [24] 2731 	mov	dpl,#0x05
      000870 78rA2            [12] 2732 	mov	r0,#_SX1276LoRaSetOpMode
      000872 79s01            [12] 2733 	mov	r1,#(_SX1276LoRaSetOpMode >> 8)
      000874 7As00            [12] 2734 	mov	r2,#(_SX1276LoRaSetOpMode >> 16)
      000876 12r00r00         [24] 2735 	lcall	__sdcc_banked_call
                                   2736 ;	../../../platform/cc2530dk/LORA/LORA.c:374: ret = INT_FLG_RX_DONE;
      000879 7F 01            [12] 2737 	mov	r7,#0x01
      00087B 02r0Ar29         [24] 2738 	ljmp	00117$
      00087E                       2739 00116$:
                                   2740 ;	../../../platform/cc2530dk/LORA/LORA.c:376: else if((RF_EX0_STATUS&0x08)==0x08)  //
      00087E 90r00r01         [24] 2741 	mov	dptr,#_RF_EX0_STATUS
      000881 E0               [24] 2742 	movx	a,@dptr
      000882 FE               [12] 2743 	mov	r6,a
      000883 53 06 08         [24] 2744 	anl	ar6,#0x08
      000886 7D 00            [12] 2745 	mov	r5,#0x00
      000888 BE 08 66         [24] 2746 	cjne	r6,#0x08,00113$
      00088B BD 00 63         [24] 2747 	cjne	r5,#0x00,00113$
                                   2748 ;	../../../platform/cc2530dk/LORA/LORA.c:378: SX1276LoRaSetOpMode( Stdby_mode );
      00088E 75 82 01         [24] 2749 	mov	dpl,#0x01
      000891 78rA2            [12] 2750 	mov	r0,#_SX1276LoRaSetOpMode
      000893 79s01            [12] 2751 	mov	r1,#(_SX1276LoRaSetOpMode >> 8)
      000895 7As00            [12] 2752 	mov	r2,#(_SX1276LoRaSetOpMode >> 16)
      000897 12r00r00         [24] 2753 	lcall	__sdcc_banked_call
                                   2754 ;	../../../platform/cc2530dk/LORA/LORA.c:379: SX1276WriteBuffer(REG_LR_IRQFLAGSMASK,IRQN_RXD_Value);	//
      00089A 74 9F            [12] 2755 	mov	a,#0x9f
      00089C C0 E0            [24] 2756 	push	acc
      00089E 75 82 11         [24] 2757 	mov	dpl,#0x11
      0008A1 78r54            [12] 2758 	mov	r0,#_SX1276WriteBuffer
      0008A3 79s01            [12] 2759 	mov	r1,#(_SX1276WriteBuffer >> 8)
      0008A5 7As00            [12] 2760 	mov	r2,#(_SX1276WriteBuffer >> 16)
      0008A7 12r00r00         [24] 2761 	lcall	__sdcc_banked_call
      0008AA 15 81            [12] 2762 	dec	sp
                                   2763 ;	../../../platform/cc2530dk/LORA/LORA.c:380: SX1276WriteBuffer(REG_LR_HOPPERIOD,   PACKET_MIAX_Value );
      0008AC 74 FF            [12] 2764 	mov	a,#0xff
      0008AE C0 E0            [24] 2765 	push	acc
      0008B0 75 82 24         [24] 2766 	mov	dpl,#0x24
      0008B3 78r54            [12] 2767 	mov	r0,#_SX1276WriteBuffer
      0008B5 79s01            [12] 2768 	mov	r1,#(_SX1276WriteBuffer >> 8)
      0008B7 7As00            [12] 2769 	mov	r2,#(_SX1276WriteBuffer >> 16)
      0008B9 12r00r00         [24] 2770 	lcall	__sdcc_banked_call
      0008BC 15 81            [12] 2771 	dec	sp
                                   2772 ;	../../../platform/cc2530dk/LORA/LORA.c:381: SX1276WriteBuffer( REG_LR_DIOMAPPING1, 0X00 );
      0008BE E4               [12] 2773 	clr	a
      0008BF C0 E0            [24] 2774 	push	acc
      0008C1 75 82 40         [24] 2775 	mov	dpl,#0x40
      0008C4 78r54            [12] 2776 	mov	r0,#_SX1276WriteBuffer
      0008C6 79s01            [12] 2777 	mov	r1,#(_SX1276WriteBuffer >> 8)
      0008C8 7As00            [12] 2778 	mov	r2,#(_SX1276WriteBuffer >> 16)
      0008CA 12r00r00         [24] 2779 	lcall	__sdcc_banked_call
      0008CD 15 81            [12] 2780 	dec	sp
                                   2781 ;	../../../platform/cc2530dk/LORA/LORA.c:382: SX1276WriteBuffer( REG_LR_DIOMAPPING2, 0x00 );	
      0008CF E4               [12] 2782 	clr	a
      0008D0 C0 E0            [24] 2783 	push	acc
      0008D2 75 82 41         [24] 2784 	mov	dpl,#0x41
      0008D5 78r54            [12] 2785 	mov	r0,#_SX1276WriteBuffer
      0008D7 79s01            [12] 2786 	mov	r1,#(_SX1276WriteBuffer >> 8)
      0008D9 7As00            [12] 2787 	mov	r2,#(_SX1276WriteBuffer >> 16)
      0008DB 12r00r00         [24] 2788 	lcall	__sdcc_banked_call
      0008DE 15 81            [12] 2789 	dec	sp
                                   2790 ;	../../../platform/cc2530dk/LORA/LORA.c:383: SX1276LoRaSetOpMode( Receiver_mode );
      0008E0 75 82 05         [24] 2791 	mov	dpl,#0x05
      0008E3 78rA2            [12] 2792 	mov	r0,#_SX1276LoRaSetOpMode
      0008E5 79s01            [12] 2793 	mov	r1,#(_SX1276LoRaSetOpMode >> 8)
      0008E7 7As00            [12] 2794 	mov	r2,#(_SX1276LoRaSetOpMode >> 16)
      0008E9 12r00r00         [24] 2795 	lcall	__sdcc_banked_call
                                   2796 ;	../../../platform/cc2530dk/LORA/LORA.c:385: ret = INT_FLG_TX_DONE;
      0008EC 7F 02            [12] 2797 	mov	r7,#0x02
      0008EE 02r0Ar29         [24] 2798 	ljmp	00117$
      0008F1                       2799 00113$:
                                   2800 ;	../../../platform/cc2530dk/LORA/LORA.c:387: else if((RF_EX0_STATUS&0x04)==0x04)  //cad
      0008F1 90r00r01         [24] 2801 	mov	dptr,#_RF_EX0_STATUS
      0008F4 E0               [24] 2802 	movx	a,@dptr
      0008F5 FE               [12] 2803 	mov	r6,a
      0008F6 53 06 04         [24] 2804 	anl	ar6,#0x04
      0008F9 7D 00            [12] 2805 	mov	r5,#0x00
      0008FB BE 04 05         [24] 2806 	cjne	r6,#0x04,00163$
      0008FE BD 00 02         [24] 2807 	cjne	r5,#0x00,00163$
      000901 80 03            [24] 2808 	sjmp	00164$
      000903                       2809 00163$:
      000903 02r09rCA         [24] 2810 	ljmp	00110$
      000906                       2811 00164$:
                                   2812 ;	../../../platform/cc2530dk/LORA/LORA.c:389: if((RF_EX0_STATUS&0x01)==0x01)
      000906 90r00r01         [24] 2813 	mov	dptr,#_RF_EX0_STATUS
      000909 E0               [24] 2814 	movx	a,@dptr
      00090A FE               [12] 2815 	mov	r6,a
      00090B 53 06 01         [24] 2816 	anl	ar6,#0x01
      00090E 7D 00            [12] 2817 	mov	r5,#0x00
      000910 BE 01 67         [24] 2818 	cjne	r6,#0x01,00107$
      000913 BD 00 64         [24] 2819 	cjne	r5,#0x00,00107$
                                   2820 ;	../../../platform/cc2530dk/LORA/LORA.c:392: SX1276LoRaSetOpMode( Stdby_mode );
      000916 75 82 01         [24] 2821 	mov	dpl,#0x01
      000919 78rA2            [12] 2822 	mov	r0,#_SX1276LoRaSetOpMode
      00091B 79s01            [12] 2823 	mov	r1,#(_SX1276LoRaSetOpMode >> 8)
      00091D 7As00            [12] 2824 	mov	r2,#(_SX1276LoRaSetOpMode >> 16)
      00091F 12r00r00         [24] 2825 	lcall	__sdcc_banked_call
                                   2826 ;	../../../platform/cc2530dk/LORA/LORA.c:393: SX1276WriteBuffer(REG_LR_IRQFLAGSMASK,IRQN_RXD_Value);	//
      000922 74 9F            [12] 2827 	mov	a,#0x9f
      000924 C0 E0            [24] 2828 	push	acc
      000926 75 82 11         [24] 2829 	mov	dpl,#0x11
      000929 78r54            [12] 2830 	mov	r0,#_SX1276WriteBuffer
      00092B 79s01            [12] 2831 	mov	r1,#(_SX1276WriteBuffer >> 8)
      00092D 7As00            [12] 2832 	mov	r2,#(_SX1276WriteBuffer >> 16)
      00092F 12r00r00         [24] 2833 	lcall	__sdcc_banked_call
      000932 15 81            [12] 2834 	dec	sp
                                   2835 ;	../../../platform/cc2530dk/LORA/LORA.c:394: SX1276WriteBuffer(REG_LR_HOPPERIOD,   PACKET_MIAX_Value );
      000934 74 FF            [12] 2836 	mov	a,#0xff
      000936 C0 E0            [24] 2837 	push	acc
      000938 75 82 24         [24] 2838 	mov	dpl,#0x24
      00093B 78r54            [12] 2839 	mov	r0,#_SX1276WriteBuffer
      00093D 79s01            [12] 2840 	mov	r1,#(_SX1276WriteBuffer >> 8)
      00093F 7As00            [12] 2841 	mov	r2,#(_SX1276WriteBuffer >> 16)
      000941 12r00r00         [24] 2842 	lcall	__sdcc_banked_call
      000944 15 81            [12] 2843 	dec	sp
                                   2844 ;	../../../platform/cc2530dk/LORA/LORA.c:395: SX1276WriteBuffer( REG_LR_DIOMAPPING1, 0X02 );
      000946 74 02            [12] 2845 	mov	a,#0x02
      000948 C0 E0            [24] 2846 	push	acc
      00094A 75 82 40         [24] 2847 	mov	dpl,#0x40
      00094D 78r54            [12] 2848 	mov	r0,#_SX1276WriteBuffer
      00094F 79s01            [12] 2849 	mov	r1,#(_SX1276WriteBuffer >> 8)
      000951 7As00            [12] 2850 	mov	r2,#(_SX1276WriteBuffer >> 16)
      000953 12r00r00         [24] 2851 	lcall	__sdcc_banked_call
      000956 15 81            [12] 2852 	dec	sp
                                   2853 ;	../../../platform/cc2530dk/LORA/LORA.c:396: SX1276WriteBuffer( REG_LR_DIOMAPPING2, 0x00 );	
      000958 E4               [12] 2854 	clr	a
      000959 C0 E0            [24] 2855 	push	acc
      00095B 75 82 41         [24] 2856 	mov	dpl,#0x41
      00095E 78r54            [12] 2857 	mov	r0,#_SX1276WriteBuffer
      000960 79s01            [12] 2858 	mov	r1,#(_SX1276WriteBuffer >> 8)
      000962 7As00            [12] 2859 	mov	r2,#(_SX1276WriteBuffer >> 16)
      000964 12r00r00         [24] 2860 	lcall	__sdcc_banked_call
      000967 15 81            [12] 2861 	dec	sp
                                   2862 ;	../../../platform/cc2530dk/LORA/LORA.c:397: SX1276LoRaSetOpMode( Receiver_mode );
      000969 75 82 05         [24] 2863 	mov	dpl,#0x05
      00096C 78rA2            [12] 2864 	mov	r0,#_SX1276LoRaSetOpMode
      00096E 79s01            [12] 2865 	mov	r1,#(_SX1276LoRaSetOpMode >> 8)
      000970 7As00            [12] 2866 	mov	r2,#(_SX1276LoRaSetOpMode >> 16)
      000972 12r00r00         [24] 2867 	lcall	__sdcc_banked_call
                                   2868 ;	../../../platform/cc2530dk/LORA/LORA.c:399: ret = INT_FLG_CAD_DONE;
      000975 7F 03            [12] 2869 	mov	r7,#0x03
      000977 02r0Ar29         [24] 2870 	ljmp	00117$
      00097A                       2871 00107$:
                                   2872 ;	../../../platform/cc2530dk/LORA/LORA.c:404: SX1276LoRaSetOpMode( Stdby_mode );
      00097A 75 82 01         [24] 2873 	mov	dpl,#0x01
      00097D 78rA2            [12] 2874 	mov	r0,#_SX1276LoRaSetOpMode
      00097F 79s01            [12] 2875 	mov	r1,#(_SX1276LoRaSetOpMode >> 8)
      000981 7As00            [12] 2876 	mov	r2,#(_SX1276LoRaSetOpMode >> 16)
      000983 12r00r00         [24] 2877 	lcall	__sdcc_banked_call
                                   2878 ;	../../../platform/cc2530dk/LORA/LORA.c:405: SX1276WriteBuffer(REG_LR_IRQFLAGSMASK,	IRQN_SEELP_Value);	//
      000986 74 FF            [12] 2879 	mov	a,#0xff
      000988 C0 E0            [24] 2880 	push	acc
      00098A 75 82 11         [24] 2881 	mov	dpl,#0x11
      00098D 78r54            [12] 2882 	mov	r0,#_SX1276WriteBuffer
      00098F 79s01            [12] 2883 	mov	r1,#(_SX1276WriteBuffer >> 8)
      000991 7As00            [12] 2884 	mov	r2,#(_SX1276WriteBuffer >> 16)
      000993 12r00r00         [24] 2885 	lcall	__sdcc_banked_call
      000996 15 81            [12] 2886 	dec	sp
                                   2887 ;	../../../platform/cc2530dk/LORA/LORA.c:406: SX1276WriteBuffer( REG_LR_DIOMAPPING1, 0X00 );
      000998 E4               [12] 2888 	clr	a
      000999 C0 E0            [24] 2889 	push	acc
      00099B 75 82 40         [24] 2890 	mov	dpl,#0x40
      00099E 78r54            [12] 2891 	mov	r0,#_SX1276WriteBuffer
      0009A0 79s01            [12] 2892 	mov	r1,#(_SX1276WriteBuffer >> 8)
      0009A2 7As00            [12] 2893 	mov	r2,#(_SX1276WriteBuffer >> 16)
      0009A4 12r00r00         [24] 2894 	lcall	__sdcc_banked_call
      0009A7 15 81            [12] 2895 	dec	sp
                                   2896 ;	../../../platform/cc2530dk/LORA/LORA.c:407: SX1276WriteBuffer( REG_LR_DIOMAPPING2, 0X00 );	
      0009A9 E4               [12] 2897 	clr	a
      0009AA C0 E0            [24] 2898 	push	acc
      0009AC 75 82 41         [24] 2899 	mov	dpl,#0x41
      0009AF 78r54            [12] 2900 	mov	r0,#_SX1276WriteBuffer
      0009B1 79s01            [12] 2901 	mov	r1,#(_SX1276WriteBuffer >> 8)
      0009B3 7As00            [12] 2902 	mov	r2,#(_SX1276WriteBuffer >> 16)
      0009B5 12r00r00         [24] 2903 	lcall	__sdcc_banked_call
      0009B8 15 81            [12] 2904 	dec	sp
                                   2905 ;	../../../platform/cc2530dk/LORA/LORA.c:408: SX1276LoRaSetOpMode( Sleep_mode );
      0009BA 75 82 00         [24] 2906 	mov	dpl,#0x00
      0009BD 78rA2            [12] 2907 	mov	r0,#_SX1276LoRaSetOpMode
      0009BF 79s01            [12] 2908 	mov	r1,#(_SX1276LoRaSetOpMode >> 8)
      0009C1 7As00            [12] 2909 	mov	r2,#(_SX1276LoRaSetOpMode >> 16)
      0009C3 12r00r00         [24] 2910 	lcall	__sdcc_banked_call
                                   2911 ;	../../../platform/cc2530dk/LORA/LORA.c:410: ret = INT_FLG_CAD_FAIL;
      0009C6 7F 04            [12] 2912 	mov	r7,#0x04
      0009C8 80 5F            [24] 2913 	sjmp	00117$
      0009CA                       2914 00110$:
                                   2915 ;	../../../platform/cc2530dk/LORA/LORA.c:415: SX1276LoRaSetOpMode( Stdby_mode );
      0009CA 75 82 01         [24] 2916 	mov	dpl,#0x01
      0009CD 78rA2            [12] 2917 	mov	r0,#_SX1276LoRaSetOpMode
      0009CF 79s01            [12] 2918 	mov	r1,#(_SX1276LoRaSetOpMode >> 8)
      0009D1 7As00            [12] 2919 	mov	r2,#(_SX1276LoRaSetOpMode >> 16)
      0009D3 12r00r00         [24] 2920 	lcall	__sdcc_banked_call
                                   2921 ;	../../../platform/cc2530dk/LORA/LORA.c:416: SX1276WriteBuffer(REG_LR_IRQFLAGSMASK,IRQN_RXD_Value);	//
      0009D6 74 9F            [12] 2922 	mov	a,#0x9f
      0009D8 C0 E0            [24] 2923 	push	acc
      0009DA 75 82 11         [24] 2924 	mov	dpl,#0x11
      0009DD 78r54            [12] 2925 	mov	r0,#_SX1276WriteBuffer
      0009DF 79s01            [12] 2926 	mov	r1,#(_SX1276WriteBuffer >> 8)
      0009E1 7As00            [12] 2927 	mov	r2,#(_SX1276WriteBuffer >> 16)
      0009E3 12r00r00         [24] 2928 	lcall	__sdcc_banked_call
      0009E6 15 81            [12] 2929 	dec	sp
                                   2930 ;	../../../platform/cc2530dk/LORA/LORA.c:417: SX1276WriteBuffer(REG_LR_HOPPERIOD,   PACKET_MIAX_Value );
      0009E8 74 FF            [12] 2931 	mov	a,#0xff
      0009EA C0 E0            [24] 2932 	push	acc
      0009EC 75 82 24         [24] 2933 	mov	dpl,#0x24
      0009EF 78r54            [12] 2934 	mov	r0,#_SX1276WriteBuffer
      0009F1 79s01            [12] 2935 	mov	r1,#(_SX1276WriteBuffer >> 8)
      0009F3 7As00            [12] 2936 	mov	r2,#(_SX1276WriteBuffer >> 16)
      0009F5 12r00r00         [24] 2937 	lcall	__sdcc_banked_call
      0009F8 15 81            [12] 2938 	dec	sp
                                   2939 ;	../../../platform/cc2530dk/LORA/LORA.c:418: SX1276WriteBuffer( REG_LR_DIOMAPPING1, 0X02 );
      0009FA 74 02            [12] 2940 	mov	a,#0x02
      0009FC C0 E0            [24] 2941 	push	acc
      0009FE 75 82 40         [24] 2942 	mov	dpl,#0x40
      000A01 78r54            [12] 2943 	mov	r0,#_SX1276WriteBuffer
      000A03 79s01            [12] 2944 	mov	r1,#(_SX1276WriteBuffer >> 8)
      000A05 7As00            [12] 2945 	mov	r2,#(_SX1276WriteBuffer >> 16)
      000A07 12r00r00         [24] 2946 	lcall	__sdcc_banked_call
      000A0A 15 81            [12] 2947 	dec	sp
                                   2948 ;	../../../platform/cc2530dk/LORA/LORA.c:419: SX1276WriteBuffer( REG_LR_DIOMAPPING2, 0x00 );	
      000A0C E4               [12] 2949 	clr	a
      000A0D C0 E0            [24] 2950 	push	acc
      000A0F 75 82 41         [24] 2951 	mov	dpl,#0x41
      000A12 78r54            [12] 2952 	mov	r0,#_SX1276WriteBuffer
      000A14 79s01            [12] 2953 	mov	r1,#(_SX1276WriteBuffer >> 8)
      000A16 7As00            [12] 2954 	mov	r2,#(_SX1276WriteBuffer >> 16)
      000A18 12r00r00         [24] 2955 	lcall	__sdcc_banked_call
      000A1B 15 81            [12] 2956 	dec	sp
                                   2957 ;	../../../platform/cc2530dk/LORA/LORA.c:420: SX1276LoRaSetOpMode( Receiver_mode );
      000A1D 75 82 05         [24] 2958 	mov	dpl,#0x05
      000A20 78rA2            [12] 2959 	mov	r0,#_SX1276LoRaSetOpMode
      000A22 79s01            [12] 2960 	mov	r1,#(_SX1276LoRaSetOpMode >> 8)
      000A24 7As00            [12] 2961 	mov	r2,#(_SX1276LoRaSetOpMode >> 16)
      000A26 12r00r00         [24] 2962 	lcall	__sdcc_banked_call
      000A29                       2963 00117$:
                                   2964 ;	../../../platform/cc2530dk/LORA/LORA.c:423: SX1276WriteBuffer( REG_LR_IRQFLAGS, 0xff  );
      000A29 C0 07            [24] 2965 	push	ar7
      000A2B 74 FF            [12] 2966 	mov	a,#0xff
      000A2D C0 E0            [24] 2967 	push	acc
      000A2F 75 82 12         [24] 2968 	mov	dpl,#0x12
      000A32 78r54            [12] 2969 	mov	r0,#_SX1276WriteBuffer
      000A34 79s01            [12] 2970 	mov	r1,#(_SX1276WriteBuffer >> 8)
      000A36 7As00            [12] 2971 	mov	r2,#(_SX1276WriteBuffer >> 16)
      000A38 12r00r00         [24] 2972 	lcall	__sdcc_banked_call
      000A3B 15 81            [12] 2973 	dec	sp
      000A3D D0 07            [24] 2974 	pop	ar7
                                   2975 ;	../../../platform/cc2530dk/LORA/LORA.c:425: return ret;
      000A3F 8F 82            [24] 2976 	mov	dpl,r7
                                   2977 ;	../../../platform/cc2530dk/LORA/LORA.c:427: }
      000A41 E5 81            [12] 2978 	mov	a,sp
      000A43 24 FC            [12] 2979 	add	a,#0xfc
      000A45 F5 81            [12] 2980 	mov	sp,a
      000A47 02r00r00         [24] 2981 	ljmp	__sdcc_banked_ret
                                   2982 ;------------------------------------------------------------
                                   2983 ;Allocation info for local variables in function 'Sx1278SendLong'
                                   2984 ;------------------------------------------------------------
                                   2985 ;LEN                       Allocated to stack - sp -3
                                   2986 ;RF_TRAN_P                 Allocated to registers r5 r6 r7 
                                   2987 ;Irq_flag                  Allocated to registers r7 
                                   2988 ;ret                       Allocated to registers r4 
                                   2989 ;------------------------------------------------------------
                                   2990 ;	../../../platform/cc2530dk/LORA/LORA.c:431: uint8_t Sx1278SendLong(unsigned char *RF_TRAN_P,unsigned char LEN)
                                   2991 ;	-----------------------------------------
                                   2992 ;	 function Sx1278SendLong
                                   2993 ;	-----------------------------------------
      000A4A                       2994 _Sx1278SendLong:
      000A4A AD 82            [24] 2995 	mov	r5,dpl
      000A4C AE 83            [24] 2996 	mov	r6,dph
      000A4E AF F0            [24] 2997 	mov	r7,b
                                   2998 ;	../../../platform/cc2530dk/LORA/LORA.c:433: uint8_t  Irq_flag=0,ret=0xff;
      000A50 7C FF            [12] 2999 	mov	r4,#0xff
                                   3000 ;	../../../platform/cc2530dk/LORA/LORA.c:435: switch(state)
      000A52 90r00r08         [24] 3001 	mov	dptr,#_state
      000A55 E0               [24] 3002 	movx	a,@dptr
      000A56 FB               [12] 3003 	mov	r3,a
      000A57 60 0E            [24] 3004 	jz	00101$
      000A59 BB 01 02         [24] 3005 	cjne	r3,#0x01,00139$
      000A5C 80 35            [24] 3006 	sjmp	00102$
      000A5E                       3007 00139$:
      000A5E BB 02 03         [24] 3008 	cjne	r3,#0x02,00140$
      000A61 02r0ArEE         [24] 3009 	ljmp	00108$
      000A64                       3010 00140$:
      000A64 02r0Br15         [24] 3011 	ljmp	00111$
                                   3012 ;	../../../platform/cc2530dk/LORA/LORA.c:437: case 0:
      000A67                       3013 00101$:
                                   3014 ;	../../../platform/cc2530dk/LORA/LORA.c:438: FUN_RF_SENDPACKET(RF_TRAN_P,LEN); //	
      000A67 E5 81            [12] 3015 	mov	a,sp
      000A69 24 FD            [12] 3016 	add	a,#0xfd
      000A6B F8               [12] 3017 	mov	r0,a
      000A6C E6               [12] 3018 	mov	a,@r0
      000A6D C0 E0            [24] 3019 	push	acc
      000A6F 8D 82            [24] 3020 	mov	dpl,r5
      000A71 8E 83            [24] 3021 	mov	dph,r6
      000A73 8F F0            [24] 3022 	mov	b,r7
      000A75 78rE1            [12] 3023 	mov	r0,#_FUN_RF_SENDPACKET
      000A77 79s05            [12] 3024 	mov	r1,#(_FUN_RF_SENDPACKET >> 8)
      000A79 7As00            [12] 3025 	mov	r2,#(_FUN_RF_SENDPACKET >> 16)
      000A7B 12r00r00         [24] 3026 	lcall	__sdcc_banked_call
      000A7E 15 81            [12] 3027 	dec	sp
                                   3028 ;	../../../platform/cc2530dk/LORA/LORA.c:439: Wait_FLAG = 10;
      000A80 90r00r0F         [24] 3029 	mov	dptr,#_Wait_FLAG
      000A83 74 0A            [12] 3030 	mov	a,#0x0a
      000A85 F0               [24] 3031 	movx	@dptr,a
      000A86 E4               [12] 3032 	clr	a
      000A87 A3               [24] 3033 	inc	dptr
      000A88 F0               [24] 3034 	movx	@dptr,a
                                   3035 ;	../../../platform/cc2530dk/LORA/LORA.c:440: state = 1;
      000A89 90r00r08         [24] 3036 	mov	dptr,#_state
      000A8C 04               [12] 3037 	inc	a
      000A8D F0               [24] 3038 	movx	@dptr,a
                                   3039 ;	../../../platform/cc2530dk/LORA/LORA.c:441: ret = 1;
      000A8E 7C 01            [12] 3040 	mov	r4,#0x01
                                   3041 ;	../../../platform/cc2530dk/LORA/LORA.c:442: break;
      000A90 02r0Br15         [24] 3042 	ljmp	00111$
                                   3043 ;	../../../platform/cc2530dk/LORA/LORA.c:444: case 1:
      000A93                       3044 00102$:
                                   3045 ;	../../../platform/cc2530dk/LORA/LORA.c:445: Irq_flag=SX1276ReadBuffer( REG_LR_IRQFLAGS );
      000A93 75 82 12         [24] 3046 	mov	dpl,#0x12
      000A96 C0 04            [24] 3047 	push	ar4
      000A98 78r7B            [12] 3048 	mov	r0,#_SX1276ReadBuffer
      000A9A 79s01            [12] 3049 	mov	r1,#(_SX1276ReadBuffer >> 8)
      000A9C 7As00            [12] 3050 	mov	r2,#(_SX1276ReadBuffer >> 16)
      000A9E 12r00r00         [24] 3051 	lcall	__sdcc_banked_call
      000AA1 AF 82            [24] 3052 	mov	r7,dpl
      000AA3 D0 04            [24] 3053 	pop	ar4
                                   3054 ;	../../../platform/cc2530dk/LORA/LORA.c:446: if((Irq_flag&0x08) != 0x08)
      000AA5 53 07 08         [24] 3055 	anl	ar7,#0x08
      000AA8 7E 00            [12] 3056 	mov	r6,#0x00
      000AAA BF 08 05         [24] 3057 	cjne	r7,#0x08,00141$
      000AAD BE 00 02         [24] 3058 	cjne	r6,#0x00,00141$
      000AB0 80 29            [24] 3059 	sjmp	00106$
      000AB2                       3060 00141$:
                                   3061 ;	../../../platform/cc2530dk/LORA/LORA.c:448: Wait_FLAG--;
      000AB2 90r00r0F         [24] 3062 	mov	dptr,#_Wait_FLAG
      000AB5 E0               [24] 3063 	movx	a,@dptr
      000AB6 24 FF            [12] 3064 	add	a,#0xff
      000AB8 FE               [12] 3065 	mov	r6,a
      000AB9 A3               [24] 3066 	inc	dptr
      000ABA E0               [24] 3067 	movx	a,@dptr
      000ABB 34 FF            [12] 3068 	addc	a,#0xff
      000ABD FF               [12] 3069 	mov	r7,a
      000ABE 90r00r0F         [24] 3070 	mov	dptr,#_Wait_FLAG
      000AC1 EE               [12] 3071 	mov	a,r6
      000AC2 F0               [24] 3072 	movx	@dptr,a
      000AC3 EF               [12] 3073 	mov	a,r7
      000AC4 A3               [24] 3074 	inc	dptr
      000AC5 F0               [24] 3075 	movx	@dptr,a
                                   3076 ;	../../../platform/cc2530dk/LORA/LORA.c:449: if(!Wait_FLAG)
      000AC6 90r00r0F         [24] 3077 	mov	dptr,#_Wait_FLAG
      000AC9 E0               [24] 3078 	movx	a,@dptr
      000ACA F5 F0            [12] 3079 	mov	b,a
      000ACC A3               [24] 3080 	inc	dptr
      000ACD E0               [24] 3081 	movx	a,@dptr
      000ACE 45 F0            [12] 3082 	orl	a,b
      000AD0 70 43            [24] 3083 	jnz	00111$
                                   3084 ;	../../../platform/cc2530dk/LORA/LORA.c:451: state = 0;
      000AD2 90r00r08         [24] 3085 	mov	dptr,#_state
      000AD5 E4               [12] 3086 	clr	a
      000AD6 F0               [24] 3087 	movx	@dptr,a
                                   3088 ;	../../../platform/cc2530dk/LORA/LORA.c:452: ret = 0;
      000AD7 7C 00            [12] 3089 	mov	r4,#0x00
      000AD9 80 3A            [24] 3090 	sjmp	00111$
      000ADB                       3091 00106$:
                                   3092 ;	../../../platform/cc2530dk/LORA/LORA.c:457: Wait_FLAG = 5;
      000ADB 90r00r0F         [24] 3093 	mov	dptr,#_Wait_FLAG
      000ADE 74 05            [12] 3094 	mov	a,#0x05
      000AE0 F0               [24] 3095 	movx	@dptr,a
      000AE1 E4               [12] 3096 	clr	a
      000AE2 A3               [24] 3097 	inc	dptr
      000AE3 F0               [24] 3098 	movx	@dptr,a
                                   3099 ;	../../../platform/cc2530dk/LORA/LORA.c:458: state = 2;
      000AE4 90r00r08         [24] 3100 	mov	dptr,#_state
      000AE7 74 02            [12] 3101 	mov	a,#0x02
      000AE9 F0               [24] 3102 	movx	@dptr,a
                                   3103 ;	../../../platform/cc2530dk/LORA/LORA.c:459: ret = 3;
      000AEA 7C 03            [12] 3104 	mov	r4,#0x03
                                   3105 ;	../../../platform/cc2530dk/LORA/LORA.c:461: break;
                                   3106 ;	../../../platform/cc2530dk/LORA/LORA.c:462: case 2:
      000AEC 80 27            [24] 3107 	sjmp	00111$
      000AEE                       3108 00108$:
                                   3109 ;	../../../platform/cc2530dk/LORA/LORA.c:463: if((--Wait_FLAG)==0)
      000AEE 90r00r0F         [24] 3110 	mov	dptr,#_Wait_FLAG
      000AF1 E0               [24] 3111 	movx	a,@dptr
      000AF2 24 FF            [12] 3112 	add	a,#0xff
      000AF4 FE               [12] 3113 	mov	r6,a
      000AF5 A3               [24] 3114 	inc	dptr
      000AF6 E0               [24] 3115 	movx	a,@dptr
      000AF7 34 FF            [12] 3116 	addc	a,#0xff
      000AF9 FF               [12] 3117 	mov	r7,a
      000AFA 90r00r0F         [24] 3118 	mov	dptr,#_Wait_FLAG
      000AFD EE               [12] 3119 	mov	a,r6
      000AFE F0               [24] 3120 	movx	@dptr,a
      000AFF EF               [12] 3121 	mov	a,r7
      000B00 A3               [24] 3122 	inc	dptr
      000B01 F0               [24] 3123 	movx	@dptr,a
      000B02 90r00r0F         [24] 3124 	mov	dptr,#_Wait_FLAG
      000B05 E0               [24] 3125 	movx	a,@dptr
      000B06 F5 F0            [12] 3126 	mov	b,a
      000B08 A3               [24] 3127 	inc	dptr
      000B09 E0               [24] 3128 	movx	a,@dptr
      000B0A 45 F0            [12] 3129 	orl	a,b
      000B0C 70 07            [24] 3130 	jnz	00111$
                                   3131 ;	../../../platform/cc2530dk/LORA/LORA.c:465: state = 0;
      000B0E 90r00r08         [24] 3132 	mov	dptr,#_state
      000B11 E4               [12] 3133 	clr	a
      000B12 F0               [24] 3134 	movx	@dptr,a
                                   3135 ;	../../../platform/cc2530dk/LORA/LORA.c:466: ret   = 0;
      000B13 7C 00            [12] 3136 	mov	r4,#0x00
                                   3137 ;	../../../platform/cc2530dk/LORA/LORA.c:469: }
      000B15                       3138 00111$:
                                   3139 ;	../../../platform/cc2530dk/LORA/LORA.c:471: return ret;
      000B15 8C 82            [24] 3140 	mov	dpl,r4
                                   3141 ;	../../../platform/cc2530dk/LORA/LORA.c:472: }
      000B17 02r00r00         [24] 3142 	ljmp	__sdcc_banked_ret
                                   3143 ;------------------------------------------------------------
                                   3144 ;Allocation info for local variables in function 'ProcessRecv'
                                   3145 ;------------------------------------------------------------
                                   3146 ;	../../../platform/cc2530dk/LORA/LORA.c:474: void ProcessRecv(void)
                                   3147 ;	-----------------------------------------
                                   3148 ;	 function ProcessRecv
                                   3149 ;	-----------------------------------------
      000B1A                       3150 _ProcessRecv:
                                   3151 ;	../../../platform/cc2530dk/LORA/LORA.c:483: }
      000B1A 02r00r00         [24] 3152 	ljmp	__sdcc_banked_ret
                                   3153 	.area CSEG    (CODE)
                                   3154 	.area CONST   (CODE)
      000000                       3155 ___str_0:
      000000 6C 6F 72 61 20 6F 6E  3156 	.ascii "lora on"
      000007 0D                    3157 	.db 0x0d
      000008 0A                    3158 	.db 0x0a
      000009 00                    3159 	.db 0x00
                                   3160 	.area XINIT   (CODE)
      000000                       3161 __xinit__Frequency:
      000000 6C                    3162 	.db #0x6c	; 108	'l'
      000001 80                    3163 	.db #0x80	; 128
      000002 00                    3164 	.db #0x00	; 0
      000003                       3165 __xinit__SpreadingFactor:
      000003 0B                    3166 	.db #0x0b	; 11
      000004                       3167 __xinit__CodingRate:
      000004 02                    3168 	.db #0x02	; 2
      000005                       3169 __xinit__Bw_Frequency:
      000005 07                    3170 	.db #0x07	; 7
      000006                       3171 __xinit__powerValue:
      000006 07                    3172 	.db #0x07	; 7
      000007                       3173 __xinit__power_data:
      000007 80                    3174 	.db #0x80	; 128
      000008 80                    3175 	.db #0x80	; 128
      000009 80                    3176 	.db #0x80	; 128
      00000A 83                    3177 	.db #0x83	; 131
      00000B 86                    3178 	.db #0x86	; 134
      00000C 89                    3179 	.db #0x89	; 137
      00000D 8C                    3180 	.db #0x8c	; 140
      00000E 8F                    3181 	.db #0x8f	; 143
      00000F                       3182 __xinit__Wait_FLAG:
      00000F 0A 00                 3183 	.byte #0x0a,#0x00	; 10
                                   3184 	.area CABS    (ABS,CODE)
