                                      1 ;--------------------------------------------------------
                                      2 ; File Created by SDCC : free open source ANSI-C Compiler
                                      3 ; Version 3.8.4 #10774 (Linux)
                                      4 ;--------------------------------------------------------
                                      5 	.module RC522
                                      6 	.optsdcc -mmcs51 --model-huge
                                      7 	
                                      8 ;--------------------------------------------------------
                                      9 ; Public variables in this module
                                     10 ;--------------------------------------------------------
                                     11 	.globl _IC_CMT
                                     12 	.globl _PcdHalt
                                     13 	.globl _CalulateCRC
                                     14 	.globl _PcdComMF522
                                     15 	.globl _PcdAntennaOff
                                     16 	.globl _PcdAntennaOn
                                     17 	.globl _ClearBitMask
                                     18 	.globl _SetBitMask
                                     19 	.globl _WriteRawRC
                                     20 	.globl _ReadRawRC
                                     21 	.globl _SPI_RC522_ReadByte
                                     22 	.globl _SPI_RC522_SendByte
                                     23 	.globl _DataRep
                                     24 	.globl _delay_us
                                     25 	.globl _delay_ms
                                     26 	.globl _OLED_P8x16Str
                                     27 	.globl _OLED_P6x8Str
                                     28 	.globl _ACTIVE
                                     29 	.globl _TX_BYTE
                                     30 	.globl _RX_BYTE
                                     31 	.globl _ERR
                                     32 	.globl _FE
                                     33 	.globl _SLAVE
                                     34 	.globl _RE
                                     35 	.globl _MODE
                                     36 	.globl _T3OVFIF
                                     37 	.globl _T3CH0IF
                                     38 	.globl _T3CH1IF
                                     39 	.globl _T4OVFIF
                                     40 	.globl _T4CH0IF
                                     41 	.globl _T4CH1IF
                                     42 	.globl _OVFIM
                                     43 	.globl _B_0
                                     44 	.globl _B_1
                                     45 	.globl _B_2
                                     46 	.globl _B_3
                                     47 	.globl _B_4
                                     48 	.globl _B_5
                                     49 	.globl _B_6
                                     50 	.globl _B_7
                                     51 	.globl _P2IF
                                     52 	.globl _UTX0IF
                                     53 	.globl _UTX1IF
                                     54 	.globl _P1IF
                                     55 	.globl _WDTIF
                                     56 	.globl _ACC_0
                                     57 	.globl _ACC_1
                                     58 	.globl _ACC_2
                                     59 	.globl _ACC_3
                                     60 	.globl _ACC_4
                                     61 	.globl _ACC_5
                                     62 	.globl _ACC_6
                                     63 	.globl _ACC_7
                                     64 	.globl _P
                                     65 	.globl _F1
                                     66 	.globl _OV
                                     67 	.globl _RS0
                                     68 	.globl _RS1
                                     69 	.globl _F0
                                     70 	.globl _AC
                                     71 	.globl _CY
                                     72 	.globl _DMAIF
                                     73 	.globl _T1IF
                                     74 	.globl _T2IF
                                     75 	.globl _T3IF
                                     76 	.globl _T4IF
                                     77 	.globl _P0IF
                                     78 	.globl _STIF
                                     79 	.globl _DMAIE
                                     80 	.globl _T1IE
                                     81 	.globl _T2IE
                                     82 	.globl _T3IE
                                     83 	.globl _T4IE
                                     84 	.globl _P0IE
                                     85 	.globl _RFERRIE
                                     86 	.globl _ADCIE
                                     87 	.globl _URX0IE
                                     88 	.globl _URX1IE
                                     89 	.globl _ENCIE
                                     90 	.globl _STIE
                                     91 	.globl _EA
                                     92 	.globl _P2_0
                                     93 	.globl _P2_1
                                     94 	.globl _P2_2
                                     95 	.globl _P2_3
                                     96 	.globl _P2_4
                                     97 	.globl _P2_5
                                     98 	.globl _P2_6
                                     99 	.globl _P2_7
                                    100 	.globl _ENCIF_0
                                    101 	.globl _ENCIF_1
                                    102 	.globl _P1_0
                                    103 	.globl _P1_1
                                    104 	.globl _P1_2
                                    105 	.globl _P1_3
                                    106 	.globl _P1_4
                                    107 	.globl _P1_5
                                    108 	.globl _P1_6
                                    109 	.globl _P1_7
                                    110 	.globl _IT0
                                    111 	.globl _RFERRIF
                                    112 	.globl _IT1
                                    113 	.globl _URX0IF
                                    114 	.globl _ADCIF
                                    115 	.globl _URX1IF
                                    116 	.globl _P0_0
                                    117 	.globl _P0_1
                                    118 	.globl _P0_2
                                    119 	.globl _P0_3
                                    120 	.globl _P0_4
                                    121 	.globl _P0_5
                                    122 	.globl _P0_6
                                    123 	.globl _P0_7
                                    124 	.globl _WDCTL
                                    125 	.globl _U1GCR
                                    126 	.globl _U1UCR
                                    127 	.globl _U1BAUD
                                    128 	.globl _U1DBUF
                                    129 	.globl _U1CSR
                                    130 	.globl _U0GCR
                                    131 	.globl _U0UCR
                                    132 	.globl _U0BAUD
                                    133 	.globl _U0DBUF
                                    134 	.globl _U0CSR
                                    135 	.globl _TIMIF
                                    136 	.globl _T4CC1
                                    137 	.globl _T4CCTL1
                                    138 	.globl _T4CC0
                                    139 	.globl _T4CCTL0
                                    140 	.globl _T4CTL
                                    141 	.globl _T4CNT
                                    142 	.globl _T3CC1
                                    143 	.globl _T3CCTL1
                                    144 	.globl _T3CC0
                                    145 	.globl _T3CCTL0
                                    146 	.globl _T3CTL
                                    147 	.globl _T3CNT
                                    148 	.globl _T2MSEL
                                    149 	.globl _T2IRQM
                                    150 	.globl _T2MOVF2
                                    151 	.globl _T2MOVF1
                                    152 	.globl _T2MOVF0
                                    153 	.globl _T2M1
                                    154 	.globl _T2M0
                                    155 	.globl _T2IRQF
                                    156 	.globl _T2EVTCFG
                                    157 	.globl _T2CTRL
                                    158 	.globl _T1STAT
                                    159 	.globl _T1CCTL2
                                    160 	.globl _T1CCTL1
                                    161 	.globl _T1CCTL0
                                    162 	.globl _T1CTL
                                    163 	.globl _T1CNTH
                                    164 	.globl _T1CNTL
                                    165 	.globl _T1CC2H
                                    166 	.globl _T1CC2L
                                    167 	.globl _T1CC1H
                                    168 	.globl _T1CC1L
                                    169 	.globl _T1CC0H
                                    170 	.globl _T1CC0L
                                    171 	.globl _CLKCONSTA
                                    172 	.globl _CLKCONCMD
                                    173 	.globl _SLEEPSTA
                                    174 	.globl _SLEEPCMD
                                    175 	.globl _STLOAD
                                    176 	.globl _ST2
                                    177 	.globl _ST1
                                    178 	.globl _ST0
                                    179 	.globl _RFERRF
                                    180 	.globl _RFIRQF0
                                    181 	.globl _RFST
                                    182 	.globl _RFD
                                    183 	.globl _RFIRQF1
                                    184 	.globl _PSBANK
                                    185 	.globl _FMAP
                                    186 	.globl _MEMCTR
                                    187 	.globl __XPAGE
                                    188 	.globl _MPAGE
                                    189 	.globl _PMUX
                                    190 	.globl _P2DIR
                                    191 	.globl _P1DIR
                                    192 	.globl _P0DIR
                                    193 	.globl _P2INP
                                    194 	.globl _P1INP
                                    195 	.globl _P2SEL
                                    196 	.globl _P1SEL
                                    197 	.globl _P0SEL
                                    198 	.globl _APCFG
                                    199 	.globl _PERCFG
                                    200 	.globl _P0INP
                                    201 	.globl _P2IEN
                                    202 	.globl _P1IEN
                                    203 	.globl _P0IEN
                                    204 	.globl _PICTL
                                    205 	.globl _P2IFG
                                    206 	.globl _P1IFG
                                    207 	.globl _P0IFG
                                    208 	.globl _DMAREQ
                                    209 	.globl _DMAARM
                                    210 	.globl _DMA0CFGH
                                    211 	.globl _DMA0CFGL
                                    212 	.globl _DMA1CFGH
                                    213 	.globl _DMA1CFGL
                                    214 	.globl _DMAIRQ
                                    215 	.globl _ENCCS
                                    216 	.globl _ENCDO
                                    217 	.globl _ENCDI
                                    218 	.globl _RNDH
                                    219 	.globl _RNDL
                                    220 	.globl _ADCH
                                    221 	.globl _ADCL
                                    222 	.globl _ADCCON3
                                    223 	.globl _ADCCON2
                                    224 	.globl _ADCCON1
                                    225 	.globl _B
                                    226 	.globl _IRCON2
                                    227 	.globl _ACC
                                    228 	.globl _PSW
                                    229 	.globl _IRCON
                                    230 	.globl _IP1
                                    231 	.globl _IEN1
                                    232 	.globl _IP0
                                    233 	.globl _IEN0
                                    234 	.globl _P2
                                    235 	.globl _S1CON
                                    236 	.globl _IEN2
                                    237 	.globl _S0CON
                                    238 	.globl _DPS
                                    239 	.globl _P1
                                    240 	.globl _TCON
                                    241 	.globl _PCON
                                    242 	.globl _DPH1
                                    243 	.globl _DPL1
                                    244 	.globl _DPH0
                                    245 	.globl _DPL0
                                    246 	.globl _SP
                                    247 	.globl _P0
                                    248 	.globl _InitStatus
                                    249 	.globl _date1
                                    250 	.globl _ucArray_ID
                                    251 	.globl _pk
                                    252 	.globl _IC_Card_Exist
                                    253 	.globl _i
                                    254 	.globl _icd
                                    255 	.globl _ucComMF522Buf0
                                    256 	.globl _cStatus
                                    257 	.globl _ucStatusReturn
                                    258 	.globl _SendData
                                    259 	.globl _SendBuf
                                    260 	.globl _X_IEEE_ADDR
                                    261 	.globl _X_INFOPAGE
                                    262 	.globl _X_P2DIR
                                    263 	.globl _X_P1DIR
                                    264 	.globl _X_P0DIR
                                    265 	.globl _X_U1GCR
                                    266 	.globl _X_U1UCR
                                    267 	.globl _X_U1BAUD
                                    268 	.globl _X_U1DBUF
                                    269 	.globl _X_U1CSR
                                    270 	.globl _X_P2INP
                                    271 	.globl _X_P1INP
                                    272 	.globl _X_P2SEL
                                    273 	.globl _X_P1SEL
                                    274 	.globl _X_P0SEL
                                    275 	.globl _X_APCFG
                                    276 	.globl _X_PERCFG
                                    277 	.globl _X_T4CC1
                                    278 	.globl _X_T4CCTL1
                                    279 	.globl _X_T4CC0
                                    280 	.globl _X_T4CCTL0
                                    281 	.globl _X_T4CTL
                                    282 	.globl _X_T4CNT
                                    283 	.globl _X_RFIRQF0
                                    284 	.globl _X_T1CCTL2
                                    285 	.globl _X_T1CCTL1
                                    286 	.globl _X_T1CCTL0
                                    287 	.globl _X_T1CTL
                                    288 	.globl _X_T1CNTH
                                    289 	.globl _X_T1CNTL
                                    290 	.globl _X_RFST
                                    291 	.globl _X_T1CC2H
                                    292 	.globl _X_T1CC2L
                                    293 	.globl _X_T1CC1H
                                    294 	.globl _X_T1CC1L
                                    295 	.globl _X_T1CC0H
                                    296 	.globl _X_T1CC0L
                                    297 	.globl _X_RFD
                                    298 	.globl _X_TIMIF
                                    299 	.globl _X_DMAREQ
                                    300 	.globl _X_DMAARM
                                    301 	.globl _X_DMA0CFGH
                                    302 	.globl _X_DMA0CFGL
                                    303 	.globl _X_DMA1CFGH
                                    304 	.globl _X_DMA1CFGL
                                    305 	.globl _X_DMAIRQ
                                    306 	.globl _X_T3CC1
                                    307 	.globl _X_T3CCTL1
                                    308 	.globl _X_T3CC0
                                    309 	.globl _X_T3CCTL0
                                    310 	.globl _X_T3CTL
                                    311 	.globl _X_T3CNT
                                    312 	.globl _X_WDCTL
                                    313 	.globl _X_MEMCTR
                                    314 	.globl _X_CLKCONCMD
                                    315 	.globl _X_U0GCR
                                    316 	.globl _X_U0UCR
                                    317 	.globl _X_T2MSEL
                                    318 	.globl _X_U0BAUD
                                    319 	.globl _X_U0DBUF
                                    320 	.globl _X_RFERRF
                                    321 	.globl _X_SLEEPCMD
                                    322 	.globl _X_RNDH
                                    323 	.globl _X_RNDL
                                    324 	.globl _X_ADCH
                                    325 	.globl _X_ADCL
                                    326 	.globl _X_ADCCON3
                                    327 	.globl _X_ADCCON2
                                    328 	.globl _X_ADCCON1
                                    329 	.globl _X_ENCCS
                                    330 	.globl _X_ENCDO
                                    331 	.globl _X_ENCDI
                                    332 	.globl _X_T1STAT
                                    333 	.globl _X_PMUX
                                    334 	.globl _X_STLOAD
                                    335 	.globl _X_P2IEN
                                    336 	.globl _X_P0IEN
                                    337 	.globl _X_T2IRQM
                                    338 	.globl _X_T2MOVF2
                                    339 	.globl _X_T2MOVF1
                                    340 	.globl _X_T2MOVF0
                                    341 	.globl _X_T2M1
                                    342 	.globl _X_T2M0
                                    343 	.globl _X_T2IRQF
                                    344 	.globl _X_P2
                                    345 	.globl _X_PSBANK
                                    346 	.globl _X_FMAP
                                    347 	.globl _X_CLKCONSTA
                                    348 	.globl _X_SLEEPSTA
                                    349 	.globl _X_T2EVTCFG
                                    350 	.globl _X_ST2
                                    351 	.globl _X_ST1
                                    352 	.globl _X_ST0
                                    353 	.globl _X_T2CTRL
                                    354 	.globl _X__XPAGE
                                    355 	.globl _X_MPAGE
                                    356 	.globl _X_RFIRQF1
                                    357 	.globl _X_P1
                                    358 	.globl _X_P0INP
                                    359 	.globl _X_P1IEN
                                    360 	.globl _X_PICTL
                                    361 	.globl _X_P2IFG
                                    362 	.globl _X_P1IFG
                                    363 	.globl _X_P0IFG
                                    364 	.globl _X_U0CSR
                                    365 	.globl _X_P0
                                    366 	.globl _USBF5
                                    367 	.globl _USBF4
                                    368 	.globl _USBF3
                                    369 	.globl _USBF2
                                    370 	.globl _USBF1
                                    371 	.globl _USBF0
                                    372 	.globl _USBCNTH
                                    373 	.globl _USBCNTL
                                    374 	.globl _USBCNT0
                                    375 	.globl _USBCSOH
                                    376 	.globl _USBCSOL
                                    377 	.globl _USBMAXO
                                    378 	.globl _USBCSIH
                                    379 	.globl _USBCSIL
                                    380 	.globl _USBCS0
                                    381 	.globl _USBMAXI
                                    382 	.globl _USBCTRL
                                    383 	.globl _USBINDEX
                                    384 	.globl _USBFRMH
                                    385 	.globl _USBFRML
                                    386 	.globl _USBCIE
                                    387 	.globl _USBOIE
                                    388 	.globl _USBIIE
                                    389 	.globl _USBCIF
                                    390 	.globl _USBOIF
                                    391 	.globl _USBIIF
                                    392 	.globl _USBPOW
                                    393 	.globl _USBADDR
                                    394 	.globl _CSPT
                                    395 	.globl _CSPZ
                                    396 	.globl _CSPY
                                    397 	.globl _CSPX
                                    398 	.globl _CSPSTAT
                                    399 	.globl _CSPCTRL
                                    400 	.globl _CSPPROG23
                                    401 	.globl _CSPPROG22
                                    402 	.globl _CSPPROG21
                                    403 	.globl _CSPPROG20
                                    404 	.globl _CSPPROG19
                                    405 	.globl _CSPPROG18
                                    406 	.globl _CSPPROG17
                                    407 	.globl _CSPPROG16
                                    408 	.globl _CSPPROG15
                                    409 	.globl _CSPPROG14
                                    410 	.globl _CSPPROG13
                                    411 	.globl _CSPPROG12
                                    412 	.globl _CSPPROG11
                                    413 	.globl _CSPPROG10
                                    414 	.globl _CSPPROG9
                                    415 	.globl _CSPPROG8
                                    416 	.globl _CSPPROG7
                                    417 	.globl _CSPPROG6
                                    418 	.globl _CSPPROG5
                                    419 	.globl _CSPPROG4
                                    420 	.globl _CSPPROG3
                                    421 	.globl _CSPPROG2
                                    422 	.globl _CSPPROG1
                                    423 	.globl _CSPPROG0
                                    424 	.globl _RFC_OBS_CTRL2
                                    425 	.globl _RFC_OBS_CTRL1
                                    426 	.globl _RFC_OBS_CTRL0
                                    427 	.globl _TXFILTCFG
                                    428 	.globl _PTEST1
                                    429 	.globl _PTEST0
                                    430 	.globl _ATEST
                                    431 	.globl _DACTEST2
                                    432 	.globl _DACTEST1
                                    433 	.globl _DACTEST0
                                    434 	.globl _MDMTEST1
                                    435 	.globl _MDMTEST0
                                    436 	.globl _ADCTEST2
                                    437 	.globl _ADCTEST1
                                    438 	.globl _ADCTEST0
                                    439 	.globl _AGCCTRL3
                                    440 	.globl _AGCCTRL2
                                    441 	.globl _AGCCTRL1
                                    442 	.globl _AGCCTRL0
                                    443 	.globl _FSCAL3
                                    444 	.globl _FSCAL2
                                    445 	.globl _FSCAL1
                                    446 	.globl _FSCAL0
                                    447 	.globl _FSCTRL
                                    448 	.globl _RXCTRL
                                    449 	.globl _FREQEST
                                    450 	.globl _MDMCTRL1
                                    451 	.globl _MDMCTRL0
                                    452 	.globl _RFRND
                                    453 	.globl _RFERRM
                                    454 	.globl _RFIRQM1
                                    455 	.globl _RFIRQM0
                                    456 	.globl _TXLAST_PTR
                                    457 	.globl _TXFIRST_PTR
                                    458 	.globl _RXP1_PTR
                                    459 	.globl _RXLAST_PTR
                                    460 	.globl _RXFIRST_PTR
                                    461 	.globl _TXFIFOCNT
                                    462 	.globl _RXFIFOCNT
                                    463 	.globl _RXFIRST
                                    464 	.globl _RSSISTAT
                                    465 	.globl _RSSI
                                    466 	.globl _CCACTRL1
                                    467 	.globl _CCACTRL0
                                    468 	.globl _FSMCTRL
                                    469 	.globl _FIFOPCTRL
                                    470 	.globl _FSMSTAT1
                                    471 	.globl _FSMSTAT0
                                    472 	.globl _TXCTRL
                                    473 	.globl _TXPOWER
                                    474 	.globl _FREQCTRL
                                    475 	.globl _FREQTUNE
                                    476 	.globl _RXMASKCLR
                                    477 	.globl _RXMASKSET
                                    478 	.globl _RXENABLE
                                    479 	.globl _FRMCTRL1
                                    480 	.globl _FRMCTRL0
                                    481 	.globl _SRCEXTEN2
                                    482 	.globl _SRCEXTEN1
                                    483 	.globl _SRCEXTEN0
                                    484 	.globl _SRCSHORTEN2
                                    485 	.globl _SRCSHORTEN1
                                    486 	.globl _SRCSHORTEN0
                                    487 	.globl _SRCMATCH
                                    488 	.globl _FRMFILT1
                                    489 	.globl _FRMFILT0
                                    490 	.globl _SHORT_ADDR1
                                    491 	.globl _SHORT_ADDR0
                                    492 	.globl _PAN_ID1
                                    493 	.globl _PAN_ID0
                                    494 	.globl _EXT_ADDR7
                                    495 	.globl _EXT_ADDR6
                                    496 	.globl _EXT_ADDR5
                                    497 	.globl _EXT_ADDR4
                                    498 	.globl _EXT_ADDR3
                                    499 	.globl _EXT_ADDR2
                                    500 	.globl _EXT_ADDR1
                                    501 	.globl _EXT_ADDR0
                                    502 	.globl _SRCSHORTPENDEN2
                                    503 	.globl _SRCSHORTPENDEN1
                                    504 	.globl _SRCSHORTPENDEN0
                                    505 	.globl _SRCEXTPENDEN2
                                    506 	.globl _SRCEXTPENDEN1
                                    507 	.globl _SRCEXTPENDEN0
                                    508 	.globl _SRCRESINDEX
                                    509 	.globl _SRCRESMASK2
                                    510 	.globl _SRCRESMASK1
                                    511 	.globl _SRCRESMASK0
                                    512 	.globl _SRC_ADDR_TABLE
                                    513 	.globl _TXFIFO
                                    514 	.globl _RXFIFO
                                    515 	.globl _RFCORE_RAM
                                    516 	.globl _CMPCTL
                                    517 	.globl _OPAMPS
                                    518 	.globl _OPAMPC
                                    519 	.globl _STCV2
                                    520 	.globl _STCV1
                                    521 	.globl _STCV0
                                    522 	.globl _STCS
                                    523 	.globl _STCC
                                    524 	.globl _T1CC4H
                                    525 	.globl _T1CC4L
                                    526 	.globl _T1CC3H
                                    527 	.globl _T1CC3L
                                    528 	.globl _XX_T1CC2H
                                    529 	.globl _XX_T1CC2L
                                    530 	.globl _XX_T1CC1H
                                    531 	.globl _XX_T1CC1L
                                    532 	.globl _XX_T1CC0H
                                    533 	.globl _XX_T1CC0L
                                    534 	.globl _T1CCTL4
                                    535 	.globl _T1CCTL3
                                    536 	.globl _XX_T1CCTL2
                                    537 	.globl _XX_T1CCTL1
                                    538 	.globl _XX_T1CCTL0
                                    539 	.globl _CLD
                                    540 	.globl _IRCTL
                                    541 	.globl _CHIPINFO1
                                    542 	.globl _CHIPINFO0
                                    543 	.globl _FWDATA
                                    544 	.globl _FADDRH
                                    545 	.globl _FADDRL
                                    546 	.globl _FCTL
                                    547 	.globl _IVCTRL
                                    548 	.globl _BATTMON
                                    549 	.globl _SRCRC
                                    550 	.globl _DBGDATA
                                    551 	.globl _TESTREG0
                                    552 	.globl _CHIPID
                                    553 	.globl _CHVER
                                    554 	.globl _OBSSEL5
                                    555 	.globl _OBSSEL4
                                    556 	.globl _OBSSEL3
                                    557 	.globl _OBSSEL2
                                    558 	.globl _OBSSEL1
                                    559 	.globl _OBSSEL0
                                    560 	.globl _I2CIO
                                    561 	.globl _I2CWC
                                    562 	.globl _I2CADDR
                                    563 	.globl _I2CDATA
                                    564 	.globl _I2CSTAT
                                    565 	.globl _I2CCFG
                                    566 	.globl _OPAMPMC
                                    567 	.globl _MONMUX
                                    568 	.globl _RC522_Init
                                    569 	.globl _RFID_GetCardID
                                    570 	.globl _IC_Card_Search
                                    571 	.globl _IC_Card_Write
                                    572 	.globl _IC_Card_Read
                                    573 	.globl _RC522_InitStatus
                                    574 	.globl _PcdReset
                                    575 	.globl _M500PcdConfigISOType
                                    576 	.globl _PcdRequest
                                    577 	.globl _PcdAnticoll
                                    578 	.globl _PcdSelect
                                    579 	.globl _PcdAuthState
                                    580 	.globl _PcdWrite
                                    581 	.globl _PcdRead
                                    582 ;--------------------------------------------------------
                                    583 ; special function registers
                                    584 ;--------------------------------------------------------
                                    585 	.area RSEG    (ABS,DATA)
      000000                        586 	.org 0x0000
                           000080   587 _P0	=	0x0080
                           000081   588 _SP	=	0x0081
                           000082   589 _DPL0	=	0x0082
                           000083   590 _DPH0	=	0x0083
                           000084   591 _DPL1	=	0x0084
                           000085   592 _DPH1	=	0x0085
                           000087   593 _PCON	=	0x0087
                           000088   594 _TCON	=	0x0088
                           000090   595 _P1	=	0x0090
                           000092   596 _DPS	=	0x0092
                           000098   597 _S0CON	=	0x0098
                           00009A   598 _IEN2	=	0x009a
                           00009B   599 _S1CON	=	0x009b
                           0000A0   600 _P2	=	0x00a0
                           0000A8   601 _IEN0	=	0x00a8
                           0000A9   602 _IP0	=	0x00a9
                           0000B8   603 _IEN1	=	0x00b8
                           0000B9   604 _IP1	=	0x00b9
                           0000C0   605 _IRCON	=	0x00c0
                           0000D0   606 _PSW	=	0x00d0
                           0000E0   607 _ACC	=	0x00e0
                           0000E8   608 _IRCON2	=	0x00e8
                           0000F0   609 _B	=	0x00f0
                           0000B4   610 _ADCCON1	=	0x00b4
                           0000B5   611 _ADCCON2	=	0x00b5
                           0000B6   612 _ADCCON3	=	0x00b6
                           0000BA   613 _ADCL	=	0x00ba
                           0000BB   614 _ADCH	=	0x00bb
                           0000BC   615 _RNDL	=	0x00bc
                           0000BD   616 _RNDH	=	0x00bd
                           0000B1   617 _ENCDI	=	0x00b1
                           0000B2   618 _ENCDO	=	0x00b2
                           0000B3   619 _ENCCS	=	0x00b3
                           0000D1   620 _DMAIRQ	=	0x00d1
                           0000D2   621 _DMA1CFGL	=	0x00d2
                           0000D3   622 _DMA1CFGH	=	0x00d3
                           0000D4   623 _DMA0CFGL	=	0x00d4
                           0000D5   624 _DMA0CFGH	=	0x00d5
                           0000D6   625 _DMAARM	=	0x00d6
                           0000D7   626 _DMAREQ	=	0x00d7
                           000089   627 _P0IFG	=	0x0089
                           00008A   628 _P1IFG	=	0x008a
                           00008B   629 _P2IFG	=	0x008b
                           00008C   630 _PICTL	=	0x008c
                           0000AB   631 _P0IEN	=	0x00ab
                           00008D   632 _P1IEN	=	0x008d
                           0000AC   633 _P2IEN	=	0x00ac
                           00008F   634 _P0INP	=	0x008f
                           0000F1   635 _PERCFG	=	0x00f1
                           0000F2   636 _APCFG	=	0x00f2
                           0000F3   637 _P0SEL	=	0x00f3
                           0000F4   638 _P1SEL	=	0x00f4
                           0000F5   639 _P2SEL	=	0x00f5
                           0000F6   640 _P1INP	=	0x00f6
                           0000F7   641 _P2INP	=	0x00f7
                           0000FD   642 _P0DIR	=	0x00fd
                           0000FE   643 _P1DIR	=	0x00fe
                           0000FF   644 _P2DIR	=	0x00ff
                           0000AE   645 _PMUX	=	0x00ae
                           000093   646 _MPAGE	=	0x0093
                           000093   647 __XPAGE	=	0x0093
                           0000C7   648 _MEMCTR	=	0x00c7
                           00009F   649 _FMAP	=	0x009f
                           00009F   650 _PSBANK	=	0x009f
                           000091   651 _RFIRQF1	=	0x0091
                           0000D9   652 _RFD	=	0x00d9
                           0000E1   653 _RFST	=	0x00e1
                           0000E9   654 _RFIRQF0	=	0x00e9
                           0000BF   655 _RFERRF	=	0x00bf
                           000095   656 _ST0	=	0x0095
                           000096   657 _ST1	=	0x0096
                           000097   658 _ST2	=	0x0097
                           0000AD   659 _STLOAD	=	0x00ad
                           0000BE   660 _SLEEPCMD	=	0x00be
                           00009D   661 _SLEEPSTA	=	0x009d
                           0000C6   662 _CLKCONCMD	=	0x00c6
                           00009E   663 _CLKCONSTA	=	0x009e
                           0000DA   664 _T1CC0L	=	0x00da
                           0000DB   665 _T1CC0H	=	0x00db
                           0000DC   666 _T1CC1L	=	0x00dc
                           0000DD   667 _T1CC1H	=	0x00dd
                           0000DE   668 _T1CC2L	=	0x00de
                           0000DF   669 _T1CC2H	=	0x00df
                           0000E2   670 _T1CNTL	=	0x00e2
                           0000E3   671 _T1CNTH	=	0x00e3
                           0000E4   672 _T1CTL	=	0x00e4
                           0000E5   673 _T1CCTL0	=	0x00e5
                           0000E6   674 _T1CCTL1	=	0x00e6
                           0000E7   675 _T1CCTL2	=	0x00e7
                           0000AF   676 _T1STAT	=	0x00af
                           000094   677 _T2CTRL	=	0x0094
                           00009C   678 _T2EVTCFG	=	0x009c
                           0000A1   679 _T2IRQF	=	0x00a1
                           0000A2   680 _T2M0	=	0x00a2
                           0000A3   681 _T2M1	=	0x00a3
                           0000A4   682 _T2MOVF0	=	0x00a4
                           0000A5   683 _T2MOVF1	=	0x00a5
                           0000A6   684 _T2MOVF2	=	0x00a6
                           0000A7   685 _T2IRQM	=	0x00a7
                           0000C3   686 _T2MSEL	=	0x00c3
                           0000CA   687 _T3CNT	=	0x00ca
                           0000CB   688 _T3CTL	=	0x00cb
                           0000CC   689 _T3CCTL0	=	0x00cc
                           0000CD   690 _T3CC0	=	0x00cd
                           0000CE   691 _T3CCTL1	=	0x00ce
                           0000CF   692 _T3CC1	=	0x00cf
                           0000EA   693 _T4CNT	=	0x00ea
                           0000EB   694 _T4CTL	=	0x00eb
                           0000EC   695 _T4CCTL0	=	0x00ec
                           0000ED   696 _T4CC0	=	0x00ed
                           0000EE   697 _T4CCTL1	=	0x00ee
                           0000EF   698 _T4CC1	=	0x00ef
                           0000D8   699 _TIMIF	=	0x00d8
                           000086   700 _U0CSR	=	0x0086
                           0000C1   701 _U0DBUF	=	0x00c1
                           0000C2   702 _U0BAUD	=	0x00c2
                           0000C4   703 _U0UCR	=	0x00c4
                           0000C5   704 _U0GCR	=	0x00c5
                           0000F8   705 _U1CSR	=	0x00f8
                           0000F9   706 _U1DBUF	=	0x00f9
                           0000FA   707 _U1BAUD	=	0x00fa
                           0000FB   708 _U1UCR	=	0x00fb
                           0000FC   709 _U1GCR	=	0x00fc
                           0000C9   710 _WDCTL	=	0x00c9
                                    711 ;--------------------------------------------------------
                                    712 ; special function bits
                                    713 ;--------------------------------------------------------
                                    714 	.area RSEG    (ABS,DATA)
      000000                        715 	.org 0x0000
                           000087   716 _P0_7	=	0x0087
                           000086   717 _P0_6	=	0x0086
                           000085   718 _P0_5	=	0x0085
                           000084   719 _P0_4	=	0x0084
                           000083   720 _P0_3	=	0x0083
                           000082   721 _P0_2	=	0x0082
                           000081   722 _P0_1	=	0x0081
                           000080   723 _P0_0	=	0x0080
                           00008F   724 _URX1IF	=	0x008f
                           00008D   725 _ADCIF	=	0x008d
                           00008B   726 _URX0IF	=	0x008b
                           00008A   727 _IT1	=	0x008a
                           000089   728 _RFERRIF	=	0x0089
                           000088   729 _IT0	=	0x0088
                           000097   730 _P1_7	=	0x0097
                           000096   731 _P1_6	=	0x0096
                           000095   732 _P1_5	=	0x0095
                           000094   733 _P1_4	=	0x0094
                           000093   734 _P1_3	=	0x0093
                           000092   735 _P1_2	=	0x0092
                           000091   736 _P1_1	=	0x0091
                           000090   737 _P1_0	=	0x0090
                           000099   738 _ENCIF_1	=	0x0099
                           000098   739 _ENCIF_0	=	0x0098
                           0000A7   740 _P2_7	=	0x00a7
                           0000A6   741 _P2_6	=	0x00a6
                           0000A5   742 _P2_5	=	0x00a5
                           0000A4   743 _P2_4	=	0x00a4
                           0000A3   744 _P2_3	=	0x00a3
                           0000A2   745 _P2_2	=	0x00a2
                           0000A1   746 _P2_1	=	0x00a1
                           0000A0   747 _P2_0	=	0x00a0
                           0000AF   748 _EA	=	0x00af
                           0000AD   749 _STIE	=	0x00ad
                           0000AC   750 _ENCIE	=	0x00ac
                           0000AB   751 _URX1IE	=	0x00ab
                           0000AA   752 _URX0IE	=	0x00aa
                           0000A9   753 _ADCIE	=	0x00a9
                           0000A8   754 _RFERRIE	=	0x00a8
                           0000BD   755 _P0IE	=	0x00bd
                           0000BC   756 _T4IE	=	0x00bc
                           0000BB   757 _T3IE	=	0x00bb
                           0000BA   758 _T2IE	=	0x00ba
                           0000B9   759 _T1IE	=	0x00b9
                           0000B8   760 _DMAIE	=	0x00b8
                           0000C7   761 _STIF	=	0x00c7
                           0000C5   762 _P0IF	=	0x00c5
                           0000C4   763 _T4IF	=	0x00c4
                           0000C3   764 _T3IF	=	0x00c3
                           0000C2   765 _T2IF	=	0x00c2
                           0000C1   766 _T1IF	=	0x00c1
                           0000C0   767 _DMAIF	=	0x00c0
                           0000D7   768 _CY	=	0x00d7
                           0000D6   769 _AC	=	0x00d6
                           0000D5   770 _F0	=	0x00d5
                           0000D4   771 _RS1	=	0x00d4
                           0000D3   772 _RS0	=	0x00d3
                           0000D2   773 _OV	=	0x00d2
                           0000D1   774 _F1	=	0x00d1
                           0000D0   775 _P	=	0x00d0
                           0000E7   776 _ACC_7	=	0x00e7
                           0000E6   777 _ACC_6	=	0x00e6
                           0000E5   778 _ACC_5	=	0x00e5
                           0000E4   779 _ACC_4	=	0x00e4
                           0000E3   780 _ACC_3	=	0x00e3
                           0000E2   781 _ACC_2	=	0x00e2
                           0000E1   782 _ACC_1	=	0x00e1
                           0000E0   783 _ACC_0	=	0x00e0
                           0000EC   784 _WDTIF	=	0x00ec
                           0000EB   785 _P1IF	=	0x00eb
                           0000EA   786 _UTX1IF	=	0x00ea
                           0000E9   787 _UTX0IF	=	0x00e9
                           0000E8   788 _P2IF	=	0x00e8
                           0000F7   789 _B_7	=	0x00f7
                           0000F6   790 _B_6	=	0x00f6
                           0000F5   791 _B_5	=	0x00f5
                           0000F4   792 _B_4	=	0x00f4
                           0000F3   793 _B_3	=	0x00f3
                           0000F2   794 _B_2	=	0x00f2
                           0000F1   795 _B_1	=	0x00f1
                           0000F0   796 _B_0	=	0x00f0
                           0000DE   797 _OVFIM	=	0x00de
                           0000DD   798 _T4CH1IF	=	0x00dd
                           0000DC   799 _T4CH0IF	=	0x00dc
                           0000DB   800 _T4OVFIF	=	0x00db
                           0000DA   801 _T3CH1IF	=	0x00da
                           0000D9   802 _T3CH0IF	=	0x00d9
                           0000D8   803 _T3OVFIF	=	0x00d8
                           0000FF   804 _MODE	=	0x00ff
                           0000FE   805 _RE	=	0x00fe
                           0000FD   806 _SLAVE	=	0x00fd
                           0000FC   807 _FE	=	0x00fc
                           0000FB   808 _ERR	=	0x00fb
                           0000FA   809 _RX_BYTE	=	0x00fa
                           0000F9   810 _TX_BYTE	=	0x00f9
                           0000F8   811 _ACTIVE	=	0x00f8
                                    812 ;--------------------------------------------------------
                                    813 ; overlayable register banks
                                    814 ;--------------------------------------------------------
                                    815 	.area REG_BANK_0	(REL,OVR,DATA)
      000000                        816 	.ds 8
                                    817 ;--------------------------------------------------------
                                    818 ; internal ram data
                                    819 ;--------------------------------------------------------
                                    820 	.area DSEG    (DATA)
                                    821 ;--------------------------------------------------------
                                    822 ; overlayable items in internal ram 
                                    823 ;--------------------------------------------------------
                                    824 ;--------------------------------------------------------
                                    825 ; indirectly addressable internal ram data
                                    826 ;--------------------------------------------------------
                                    827 	.area ISEG    (DATA)
                                    828 ;--------------------------------------------------------
                                    829 ; absolute internal ram data
                                    830 ;--------------------------------------------------------
                                    831 	.area IABS    (ABS,DATA)
                                    832 	.area IABS    (ABS,DATA)
                                    833 ;--------------------------------------------------------
                                    834 ; bit data
                                    835 ;--------------------------------------------------------
                                    836 	.area BSEG    (BIT)
                                    837 ;--------------------------------------------------------
                                    838 ; paged external ram data
                                    839 ;--------------------------------------------------------
                                    840 	.area PSEG    (PAG,XDATA)
                                    841 ;--------------------------------------------------------
                                    842 ; external ram data
                                    843 ;--------------------------------------------------------
                                    844 	.area XSEG    (XDATA)
                           0061A6   845 _MONMUX	=	0x61a6
                           0061A6   846 _OPAMPMC	=	0x61a6
                           006230   847 _I2CCFG	=	0x6230
                           006231   848 _I2CSTAT	=	0x6231
                           006232   849 _I2CDATA	=	0x6232
                           006233   850 _I2CADDR	=	0x6233
                           006234   851 _I2CWC	=	0x6234
                           006235   852 _I2CIO	=	0x6235
                           006243   853 _OBSSEL0	=	0x6243
                           006244   854 _OBSSEL1	=	0x6244
                           006245   855 _OBSSEL2	=	0x6245
                           006246   856 _OBSSEL3	=	0x6246
                           006247   857 _OBSSEL4	=	0x6247
                           006248   858 _OBSSEL5	=	0x6248
                           006249   859 _CHVER	=	0x6249
                           00624A   860 _CHIPID	=	0x624a
                           00624B   861 _TESTREG0	=	0x624b
                           006260   862 _DBGDATA	=	0x6260
                           006262   863 _SRCRC	=	0x6262
                           006264   864 _BATTMON	=	0x6264
                           006265   865 _IVCTRL	=	0x6265
                           006270   866 _FCTL	=	0x6270
                           006271   867 _FADDRL	=	0x6271
                           006272   868 _FADDRH	=	0x6272
                           006273   869 _FWDATA	=	0x6273
                           006276   870 _CHIPINFO0	=	0x6276
                           006277   871 _CHIPINFO1	=	0x6277
                           006281   872 _IRCTL	=	0x6281
                           006290   873 _CLD	=	0x6290
                           0062A0   874 _XX_T1CCTL0	=	0x62a0
                           0062A1   875 _XX_T1CCTL1	=	0x62a1
                           0062A2   876 _XX_T1CCTL2	=	0x62a2
                           0062A3   877 _T1CCTL3	=	0x62a3
                           0062A4   878 _T1CCTL4	=	0x62a4
                           0062A6   879 _XX_T1CC0L	=	0x62a6
                           0062A7   880 _XX_T1CC0H	=	0x62a7
                           0062A8   881 _XX_T1CC1L	=	0x62a8
                           0062A9   882 _XX_T1CC1H	=	0x62a9
                           0062AA   883 _XX_T1CC2L	=	0x62aa
                           0062AB   884 _XX_T1CC2H	=	0x62ab
                           0062AC   885 _T1CC3L	=	0x62ac
                           0062AD   886 _T1CC3H	=	0x62ad
                           0062AE   887 _T1CC4L	=	0x62ae
                           0062AF   888 _T1CC4H	=	0x62af
                           0062B0   889 _STCC	=	0x62b0
                           0062B1   890 _STCS	=	0x62b1
                           0062B2   891 _STCV0	=	0x62b2
                           0062B3   892 _STCV1	=	0x62b3
                           0062B4   893 _STCV2	=	0x62b4
                           0062C0   894 _OPAMPC	=	0x62c0
                           0062C1   895 _OPAMPS	=	0x62c1
                           0062D0   896 _CMPCTL	=	0x62d0
                           006000   897 _RFCORE_RAM	=	0x6000
                           006000   898 _RXFIFO	=	0x6000
                           006080   899 _TXFIFO	=	0x6080
                           006100   900 _SRC_ADDR_TABLE	=	0x6100
                           006160   901 _SRCRESMASK0	=	0x6160
                           006161   902 _SRCRESMASK1	=	0x6161
                           006162   903 _SRCRESMASK2	=	0x6162
                           006163   904 _SRCRESINDEX	=	0x6163
                           006164   905 _SRCEXTPENDEN0	=	0x6164
                           006165   906 _SRCEXTPENDEN1	=	0x6165
                           006166   907 _SRCEXTPENDEN2	=	0x6166
                           006167   908 _SRCSHORTPENDEN0	=	0x6167
                           006168   909 _SRCSHORTPENDEN1	=	0x6168
                           006169   910 _SRCSHORTPENDEN2	=	0x6169
                           00616A   911 _EXT_ADDR0	=	0x616a
                           00616B   912 _EXT_ADDR1	=	0x616b
                           00616C   913 _EXT_ADDR2	=	0x616c
                           00616D   914 _EXT_ADDR3	=	0x616d
                           00616E   915 _EXT_ADDR4	=	0x616e
                           00616F   916 _EXT_ADDR5	=	0x616f
                           006170   917 _EXT_ADDR6	=	0x6170
                           006171   918 _EXT_ADDR7	=	0x6171
                           006172   919 _PAN_ID0	=	0x6172
                           006173   920 _PAN_ID1	=	0x6173
                           006174   921 _SHORT_ADDR0	=	0x6174
                           006175   922 _SHORT_ADDR1	=	0x6175
                           006180   923 _FRMFILT0	=	0x6180
                           006181   924 _FRMFILT1	=	0x6181
                           006182   925 _SRCMATCH	=	0x6182
                           006183   926 _SRCSHORTEN0	=	0x6183
                           006184   927 _SRCSHORTEN1	=	0x6184
                           006185   928 _SRCSHORTEN2	=	0x6185
                           006186   929 _SRCEXTEN0	=	0x6186
                           006187   930 _SRCEXTEN1	=	0x6187
                           006188   931 _SRCEXTEN2	=	0x6188
                           006189   932 _FRMCTRL0	=	0x6189
                           00618A   933 _FRMCTRL1	=	0x618a
                           00618B   934 _RXENABLE	=	0x618b
                           00618C   935 _RXMASKSET	=	0x618c
                           00618D   936 _RXMASKCLR	=	0x618d
                           00618E   937 _FREQTUNE	=	0x618e
                           00618F   938 _FREQCTRL	=	0x618f
                           006190   939 _TXPOWER	=	0x6190
                           006191   940 _TXCTRL	=	0x6191
                           006192   941 _FSMSTAT0	=	0x6192
                           006193   942 _FSMSTAT1	=	0x6193
                           006194   943 _FIFOPCTRL	=	0x6194
                           006195   944 _FSMCTRL	=	0x6195
                           006196   945 _CCACTRL0	=	0x6196
                           006197   946 _CCACTRL1	=	0x6197
                           006198   947 _RSSI	=	0x6198
                           006199   948 _RSSISTAT	=	0x6199
                           00619A   949 _RXFIRST	=	0x619a
                           00619B   950 _RXFIFOCNT	=	0x619b
                           00619C   951 _TXFIFOCNT	=	0x619c
                           00619D   952 _RXFIRST_PTR	=	0x619d
                           00619E   953 _RXLAST_PTR	=	0x619e
                           00619F   954 _RXP1_PTR	=	0x619f
                           0061A1   955 _TXFIRST_PTR	=	0x61a1
                           0061A2   956 _TXLAST_PTR	=	0x61a2
                           0061A3   957 _RFIRQM0	=	0x61a3
                           0061A4   958 _RFIRQM1	=	0x61a4
                           0061A5   959 _RFERRM	=	0x61a5
                           0061A7   960 _RFRND	=	0x61a7
                           0061A8   961 _MDMCTRL0	=	0x61a8
                           0061A9   962 _MDMCTRL1	=	0x61a9
                           0061AA   963 _FREQEST	=	0x61aa
                           0061AB   964 _RXCTRL	=	0x61ab
                           0061AC   965 _FSCTRL	=	0x61ac
                           0061AD   966 _FSCAL0	=	0x61ad
                           0061AE   967 _FSCAL1	=	0x61ae
                           0061AF   968 _FSCAL2	=	0x61af
                           0061B0   969 _FSCAL3	=	0x61b0
                           0061B1   970 _AGCCTRL0	=	0x61b1
                           0061B2   971 _AGCCTRL1	=	0x61b2
                           0061B3   972 _AGCCTRL2	=	0x61b3
                           0061B4   973 _AGCCTRL3	=	0x61b4
                           0061B5   974 _ADCTEST0	=	0x61b5
                           0061B6   975 _ADCTEST1	=	0x61b6
                           0061B7   976 _ADCTEST2	=	0x61b7
                           0061B8   977 _MDMTEST0	=	0x61b8
                           0061B9   978 _MDMTEST1	=	0x61b9
                           0061BA   979 _DACTEST0	=	0x61ba
                           0061BB   980 _DACTEST1	=	0x61bb
                           0061BC   981 _DACTEST2	=	0x61bc
                           0061BD   982 _ATEST	=	0x61bd
                           0061BE   983 _PTEST0	=	0x61be
                           0061BF   984 _PTEST1	=	0x61bf
                           0061FA   985 _TXFILTCFG	=	0x61fa
                           0061EB   986 _RFC_OBS_CTRL0	=	0x61eb
                           0061EC   987 _RFC_OBS_CTRL1	=	0x61ec
                           0061ED   988 _RFC_OBS_CTRL2	=	0x61ed
                           0061C0   989 _CSPPROG0	=	0x61c0
                           0061C1   990 _CSPPROG1	=	0x61c1
                           0061C2   991 _CSPPROG2	=	0x61c2
                           0061C3   992 _CSPPROG3	=	0x61c3
                           0061C4   993 _CSPPROG4	=	0x61c4
                           0061C5   994 _CSPPROG5	=	0x61c5
                           0061C6   995 _CSPPROG6	=	0x61c6
                           0061C7   996 _CSPPROG7	=	0x61c7
                           0061C8   997 _CSPPROG8	=	0x61c8
                           0061C9   998 _CSPPROG9	=	0x61c9
                           0061CA   999 _CSPPROG10	=	0x61ca
                           0061CB  1000 _CSPPROG11	=	0x61cb
                           0061CC  1001 _CSPPROG12	=	0x61cc
                           0061CD  1002 _CSPPROG13	=	0x61cd
                           0061CE  1003 _CSPPROG14	=	0x61ce
                           0061CF  1004 _CSPPROG15	=	0x61cf
                           0061D0  1005 _CSPPROG16	=	0x61d0
                           0061D1  1006 _CSPPROG17	=	0x61d1
                           0061D2  1007 _CSPPROG18	=	0x61d2
                           0061D3  1008 _CSPPROG19	=	0x61d3
                           0061D4  1009 _CSPPROG20	=	0x61d4
                           0061D5  1010 _CSPPROG21	=	0x61d5
                           0061D6  1011 _CSPPROG22	=	0x61d6
                           0061D7  1012 _CSPPROG23	=	0x61d7
                           0061E0  1013 _CSPCTRL	=	0x61e0
                           0061E1  1014 _CSPSTAT	=	0x61e1
                           0061E2  1015 _CSPX	=	0x61e2
                           0061E3  1016 _CSPY	=	0x61e3
                           0061E4  1017 _CSPZ	=	0x61e4
                           0061E5  1018 _CSPT	=	0x61e5
                           006200  1019 _USBADDR	=	0x6200
                           006201  1020 _USBPOW	=	0x6201
                           006202  1021 _USBIIF	=	0x6202
                           006204  1022 _USBOIF	=	0x6204
                           006206  1023 _USBCIF	=	0x6206
                           006207  1024 _USBIIE	=	0x6207
                           006209  1025 _USBOIE	=	0x6209
                           00620B  1026 _USBCIE	=	0x620b
                           00620C  1027 _USBFRML	=	0x620c
                           00620D  1028 _USBFRMH	=	0x620d
                           00620E  1029 _USBINDEX	=	0x620e
                           00620F  1030 _USBCTRL	=	0x620f
                           006210  1031 _USBMAXI	=	0x6210
                           006211  1032 _USBCS0	=	0x6211
                           006211  1033 _USBCSIL	=	0x6211
                           006212  1034 _USBCSIH	=	0x6212
                           006213  1035 _USBMAXO	=	0x6213
                           006214  1036 _USBCSOL	=	0x6214
                           006215  1037 _USBCSOH	=	0x6215
                           006216  1038 _USBCNT0	=	0x6216
                           006216  1039 _USBCNTL	=	0x6216
                           006217  1040 _USBCNTH	=	0x6217
                           006220  1041 _USBF0	=	0x6220
                           006222  1042 _USBF1	=	0x6222
                           006224  1043 _USBF2	=	0x6224
                           006226  1044 _USBF3	=	0x6226
                           006228  1045 _USBF4	=	0x6228
                           00622A  1046 _USBF5	=	0x622a
                           007080  1047 _X_P0	=	0x7080
                           007086  1048 _X_U0CSR	=	0x7086
                           007089  1049 _X_P0IFG	=	0x7089
                           00708A  1050 _X_P1IFG	=	0x708a
                           00708B  1051 _X_P2IFG	=	0x708b
                           00708C  1052 _X_PICTL	=	0x708c
                           00708D  1053 _X_P1IEN	=	0x708d
                           00708F  1054 _X_P0INP	=	0x708f
                           007090  1055 _X_P1	=	0x7090
                           007091  1056 _X_RFIRQF1	=	0x7091
                           007093  1057 _X_MPAGE	=	0x7093
                           007093  1058 _X__XPAGE	=	0x7093
                           007094  1059 _X_T2CTRL	=	0x7094
                           007095  1060 _X_ST0	=	0x7095
                           007096  1061 _X_ST1	=	0x7096
                           007097  1062 _X_ST2	=	0x7097
                           00709C  1063 _X_T2EVTCFG	=	0x709c
                           00709D  1064 _X_SLEEPSTA	=	0x709d
                           00709E  1065 _X_CLKCONSTA	=	0x709e
                           00709F  1066 _X_FMAP	=	0x709f
                           00709F  1067 _X_PSBANK	=	0x709f
                           0070A0  1068 _X_P2	=	0x70a0
                           0070A1  1069 _X_T2IRQF	=	0x70a1
                           0070A2  1070 _X_T2M0	=	0x70a2
                           0070A3  1071 _X_T2M1	=	0x70a3
                           0070A4  1072 _X_T2MOVF0	=	0x70a4
                           0070A5  1073 _X_T2MOVF1	=	0x70a5
                           0070A6  1074 _X_T2MOVF2	=	0x70a6
                           0070A7  1075 _X_T2IRQM	=	0x70a7
                           0070AB  1076 _X_P0IEN	=	0x70ab
                           0070AC  1077 _X_P2IEN	=	0x70ac
                           0070AD  1078 _X_STLOAD	=	0x70ad
                           0070AE  1079 _X_PMUX	=	0x70ae
                           0070AF  1080 _X_T1STAT	=	0x70af
                           0070B1  1081 _X_ENCDI	=	0x70b1
                           0070B2  1082 _X_ENCDO	=	0x70b2
                           0070B3  1083 _X_ENCCS	=	0x70b3
                           0070B4  1084 _X_ADCCON1	=	0x70b4
                           0070B5  1085 _X_ADCCON2	=	0x70b5
                           0070B6  1086 _X_ADCCON3	=	0x70b6
                           0070BA  1087 _X_ADCL	=	0x70ba
                           0070BB  1088 _X_ADCH	=	0x70bb
                           0070BC  1089 _X_RNDL	=	0x70bc
                           0070BD  1090 _X_RNDH	=	0x70bd
                           0070BE  1091 _X_SLEEPCMD	=	0x70be
                           0070BF  1092 _X_RFERRF	=	0x70bf
                           0070C1  1093 _X_U0DBUF	=	0x70c1
                           0070C2  1094 _X_U0BAUD	=	0x70c2
                           0070C3  1095 _X_T2MSEL	=	0x70c3
                           0070C4  1096 _X_U0UCR	=	0x70c4
                           0070C5  1097 _X_U0GCR	=	0x70c5
                           0070C6  1098 _X_CLKCONCMD	=	0x70c6
                           0070C7  1099 _X_MEMCTR	=	0x70c7
                           0070C9  1100 _X_WDCTL	=	0x70c9
                           0070CA  1101 _X_T3CNT	=	0x70ca
                           0070CB  1102 _X_T3CTL	=	0x70cb
                           0070CC  1103 _X_T3CCTL0	=	0x70cc
                           0070CD  1104 _X_T3CC0	=	0x70cd
                           0070CE  1105 _X_T3CCTL1	=	0x70ce
                           0070CF  1106 _X_T3CC1	=	0x70cf
                           0070D1  1107 _X_DMAIRQ	=	0x70d1
                           0070D2  1108 _X_DMA1CFGL	=	0x70d2
                           0070D3  1109 _X_DMA1CFGH	=	0x70d3
                           0070D4  1110 _X_DMA0CFGL	=	0x70d4
                           0070D5  1111 _X_DMA0CFGH	=	0x70d5
                           0070D6  1112 _X_DMAARM	=	0x70d6
                           0070D7  1113 _X_DMAREQ	=	0x70d7
                           0070D8  1114 _X_TIMIF	=	0x70d8
                           0070D9  1115 _X_RFD	=	0x70d9
                           0070DA  1116 _X_T1CC0L	=	0x70da
                           0070DB  1117 _X_T1CC0H	=	0x70db
                           0070DC  1118 _X_T1CC1L	=	0x70dc
                           0070DD  1119 _X_T1CC1H	=	0x70dd
                           0070DE  1120 _X_T1CC2L	=	0x70de
                           0070DF  1121 _X_T1CC2H	=	0x70df
                           0070E1  1122 _X_RFST	=	0x70e1
                           0070E2  1123 _X_T1CNTL	=	0x70e2
                           0070E3  1124 _X_T1CNTH	=	0x70e3
                           0070E4  1125 _X_T1CTL	=	0x70e4
                           0070E5  1126 _X_T1CCTL0	=	0x70e5
                           0070E6  1127 _X_T1CCTL1	=	0x70e6
                           0070E7  1128 _X_T1CCTL2	=	0x70e7
                           0070E9  1129 _X_RFIRQF0	=	0x70e9
                           0070EA  1130 _X_T4CNT	=	0x70ea
                           0070EB  1131 _X_T4CTL	=	0x70eb
                           0070EC  1132 _X_T4CCTL0	=	0x70ec
                           0070ED  1133 _X_T4CC0	=	0x70ed
                           0070EE  1134 _X_T4CCTL1	=	0x70ee
                           0070EF  1135 _X_T4CC1	=	0x70ef
                           0070F1  1136 _X_PERCFG	=	0x70f1
                           0070F2  1137 _X_APCFG	=	0x70f2
                           0070F3  1138 _X_P0SEL	=	0x70f3
                           0070F4  1139 _X_P1SEL	=	0x70f4
                           0070F5  1140 _X_P2SEL	=	0x70f5
                           0070F6  1141 _X_P1INP	=	0x70f6
                           0070F7  1142 _X_P2INP	=	0x70f7
                           0070F8  1143 _X_U1CSR	=	0x70f8
                           0070F9  1144 _X_U1DBUF	=	0x70f9
                           0070FA  1145 _X_U1BAUD	=	0x70fa
                           0070FB  1146 _X_U1UCR	=	0x70fb
                           0070FC  1147 _X_U1GCR	=	0x70fc
                           0070FD  1148 _X_P0DIR	=	0x70fd
                           0070FE  1149 _X_P1DIR	=	0x70fe
                           0070FF  1150 _X_P2DIR	=	0x70ff
                           007800  1151 _X_INFOPAGE	=	0x7800
                           00780C  1152 _X_IEEE_ADDR	=	0x780c
      000000                       1153 _SendBuf::
      000000                       1154 	.ds 40
      000028                       1155 _SendData::
      000028                       1156 	.ds 10
      000032                       1157 _ucStatusReturn::
      000032                       1158 	.ds 1
      000033                       1159 _cStatus::
      000033                       1160 	.ds 1
      000034                       1161 _ucComMF522Buf0::
      000034                       1162 	.ds 18
                                   1163 ;--------------------------------------------------------
                                   1164 ; absolute external ram data
                                   1165 ;--------------------------------------------------------
                                   1166 	.area XABS    (ABS,XDATA)
                                   1167 ;--------------------------------------------------------
                                   1168 ; external initialized ram data
                                   1169 ;--------------------------------------------------------
                                   1170 	.area XISEG   (XDATA)
      000000                       1171 _icd::
      000000                       1172 	.ds 2
      000002                       1173 _i::
      000002                       1174 	.ds 1
      000003                       1175 _IC_Card_Exist::
      000003                       1176 	.ds 1
      000004                       1177 _pk::
      000004                       1178 	.ds 6
      00000A                       1179 _ucArray_ID::
      00000A                       1180 	.ds 10
      000014                       1181 _date1::
      000014                       1182 	.ds 20
      000028                       1183 _InitStatus::
      000028                       1184 	.ds 1
                                   1185 	.area HOME    (CODE)
                                   1186 	.area GSINIT0 (CODE)
                                   1187 	.area GSINIT1 (CODE)
                                   1188 	.area GSINIT2 (CODE)
                                   1189 	.area GSINIT3 (CODE)
                                   1190 	.area GSINIT4 (CODE)
                                   1191 	.area GSINIT5 (CODE)
                                   1192 	.area GSINIT  (CODE)
                                   1193 	.area GSFINAL (CODE)
                                   1194 	.area CSEG    (CODE)
                                   1195 ;--------------------------------------------------------
                                   1196 ; global & static initialisations
                                   1197 ;--------------------------------------------------------
                                   1198 	.area HOME    (CODE)
                                   1199 	.area GSINIT  (CODE)
                                   1200 	.area GSFINAL (CODE)
                                   1201 	.area GSINIT  (CODE)
                                   1202 ;--------------------------------------------------------
                                   1203 ; Home
                                   1204 ;--------------------------------------------------------
                                   1205 	.area HOME    (CODE)
                                   1206 	.area HOME    (CODE)
                                   1207 ;--------------------------------------------------------
                                   1208 ; code
                                   1209 ;--------------------------------------------------------
                                   1210 	.area BANK1   (CODE)
                                   1211 ;------------------------------------------------------------
                                   1212 ;Allocation info for local variables in function 'RC522_Init'
                                   1213 ;------------------------------------------------------------
                                   1214 ;	../../../platform/cc2530dk/RC522/RC522.c:30: void RC522_Init ( void )
                                   1215 ;	-----------------------------------------
                                   1216 ;	 function RC522_Init
                                   1217 ;	-----------------------------------------
      000000                       1218 _RC522_Init:
                           000007  1219 	ar7 = 0x07
                           000006  1220 	ar6 = 0x06
                           000005  1221 	ar5 = 0x05
                           000004  1222 	ar4 = 0x04
                           000003  1223 	ar3 = 0x03
                           000002  1224 	ar2 = 0x02
                           000001  1225 	ar1 = 0x01
                           000000  1226 	ar0 = 0x00
                                   1227 ;	../../../platform/cc2530dk/RC522/RC522.c:32: RC522_SPI_Config ();
      000000 78rA7            [12] 1228 	mov	r0,#_RC522_SPI_Config
      000002 79s07            [12] 1229 	mov	r1,#(_RC522_SPI_Config >> 8)
      000004 7As00            [12] 1230 	mov	r2,#(_RC522_SPI_Config >> 16)
      000006 12r00r00         [24] 1231 	lcall	__sdcc_banked_call
                                   1232 ;	../../../platform/cc2530dk/RC522/RC522.c:34: macRC522_Reset_Disable();
                                   1233 ;	assignBit
      000009 D2 91            [12] 1234 	setb	_P1_1
                                   1235 ;	assignBit
      00000B D2 91            [12] 1236 	setb	_P1_1
                                   1237 ;	../../../platform/cc2530dk/RC522/RC522.c:36: macRC522_CS_Disable();
                                   1238 ;	assignBit
      00000D D2 94            [12] 1239 	setb	_P1_4
                                   1240 ;	assignBit
      00000F D2 94            [12] 1241 	setb	_P1_4
                                   1242 ;	../../../platform/cc2530dk/RC522/RC522.c:38: PcdReset();
      000011 78r5E            [12] 1243 	mov	r0,#_PcdReset
      000013 79s09            [12] 1244 	mov	r1,#(_PcdReset >> 8)
      000015 7As00            [12] 1245 	mov	r2,#(_PcdReset >> 16)
      000017 12r00r00         [24] 1246 	lcall	__sdcc_banked_call
                                   1247 ;	../../../platform/cc2530dk/RC522/RC522.c:39: M500PcdConfigISOType ( 'A' );//    
      00001A 75 82 41         [24] 1248 	mov	dpl,#0x41
      00001D 78r66            [12] 1249 	mov	r0,#_M500PcdConfigISOType
      00001F 79s0A            [12] 1250 	mov	r1,#(_M500PcdConfigISOType >> 8)
      000021 7As00            [12] 1251 	mov	r2,#(_M500PcdConfigISOType >> 16)
      000023 12r00r00         [24] 1252 	lcall	__sdcc_banked_call
                                   1253 ;	../../../platform/cc2530dk/RC522/RC522.c:40: }
      000026 02r00r00         [24] 1254 	ljmp	__sdcc_banked_ret
                                   1255 ;------------------------------------------------------------
                                   1256 ;Allocation info for local variables in function 'DataRep'
                                   1257 ;------------------------------------------------------------
                                   1258 ;num                       Allocated to stack - sp -3
                                   1259 ;flag                      Allocated to stack - sp -4
                                   1260 ;flg                       Allocated to stack - sp -5
                                   1261 ;data                      Allocated to registers r7 
                                   1262 ;------------------------------------------------------------
                                   1263 ;	../../../platform/cc2530dk/RC522/RC522.c:53: void DataRep(unsigned char data,unsigned char num,unsigned char flag,unsigned char flg)
                                   1264 ;	-----------------------------------------
                                   1265 ;	 function DataRep
                                   1266 ;	-----------------------------------------
      000029                       1267 _DataRep:
      000029 AF 82            [24] 1268 	mov	r7,dpl
                                   1269 ;	../../../platform/cc2530dk/RC522/RC522.c:55: if(flg)
      00002B E5 81            [12] 1270 	mov	a,sp
      00002D 24 FB            [12] 1271 	add	a,#0xfb
      00002F F8               [12] 1272 	mov	r0,a
      000030 E6               [12] 1273 	mov	a,@r0
      000031 70 03            [24] 1274 	jnz	00188$
      000033 02r01r78         [24] 1275 	ljmp	00124$
      000036                       1276 00188$:
                                   1277 ;	../../../platform/cc2530dk/RC522/RC522.c:57: switch(data)
      000036 BF 0A 02         [24] 1278 	cjne	r7,#0x0a,00189$
      000039 80 1C            [24] 1279 	sjmp	00101$
      00003B                       1280 00189$:
      00003B BF 0B 02         [24] 1281 	cjne	r7,#0x0b,00190$
      00003E 80 2C            [24] 1282 	sjmp	00102$
      000040                       1283 00190$:
      000040 BF 0C 02         [24] 1284 	cjne	r7,#0x0c,00191$
      000043 80 3C            [24] 1285 	sjmp	00103$
      000045                       1286 00191$:
      000045 BF 0D 02         [24] 1287 	cjne	r7,#0x0d,00192$
      000048 80 4C            [24] 1288 	sjmp	00104$
      00004A                       1289 00192$:
      00004A BF 0E 02         [24] 1290 	cjne	r7,#0x0e,00193$
      00004D 80 5C            [24] 1291 	sjmp	00105$
      00004F                       1292 00193$:
      00004F BF 0F 02         [24] 1293 	cjne	r7,#0x0f,00194$
      000052 80 6C            [24] 1294 	sjmp	00106$
      000054                       1295 00194$:
      000054 02r00rD5         [24] 1296 	ljmp	00107$
                                   1297 ;	../../../platform/cc2530dk/RC522/RC522.c:59: case 0x0A:
      000057                       1298 00101$:
                                   1299 ;	../../../platform/cc2530dk/RC522/RC522.c:60: SendData[num] = 65;
      000057 E5 81            [12] 1300 	mov	a,sp
      000059 24 FD            [12] 1301 	add	a,#0xfd
      00005B F8               [12] 1302 	mov	r0,a
      00005C E6               [12] 1303 	mov	a,@r0
      00005D 24r28            [12] 1304 	add	a,#_SendData
      00005F F5 82            [12] 1305 	mov	dpl,a
      000061 E4               [12] 1306 	clr	a
      000062 34s00            [12] 1307 	addc	a,#(_SendData >> 8)
      000064 F5 83            [12] 1308 	mov	dph,a
      000066 74 41            [12] 1309 	mov	a,#0x41
      000068 F0               [24] 1310 	movx	@dptr,a
                                   1311 ;	../../../platform/cc2530dk/RC522/RC522.c:61: break;
      000069 02r00r00         [24] 1312 	ljmp	__sdcc_banked_ret
                                   1313 ;	../../../platform/cc2530dk/RC522/RC522.c:62: case 0x0B:
      00006C                       1314 00102$:
                                   1315 ;	../../../platform/cc2530dk/RC522/RC522.c:63: SendData[num] = 66;
      00006C E5 81            [12] 1316 	mov	a,sp
      00006E 24 FD            [12] 1317 	add	a,#0xfd
      000070 F8               [12] 1318 	mov	r0,a
      000071 E6               [12] 1319 	mov	a,@r0
      000072 24r28            [12] 1320 	add	a,#_SendData
      000074 F5 82            [12] 1321 	mov	dpl,a
      000076 E4               [12] 1322 	clr	a
      000077 34s00            [12] 1323 	addc	a,#(_SendData >> 8)
      000079 F5 83            [12] 1324 	mov	dph,a
      00007B 74 42            [12] 1325 	mov	a,#0x42
      00007D F0               [24] 1326 	movx	@dptr,a
                                   1327 ;	../../../platform/cc2530dk/RC522/RC522.c:64: break;
      00007E 02r00r00         [24] 1328 	ljmp	__sdcc_banked_ret
                                   1329 ;	../../../platform/cc2530dk/RC522/RC522.c:65: case 0x0C:
      000081                       1330 00103$:
                                   1331 ;	../../../platform/cc2530dk/RC522/RC522.c:66: SendData[num] = 67;
      000081 E5 81            [12] 1332 	mov	a,sp
      000083 24 FD            [12] 1333 	add	a,#0xfd
      000085 F8               [12] 1334 	mov	r0,a
      000086 E6               [12] 1335 	mov	a,@r0
      000087 24r28            [12] 1336 	add	a,#_SendData
      000089 F5 82            [12] 1337 	mov	dpl,a
      00008B E4               [12] 1338 	clr	a
      00008C 34s00            [12] 1339 	addc	a,#(_SendData >> 8)
      00008E F5 83            [12] 1340 	mov	dph,a
      000090 74 43            [12] 1341 	mov	a,#0x43
      000092 F0               [24] 1342 	movx	@dptr,a
                                   1343 ;	../../../platform/cc2530dk/RC522/RC522.c:67: break;
      000093 02r00r00         [24] 1344 	ljmp	__sdcc_banked_ret
                                   1345 ;	../../../platform/cc2530dk/RC522/RC522.c:68: case 0x0D:
      000096                       1346 00104$:
                                   1347 ;	../../../platform/cc2530dk/RC522/RC522.c:69: SendData[num] = 68;
      000096 E5 81            [12] 1348 	mov	a,sp
      000098 24 FD            [12] 1349 	add	a,#0xfd
      00009A F8               [12] 1350 	mov	r0,a
      00009B E6               [12] 1351 	mov	a,@r0
      00009C 24r28            [12] 1352 	add	a,#_SendData
      00009E F5 82            [12] 1353 	mov	dpl,a
      0000A0 E4               [12] 1354 	clr	a
      0000A1 34s00            [12] 1355 	addc	a,#(_SendData >> 8)
      0000A3 F5 83            [12] 1356 	mov	dph,a
      0000A5 74 44            [12] 1357 	mov	a,#0x44
      0000A7 F0               [24] 1358 	movx	@dptr,a
                                   1359 ;	../../../platform/cc2530dk/RC522/RC522.c:70: break;
      0000A8 02r00r00         [24] 1360 	ljmp	__sdcc_banked_ret
                                   1361 ;	../../../platform/cc2530dk/RC522/RC522.c:71: case 0x0E:
      0000AB                       1362 00105$:
                                   1363 ;	../../../platform/cc2530dk/RC522/RC522.c:72: SendData[num] = 69;
      0000AB E5 81            [12] 1364 	mov	a,sp
      0000AD 24 FD            [12] 1365 	add	a,#0xfd
      0000AF F8               [12] 1366 	mov	r0,a
      0000B0 E6               [12] 1367 	mov	a,@r0
      0000B1 24r28            [12] 1368 	add	a,#_SendData
      0000B3 F5 82            [12] 1369 	mov	dpl,a
      0000B5 E4               [12] 1370 	clr	a
      0000B6 34s00            [12] 1371 	addc	a,#(_SendData >> 8)
      0000B8 F5 83            [12] 1372 	mov	dph,a
      0000BA 74 45            [12] 1373 	mov	a,#0x45
      0000BC F0               [24] 1374 	movx	@dptr,a
                                   1375 ;	../../../platform/cc2530dk/RC522/RC522.c:73: break; 
      0000BD 02r00r00         [24] 1376 	ljmp	__sdcc_banked_ret
                                   1377 ;	../../../platform/cc2530dk/RC522/RC522.c:74: case 0x0F:
      0000C0                       1378 00106$:
                                   1379 ;	../../../platform/cc2530dk/RC522/RC522.c:75: SendData[num] = 70;
      0000C0 E5 81            [12] 1380 	mov	a,sp
      0000C2 24 FD            [12] 1381 	add	a,#0xfd
      0000C4 F8               [12] 1382 	mov	r0,a
      0000C5 E6               [12] 1383 	mov	a,@r0
      0000C6 24r28            [12] 1384 	add	a,#_SendData
      0000C8 F5 82            [12] 1385 	mov	dpl,a
      0000CA E4               [12] 1386 	clr	a
      0000CB 34s00            [12] 1387 	addc	a,#(_SendData >> 8)
      0000CD F5 83            [12] 1388 	mov	dph,a
      0000CF 74 46            [12] 1389 	mov	a,#0x46
      0000D1 F0               [24] 1390 	movx	@dptr,a
                                   1391 ;	../../../platform/cc2530dk/RC522/RC522.c:76: break; 
      0000D2 02r00r00         [24] 1392 	ljmp	__sdcc_banked_ret
                                   1393 ;	../../../platform/cc2530dk/RC522/RC522.c:77: default:
      0000D5                       1394 00107$:
                                   1395 ;	../../../platform/cc2530dk/RC522/RC522.c:78: if(flag)
      0000D5 E5 81            [12] 1396 	mov	a,sp
      0000D7 24 FC            [12] 1397 	add	a,#0xfc
      0000D9 F8               [12] 1398 	mov	r0,a
      0000DA E6               [12] 1399 	mov	a,@r0
      0000DB 60 4D            [24] 1400 	jz	00109$
                                   1401 ;	../../../platform/cc2530dk/RC522/RC522.c:80: SendData[num] = (ucArray_ID[(num/2)]>>4)+0x30;
      0000DD E5 81            [12] 1402 	mov	a,sp
      0000DF 24 FD            [12] 1403 	add	a,#0xfd
      0000E1 F8               [12] 1404 	mov	r0,a
      0000E2 E6               [12] 1405 	mov	a,@r0
      0000E3 24r28            [12] 1406 	add	a,#_SendData
      0000E5 FD               [12] 1407 	mov	r5,a
      0000E6 E4               [12] 1408 	clr	a
      0000E7 34s00            [12] 1409 	addc	a,#(_SendData >> 8)
      0000E9 FE               [12] 1410 	mov	r6,a
      0000EA E5 81            [12] 1411 	mov	a,sp
      0000EC 24 FD            [12] 1412 	add	a,#0xfd
      0000EE F8               [12] 1413 	mov	r0,a
      0000EF 86 03            [24] 1414 	mov	ar3,@r0
      0000F1 7C 00            [12] 1415 	mov	r4,#0x00
      0000F3 C0 06            [24] 1416 	push	ar6
      0000F5 C0 05            [24] 1417 	push	ar5
      0000F7 74 02            [12] 1418 	mov	a,#0x02
      0000F9 C0 E0            [24] 1419 	push	acc
      0000FB E4               [12] 1420 	clr	a
      0000FC C0 E0            [24] 1421 	push	acc
      0000FE 8B 82            [24] 1422 	mov	dpl,r3
      000100 8C 83            [24] 1423 	mov	dph,r4
      000102 12r00r00         [24] 1424 	lcall	__divsint
      000105 AB 82            [24] 1425 	mov	r3,dpl
      000107 AC 83            [24] 1426 	mov	r4,dph
      000109 15 81            [12] 1427 	dec	sp
      00010B 15 81            [12] 1428 	dec	sp
      00010D D0 05            [24] 1429 	pop	ar5
      00010F D0 06            [24] 1430 	pop	ar6
      000111 EB               [12] 1431 	mov	a,r3
      000112 24r0A            [12] 1432 	add	a,#_ucArray_ID
      000114 F5 82            [12] 1433 	mov	dpl,a
      000116 EC               [12] 1434 	mov	a,r4
      000117 34s00            [12] 1435 	addc	a,#(_ucArray_ID >> 8)
      000119 F5 83            [12] 1436 	mov	dph,a
      00011B E0               [24] 1437 	movx	a,@dptr
      00011C C4               [12] 1438 	swap	a
      00011D 54 0F            [12] 1439 	anl	a,#0x0f
      00011F 24 30            [12] 1440 	add	a,#0x30
      000121 FC               [12] 1441 	mov	r4,a
      000122 8D 82            [24] 1442 	mov	dpl,r5
      000124 8E 83            [24] 1443 	mov	dph,r6
      000126 F0               [24] 1444 	movx	@dptr,a
      000127 02r00r00         [24] 1445 	ljmp	__sdcc_banked_ret
      00012A                       1446 00109$:
                                   1447 ;	../../../platform/cc2530dk/RC522/RC522.c:84: SendData[num] = (ucArray_ID[(num/2)]&0x0f)+0x30;
      00012A E5 81            [12] 1448 	mov	a,sp
      00012C 24 FD            [12] 1449 	add	a,#0xfd
      00012E F8               [12] 1450 	mov	r0,a
      00012F E6               [12] 1451 	mov	a,@r0
      000130 24r28            [12] 1452 	add	a,#_SendData
      000132 FD               [12] 1453 	mov	r5,a
      000133 E4               [12] 1454 	clr	a
      000134 34s00            [12] 1455 	addc	a,#(_SendData >> 8)
      000136 FE               [12] 1456 	mov	r6,a
      000137 E5 81            [12] 1457 	mov	a,sp
      000139 24 FD            [12] 1458 	add	a,#0xfd
      00013B F8               [12] 1459 	mov	r0,a
      00013C 86 03            [24] 1460 	mov	ar3,@r0
      00013E 7C 00            [12] 1461 	mov	r4,#0x00
      000140 C0 06            [24] 1462 	push	ar6
      000142 C0 05            [24] 1463 	push	ar5
      000144 74 02            [12] 1464 	mov	a,#0x02
      000146 C0 E0            [24] 1465 	push	acc
      000148 E4               [12] 1466 	clr	a
      000149 C0 E0            [24] 1467 	push	acc
      00014B 8B 82            [24] 1468 	mov	dpl,r3
      00014D 8C 83            [24] 1469 	mov	dph,r4
      00014F 12r00r00         [24] 1470 	lcall	__divsint
      000152 AB 82            [24] 1471 	mov	r3,dpl
      000154 AC 83            [24] 1472 	mov	r4,dph
      000156 15 81            [12] 1473 	dec	sp
      000158 15 81            [12] 1474 	dec	sp
      00015A D0 05            [24] 1475 	pop	ar5
      00015C D0 06            [24] 1476 	pop	ar6
      00015E EB               [12] 1477 	mov	a,r3
      00015F 24r0A            [12] 1478 	add	a,#_ucArray_ID
      000161 F5 82            [12] 1479 	mov	dpl,a
      000163 EC               [12] 1480 	mov	a,r4
      000164 34s00            [12] 1481 	addc	a,#(_ucArray_ID >> 8)
      000166 F5 83            [12] 1482 	mov	dph,a
      000168 E0               [24] 1483 	movx	a,@dptr
      000169 FC               [12] 1484 	mov	r4,a
      00016A 74 0F            [12] 1485 	mov	a,#0x0f
      00016C 5C               [12] 1486 	anl	a,r4
      00016D 24 30            [12] 1487 	add	a,#0x30
      00016F FC               [12] 1488 	mov	r4,a
      000170 8D 82            [24] 1489 	mov	dpl,r5
      000172 8E 83            [24] 1490 	mov	dph,r6
      000174 F0               [24] 1491 	movx	@dptr,a
                                   1492 ;	../../../platform/cc2530dk/RC522/RC522.c:87: } 
      000175 02r00r00         [24] 1493 	ljmp	__sdcc_banked_ret
      000178                       1494 00124$:
                                   1495 ;	../../../platform/cc2530dk/RC522/RC522.c:91: switch(data)
      000178 BF 0A 02         [24] 1496 	cjne	r7,#0x0a,00196$
      00017B 80 1C            [24] 1497 	sjmp	00112$
      00017D                       1498 00196$:
      00017D BF 0B 02         [24] 1499 	cjne	r7,#0x0b,00197$
      000180 80 2C            [24] 1500 	sjmp	00113$
      000182                       1501 00197$:
      000182 BF 0C 02         [24] 1502 	cjne	r7,#0x0c,00198$
      000185 80 3C            [24] 1503 	sjmp	00114$
      000187                       1504 00198$:
      000187 BF 0D 02         [24] 1505 	cjne	r7,#0x0d,00199$
      00018A 80 4C            [24] 1506 	sjmp	00115$
      00018C                       1507 00199$:
      00018C BF 0E 02         [24] 1508 	cjne	r7,#0x0e,00200$
      00018F 80 5C            [24] 1509 	sjmp	00116$
      000191                       1510 00200$:
      000191 BF 0F 02         [24] 1511 	cjne	r7,#0x0f,00201$
      000194 80 6C            [24] 1512 	sjmp	00117$
      000196                       1513 00201$:
      000196 02r02r17         [24] 1514 	ljmp	00118$
                                   1515 ;	../../../platform/cc2530dk/RC522/RC522.c:93: case 0x0A:
      000199                       1516 00112$:
                                   1517 ;	../../../platform/cc2530dk/RC522/RC522.c:94: SendBuf[num] = 65;
      000199 E5 81            [12] 1518 	mov	a,sp
      00019B 24 FD            [12] 1519 	add	a,#0xfd
      00019D F8               [12] 1520 	mov	r0,a
      00019E E6               [12] 1521 	mov	a,@r0
      00019F 24r00            [12] 1522 	add	a,#_SendBuf
      0001A1 F5 82            [12] 1523 	mov	dpl,a
      0001A3 E4               [12] 1524 	clr	a
      0001A4 34s00            [12] 1525 	addc	a,#(_SendBuf >> 8)
      0001A6 F5 83            [12] 1526 	mov	dph,a
      0001A8 74 41            [12] 1527 	mov	a,#0x41
      0001AA F0               [24] 1528 	movx	@dptr,a
                                   1529 ;	../../../platform/cc2530dk/RC522/RC522.c:95: break;
      0001AB 02r00r00         [24] 1530 	ljmp	__sdcc_banked_ret
                                   1531 ;	../../../platform/cc2530dk/RC522/RC522.c:96: case 0x0B:
      0001AE                       1532 00113$:
                                   1533 ;	../../../platform/cc2530dk/RC522/RC522.c:97: SendBuf[num] = 66;
      0001AE E5 81            [12] 1534 	mov	a,sp
      0001B0 24 FD            [12] 1535 	add	a,#0xfd
      0001B2 F8               [12] 1536 	mov	r0,a
      0001B3 E6               [12] 1537 	mov	a,@r0
      0001B4 24r00            [12] 1538 	add	a,#_SendBuf
      0001B6 F5 82            [12] 1539 	mov	dpl,a
      0001B8 E4               [12] 1540 	clr	a
      0001B9 34s00            [12] 1541 	addc	a,#(_SendBuf >> 8)
      0001BB F5 83            [12] 1542 	mov	dph,a
      0001BD 74 42            [12] 1543 	mov	a,#0x42
      0001BF F0               [24] 1544 	movx	@dptr,a
                                   1545 ;	../../../platform/cc2530dk/RC522/RC522.c:98: break;
      0001C0 02r00r00         [24] 1546 	ljmp	__sdcc_banked_ret
                                   1547 ;	../../../platform/cc2530dk/RC522/RC522.c:99: case 0x0C:
      0001C3                       1548 00114$:
                                   1549 ;	../../../platform/cc2530dk/RC522/RC522.c:100: SendBuf[num] = 67;
      0001C3 E5 81            [12] 1550 	mov	a,sp
      0001C5 24 FD            [12] 1551 	add	a,#0xfd
      0001C7 F8               [12] 1552 	mov	r0,a
      0001C8 E6               [12] 1553 	mov	a,@r0
      0001C9 24r00            [12] 1554 	add	a,#_SendBuf
      0001CB F5 82            [12] 1555 	mov	dpl,a
      0001CD E4               [12] 1556 	clr	a
      0001CE 34s00            [12] 1557 	addc	a,#(_SendBuf >> 8)
      0001D0 F5 83            [12] 1558 	mov	dph,a
      0001D2 74 43            [12] 1559 	mov	a,#0x43
      0001D4 F0               [24] 1560 	movx	@dptr,a
                                   1561 ;	../../../platform/cc2530dk/RC522/RC522.c:101: break;
      0001D5 02r00r00         [24] 1562 	ljmp	__sdcc_banked_ret
                                   1563 ;	../../../platform/cc2530dk/RC522/RC522.c:102: case 0x0D:
      0001D8                       1564 00115$:
                                   1565 ;	../../../platform/cc2530dk/RC522/RC522.c:103: SendBuf[num] = 68;
      0001D8 E5 81            [12] 1566 	mov	a,sp
      0001DA 24 FD            [12] 1567 	add	a,#0xfd
      0001DC F8               [12] 1568 	mov	r0,a
      0001DD E6               [12] 1569 	mov	a,@r0
      0001DE 24r00            [12] 1570 	add	a,#_SendBuf
      0001E0 F5 82            [12] 1571 	mov	dpl,a
      0001E2 E4               [12] 1572 	clr	a
      0001E3 34s00            [12] 1573 	addc	a,#(_SendBuf >> 8)
      0001E5 F5 83            [12] 1574 	mov	dph,a
      0001E7 74 44            [12] 1575 	mov	a,#0x44
      0001E9 F0               [24] 1576 	movx	@dptr,a
                                   1577 ;	../../../platform/cc2530dk/RC522/RC522.c:104: break;
      0001EA 02r00r00         [24] 1578 	ljmp	__sdcc_banked_ret
                                   1579 ;	../../../platform/cc2530dk/RC522/RC522.c:105: case 0x0E:
      0001ED                       1580 00116$:
                                   1581 ;	../../../platform/cc2530dk/RC522/RC522.c:106: SendBuf[num] = 69;
      0001ED E5 81            [12] 1582 	mov	a,sp
      0001EF 24 FD            [12] 1583 	add	a,#0xfd
      0001F1 F8               [12] 1584 	mov	r0,a
      0001F2 E6               [12] 1585 	mov	a,@r0
      0001F3 24r00            [12] 1586 	add	a,#_SendBuf
      0001F5 F5 82            [12] 1587 	mov	dpl,a
      0001F7 E4               [12] 1588 	clr	a
      0001F8 34s00            [12] 1589 	addc	a,#(_SendBuf >> 8)
      0001FA F5 83            [12] 1590 	mov	dph,a
      0001FC 74 45            [12] 1591 	mov	a,#0x45
      0001FE F0               [24] 1592 	movx	@dptr,a
                                   1593 ;	../../../platform/cc2530dk/RC522/RC522.c:107: break; 
      0001FF 02r00r00         [24] 1594 	ljmp	__sdcc_banked_ret
                                   1595 ;	../../../platform/cc2530dk/RC522/RC522.c:108: case 0x0F:
      000202                       1596 00117$:
                                   1597 ;	../../../platform/cc2530dk/RC522/RC522.c:109: SendBuf[num] = 70;
      000202 E5 81            [12] 1598 	mov	a,sp
      000204 24 FD            [12] 1599 	add	a,#0xfd
      000206 F8               [12] 1600 	mov	r0,a
      000207 E6               [12] 1601 	mov	a,@r0
      000208 24r00            [12] 1602 	add	a,#_SendBuf
      00020A F5 82            [12] 1603 	mov	dpl,a
      00020C E4               [12] 1604 	clr	a
      00020D 34s00            [12] 1605 	addc	a,#(_SendBuf >> 8)
      00020F F5 83            [12] 1606 	mov	dph,a
      000211 74 46            [12] 1607 	mov	a,#0x46
      000213 F0               [24] 1608 	movx	@dptr,a
                                   1609 ;	../../../platform/cc2530dk/RC522/RC522.c:110: break; 
      000214 02r00r00         [24] 1610 	ljmp	__sdcc_banked_ret
                                   1611 ;	../../../platform/cc2530dk/RC522/RC522.c:111: default:
      000217                       1612 00118$:
                                   1613 ;	../../../platform/cc2530dk/RC522/RC522.c:112: if(flag)
      000217 E5 81            [12] 1614 	mov	a,sp
      000219 24 FC            [12] 1615 	add	a,#0xfc
      00021B F8               [12] 1616 	mov	r0,a
      00021C E6               [12] 1617 	mov	a,@r0
      00021D 60 4C            [24] 1618 	jz	00120$
                                   1619 ;	../../../platform/cc2530dk/RC522/RC522.c:114: SendBuf[num] = (date1[(num/2)]>>4)+0x30;
      00021F E5 81            [12] 1620 	mov	a,sp
      000221 24 FD            [12] 1621 	add	a,#0xfd
      000223 F8               [12] 1622 	mov	r0,a
      000224 E6               [12] 1623 	mov	a,@r0
      000225 24r00            [12] 1624 	add	a,#_SendBuf
      000227 FE               [12] 1625 	mov	r6,a
      000228 E4               [12] 1626 	clr	a
      000229 34s00            [12] 1627 	addc	a,#(_SendBuf >> 8)
      00022B FF               [12] 1628 	mov	r7,a
      00022C E5 81            [12] 1629 	mov	a,sp
      00022E 24 FD            [12] 1630 	add	a,#0xfd
      000230 F8               [12] 1631 	mov	r0,a
      000231 86 04            [24] 1632 	mov	ar4,@r0
      000233 7D 00            [12] 1633 	mov	r5,#0x00
      000235 C0 07            [24] 1634 	push	ar7
      000237 C0 06            [24] 1635 	push	ar6
      000239 74 02            [12] 1636 	mov	a,#0x02
      00023B C0 E0            [24] 1637 	push	acc
      00023D E4               [12] 1638 	clr	a
      00023E C0 E0            [24] 1639 	push	acc
      000240 8C 82            [24] 1640 	mov	dpl,r4
      000242 8D 83            [24] 1641 	mov	dph,r5
      000244 12r00r00         [24] 1642 	lcall	__divsint
      000247 AC 82            [24] 1643 	mov	r4,dpl
      000249 AD 83            [24] 1644 	mov	r5,dph
      00024B 15 81            [12] 1645 	dec	sp
      00024D 15 81            [12] 1646 	dec	sp
      00024F D0 06            [24] 1647 	pop	ar6
      000251 D0 07            [24] 1648 	pop	ar7
      000253 EC               [12] 1649 	mov	a,r4
      000254 24r14            [12] 1650 	add	a,#_date1
      000256 F5 82            [12] 1651 	mov	dpl,a
      000258 ED               [12] 1652 	mov	a,r5
      000259 34s00            [12] 1653 	addc	a,#(_date1 >> 8)
      00025B F5 83            [12] 1654 	mov	dph,a
      00025D E0               [24] 1655 	movx	a,@dptr
      00025E C4               [12] 1656 	swap	a
      00025F 54 0F            [12] 1657 	anl	a,#0x0f
      000261 24 30            [12] 1658 	add	a,#0x30
      000263 FD               [12] 1659 	mov	r5,a
      000264 8E 82            [24] 1660 	mov	dpl,r6
      000266 8F 83            [24] 1661 	mov	dph,r7
      000268 F0               [24] 1662 	movx	@dptr,a
      000269 80 4B            [24] 1663 	sjmp	00126$
      00026B                       1664 00120$:
                                   1665 ;	../../../platform/cc2530dk/RC522/RC522.c:118: SendBuf[num] = (date1[(num/2)]&0x0f)+0x30;
      00026B E5 81            [12] 1666 	mov	a,sp
      00026D 24 FD            [12] 1667 	add	a,#0xfd
      00026F F8               [12] 1668 	mov	r0,a
      000270 E6               [12] 1669 	mov	a,@r0
      000271 24r00            [12] 1670 	add	a,#_SendBuf
      000273 FE               [12] 1671 	mov	r6,a
      000274 E4               [12] 1672 	clr	a
      000275 34s00            [12] 1673 	addc	a,#(_SendBuf >> 8)
      000277 FF               [12] 1674 	mov	r7,a
      000278 E5 81            [12] 1675 	mov	a,sp
      00027A 24 FD            [12] 1676 	add	a,#0xfd
      00027C F8               [12] 1677 	mov	r0,a
      00027D 86 04            [24] 1678 	mov	ar4,@r0
      00027F 7D 00            [12] 1679 	mov	r5,#0x00
      000281 C0 07            [24] 1680 	push	ar7
      000283 C0 06            [24] 1681 	push	ar6
      000285 74 02            [12] 1682 	mov	a,#0x02
      000287 C0 E0            [24] 1683 	push	acc
      000289 E4               [12] 1684 	clr	a
      00028A C0 E0            [24] 1685 	push	acc
      00028C 8C 82            [24] 1686 	mov	dpl,r4
      00028E 8D 83            [24] 1687 	mov	dph,r5
      000290 12r00r00         [24] 1688 	lcall	__divsint
      000293 AC 82            [24] 1689 	mov	r4,dpl
      000295 AD 83            [24] 1690 	mov	r5,dph
      000297 15 81            [12] 1691 	dec	sp
      000299 15 81            [12] 1692 	dec	sp
      00029B D0 06            [24] 1693 	pop	ar6
      00029D D0 07            [24] 1694 	pop	ar7
      00029F EC               [12] 1695 	mov	a,r4
      0002A0 24r14            [12] 1696 	add	a,#_date1
      0002A2 F5 82            [12] 1697 	mov	dpl,a
      0002A4 ED               [12] 1698 	mov	a,r5
      0002A5 34s00            [12] 1699 	addc	a,#(_date1 >> 8)
      0002A7 F5 83            [12] 1700 	mov	dph,a
      0002A9 E0               [24] 1701 	movx	a,@dptr
      0002AA FD               [12] 1702 	mov	r5,a
      0002AB 74 0F            [12] 1703 	mov	a,#0x0f
      0002AD 5D               [12] 1704 	anl	a,r5
      0002AE 24 30            [12] 1705 	add	a,#0x30
      0002B0 FD               [12] 1706 	mov	r5,a
      0002B1 8E 82            [24] 1707 	mov	dpl,r6
      0002B3 8F 83            [24] 1708 	mov	dph,r7
      0002B5 F0               [24] 1709 	movx	@dptr,a
                                   1710 ;	../../../platform/cc2530dk/RC522/RC522.c:121: }
      0002B6                       1711 00126$:
                                   1712 ;	../../../platform/cc2530dk/RC522/RC522.c:123: }
      0002B6 02r00r00         [24] 1713 	ljmp	__sdcc_banked_ret
                                   1714 ;------------------------------------------------------------
                                   1715 ;Allocation info for local variables in function 'RFID_GetCardID'
                                   1716 ;------------------------------------------------------------
                                   1717 ;pdata                     Allocated to registers r5 r6 r7 
                                   1718 ;------------------------------------------------------------
                                   1719 ;	../../../platform/cc2530dk/RC522/RC522.c:135: unsigned char RFID_GetCardID(unsigned char *pdata)
                                   1720 ;	-----------------------------------------
                                   1721 ;	 function RFID_GetCardID
                                   1722 ;	-----------------------------------------
      0002B9                       1723 _RFID_GetCardID:
      0002B9 AD 82            [24] 1724 	mov	r5,dpl
      0002BB AE 83            [24] 1725 	mov	r6,dph
      0002BD AF F0            [24] 1726 	mov	r7,b
                                   1727 ;	../../../platform/cc2530dk/RC522/RC522.c:137: if(PcdRequest ( PICC_REQALL, ucArray_ID )!=MI_OK)
      0002BF C0 07            [24] 1728 	push	ar7
      0002C1 C0 06            [24] 1729 	push	ar6
      0002C3 C0 05            [24] 1730 	push	ar5
      0002C5 74r0A            [12] 1731 	mov	a,#_ucArray_ID
      0002C7 C0 E0            [24] 1732 	push	acc
      0002C9 74s00            [12] 1733 	mov	a,#(_ucArray_ID >> 8)
      0002CB C0 E0            [24] 1734 	push	acc
      0002CD E4               [12] 1735 	clr	a
      0002CE C0 E0            [24] 1736 	push	acc
      0002D0 75 82 52         [24] 1737 	mov	dpl,#0x52
      0002D3 78r28            [12] 1738 	mov	r0,#_PcdRequest
      0002D5 79s0E            [12] 1739 	mov	r1,#(_PcdRequest >> 8)
      0002D7 7As00            [12] 1740 	mov	r2,#(_PcdRequest >> 16)
      0002D9 12r00r00         [24] 1741 	lcall	__sdcc_banked_call
      0002DC AC 82            [24] 1742 	mov	r4,dpl
      0002DE 15 81            [12] 1743 	dec	sp
      0002E0 15 81            [12] 1744 	dec	sp
      0002E2 15 81            [12] 1745 	dec	sp
      0002E4 D0 05            [24] 1746 	pop	ar5
      0002E6 D0 06            [24] 1747 	pop	ar6
      0002E8 D0 07            [24] 1748 	pop	ar7
      0002EA BC 26 02         [24] 1749 	cjne	r4,#0x26,00123$
      0002ED 80 30            [24] 1750 	sjmp	00102$
      0002EF                       1751 00123$:
                                   1752 ;	../../../platform/cc2530dk/RC522/RC522.c:139: ucStatusReturn = PcdRequest ( PICC_REQALL, ucArray_ID );
      0002EF C0 07            [24] 1753 	push	ar7
      0002F1 C0 06            [24] 1754 	push	ar6
      0002F3 C0 05            [24] 1755 	push	ar5
      0002F5 74r0A            [12] 1756 	mov	a,#_ucArray_ID
      0002F7 C0 E0            [24] 1757 	push	acc
      0002F9 74s00            [12] 1758 	mov	a,#(_ucArray_ID >> 8)
      0002FB C0 E0            [24] 1759 	push	acc
      0002FD E4               [12] 1760 	clr	a
      0002FE C0 E0            [24] 1761 	push	acc
      000300 75 82 52         [24] 1762 	mov	dpl,#0x52
      000303 78r28            [12] 1763 	mov	r0,#_PcdRequest
      000305 79s0E            [12] 1764 	mov	r1,#(_PcdRequest >> 8)
      000307 7As00            [12] 1765 	mov	r2,#(_PcdRequest >> 16)
      000309 12r00r00         [24] 1766 	lcall	__sdcc_banked_call
      00030C AC 82            [24] 1767 	mov	r4,dpl
      00030E 15 81            [12] 1768 	dec	sp
      000310 15 81            [12] 1769 	dec	sp
      000312 15 81            [12] 1770 	dec	sp
      000314 D0 05            [24] 1771 	pop	ar5
      000316 D0 06            [24] 1772 	pop	ar6
      000318 D0 07            [24] 1773 	pop	ar7
      00031A 90r00r32         [24] 1774 	mov	dptr,#_ucStatusReturn
      00031D EC               [12] 1775 	mov	a,r4
      00031E F0               [24] 1776 	movx	@dptr,a
      00031F                       1777 00102$:
                                   1778 ;	../../../platform/cc2530dk/RC522/RC522.c:142: if ((ucStatusReturn == MI_OK ))
      00031F 90r00r32         [24] 1779 	mov	dptr,#_ucStatusReturn
      000322 E0               [24] 1780 	movx	a,@dptr
      000323 FC               [12] 1781 	mov	r4,a
      000324 BC 26 02         [24] 1782 	cjne	r4,#0x26,00124$
      000327 80 03            [24] 1783 	sjmp	00125$
      000329                       1784 00124$:
      000329 02r03rA8         [24] 1785 	ljmp	00107$
      00032C                       1786 00125$:
                                   1787 ;	../../../platform/cc2530dk/RC522/RC522.c:144: if (PcdAnticoll(ucArray_ID) == MI_OK)
      00032C 90r00r0A         [24] 1788 	mov	dptr,#_ucArray_ID
      00032F 75 F0 00         [24] 1789 	mov	b,#0x00
      000332 C0 07            [24] 1790 	push	ar7
      000334 C0 06            [24] 1791 	push	ar6
      000336 C0 05            [24] 1792 	push	ar5
      000338 78r0D            [12] 1793 	mov	r0,#_PcdAnticoll
      00033A 79s0F            [12] 1794 	mov	r1,#(_PcdAnticoll >> 8)
      00033C 7As00            [12] 1795 	mov	r2,#(_PcdAnticoll >> 16)
      00033E 12r00r00         [24] 1796 	lcall	__sdcc_banked_call
      000341 AC 82            [24] 1797 	mov	r4,dpl
      000343 D0 05            [24] 1798 	pop	ar5
      000345 D0 06            [24] 1799 	pop	ar6
      000347 D0 07            [24] 1800 	pop	ar7
      000349 BC 26 54         [24] 1801 	cjne	r4,#0x26,00104$
                                   1802 ;	../../../platform/cc2530dk/RC522/RC522.c:148: pdata[0] = ucArray_ID[0];
      00034C 90r00r0A         [24] 1803 	mov	dptr,#_ucArray_ID
      00034F E0               [24] 1804 	movx	a,@dptr
      000350 8D 82            [24] 1805 	mov	dpl,r5
      000352 8E 83            [24] 1806 	mov	dph,r6
      000354 8F F0            [24] 1807 	mov	b,r7
      000356 12r00r00         [24] 1808 	lcall	__gptrput
                                   1809 ;	../../../platform/cc2530dk/RC522/RC522.c:149: pdata[1] = ucArray_ID[1];
      000359 74 01            [12] 1810 	mov	a,#0x01
      00035B 2D               [12] 1811 	add	a,r5
      00035C FA               [12] 1812 	mov	r2,a
      00035D E4               [12] 1813 	clr	a
      00035E 3E               [12] 1814 	addc	a,r6
      00035F FB               [12] 1815 	mov	r3,a
      000360 8F 04            [24] 1816 	mov	ar4,r7
      000362 90r00r0B         [24] 1817 	mov	dptr,#(_ucArray_ID + 0x0001)
      000365 E0               [24] 1818 	movx	a,@dptr
      000366 8A 82            [24] 1819 	mov	dpl,r2
      000368 8B 83            [24] 1820 	mov	dph,r3
      00036A 8C F0            [24] 1821 	mov	b,r4
      00036C 12r00r00         [24] 1822 	lcall	__gptrput
                                   1823 ;	../../../platform/cc2530dk/RC522/RC522.c:150: pdata[2] = ucArray_ID[2];
      00036F 74 02            [12] 1824 	mov	a,#0x02
      000371 2D               [12] 1825 	add	a,r5
      000372 FA               [12] 1826 	mov	r2,a
      000373 E4               [12] 1827 	clr	a
      000374 3E               [12] 1828 	addc	a,r6
      000375 FB               [12] 1829 	mov	r3,a
      000376 8F 04            [24] 1830 	mov	ar4,r7
      000378 90r00r0C         [24] 1831 	mov	dptr,#(_ucArray_ID + 0x0002)
      00037B E0               [24] 1832 	movx	a,@dptr
      00037C F9               [12] 1833 	mov	r1,a
      00037D 8A 82            [24] 1834 	mov	dpl,r2
      00037F 8B 83            [24] 1835 	mov	dph,r3
      000381 8C F0            [24] 1836 	mov	b,r4
      000383 12r00r00         [24] 1837 	lcall	__gptrput
                                   1838 ;	../../../platform/cc2530dk/RC522/RC522.c:151: pdata[3] = ucArray_ID[3];        
      000386 74 03            [12] 1839 	mov	a,#0x03
      000388 2D               [12] 1840 	add	a,r5
      000389 FD               [12] 1841 	mov	r5,a
      00038A E4               [12] 1842 	clr	a
      00038B 3E               [12] 1843 	addc	a,r6
      00038C FE               [12] 1844 	mov	r6,a
      00038D 90r00r0D         [24] 1845 	mov	dptr,#(_ucArray_ID + 0x0003)
      000390 E0               [24] 1846 	movx	a,@dptr
      000391 FC               [12] 1847 	mov	r4,a
      000392 8D 82            [24] 1848 	mov	dpl,r5
      000394 8E 83            [24] 1849 	mov	dph,r6
      000396 8F F0            [24] 1850 	mov	b,r7
      000398 12r00r00         [24] 1851 	lcall	__gptrput
                                   1852 ;	../../../platform/cc2530dk/RC522/RC522.c:152: return 1;
      00039B 75 82 01         [24] 1853 	mov	dpl,#0x01
      00039E 80 0E            [24] 1854 	sjmp	00109$
      0003A0                       1855 00104$:
                                   1856 ;	../../../platform/cc2530dk/RC522/RC522.c:157: return (unsigned char*)0;
      0003A0 90 00 00         [24] 1857 	mov	dptr,#0x0000
      0003A3 75 F0 00         [24] 1858 	mov	b,#0x00
      0003A6 80 06            [24] 1859 	sjmp	00109$
      0003A8                       1860 00107$:
                                   1861 ;	../../../platform/cc2530dk/RC522/RC522.c:163: return (unsigned char*)0;
      0003A8 90 00 00         [24] 1862 	mov	dptr,#0x0000
      0003AB 75 F0 00         [24] 1863 	mov	b,#0x00
      0003AE                       1864 00109$:
                                   1865 ;	../../../platform/cc2530dk/RC522/RC522.c:165: }
      0003AE 02r00r00         [24] 1866 	ljmp	__sdcc_banked_ret
                                   1867 ;------------------------------------------------------------
                                   1868 ;Allocation info for local variables in function 'IC_Card_Search'
                                   1869 ;------------------------------------------------------------
                                   1870 ;	../../../platform/cc2530dk/RC522/RC522.c:177: void IC_Card_Search ( void )
                                   1871 ;	-----------------------------------------
                                   1872 ;	 function IC_Card_Search
                                   1873 ;	-----------------------------------------
      0003B1                       1874 _IC_Card_Search:
                                   1875 ;	../../../platform/cc2530dk/RC522/RC522.c:179: if(PcdRequest ( PICC_REQALL, ucArray_ID ) != MI_OK)
      0003B1 74r0A            [12] 1876 	mov	a,#_ucArray_ID
      0003B3 C0 E0            [24] 1877 	push	acc
      0003B5 74s00            [12] 1878 	mov	a,#(_ucArray_ID >> 8)
      0003B7 C0 E0            [24] 1879 	push	acc
      0003B9 E4               [12] 1880 	clr	a
      0003BA C0 E0            [24] 1881 	push	acc
      0003BC 75 82 52         [24] 1882 	mov	dpl,#0x52
      0003BF 78r28            [12] 1883 	mov	r0,#_PcdRequest
      0003C1 79s0E            [12] 1884 	mov	r1,#(_PcdRequest >> 8)
      0003C3 7As00            [12] 1885 	mov	r2,#(_PcdRequest >> 16)
      0003C5 12r00r00         [24] 1886 	lcall	__sdcc_banked_call
      0003C8 AF 82            [24] 1887 	mov	r7,dpl
      0003CA 15 81            [12] 1888 	dec	sp
      0003CC 15 81            [12] 1889 	dec	sp
      0003CE 15 81            [12] 1890 	dec	sp
      0003D0 BF 26 02         [24] 1891 	cjne	r7,#0x26,00186$
      0003D3 80 24            [24] 1892 	sjmp	00102$
      0003D5                       1893 00186$:
                                   1894 ;	../../../platform/cc2530dk/RC522/RC522.c:181: ucStatusReturn = PcdRequest ( PICC_REQALL, ucArray_ID );//
      0003D5 74r0A            [12] 1895 	mov	a,#_ucArray_ID
      0003D7 C0 E0            [24] 1896 	push	acc
      0003D9 74s00            [12] 1897 	mov	a,#(_ucArray_ID >> 8)
      0003DB C0 E0            [24] 1898 	push	acc
      0003DD E4               [12] 1899 	clr	a
      0003DE C0 E0            [24] 1900 	push	acc
      0003E0 75 82 52         [24] 1901 	mov	dpl,#0x52
      0003E3 78r28            [12] 1902 	mov	r0,#_PcdRequest
      0003E5 79s0E            [12] 1903 	mov	r1,#(_PcdRequest >> 8)
      0003E7 7As00            [12] 1904 	mov	r2,#(_PcdRequest >> 16)
      0003E9 12r00r00         [24] 1905 	lcall	__sdcc_banked_call
      0003EC AF 82            [24] 1906 	mov	r7,dpl
      0003EE 15 81            [12] 1907 	dec	sp
      0003F0 15 81            [12] 1908 	dec	sp
      0003F2 15 81            [12] 1909 	dec	sp
      0003F4 90r00r32         [24] 1910 	mov	dptr,#_ucStatusReturn
      0003F7 EF               [12] 1911 	mov	a,r7
      0003F8 F0               [24] 1912 	movx	@dptr,a
      0003F9                       1913 00102$:
                                   1914 ;	../../../platform/cc2530dk/RC522/RC522.c:184: if ((ucStatusReturn == MI_OK )&&(IC_Card_Exist == 0))
      0003F9 90r00r32         [24] 1915 	mov	dptr,#_ucStatusReturn
      0003FC E0               [24] 1916 	movx	a,@dptr
      0003FD FF               [12] 1917 	mov	r7,a
      0003FE BF 26 02         [24] 1918 	cjne	r7,#0x26,00187$
      000401 80 03            [24] 1919 	sjmp	00188$
      000403                       1920 00187$:
      000403 02r06r90         [24] 1921 	ljmp	00120$
      000406                       1922 00188$:
      000406 90r00r03         [24] 1923 	mov	dptr,#_IC_Card_Exist
      000409 E0               [24] 1924 	movx	a,@dptr
      00040A 60 03            [24] 1925 	jz	00189$
      00040C 02r06r90         [24] 1926 	ljmp	00120$
      00040F                       1927 00189$:
                                   1928 ;	../../../platform/cc2530dk/RC522/RC522.c:186: if (PcdAnticoll(ucArray_ID) == MI_OK)  //
      00040F 90r00r0A         [24] 1929 	mov	dptr,#_ucArray_ID
      000412 75 F0 00         [24] 1930 	mov	b,#0x00
      000415 78r0D            [12] 1931 	mov	r0,#_PcdAnticoll
      000417 79s0F            [12] 1932 	mov	r1,#(_PcdAnticoll >> 8)
      000419 7As00            [12] 1933 	mov	r2,#(_PcdAnticoll >> 16)
      00041B 12r00r00         [24] 1934 	lcall	__sdcc_banked_call
      00041E AF 82            [24] 1935 	mov	r7,dpl
      000420 BF 26 02         [24] 1936 	cjne	r7,#0x26,00190$
      000423 80 03            [24] 1937 	sjmp	00191$
      000425                       1938 00190$:
      000425 02r06r90         [24] 1939 	ljmp	00120$
      000428                       1940 00191$:
                                   1941 ;	../../../platform/cc2530dk/RC522/RC522.c:188: if (PcdSelect(ucArray_ID) == MI_OK)//ucArray_ID
      000428 90r00r0A         [24] 1942 	mov	dptr,#_ucArray_ID
      00042B 75 F0 00         [24] 1943 	mov	b,#0x00
      00042E 78r2B            [12] 1944 	mov	r0,#_PcdSelect
      000430 79s11            [12] 1945 	mov	r1,#(_PcdSelect >> 8)
      000432 7As00            [12] 1946 	mov	r2,#(_PcdSelect >> 16)
      000434 12r00r00         [24] 1947 	lcall	__sdcc_banked_call
      000437 AF 82            [24] 1948 	mov	r7,dpl
      000439 BF 26 02         [24] 1949 	cjne	r7,#0x26,00192$
      00043C 80 03            [24] 1950 	sjmp	00193$
      00043E                       1951 00192$:
      00043E 02r06r90         [24] 1952 	ljmp	00120$
      000441                       1953 00193$:
                                   1954 ;	../../../platform/cc2530dk/RC522/RC522.c:190: IC_Card_Exist = 1;
      000441 90r00r03         [24] 1955 	mov	dptr,#_IC_Card_Exist
      000444 74 01            [12] 1956 	mov	a,#0x01
      000446 F0               [24] 1957 	movx	@dptr,a
                                   1958 ;	../../../platform/cc2530dk/RC522/RC522.c:191: if (PcdAuthState(0x61,0x5,pk,ucArray_ID) == MI_OK)//  
      000447 74r0A            [12] 1959 	mov	a,#_ucArray_ID
      000449 C0 E0            [24] 1960 	push	acc
      00044B 74s00            [12] 1961 	mov	a,#(_ucArray_ID >> 8)
      00044D C0 E0            [24] 1962 	push	acc
      00044F E4               [12] 1963 	clr	a
      000450 C0 E0            [24] 1964 	push	acc
      000452 74r04            [12] 1965 	mov	a,#_pk
      000454 C0 E0            [24] 1966 	push	acc
      000456 74s00            [12] 1967 	mov	a,#(_pk >> 8)
      000458 C0 E0            [24] 1968 	push	acc
      00045A E4               [12] 1969 	clr	a
      00045B C0 E0            [24] 1970 	push	acc
      00045D 74 05            [12] 1971 	mov	a,#0x05
      00045F C0 E0            [24] 1972 	push	acc
      000461 75 82 61         [24] 1973 	mov	dpl,#0x61
      000464 78r30            [12] 1974 	mov	r0,#_PcdAuthState
      000466 79s12            [12] 1975 	mov	r1,#(_PcdAuthState >> 8)
      000468 7As00            [12] 1976 	mov	r2,#(_PcdAuthState >> 16)
      00046A 12r00r00         [24] 1977 	lcall	__sdcc_banked_call
      00046D AF 82            [24] 1978 	mov	r7,dpl
      00046F E5 81            [12] 1979 	mov	a,sp
      000471 24 F9            [12] 1980 	add	a,#0xf9
      000473 F5 81            [12] 1981 	mov	sp,a
      000475 BF 26 02         [24] 1982 	cjne	r7,#0x26,00194$
      000478 80 03            [24] 1983 	sjmp	00195$
      00047A                       1984 00194$:
      00047A 02r06r90         [24] 1985 	ljmp	00120$
      00047D                       1986 00195$:
                                   1987 ;	../../../platform/cc2530dk/RC522/RC522.c:193: if (PcdRead(0x5,date1) == MI_OK )
      00047D 74r14            [12] 1988 	mov	a,#_date1
      00047F C0 E0            [24] 1989 	push	acc
      000481 74s00            [12] 1990 	mov	a,#(_date1 >> 8)
      000483 C0 E0            [24] 1991 	push	acc
      000485 E4               [12] 1992 	clr	a
      000486 C0 E0            [24] 1993 	push	acc
      000488 75 82 05         [24] 1994 	mov	dpl,#0x05
      00048B 78rC8            [12] 1995 	mov	r0,#_PcdRead
      00048D 79s14            [12] 1996 	mov	r1,#(_PcdRead >> 8)
      00048F 7As00            [12] 1997 	mov	r2,#(_PcdRead >> 16)
      000491 12r00r00         [24] 1998 	lcall	__sdcc_banked_call
      000494 AF 82            [24] 1999 	mov	r7,dpl
      000496 15 81            [12] 2000 	dec	sp
      000498 15 81            [12] 2001 	dec	sp
      00049A 15 81            [12] 2002 	dec	sp
      00049C BF 26 02         [24] 2003 	cjne	r7,#0x26,00196$
      00049F 80 03            [24] 2004 	sjmp	00197$
      0004A1                       2005 00196$:
      0004A1 02r06r90         [24] 2006 	ljmp	00120$
      0004A4                       2007 00197$:
                                   2008 ;	../../../platform/cc2530dk/RC522/RC522.c:195: for(i = 0;i < 8;i ++)
      0004A4 90r00r02         [24] 2009 	mov	dptr,#_i
      0004A7 E4               [12] 2010 	clr	a
      0004A8 F0               [24] 2011 	movx	@dptr,a
      0004A9                       2012 00124$:
                                   2013 ;	../../../platform/cc2530dk/RC522/RC522.c:197: if(i%2==0)
      0004A9 90r00r02         [24] 2014 	mov	dptr,#_i
      0004AC E0               [24] 2015 	movx	a,@dptr
      0004AD 20 E0 4C         [24] 2016 	jb	acc.0,00104$
                                   2017 ;	../../../platform/cc2530dk/RC522/RC522.c:199: DataRep((ucArray_ID[(i/2)]>>4),i,1,1);
      0004B0 90r00r02         [24] 2018 	mov	dptr,#_i
      0004B3 E0               [24] 2019 	movx	a,@dptr
      0004B4 FF               [12] 2020 	mov	r7,a
      0004B5 FD               [12] 2021 	mov	r5,a
      0004B6 7E 00            [12] 2022 	mov	r6,#0x00
      0004B8 C0 07            [24] 2023 	push	ar7
      0004BA 74 02            [12] 2024 	mov	a,#0x02
      0004BC C0 E0            [24] 2025 	push	acc
      0004BE E4               [12] 2026 	clr	a
      0004BF C0 E0            [24] 2027 	push	acc
      0004C1 8D 82            [24] 2028 	mov	dpl,r5
      0004C3 8E 83            [24] 2029 	mov	dph,r6
      0004C5 12r00r00         [24] 2030 	lcall	__divsint
      0004C8 AD 82            [24] 2031 	mov	r5,dpl
      0004CA AE 83            [24] 2032 	mov	r6,dph
      0004CC 15 81            [12] 2033 	dec	sp
      0004CE 15 81            [12] 2034 	dec	sp
      0004D0 D0 07            [24] 2035 	pop	ar7
      0004D2 ED               [12] 2036 	mov	a,r5
      0004D3 24r0A            [12] 2037 	add	a,#_ucArray_ID
      0004D5 F5 82            [12] 2038 	mov	dpl,a
      0004D7 EE               [12] 2039 	mov	a,r6
      0004D8 34s00            [12] 2040 	addc	a,#(_ucArray_ID >> 8)
      0004DA F5 83            [12] 2041 	mov	dph,a
      0004DC E0               [24] 2042 	movx	a,@dptr
      0004DD C4               [12] 2043 	swap	a
      0004DE 54 0F            [12] 2044 	anl	a,#0x0f
      0004E0 FE               [12] 2045 	mov	r6,a
      0004E1 74 01            [12] 2046 	mov	a,#0x01
      0004E3 C0 E0            [24] 2047 	push	acc
      0004E5 C0 E0            [24] 2048 	push	acc
      0004E7 C0 07            [24] 2049 	push	ar7
      0004E9 8E 82            [24] 2050 	mov	dpl,r6
      0004EB 78r29            [12] 2051 	mov	r0,#_DataRep
      0004ED 79s00            [12] 2052 	mov	r1,#(_DataRep >> 8)
      0004EF 7As00            [12] 2053 	mov	r2,#(_DataRep >> 16)
      0004F1 12r00r00         [24] 2054 	lcall	__sdcc_banked_call
      0004F4 15 81            [12] 2055 	dec	sp
      0004F6 15 81            [12] 2056 	dec	sp
      0004F8 15 81            [12] 2057 	dec	sp
      0004FA 80 4B            [24] 2058 	sjmp	00125$
      0004FC                       2059 00104$:
                                   2060 ;	../../../platform/cc2530dk/RC522/RC522.c:203: DataRep((ucArray_ID[(i/2)]&0x0f),i,0,1);
      0004FC 90r00r02         [24] 2061 	mov	dptr,#_i
      0004FF E0               [24] 2062 	movx	a,@dptr
      000500 FF               [12] 2063 	mov	r7,a
      000501 FD               [12] 2064 	mov	r5,a
      000502 7E 00            [12] 2065 	mov	r6,#0x00
      000504 C0 07            [24] 2066 	push	ar7
      000506 74 02            [12] 2067 	mov	a,#0x02
      000508 C0 E0            [24] 2068 	push	acc
      00050A E4               [12] 2069 	clr	a
      00050B C0 E0            [24] 2070 	push	acc
      00050D 8D 82            [24] 2071 	mov	dpl,r5
      00050F 8E 83            [24] 2072 	mov	dph,r6
      000511 12r00r00         [24] 2073 	lcall	__divsint
      000514 AD 82            [24] 2074 	mov	r5,dpl
      000516 AE 83            [24] 2075 	mov	r6,dph
      000518 15 81            [12] 2076 	dec	sp
      00051A 15 81            [12] 2077 	dec	sp
      00051C D0 07            [24] 2078 	pop	ar7
      00051E ED               [12] 2079 	mov	a,r5
      00051F 24r0A            [12] 2080 	add	a,#_ucArray_ID
      000521 F5 82            [12] 2081 	mov	dpl,a
      000523 EE               [12] 2082 	mov	a,r6
      000524 34s00            [12] 2083 	addc	a,#(_ucArray_ID >> 8)
      000526 F5 83            [12] 2084 	mov	dph,a
      000528 E0               [24] 2085 	movx	a,@dptr
      000529 FE               [12] 2086 	mov	r6,a
      00052A 53 06 0F         [24] 2087 	anl	ar6,#0x0f
      00052D 74 01            [12] 2088 	mov	a,#0x01
      00052F C0 E0            [24] 2089 	push	acc
      000531 E4               [12] 2090 	clr	a
      000532 C0 E0            [24] 2091 	push	acc
      000534 C0 07            [24] 2092 	push	ar7
      000536 8E 82            [24] 2093 	mov	dpl,r6
      000538 78r29            [12] 2094 	mov	r0,#_DataRep
      00053A 79s00            [12] 2095 	mov	r1,#(_DataRep >> 8)
      00053C 7As00            [12] 2096 	mov	r2,#(_DataRep >> 16)
      00053E 12r00r00         [24] 2097 	lcall	__sdcc_banked_call
      000541 15 81            [12] 2098 	dec	sp
      000543 15 81            [12] 2099 	dec	sp
      000545 15 81            [12] 2100 	dec	sp
      000547                       2101 00125$:
                                   2102 ;	../../../platform/cc2530dk/RC522/RC522.c:195: for(i = 0;i < 8;i ++)
      000547 90r00r02         [24] 2103 	mov	dptr,#_i
      00054A E0               [24] 2104 	movx	a,@dptr
      00054B 24 01            [12] 2105 	add	a,#0x01
      00054D F0               [24] 2106 	movx	@dptr,a
      00054E E0               [24] 2107 	movx	a,@dptr
      00054F FF               [12] 2108 	mov	r7,a
      000550 BF 08 00         [24] 2109 	cjne	r7,#0x08,00199$
      000553                       2110 00199$:
      000553 50 03            [24] 2111 	jnc	00200$
      000555 02r04rA9         [24] 2112 	ljmp	00124$
      000558                       2113 00200$:
                                   2114 ;	../../../platform/cc2530dk/RC522/RC522.c:207: for(i = 0;i < 32;i ++)
      000558 90r00r02         [24] 2115 	mov	dptr,#_i
      00055B E4               [12] 2116 	clr	a
      00055C F0               [24] 2117 	movx	@dptr,a
      00055D                       2118 00126$:
                                   2119 ;	../../../platform/cc2530dk/RC522/RC522.c:209: if(i%2==0)
      00055D 90r00r02         [24] 2120 	mov	dptr,#_i
      000560 E0               [24] 2121 	movx	a,@dptr
      000561 20 E0 4C         [24] 2122 	jb	acc.0,00108$
                                   2123 ;	../../../platform/cc2530dk/RC522/RC522.c:211: DataRep((date1[(i/2)]>>4),i,1,0);
      000564 90r00r02         [24] 2124 	mov	dptr,#_i
      000567 E0               [24] 2125 	movx	a,@dptr
      000568 FF               [12] 2126 	mov	r7,a
      000569 FD               [12] 2127 	mov	r5,a
      00056A 7E 00            [12] 2128 	mov	r6,#0x00
      00056C C0 07            [24] 2129 	push	ar7
      00056E 74 02            [12] 2130 	mov	a,#0x02
      000570 C0 E0            [24] 2131 	push	acc
      000572 E4               [12] 2132 	clr	a
      000573 C0 E0            [24] 2133 	push	acc
      000575 8D 82            [24] 2134 	mov	dpl,r5
      000577 8E 83            [24] 2135 	mov	dph,r6
      000579 12r00r00         [24] 2136 	lcall	__divsint
      00057C AD 82            [24] 2137 	mov	r5,dpl
      00057E AE 83            [24] 2138 	mov	r6,dph
      000580 15 81            [12] 2139 	dec	sp
      000582 15 81            [12] 2140 	dec	sp
      000584 D0 07            [24] 2141 	pop	ar7
      000586 ED               [12] 2142 	mov	a,r5
      000587 24r14            [12] 2143 	add	a,#_date1
      000589 F5 82            [12] 2144 	mov	dpl,a
      00058B EE               [12] 2145 	mov	a,r6
      00058C 34s00            [12] 2146 	addc	a,#(_date1 >> 8)
      00058E F5 83            [12] 2147 	mov	dph,a
      000590 E0               [24] 2148 	movx	a,@dptr
      000591 C4               [12] 2149 	swap	a
      000592 54 0F            [12] 2150 	anl	a,#0x0f
      000594 FE               [12] 2151 	mov	r6,a
      000595 E4               [12] 2152 	clr	a
      000596 C0 E0            [24] 2153 	push	acc
      000598 04               [12] 2154 	inc	a
      000599 C0 E0            [24] 2155 	push	acc
      00059B C0 07            [24] 2156 	push	ar7
      00059D 8E 82            [24] 2157 	mov	dpl,r6
      00059F 78r29            [12] 2158 	mov	r0,#_DataRep
      0005A1 79s00            [12] 2159 	mov	r1,#(_DataRep >> 8)
      0005A3 7As00            [12] 2160 	mov	r2,#(_DataRep >> 16)
      0005A5 12r00r00         [24] 2161 	lcall	__sdcc_banked_call
      0005A8 15 81            [12] 2162 	dec	sp
      0005AA 15 81            [12] 2163 	dec	sp
      0005AC 15 81            [12] 2164 	dec	sp
      0005AE 80 49            [24] 2165 	sjmp	00127$
      0005B0                       2166 00108$:
                                   2167 ;	../../../platform/cc2530dk/RC522/RC522.c:215: DataRep((date1[(i/2)]&0x0f),i,0,0);
      0005B0 90r00r02         [24] 2168 	mov	dptr,#_i
      0005B3 E0               [24] 2169 	movx	a,@dptr
      0005B4 FF               [12] 2170 	mov	r7,a
      0005B5 FD               [12] 2171 	mov	r5,a
      0005B6 7E 00            [12] 2172 	mov	r6,#0x00
      0005B8 C0 07            [24] 2173 	push	ar7
      0005BA 74 02            [12] 2174 	mov	a,#0x02
      0005BC C0 E0            [24] 2175 	push	acc
      0005BE E4               [12] 2176 	clr	a
      0005BF C0 E0            [24] 2177 	push	acc
      0005C1 8D 82            [24] 2178 	mov	dpl,r5
      0005C3 8E 83            [24] 2179 	mov	dph,r6
      0005C5 12r00r00         [24] 2180 	lcall	__divsint
      0005C8 AD 82            [24] 2181 	mov	r5,dpl
      0005CA AE 83            [24] 2182 	mov	r6,dph
      0005CC 15 81            [12] 2183 	dec	sp
      0005CE 15 81            [12] 2184 	dec	sp
      0005D0 D0 07            [24] 2185 	pop	ar7
      0005D2 ED               [12] 2186 	mov	a,r5
      0005D3 24r14            [12] 2187 	add	a,#_date1
      0005D5 F5 82            [12] 2188 	mov	dpl,a
      0005D7 EE               [12] 2189 	mov	a,r6
      0005D8 34s00            [12] 2190 	addc	a,#(_date1 >> 8)
      0005DA F5 83            [12] 2191 	mov	dph,a
      0005DC E0               [24] 2192 	movx	a,@dptr
      0005DD FE               [12] 2193 	mov	r6,a
      0005DE 53 06 0F         [24] 2194 	anl	ar6,#0x0f
      0005E1 E4               [12] 2195 	clr	a
      0005E2 C0 E0            [24] 2196 	push	acc
      0005E4 C0 E0            [24] 2197 	push	acc
      0005E6 C0 07            [24] 2198 	push	ar7
      0005E8 8E 82            [24] 2199 	mov	dpl,r6
      0005EA 78r29            [12] 2200 	mov	r0,#_DataRep
      0005EC 79s00            [12] 2201 	mov	r1,#(_DataRep >> 8)
      0005EE 7As00            [12] 2202 	mov	r2,#(_DataRep >> 16)
      0005F0 12r00r00         [24] 2203 	lcall	__sdcc_banked_call
      0005F3 15 81            [12] 2204 	dec	sp
      0005F5 15 81            [12] 2205 	dec	sp
      0005F7 15 81            [12] 2206 	dec	sp
      0005F9                       2207 00127$:
                                   2208 ;	../../../platform/cc2530dk/RC522/RC522.c:207: for(i = 0;i < 32;i ++)
      0005F9 90r00r02         [24] 2209 	mov	dptr,#_i
      0005FC E0               [24] 2210 	movx	a,@dptr
      0005FD 24 01            [12] 2211 	add	a,#0x01
      0005FF F0               [24] 2212 	movx	@dptr,a
      000600 E0               [24] 2213 	movx	a,@dptr
      000601 FF               [12] 2214 	mov	r7,a
      000602 BF 20 00         [24] 2215 	cjne	r7,#0x20,00202$
      000605                       2216 00202$:
      000605 50 03            [24] 2217 	jnc	00203$
      000607 02r05r5D         [24] 2218 	ljmp	00126$
      00060A                       2219 00203$:
                                   2220 ;	../../../platform/cc2530dk/RC522/RC522.c:218: OLED_P8x16Str(28,2,"0x");
      00060A 74r00            [12] 2221 	mov	a,#___str_0
      00060C C0 E0            [24] 2222 	push	acc
      00060E 74s00            [12] 2223 	mov	a,#(___str_0 >> 8)
      000610 C0 E0            [24] 2224 	push	acc
      000612 74 80            [12] 2225 	mov	a,#0x80
      000614 C0 E0            [24] 2226 	push	acc
      000616 74 02            [12] 2227 	mov	a,#0x02
      000618 C0 E0            [24] 2228 	push	acc
      00061A 75 82 1C         [24] 2229 	mov	dpl,#0x1c
      00061D 78r00            [12] 2230 	mov	r0,#_OLED_P8x16Str
      00061F 79s00            [12] 2231 	mov	r1,#(_OLED_P8x16Str >> 8)
      000621 7As00            [12] 2232 	mov	r2,#(_OLED_P8x16Str >> 16)
      000623 12r00r00         [24] 2233 	lcall	__sdcc_banked_call
      000626 E5 81            [12] 2234 	mov	a,sp
      000628 24 FC            [12] 2235 	add	a,#0xfc
      00062A F5 81            [12] 2236 	mov	sp,a
                                   2237 ;	../../../platform/cc2530dk/RC522/RC522.c:219: OLED_P8x16Str(46,2,SendData);
      00062C 74r28            [12] 2238 	mov	a,#_SendData
      00062E C0 E0            [24] 2239 	push	acc
      000630 74s00            [12] 2240 	mov	a,#(_SendData >> 8)
      000632 C0 E0            [24] 2241 	push	acc
      000634 E4               [12] 2242 	clr	a
      000635 C0 E0            [24] 2243 	push	acc
      000637 74 02            [12] 2244 	mov	a,#0x02
      000639 C0 E0            [24] 2245 	push	acc
      00063B 75 82 2E         [24] 2246 	mov	dpl,#0x2e
      00063E 78r00            [12] 2247 	mov	r0,#_OLED_P8x16Str
      000640 79s00            [12] 2248 	mov	r1,#(_OLED_P8x16Str >> 8)
      000642 7As00            [12] 2249 	mov	r2,#(_OLED_P8x16Str >> 16)
      000644 12r00r00         [24] 2250 	lcall	__sdcc_banked_call
      000647 E5 81            [12] 2251 	mov	a,sp
      000649 24 FC            [12] 2252 	add	a,#0xfc
      00064B F5 81            [12] 2253 	mov	sp,a
                                   2254 ;	../../../platform/cc2530dk/RC522/RC522.c:220: OLED_P6x8Str(40,6,"0x");
      00064D 74r00            [12] 2255 	mov	a,#___str_0
      00064F C0 E0            [24] 2256 	push	acc
      000651 74s00            [12] 2257 	mov	a,#(___str_0 >> 8)
      000653 C0 E0            [24] 2258 	push	acc
      000655 74 80            [12] 2259 	mov	a,#0x80
      000657 C0 E0            [24] 2260 	push	acc
      000659 74 06            [12] 2261 	mov	a,#0x06
      00065B C0 E0            [24] 2262 	push	acc
      00065D 75 82 28         [24] 2263 	mov	dpl,#0x28
      000660 78r00            [12] 2264 	mov	r0,#_OLED_P6x8Str
      000662 79s00            [12] 2265 	mov	r1,#(_OLED_P6x8Str >> 8)
      000664 7As00            [12] 2266 	mov	r2,#(_OLED_P6x8Str >> 16)
      000666 12r00r00         [24] 2267 	lcall	__sdcc_banked_call
      000669 E5 81            [12] 2268 	mov	a,sp
      00066B 24 FC            [12] 2269 	add	a,#0xfc
      00066D F5 81            [12] 2270 	mov	sp,a
                                   2271 ;	../../../platform/cc2530dk/RC522/RC522.c:221: OLED_P6x8Str(55,6,SendBuf);
      00066F 74r00            [12] 2272 	mov	a,#_SendBuf
      000671 C0 E0            [24] 2273 	push	acc
      000673 74s00            [12] 2274 	mov	a,#(_SendBuf >> 8)
      000675 C0 E0            [24] 2275 	push	acc
      000677 E4               [12] 2276 	clr	a
      000678 C0 E0            [24] 2277 	push	acc
      00067A 74 06            [12] 2278 	mov	a,#0x06
      00067C C0 E0            [24] 2279 	push	acc
      00067E 75 82 37         [24] 2280 	mov	dpl,#0x37
      000681 78r00            [12] 2281 	mov	r0,#_OLED_P6x8Str
      000683 79s00            [12] 2282 	mov	r1,#(_OLED_P6x8Str >> 8)
      000685 7As00            [12] 2283 	mov	r2,#(_OLED_P6x8Str >> 16)
      000687 12r00r00         [24] 2284 	lcall	__sdcc_banked_call
      00068A E5 81            [12] 2285 	mov	a,sp
      00068C 24 FC            [12] 2286 	add	a,#0xfc
      00068E F5 81            [12] 2287 	mov	sp,a
      000690                       2288 00120$:
                                   2289 ;	../../../platform/cc2530dk/RC522/RC522.c:228: if(ucStatusReturn != MI_OK)//
      000690 90r00r32         [24] 2290 	mov	dptr,#_ucStatusReturn
      000693 E0               [24] 2291 	movx	a,@dptr
      000694 FF               [12] 2292 	mov	r7,a
      000695 BF 26 02         [24] 2293 	cjne	r7,#0x26,00204$
      000698 80 05            [24] 2294 	sjmp	00128$
      00069A                       2295 00204$:
                                   2296 ;	../../../platform/cc2530dk/RC522/RC522.c:230: IC_Card_Exist = 0;
      00069A 90r00r03         [24] 2297 	mov	dptr,#_IC_Card_Exist
      00069D E4               [12] 2298 	clr	a
      00069E F0               [24] 2299 	movx	@dptr,a
      00069F                       2300 00128$:
                                   2301 ;	../../../platform/cc2530dk/RC522/RC522.c:232: }
      00069F 02r00r00         [24] 2302 	ljmp	__sdcc_banked_ret
                                   2303 ;------------------------------------------------------------
                                   2304 ;Allocation info for local variables in function 'IC_Card_Write'
                                   2305 ;------------------------------------------------------------
                                   2306 ;p                         Allocated to registers r5 r6 r7 
                                   2307 ;------------------------------------------------------------
                                   2308 ;	../../../platform/cc2530dk/RC522/RC522.c:245: unsigned char IC_Card_Write(unsigned char *p)
                                   2309 ;	-----------------------------------------
                                   2310 ;	 function IC_Card_Write
                                   2311 ;	-----------------------------------------
      0006A2                       2312 _IC_Card_Write:
      0006A2 AD 82            [24] 2313 	mov	r5,dpl
      0006A4 AE 83            [24] 2314 	mov	r6,dph
      0006A6 AF F0            [24] 2315 	mov	r7,b
                                   2316 ;	../../../platform/cc2530dk/RC522/RC522.c:247: if (PcdAnticoll(ucArray_ID) == MI_OK)  //
      0006A8 90r00r0A         [24] 2317 	mov	dptr,#_ucArray_ID
      0006AB 75 F0 00         [24] 2318 	mov	b,#0x00
      0006AE C0 07            [24] 2319 	push	ar7
      0006B0 C0 06            [24] 2320 	push	ar6
      0006B2 C0 05            [24] 2321 	push	ar5
      0006B4 78r0D            [12] 2322 	mov	r0,#_PcdAnticoll
      0006B6 79s0F            [12] 2323 	mov	r1,#(_PcdAnticoll >> 8)
      0006B8 7As00            [12] 2324 	mov	r2,#(_PcdAnticoll >> 16)
      0006BA 12r00r00         [24] 2325 	lcall	__sdcc_banked_call
      0006BD AC 82            [24] 2326 	mov	r4,dpl
      0006BF D0 05            [24] 2327 	pop	ar5
      0006C1 D0 06            [24] 2328 	pop	ar6
      0006C3 D0 07            [24] 2329 	pop	ar7
      0006C5 BC 26 02         [24] 2330 	cjne	r4,#0x26,00127$
      0006C8 80 03            [24] 2331 	sjmp	00128$
      0006CA                       2332 00127$:
      0006CA 02r07r7C         [24] 2333 	ljmp	00108$
      0006CD                       2334 00128$:
                                   2335 ;	../../../platform/cc2530dk/RC522/RC522.c:249: if (PcdSelect(ucArray_ID) == MI_OK)//ucArray_ID
      0006CD 90r00r0A         [24] 2336 	mov	dptr,#_ucArray_ID
      0006D0 75 F0 00         [24] 2337 	mov	b,#0x00
      0006D3 C0 07            [24] 2338 	push	ar7
      0006D5 C0 06            [24] 2339 	push	ar6
      0006D7 C0 05            [24] 2340 	push	ar5
      0006D9 78r2B            [12] 2341 	mov	r0,#_PcdSelect
      0006DB 79s11            [12] 2342 	mov	r1,#(_PcdSelect >> 8)
      0006DD 7As00            [12] 2343 	mov	r2,#(_PcdSelect >> 16)
      0006DF 12r00r00         [24] 2344 	lcall	__sdcc_banked_call
      0006E2 AC 82            [24] 2345 	mov	r4,dpl
      0006E4 D0 05            [24] 2346 	pop	ar5
      0006E6 D0 06            [24] 2347 	pop	ar6
      0006E8 D0 07            [24] 2348 	pop	ar7
      0006EA BC 26 02         [24] 2349 	cjne	r4,#0x26,00129$
      0006ED 80 03            [24] 2350 	sjmp	00130$
      0006EF                       2351 00129$:
      0006EF 02r07r7C         [24] 2352 	ljmp	00108$
      0006F2                       2353 00130$:
                                   2354 ;	../../../platform/cc2530dk/RC522/RC522.c:251: if (PcdAuthState(0x61,0x5,pk,ucArray_ID) == MI_OK)//  
      0006F2 C0 07            [24] 2355 	push	ar7
      0006F4 C0 06            [24] 2356 	push	ar6
      0006F6 C0 05            [24] 2357 	push	ar5
      0006F8 74r0A            [12] 2358 	mov	a,#_ucArray_ID
      0006FA C0 E0            [24] 2359 	push	acc
      0006FC 74s00            [12] 2360 	mov	a,#(_ucArray_ID >> 8)
      0006FE C0 E0            [24] 2361 	push	acc
      000700 E4               [12] 2362 	clr	a
      000701 C0 E0            [24] 2363 	push	acc
      000703 74r04            [12] 2364 	mov	a,#_pk
      000705 C0 E0            [24] 2365 	push	acc
      000707 74s00            [12] 2366 	mov	a,#(_pk >> 8)
      000709 C0 E0            [24] 2367 	push	acc
      00070B E4               [12] 2368 	clr	a
      00070C C0 E0            [24] 2369 	push	acc
      00070E 74 05            [12] 2370 	mov	a,#0x05
      000710 C0 E0            [24] 2371 	push	acc
      000712 75 82 61         [24] 2372 	mov	dpl,#0x61
      000715 78r30            [12] 2373 	mov	r0,#_PcdAuthState
      000717 79s12            [12] 2374 	mov	r1,#(_PcdAuthState >> 8)
      000719 7As00            [12] 2375 	mov	r2,#(_PcdAuthState >> 16)
      00071B 12r00r00         [24] 2376 	lcall	__sdcc_banked_call
      00071E AC 82            [24] 2377 	mov	r4,dpl
      000720 E5 81            [12] 2378 	mov	a,sp
      000722 24 F9            [12] 2379 	add	a,#0xf9
      000724 F5 81            [12] 2380 	mov	sp,a
      000726 D0 05            [24] 2381 	pop	ar5
      000728 D0 06            [24] 2382 	pop	ar6
      00072A D0 07            [24] 2383 	pop	ar7
      00072C BC 26 4D         [24] 2384 	cjne	r4,#0x26,00108$
                                   2385 ;	../../../platform/cc2530dk/RC522/RC522.c:253: cStatus = PcdWrite(0x5,p);
      00072F C0 07            [24] 2386 	push	ar7
      000731 C0 06            [24] 2387 	push	ar6
      000733 C0 05            [24] 2388 	push	ar5
      000735 C0 05            [24] 2389 	push	ar5
      000737 C0 06            [24] 2390 	push	ar6
      000739 C0 07            [24] 2391 	push	ar7
      00073B 75 82 05         [24] 2392 	mov	dpl,#0x05
      00073E 78r19            [12] 2393 	mov	r0,#_PcdWrite
      000740 79s13            [12] 2394 	mov	r1,#(_PcdWrite >> 8)
      000742 7As00            [12] 2395 	mov	r2,#(_PcdWrite >> 16)
      000744 12r00r00         [24] 2396 	lcall	__sdcc_banked_call
      000747 AC 82            [24] 2397 	mov	r4,dpl
      000749 15 81            [12] 2398 	dec	sp
      00074B 15 81            [12] 2399 	dec	sp
      00074D 15 81            [12] 2400 	dec	sp
      00074F D0 05            [24] 2401 	pop	ar5
      000751 D0 06            [24] 2402 	pop	ar6
      000753 D0 07            [24] 2403 	pop	ar7
      000755 90r00r33         [24] 2404 	mov	dptr,#_cStatus
      000758 EC               [12] 2405 	mov	a,r4
      000759 F0               [24] 2406 	movx	@dptr,a
                                   2407 ;	../../../platform/cc2530dk/RC522/RC522.c:254: if(cStatus == MI_ERR)
      00075A BC BB 1F         [24] 2408 	cjne	r4,#0xbb,00108$
                                   2409 ;	../../../platform/cc2530dk/RC522/RC522.c:256: cStatus = PcdWrite(0x5,p);
      00075D C0 05            [24] 2410 	push	ar5
      00075F C0 06            [24] 2411 	push	ar6
      000761 C0 07            [24] 2412 	push	ar7
      000763 75 82 05         [24] 2413 	mov	dpl,#0x05
      000766 78r19            [12] 2414 	mov	r0,#_PcdWrite
      000768 79s13            [12] 2415 	mov	r1,#(_PcdWrite >> 8)
      00076A 7As00            [12] 2416 	mov	r2,#(_PcdWrite >> 16)
      00076C 12r00r00         [24] 2417 	lcall	__sdcc_banked_call
      00076F AF 82            [24] 2418 	mov	r7,dpl
      000771 15 81            [12] 2419 	dec	sp
      000773 15 81            [12] 2420 	dec	sp
      000775 15 81            [12] 2421 	dec	sp
      000777 90r00r33         [24] 2422 	mov	dptr,#_cStatus
      00077A EF               [12] 2423 	mov	a,r7
      00077B F0               [24] 2424 	movx	@dptr,a
      00077C                       2425 00108$:
                                   2426 ;	../../../platform/cc2530dk/RC522/RC522.c:261: return cStatus;
      00077C 90r00r33         [24] 2427 	mov	dptr,#_cStatus
      00077F E0               [24] 2428 	movx	a,@dptr
      000780 FF               [12] 2429 	mov	r7,a
      000781 F5 82            [12] 2430 	mov	dpl,a
                                   2431 ;	../../../platform/cc2530dk/RC522/RC522.c:262: }
      000783 02r00r00         [24] 2432 	ljmp	__sdcc_banked_ret
                                   2433 ;------------------------------------------------------------
                                   2434 ;Allocation info for local variables in function 'IC_Card_Read'
                                   2435 ;------------------------------------------------------------
                                   2436 ;p                         Allocated to registers r5 r6 r7 
                                   2437 ;------------------------------------------------------------
                                   2438 ;	../../../platform/cc2530dk/RC522/RC522.c:274: void IC_Card_Read(unsigned char *p)
                                   2439 ;	-----------------------------------------
                                   2440 ;	 function IC_Card_Read
                                   2441 ;	-----------------------------------------
      000786                       2442 _IC_Card_Read:
      000786 AD 82            [24] 2443 	mov	r5,dpl
      000788 AE 83            [24] 2444 	mov	r6,dph
      00078A AF F0            [24] 2445 	mov	r7,b
                                   2446 ;	../../../platform/cc2530dk/RC522/RC522.c:276: PcdRead(0X5,p);
      00078C C0 05            [24] 2447 	push	ar5
      00078E C0 06            [24] 2448 	push	ar6
      000790 C0 07            [24] 2449 	push	ar7
      000792 75 82 05         [24] 2450 	mov	dpl,#0x05
      000795 78rC8            [12] 2451 	mov	r0,#_PcdRead
      000797 79s14            [12] 2452 	mov	r1,#(_PcdRead >> 8)
      000799 7As00            [12] 2453 	mov	r2,#(_PcdRead >> 16)
      00079B 12r00r00         [24] 2454 	lcall	__sdcc_banked_call
      00079E 15 81            [12] 2455 	dec	sp
      0007A0 15 81            [12] 2456 	dec	sp
      0007A2 15 81            [12] 2457 	dec	sp
                                   2458 ;	../../../platform/cc2530dk/RC522/RC522.c:277: }
      0007A4 02r00r00         [24] 2459 	ljmp	__sdcc_banked_ret
                                   2460 ;------------------------------------------------------------
                                   2461 ;Allocation info for local variables in function 'RC522_SPI_Config'
                                   2462 ;------------------------------------------------------------
                                   2463 ;	../../../platform/cc2530dk/RC522/RC522.c:289: static void RC522_SPI_Config ( void )
                                   2464 ;	-----------------------------------------
                                   2465 ;	 function RC522_SPI_Config
                                   2466 ;	-----------------------------------------
      0007A7                       2467 _RC522_SPI_Config:
                                   2468 ;	../../../platform/cc2530dk/RC522/RC522.c:291: P1SEL &= ~0xF2;     //P1.1P1.4P1.5P1.6P1.7IO  
      0007A7 53 F4 0D         [24] 2469 	anl	_P1SEL,#0x0d
                                   2470 ;	../../../platform/cc2530dk/RC522/RC522.c:292: P1DIR |= 0x72;      //P1.1P1.4P1.5P1.6   
      0007AA 43 FE 72         [24] 2471 	orl	_P1DIR,#0x72
                                   2472 ;	../../../platform/cc2530dk/RC522/RC522.c:294: P1DIR &= ~0x80;     //P1.7P1.7 
      0007AD 53 FE 7F         [24] 2473 	anl	_P1DIR,#0x7f
                                   2474 ;	../../../platform/cc2530dk/RC522/RC522.c:295: P1INP &= ~0x80;     //P1.7
      0007B0 53 F6 7F         [24] 2475 	anl	_P1INP,#0x7f
                                   2476 ;	../../../platform/cc2530dk/RC522/RC522.c:296: }
      0007B3 02r00r00         [24] 2477 	ljmp	__sdcc_banked_ret
                                   2478 ;------------------------------------------------------------
                                   2479 ;Allocation info for local variables in function 'SPI_RC522_SendByte'
                                   2480 ;------------------------------------------------------------
                                   2481 ;byte                      Allocated to registers r7 
                                   2482 ;counter                   Allocated to registers 
                                   2483 ;------------------------------------------------------------
                                   2484 ;	../../../platform/cc2530dk/RC522/RC522.c:309: void SPI_RC522_SendByte ( unsigned char byte )
                                   2485 ;	-----------------------------------------
                                   2486 ;	 function SPI_RC522_SendByte
                                   2487 ;	-----------------------------------------
      0007B6                       2488 _SPI_RC522_SendByte:
      0007B6 AF 82            [24] 2489 	mov	r7,dpl
                                   2490 ;	../../../platform/cc2530dk/RC522/RC522.c:313: for(counter=0;counter<8;counter++)
      0007B8 7E 00            [12] 2491 	mov	r6,#0x00
      0007BA                       2492 00105$:
                                   2493 ;	../../../platform/cc2530dk/RC522/RC522.c:315: if ( byte & 0x80 )
      0007BA EF               [12] 2494 	mov	a,r7
      0007BB 30 E7 06         [24] 2495 	jnb	acc.7,00102$
                                   2496 ;	../../../platform/cc2530dk/RC522/RC522.c:317: macRC522_MOSI_1 ();
                                   2497 ;	assignBit
      0007BE D2 96            [12] 2498 	setb	_P1_6
                                   2499 ;	assignBit
      0007C0 D2 96            [12] 2500 	setb	_P1_6
      0007C2 80 04            [24] 2501 	sjmp	00103$
      0007C4                       2502 00102$:
                                   2503 ;	../../../platform/cc2530dk/RC522/RC522.c:321: macRC522_MOSI_0 ();
                                   2504 ;	assignBit
      0007C4 C2 96            [12] 2505 	clr	_P1_6
                                   2506 ;	assignBit
      0007C6 C2 96            [12] 2507 	clr	_P1_6
      0007C8                       2508 00103$:
                                   2509 ;	../../../platform/cc2530dk/RC522/RC522.c:324: macRC522_DELAY();
      0007C8 90 00 14         [24] 2510 	mov	dptr,#0x0014
      0007CB C0 07            [24] 2511 	push	ar7
      0007CD C0 06            [24] 2512 	push	ar6
      0007CF 78r00            [12] 2513 	mov	r0,#_delay_us
      0007D1 79s00            [12] 2514 	mov	r1,#(_delay_us >> 8)
      0007D3 7As00            [12] 2515 	mov	r2,#(_delay_us >> 16)
      0007D5 12r00r00         [24] 2516 	lcall	__sdcc_banked_call
                                   2517 ;	../../../platform/cc2530dk/RC522/RC522.c:326: macRC522_SCK_0 ();
                                   2518 ;	assignBit
      0007D8 C2 95            [12] 2519 	clr	_P1_5
                                   2520 ;	assignBit
      0007DA C2 95            [12] 2521 	clr	_P1_5
                                   2522 ;	../../../platform/cc2530dk/RC522/RC522.c:328: macRC522_DELAY();
      0007DC 90 00 14         [24] 2523 	mov	dptr,#0x0014
      0007DF 78r00            [12] 2524 	mov	r0,#_delay_us
      0007E1 79s00            [12] 2525 	mov	r1,#(_delay_us >> 8)
      0007E3 7As00            [12] 2526 	mov	r2,#(_delay_us >> 16)
      0007E5 12r00r00         [24] 2527 	lcall	__sdcc_banked_call
                                   2528 ;	../../../platform/cc2530dk/RC522/RC522.c:330: macRC522_SCK_1();
                                   2529 ;	assignBit
      0007E8 D2 95            [12] 2530 	setb	_P1_5
                                   2531 ;	assignBit
      0007EA D2 95            [12] 2532 	setb	_P1_5
                                   2533 ;	../../../platform/cc2530dk/RC522/RC522.c:332: macRC522_DELAY();
      0007EC 90 00 14         [24] 2534 	mov	dptr,#0x0014
      0007EF 78r00            [12] 2535 	mov	r0,#_delay_us
      0007F1 79s00            [12] 2536 	mov	r1,#(_delay_us >> 8)
      0007F3 7As00            [12] 2537 	mov	r2,#(_delay_us >> 16)
      0007F5 12r00r00         [24] 2538 	lcall	__sdcc_banked_call
      0007F8 D0 06            [24] 2539 	pop	ar6
      0007FA D0 07            [24] 2540 	pop	ar7
                                   2541 ;	../../../platform/cc2530dk/RC522/RC522.c:334: byte <<= 1; 
      0007FC 8F 05            [24] 2542 	mov	ar5,r7
      0007FE ED               [12] 2543 	mov	a,r5
      0007FF 2D               [12] 2544 	add	a,r5
      000800 FF               [12] 2545 	mov	r7,a
                                   2546 ;	../../../platform/cc2530dk/RC522/RC522.c:313: for(counter=0;counter<8;counter++)
      000801 0E               [12] 2547 	inc	r6
      000802 BE 08 00         [24] 2548 	cjne	r6,#0x08,00119$
      000805                       2549 00119$:
      000805 40 B3            [24] 2550 	jc	00105$
                                   2551 ;	../../../platform/cc2530dk/RC522/RC522.c:337: }
      000807 02r00r00         [24] 2552 	ljmp	__sdcc_banked_ret
                                   2553 ;------------------------------------------------------------
                                   2554 ;Allocation info for local variables in function 'SPI_RC522_ReadByte'
                                   2555 ;------------------------------------------------------------
                                   2556 ;counter                   Allocated to registers 
                                   2557 ;SPI_Data                  Allocated to stack - sp +0
                                   2558 ;------------------------------------------------------------
                                   2559 ;	../../../platform/cc2530dk/RC522/RC522.c:350: unsigned char SPI_RC522_ReadByte ( void )
                                   2560 ;	-----------------------------------------
                                   2561 ;	 function SPI_RC522_ReadByte
                                   2562 ;	-----------------------------------------
      00080A                       2563 _SPI_RC522_ReadByte:
      00080A 05 81            [12] 2564 	inc	sp
                                   2565 ;	../../../platform/cc2530dk/RC522/RC522.c:355: for(counter=0;counter<8;counter++)
      00080C 7F 00            [12] 2566 	mov	r7,#0x00
      00080E                       2567 00104$:
                                   2568 ;	../../../platform/cc2530dk/RC522/RC522.c:357: SPI_Data <<= 1;
      00080E 8D 06            [24] 2569 	mov	ar6,r5
      000810 EE               [12] 2570 	mov	a,r6
      000811 2E               [12] 2571 	add	a,r6
      000812 FD               [12] 2572 	mov	r5,a
                                   2573 ;	../../../platform/cc2530dk/RC522/RC522.c:359: macRC522_SCK_0 ();
                                   2574 ;	assignBit
      000813 C2 95            [12] 2575 	clr	_P1_5
                                   2576 ;	assignBit
      000815 C2 95            [12] 2577 	clr	_P1_5
                                   2578 ;	../../../platform/cc2530dk/RC522/RC522.c:362: macRC522_DELAY();
      000817 90 00 14         [24] 2579 	mov	dptr,#0x0014
      00081A C0 07            [24] 2580 	push	ar7
      00081C C0 05            [24] 2581 	push	ar5
      00081E 78r00            [12] 2582 	mov	r0,#_delay_us
      000820 79s00            [12] 2583 	mov	r1,#(_delay_us >> 8)
      000822 7As00            [12] 2584 	mov	r2,#(_delay_us >> 16)
      000824 12r00r00         [24] 2585 	lcall	__sdcc_banked_call
      000827 D0 05            [24] 2586 	pop	ar5
      000829 D0 07            [24] 2587 	pop	ar7
                                   2588 ;	../../../platform/cc2530dk/RC522/RC522.c:364: if ( macRC522_MISO_GET() == 1)
      00082B 30 97 03         [24] 2589 	jnb	_P1_7,00102$
                                   2590 ;	../../../platform/cc2530dk/RC522/RC522.c:365: SPI_Data |= 0x01;
      00082E 43 05 01         [24] 2591 	orl	ar5,#0x01
      000831                       2592 00102$:
                                   2593 ;	../../../platform/cc2530dk/RC522/RC522.c:369: macRC522_DELAY();
      000831 90 00 14         [24] 2594 	mov	dptr,#0x0014
      000834 C0 07            [24] 2595 	push	ar7
      000836 C0 05            [24] 2596 	push	ar5
      000838 78r00            [12] 2597 	mov	r0,#_delay_us
      00083A 79s00            [12] 2598 	mov	r1,#(_delay_us >> 8)
      00083C 7As00            [12] 2599 	mov	r2,#(_delay_us >> 16)
      00083E 12r00r00         [24] 2600 	lcall	__sdcc_banked_call
                                   2601 ;	../../../platform/cc2530dk/RC522/RC522.c:371: macRC522_SCK_1 ();
                                   2602 ;	assignBit
      000841 D2 95            [12] 2603 	setb	_P1_5
                                   2604 ;	assignBit
      000843 D2 95            [12] 2605 	setb	_P1_5
                                   2606 ;	../../../platform/cc2530dk/RC522/RC522.c:374: macRC522_DELAY();
      000845 90 00 14         [24] 2607 	mov	dptr,#0x0014
      000848 78r00            [12] 2608 	mov	r0,#_delay_us
      00084A 79s00            [12] 2609 	mov	r1,#(_delay_us >> 8)
      00084C 7As00            [12] 2610 	mov	r2,#(_delay_us >> 16)
      00084E 12r00r00         [24] 2611 	lcall	__sdcc_banked_call
      000851 D0 05            [24] 2612 	pop	ar5
      000853 D0 07            [24] 2613 	pop	ar7
                                   2614 ;	../../../platform/cc2530dk/RC522/RC522.c:355: for(counter=0;counter<8;counter++)
      000855 0F               [12] 2615 	inc	r7
      000856 BF 08 00         [24] 2616 	cjne	r7,#0x08,00122$
      000859                       2617 00122$:
      000859 40 B3            [24] 2618 	jc	00104$
                                   2619 ;	../../../platform/cc2530dk/RC522/RC522.c:378: return SPI_Data;
      00085B 8D 82            [24] 2620 	mov	dpl,r5
                                   2621 ;	../../../platform/cc2530dk/RC522/RC522.c:380: }
      00085D 15 81            [12] 2622 	dec	sp
      00085F 02r00r00         [24] 2623 	ljmp	__sdcc_banked_ret
                                   2624 ;------------------------------------------------------------
                                   2625 ;Allocation info for local variables in function 'ReadRawRC'
                                   2626 ;------------------------------------------------------------
                                   2627 ;ucAddress                 Allocated to registers r7 
                                   2628 ;ucAddr                    Allocated to registers r7 
                                   2629 ;ucReturn                  Allocated to registers r7 
                                   2630 ;------------------------------------------------------------
                                   2631 ;	../../../platform/cc2530dk/RC522/RC522.c:393: unsigned char ReadRawRC ( unsigned char ucAddress )
                                   2632 ;	-----------------------------------------
                                   2633 ;	 function ReadRawRC
                                   2634 ;	-----------------------------------------
      000862                       2635 _ReadRawRC:
                                   2636 ;	../../../platform/cc2530dk/RC522/RC522.c:397: ucAddr = ( ( ucAddress << 1 ) & 0x7E ) | 0x80;
      000862 E5 82            [12] 2637 	mov	a,dpl
      000864 25 82            [12] 2638 	add	a,dpl
      000866 FF               [12] 2639 	mov	r7,a
      000867 53 07 7E         [24] 2640 	anl	ar7,#0x7e
      00086A 43 07 80         [24] 2641 	orl	ar7,#0x80
                                   2642 ;	../../../platform/cc2530dk/RC522/RC522.c:399: macRC522_CS_Enable();
                                   2643 ;	assignBit
      00086D C2 94            [12] 2644 	clr	_P1_4
                                   2645 ;	assignBit
      00086F C2 94            [12] 2646 	clr	_P1_4
                                   2647 ;	../../../platform/cc2530dk/RC522/RC522.c:401: SPI_RC522_SendByte ( ucAddr );
      000871 8F 82            [24] 2648 	mov	dpl,r7
      000873 78rB6            [12] 2649 	mov	r0,#_SPI_RC522_SendByte
      000875 79s07            [12] 2650 	mov	r1,#(_SPI_RC522_SendByte >> 8)
      000877 7As00            [12] 2651 	mov	r2,#(_SPI_RC522_SendByte >> 16)
      000879 12r00r00         [24] 2652 	lcall	__sdcc_banked_call
                                   2653 ;	../../../platform/cc2530dk/RC522/RC522.c:403: ucReturn = SPI_RC522_ReadByte ();
      00087C 78r0A            [12] 2654 	mov	r0,#_SPI_RC522_ReadByte
      00087E 79s08            [12] 2655 	mov	r1,#(_SPI_RC522_ReadByte >> 8)
      000880 7As00            [12] 2656 	mov	r2,#(_SPI_RC522_ReadByte >> 16)
      000882 12r00r00         [24] 2657 	lcall	__sdcc_banked_call
      000885 AF 82            [24] 2658 	mov	r7,dpl
                                   2659 ;	../../../platform/cc2530dk/RC522/RC522.c:405: macRC522_CS_Disable();
                                   2660 ;	assignBit
      000887 D2 94            [12] 2661 	setb	_P1_4
                                   2662 ;	assignBit
      000889 D2 94            [12] 2663 	setb	_P1_4
                                   2664 ;	../../../platform/cc2530dk/RC522/RC522.c:407: return ucReturn;
      00088B 8F 82            [24] 2665 	mov	dpl,r7
                                   2666 ;	../../../platform/cc2530dk/RC522/RC522.c:408: }
      00088D 02r00r00         [24] 2667 	ljmp	__sdcc_banked_ret
                                   2668 ;------------------------------------------------------------
                                   2669 ;Allocation info for local variables in function 'WriteRawRC'
                                   2670 ;------------------------------------------------------------
                                   2671 ;ucValue                   Allocated to stack - sp -3
                                   2672 ;ucAddress                 Allocated to registers r7 
                                   2673 ;ucAddr                    Allocated to registers r7 
                                   2674 ;------------------------------------------------------------
                                   2675 ;	../../../platform/cc2530dk/RC522/RC522.c:421: void WriteRawRC ( unsigned char ucAddress, unsigned char ucValue )
                                   2676 ;	-----------------------------------------
                                   2677 ;	 function WriteRawRC
                                   2678 ;	-----------------------------------------
      000890                       2679 _WriteRawRC:
                                   2680 ;	../../../platform/cc2530dk/RC522/RC522.c:425: ucAddr = ( ucAddress << 1 ) & 0x7E;
      000890 E5 82            [12] 2681 	mov	a,dpl
      000892 25 82            [12] 2682 	add	a,dpl
      000894 FF               [12] 2683 	mov	r7,a
      000895 53 07 7E         [24] 2684 	anl	ar7,#0x7e
                                   2685 ;	../../../platform/cc2530dk/RC522/RC522.c:427: macRC522_CS_Enable();
                                   2686 ;	assignBit
      000898 C2 94            [12] 2687 	clr	_P1_4
                                   2688 ;	assignBit
      00089A C2 94            [12] 2689 	clr	_P1_4
                                   2690 ;	../../../platform/cc2530dk/RC522/RC522.c:429: SPI_RC522_SendByte ( ucAddr );
      00089C 8F 82            [24] 2691 	mov	dpl,r7
      00089E 78rB6            [12] 2692 	mov	r0,#_SPI_RC522_SendByte
      0008A0 79s07            [12] 2693 	mov	r1,#(_SPI_RC522_SendByte >> 8)
      0008A2 7As00            [12] 2694 	mov	r2,#(_SPI_RC522_SendByte >> 16)
      0008A4 12r00r00         [24] 2695 	lcall	__sdcc_banked_call
                                   2696 ;	../../../platform/cc2530dk/RC522/RC522.c:431: SPI_RC522_SendByte ( ucValue );
      0008A7 E5 81            [12] 2697 	mov	a,sp
      0008A9 24 FD            [12] 2698 	add	a,#0xfd
      0008AB F8               [12] 2699 	mov	r0,a
      0008AC 86 82            [24] 2700 	mov	dpl,@r0
      0008AE 78rB6            [12] 2701 	mov	r0,#_SPI_RC522_SendByte
      0008B0 79s07            [12] 2702 	mov	r1,#(_SPI_RC522_SendByte >> 8)
      0008B2 7As00            [12] 2703 	mov	r2,#(_SPI_RC522_SendByte >> 16)
      0008B4 12r00r00         [24] 2704 	lcall	__sdcc_banked_call
                                   2705 ;	../../../platform/cc2530dk/RC522/RC522.c:433: macRC522_CS_Disable();	
                                   2706 ;	assignBit
      0008B7 D2 94            [12] 2707 	setb	_P1_4
                                   2708 ;	assignBit
      0008B9 D2 94            [12] 2709 	setb	_P1_4
                                   2710 ;	../../../platform/cc2530dk/RC522/RC522.c:435: }
      0008BB 02r00r00         [24] 2711 	ljmp	__sdcc_banked_ret
                                   2712 ;------------------------------------------------------------
                                   2713 ;Allocation info for local variables in function 'SetBitMask'
                                   2714 ;------------------------------------------------------------
                                   2715 ;ucMask                    Allocated to stack - sp -3
                                   2716 ;ucReg                     Allocated to registers r7 
                                   2717 ;ucTemp                    Allocated to registers r6 
                                   2718 ;------------------------------------------------------------
                                   2719 ;	../../../platform/cc2530dk/RC522/RC522.c:448: void SetBitMask ( unsigned char ucReg, unsigned char ucMask )  
                                   2720 ;	-----------------------------------------
                                   2721 ;	 function SetBitMask
                                   2722 ;	-----------------------------------------
      0008BE                       2723 _SetBitMask:
                                   2724 ;	../../../platform/cc2530dk/RC522/RC522.c:452: ucTemp = ReadRawRC ( ucReg );
      0008BE AF 82            [24] 2725 	mov  r7,dpl
      0008C0 C0 07            [24] 2726 	push	ar7
      0008C2 78r62            [12] 2727 	mov	r0,#_ReadRawRC
      0008C4 79s08            [12] 2728 	mov	r1,#(_ReadRawRC >> 8)
      0008C6 7As00            [12] 2729 	mov	r2,#(_ReadRawRC >> 16)
      0008C8 12r00r00         [24] 2730 	lcall	__sdcc_banked_call
      0008CB AE 82            [24] 2731 	mov	r6,dpl
      0008CD D0 07            [24] 2732 	pop	ar7
                                   2733 ;	../../../platform/cc2530dk/RC522/RC522.c:454: WriteRawRC ( ucReg, ucTemp | ucMask );         // set bit mask
      0008CF E5 81            [12] 2734 	mov	a,sp
      0008D1 24 FD            [12] 2735 	add	a,#0xfd
      0008D3 F8               [12] 2736 	mov	r0,a
      0008D4 E6               [12] 2737 	mov	a,@r0
      0008D5 42 06            [12] 2738 	orl	ar6,a
      0008D7 C0 06            [24] 2739 	push	ar6
      0008D9 8F 82            [24] 2740 	mov	dpl,r7
      0008DB 78r90            [12] 2741 	mov	r0,#_WriteRawRC
      0008DD 79s08            [12] 2742 	mov	r1,#(_WriteRawRC >> 8)
      0008DF 7As00            [12] 2743 	mov	r2,#(_WriteRawRC >> 16)
      0008E1 12r00r00         [24] 2744 	lcall	__sdcc_banked_call
      0008E4 15 81            [12] 2745 	dec	sp
                                   2746 ;	../../../platform/cc2530dk/RC522/RC522.c:455: }
      0008E6 02r00r00         [24] 2747 	ljmp	__sdcc_banked_ret
                                   2748 ;------------------------------------------------------------
                                   2749 ;Allocation info for local variables in function 'ClearBitMask'
                                   2750 ;------------------------------------------------------------
                                   2751 ;ucMask                    Allocated to stack - sp -3
                                   2752 ;ucReg                     Allocated to registers r7 
                                   2753 ;ucTemp                    Allocated to registers r6 
                                   2754 ;------------------------------------------------------------
                                   2755 ;	../../../platform/cc2530dk/RC522/RC522.c:469: void ClearBitMask ( unsigned char ucReg, unsigned char ucMask )  
                                   2756 ;	-----------------------------------------
                                   2757 ;	 function ClearBitMask
                                   2758 ;	-----------------------------------------
      0008E9                       2759 _ClearBitMask:
                                   2760 ;	../../../platform/cc2530dk/RC522/RC522.c:473: ucTemp = ReadRawRC ( ucReg );
      0008E9 AF 82            [24] 2761 	mov  r7,dpl
      0008EB C0 07            [24] 2762 	push	ar7
      0008ED 78r62            [12] 2763 	mov	r0,#_ReadRawRC
      0008EF 79s08            [12] 2764 	mov	r1,#(_ReadRawRC >> 8)
      0008F1 7As00            [12] 2765 	mov	r2,#(_ReadRawRC >> 16)
      0008F3 12r00r00         [24] 2766 	lcall	__sdcc_banked_call
      0008F6 AE 82            [24] 2767 	mov	r6,dpl
      0008F8 D0 07            [24] 2768 	pop	ar7
                                   2769 ;	../../../platform/cc2530dk/RC522/RC522.c:475: WriteRawRC ( ucReg, ucTemp & ( ~ ucMask) );  // clear bit mask
      0008FA E5 81            [12] 2770 	mov	a,sp
      0008FC 24 FD            [12] 2771 	add	a,#0xfd
      0008FE F8               [12] 2772 	mov	r0,a
      0008FF E6               [12] 2773 	mov	a,@r0
      000900 F4               [12] 2774 	cpl	a
      000901 52 06            [12] 2775 	anl	ar6,a
      000903 C0 06            [24] 2776 	push	ar6
      000905 8F 82            [24] 2777 	mov	dpl,r7
      000907 78r90            [12] 2778 	mov	r0,#_WriteRawRC
      000909 79s08            [12] 2779 	mov	r1,#(_WriteRawRC >> 8)
      00090B 7As00            [12] 2780 	mov	r2,#(_WriteRawRC >> 16)
      00090D 12r00r00         [24] 2781 	lcall	__sdcc_banked_call
      000910 15 81            [12] 2782 	dec	sp
                                   2783 ;	../../../platform/cc2530dk/RC522/RC522.c:476: }
      000912 02r00r00         [24] 2784 	ljmp	__sdcc_banked_ret
                                   2785 ;------------------------------------------------------------
                                   2786 ;Allocation info for local variables in function 'PcdAntennaOn'
                                   2787 ;------------------------------------------------------------
                                   2788 ;uc                        Allocated to registers 
                                   2789 ;------------------------------------------------------------
                                   2790 ;	../../../platform/cc2530dk/RC522/RC522.c:489: void PcdAntennaOn ( void )
                                   2791 ;	-----------------------------------------
                                   2792 ;	 function PcdAntennaOn
                                   2793 ;	-----------------------------------------
      000915                       2794 _PcdAntennaOn:
                                   2795 ;	../../../platform/cc2530dk/RC522/RC522.c:493: uc = ReadRawRC ( TxControlReg );
      000915 75 82 14         [24] 2796 	mov	dpl,#0x14
      000918 78r62            [12] 2797 	mov	r0,#_ReadRawRC
      00091A 79s08            [12] 2798 	mov	r1,#(_ReadRawRC >> 8)
      00091C 7As00            [12] 2799 	mov	r2,#(_ReadRawRC >> 16)
      00091E 12r00r00         [24] 2800 	lcall	__sdcc_banked_call
      000921 E5 82            [12] 2801 	mov	a,dpl
      000923 FF               [12] 2802 	mov	r7,a
                                   2803 ;	../../../platform/cc2530dk/RC522/RC522.c:495: if ( ! ( uc & 0x03 ) )
      000924 54 03            [12] 2804 	anl	a,#0x03
      000926 60 02            [24] 2805 	jz	00110$
      000928 80 12            [24] 2806 	sjmp	00103$
      00092A                       2807 00110$:
                                   2808 ;	../../../platform/cc2530dk/RC522/RC522.c:496: SetBitMask(TxControlReg, 0x03);	
      00092A 74 03            [12] 2809 	mov	a,#0x03
      00092C C0 E0            [24] 2810 	push	acc
      00092E 75 82 14         [24] 2811 	mov	dpl,#0x14
      000931 78rBE            [12] 2812 	mov	r0,#_SetBitMask
      000933 79s08            [12] 2813 	mov	r1,#(_SetBitMask >> 8)
      000935 7As00            [12] 2814 	mov	r2,#(_SetBitMask >> 16)
      000937 12r00r00         [24] 2815 	lcall	__sdcc_banked_call
      00093A 15 81            [12] 2816 	dec	sp
      00093C                       2817 00103$:
                                   2818 ;	../../../platform/cc2530dk/RC522/RC522.c:497: }
      00093C 02r00r00         [24] 2819 	ljmp	__sdcc_banked_ret
                                   2820 ;------------------------------------------------------------
                                   2821 ;Allocation info for local variables in function 'PcdAntennaOff'
                                   2822 ;------------------------------------------------------------
                                   2823 ;	../../../platform/cc2530dk/RC522/RC522.c:510: void PcdAntennaOff ( void )
                                   2824 ;	-----------------------------------------
                                   2825 ;	 function PcdAntennaOff
                                   2826 ;	-----------------------------------------
      00093F                       2827 _PcdAntennaOff:
                                   2828 ;	../../../platform/cc2530dk/RC522/RC522.c:512: ClearBitMask ( TxControlReg, 0x03 );
      00093F 74 03            [12] 2829 	mov	a,#0x03
      000941 C0 E0            [24] 2830 	push	acc
      000943 75 82 14         [24] 2831 	mov	dpl,#0x14
      000946 78rE9            [12] 2832 	mov	r0,#_ClearBitMask
      000948 79s08            [12] 2833 	mov	r1,#(_ClearBitMask >> 8)
      00094A 7As00            [12] 2834 	mov	r2,#(_ClearBitMask >> 16)
      00094C 12r00r00         [24] 2835 	lcall	__sdcc_banked_call
      00094F 15 81            [12] 2836 	dec	sp
                                   2837 ;	../../../platform/cc2530dk/RC522/RC522.c:513: }
      000951 02r00r00         [24] 2838 	ljmp	__sdcc_banked_ret
                                   2839 ;------------------------------------------------------------
                                   2840 ;Allocation info for local variables in function 'RC522_InitStatus'
                                   2841 ;------------------------------------------------------------
                                   2842 ;	../../../platform/cc2530dk/RC522/RC522.c:527: unsigned char RC522_InitStatus(void) 
                                   2843 ;	-----------------------------------------
                                   2844 ;	 function RC522_InitStatus
                                   2845 ;	-----------------------------------------
      000954                       2846 _RC522_InitStatus:
                                   2847 ;	../../../platform/cc2530dk/RC522/RC522.c:529: return InitStatus;
      000954 90r00r28         [24] 2848 	mov	dptr,#_InitStatus
      000957 E0               [24] 2849 	movx	a,@dptr
      000958 FF               [12] 2850 	mov	r7,a
      000959 F5 82            [12] 2851 	mov	dpl,a
                                   2852 ;	../../../platform/cc2530dk/RC522/RC522.c:530: }
      00095B 02r00r00         [24] 2853 	ljmp	__sdcc_banked_ret
                                   2854 ;------------------------------------------------------------
                                   2855 ;Allocation info for local variables in function 'PcdReset'
                                   2856 ;------------------------------------------------------------
                                   2857 ;count                     Allocated to registers r7 
                                   2858 ;------------------------------------------------------------
                                   2859 ;	../../../platform/cc2530dk/RC522/RC522.c:542: unsigned char  PcdReset ( void )
                                   2860 ;	-----------------------------------------
                                   2861 ;	 function PcdReset
                                   2862 ;	-----------------------------------------
      00095E                       2863 _PcdReset:
                                   2864 ;	../../../platform/cc2530dk/RC522/RC522.c:544: unsigned char count=0;
      00095E 7F 00            [12] 2865 	mov	r7,#0x00
                                   2866 ;	../../../platform/cc2530dk/RC522/RC522.c:545: macRC522_Reset_Disable();
                                   2867 ;	assignBit
      000960 D2 91            [12] 2868 	setb	_P1_1
                                   2869 ;	assignBit
      000962 D2 91            [12] 2870 	setb	_P1_1
                                   2871 ;	../../../platform/cc2530dk/RC522/RC522.c:547: delay_us ( 1 );
      000964 90 00 01         [24] 2872 	mov	dptr,#0x0001
      000967 C0 07            [24] 2873 	push	ar7
      000969 78r00            [12] 2874 	mov	r0,#_delay_us
      00096B 79s00            [12] 2875 	mov	r1,#(_delay_us >> 8)
      00096D 7As00            [12] 2876 	mov	r2,#(_delay_us >> 16)
      00096F 12r00r00         [24] 2877 	lcall	__sdcc_banked_call
                                   2878 ;	../../../platform/cc2530dk/RC522/RC522.c:549: macRC522_Reset_Enable();
                                   2879 ;	assignBit
      000972 C2 91            [12] 2880 	clr	_P1_1
                                   2881 ;	assignBit
      000974 C2 91            [12] 2882 	clr	_P1_1
                                   2883 ;	../../../platform/cc2530dk/RC522/RC522.c:551: delay_us ( 1 );
      000976 90 00 01         [24] 2884 	mov	dptr,#0x0001
      000979 78r00            [12] 2885 	mov	r0,#_delay_us
      00097B 79s00            [12] 2886 	mov	r1,#(_delay_us >> 8)
      00097D 7As00            [12] 2887 	mov	r2,#(_delay_us >> 16)
      00097F 12r00r00         [24] 2888 	lcall	__sdcc_banked_call
                                   2889 ;	../../../platform/cc2530dk/RC522/RC522.c:553: macRC522_Reset_Disable();
                                   2890 ;	assignBit
      000982 D2 91            [12] 2891 	setb	_P1_1
                                   2892 ;	assignBit
      000984 D2 91            [12] 2893 	setb	_P1_1
                                   2894 ;	../../../platform/cc2530dk/RC522/RC522.c:555: delay_us ( 1 );
      000986 90 00 01         [24] 2895 	mov	dptr,#0x0001
      000989 78r00            [12] 2896 	mov	r0,#_delay_us
      00098B 79s00            [12] 2897 	mov	r1,#(_delay_us >> 8)
      00098D 7As00            [12] 2898 	mov	r2,#(_delay_us >> 16)
      00098F 12r00r00         [24] 2899 	lcall	__sdcc_banked_call
                                   2900 ;	../../../platform/cc2530dk/RC522/RC522.c:557: WriteRawRC ( CommandReg, 0x0f );
      000992 74 0F            [12] 2901 	mov	a,#0x0f
      000994 C0 E0            [24] 2902 	push	acc
      000996 75 82 01         [24] 2903 	mov	dpl,#0x01
      000999 78r90            [12] 2904 	mov	r0,#_WriteRawRC
      00099B 79s08            [12] 2905 	mov	r1,#(_WriteRawRC >> 8)
      00099D 7As00            [12] 2906 	mov	r2,#(_WriteRawRC >> 16)
      00099F 12r00r00         [24] 2907 	lcall	__sdcc_banked_call
      0009A2 15 81            [12] 2908 	dec	sp
      0009A4 D0 07            [24] 2909 	pop	ar7
                                   2910 ;	../../../platform/cc2530dk/RC522/RC522.c:559: while ( (ReadRawRC ( CommandReg ) & 0x10 ))
      0009A6                       2911 00104$:
      0009A6 75 82 01         [24] 2912 	mov	dpl,#0x01
      0009A9 C0 07            [24] 2913 	push	ar7
      0009AB 78r62            [12] 2914 	mov	r0,#_ReadRawRC
      0009AD 79s08            [12] 2915 	mov	r1,#(_ReadRawRC >> 8)
      0009AF 7As00            [12] 2916 	mov	r2,#(_ReadRawRC >> 16)
      0009B1 12r00r00         [24] 2917 	lcall	__sdcc_banked_call
      0009B4 E5 82            [12] 2918 	mov	a,dpl
      0009B6 D0 07            [24] 2919 	pop	ar7
      0009B8 30 E4 18         [24] 2920 	jnb	acc.4,00106$
                                   2921 ;	../../../platform/cc2530dk/RC522/RC522.c:561: if((++count) < 6)
      0009BB 0F               [12] 2922 	inc	r7
      0009BC BF 06 00         [24] 2923 	cjne	r7,#0x06,00123$
      0009BF                       2924 00123$:
      0009BF 50 12            [24] 2925 	jnc	00106$
                                   2926 ;	../../../platform/cc2530dk/RC522/RC522.c:563: delay_ms(100);
      0009C1 90 00 64         [24] 2927 	mov	dptr,#0x0064
      0009C4 C0 07            [24] 2928 	push	ar7
      0009C6 78r00            [12] 2929 	mov	r0,#_delay_ms
      0009C8 79s00            [12] 2930 	mov	r1,#(_delay_ms >> 8)
      0009CA 7As00            [12] 2931 	mov	r2,#(_delay_ms >> 16)
      0009CC 12r00r00         [24] 2932 	lcall	__sdcc_banked_call
      0009CF D0 07            [24] 2933 	pop	ar7
                                   2934 ;	../../../platform/cc2530dk/RC522/RC522.c:567: break;
      0009D1 80 D3            [24] 2935 	sjmp	00104$
      0009D3                       2936 00106$:
                                   2937 ;	../../../platform/cc2530dk/RC522/RC522.c:570: delay_us ( 1 );
      0009D3 90 00 01         [24] 2938 	mov	dptr,#0x0001
      0009D6 78r00            [12] 2939 	mov	r0,#_delay_us
      0009D8 79s00            [12] 2940 	mov	r1,#(_delay_us >> 8)
      0009DA 7As00            [12] 2941 	mov	r2,#(_delay_us >> 16)
      0009DC 12r00r00         [24] 2942 	lcall	__sdcc_banked_call
                                   2943 ;	../../../platform/cc2530dk/RC522/RC522.c:572: WriteRawRC ( ModeReg, 0x3D );           // MifareCRC0x6363
      0009DF 74 3D            [12] 2944 	mov	a,#0x3d
      0009E1 C0 E0            [24] 2945 	push	acc
      0009E3 75 82 11         [24] 2946 	mov	dpl,#0x11
      0009E6 78r90            [12] 2947 	mov	r0,#_WriteRawRC
      0009E8 79s08            [12] 2948 	mov	r1,#(_WriteRawRC >> 8)
      0009EA 7As00            [12] 2949 	mov	r2,#(_WriteRawRC >> 16)
      0009EC 12r00r00         [24] 2950 	lcall	__sdcc_banked_call
      0009EF 15 81            [12] 2951 	dec	sp
                                   2952 ;	../../../platform/cc2530dk/RC522/RC522.c:574: WriteRawRC ( TReloadRegL, 30 );         //16    
      0009F1 74 1E            [12] 2953 	mov	a,#0x1e
      0009F3 C0 E0            [24] 2954 	push	acc
      0009F5 75 82 2D         [24] 2955 	mov	dpl,#0x2d
      0009F8 78r90            [12] 2956 	mov	r0,#_WriteRawRC
      0009FA 79s08            [12] 2957 	mov	r1,#(_WriteRawRC >> 8)
      0009FC 7As00            [12] 2958 	mov	r2,#(_WriteRawRC >> 16)
      0009FE 12r00r00         [24] 2959 	lcall	__sdcc_banked_call
      000A01 15 81            [12] 2960 	dec	sp
                                   2961 ;	../../../platform/cc2530dk/RC522/RC522.c:575: WriteRawRC ( TReloadRegH, 0 );	        //16
      000A03 E4               [12] 2962 	clr	a
      000A04 C0 E0            [24] 2963 	push	acc
      000A06 75 82 2C         [24] 2964 	mov	dpl,#0x2c
      000A09 78r90            [12] 2965 	mov	r0,#_WriteRawRC
      000A0B 79s08            [12] 2966 	mov	r1,#(_WriteRawRC >> 8)
      000A0D 7As00            [12] 2967 	mov	r2,#(_WriteRawRC >> 16)
      000A0F 12r00r00         [24] 2968 	lcall	__sdcc_banked_call
      000A12 15 81            [12] 2969 	dec	sp
                                   2970 ;	../../../platform/cc2530dk/RC522/RC522.c:577: WriteRawRC ( TModeReg, 0x8D );	        //
      000A14 74 8D            [12] 2971 	mov	a,#0x8d
      000A16 C0 E0            [24] 2972 	push	acc
      000A18 75 82 2A         [24] 2973 	mov	dpl,#0x2a
      000A1B 78r90            [12] 2974 	mov	r0,#_WriteRawRC
      000A1D 79s08            [12] 2975 	mov	r1,#(_WriteRawRC >> 8)
      000A1F 7As00            [12] 2976 	mov	r2,#(_WriteRawRC >> 16)
      000A21 12r00r00         [24] 2977 	lcall	__sdcc_banked_call
      000A24 15 81            [12] 2978 	dec	sp
                                   2979 ;	../../../platform/cc2530dk/RC522/RC522.c:579: WriteRawRC ( TPrescalerReg, 0x3E );	//
      000A26 74 3E            [12] 2980 	mov	a,#0x3e
      000A28 C0 E0            [24] 2981 	push	acc
      000A2A 75 82 2B         [24] 2982 	mov	dpl,#0x2b
      000A2D 78r90            [12] 2983 	mov	r0,#_WriteRawRC
      000A2F 79s08            [12] 2984 	mov	r1,#(_WriteRawRC >> 8)
      000A31 7As00            [12] 2985 	mov	r2,#(_WriteRawRC >> 16)
      000A33 12r00r00         [24] 2986 	lcall	__sdcc_banked_call
      000A36 15 81            [12] 2987 	dec	sp
                                   2988 ;	../../../platform/cc2530dk/RC522/RC522.c:581: WriteRawRC ( TxAutoReg, 0x40 );	        //100%ASK	
      000A38 74 40            [12] 2989 	mov	a,#0x40
      000A3A C0 E0            [24] 2990 	push	acc
      000A3C 75 82 15         [24] 2991 	mov	dpl,#0x15
      000A3F 78r90            [12] 2992 	mov	r0,#_WriteRawRC
      000A41 79s08            [12] 2993 	mov	r1,#(_WriteRawRC >> 8)
      000A43 7As00            [12] 2994 	mov	r2,#(_WriteRawRC >> 16)
      000A45 12r00r00         [24] 2995 	lcall	__sdcc_banked_call
      000A48 15 81            [12] 2996 	dec	sp
                                   2997 ;	../../../platform/cc2530dk/RC522/RC522.c:582: InitStatus = 1;
      000A4A 90r00r28         [24] 2998 	mov	dptr,#_InitStatus
      000A4D 74 01            [12] 2999 	mov	a,#0x01
      000A4F F0               [24] 3000 	movx	@dptr,a
                                   3001 ;	../../../platform/cc2530dk/RC522/RC522.c:583: delay_us ( 100 ); 
      000A50 90 00 64         [24] 3002 	mov	dptr,#0x0064
      000A53 78r00            [12] 3003 	mov	r0,#_delay_us
      000A55 79s00            [12] 3004 	mov	r1,#(_delay_us >> 8)
      000A57 7As00            [12] 3005 	mov	r2,#(_delay_us >> 16)
      000A59 12r00r00         [24] 3006 	lcall	__sdcc_banked_call
                                   3007 ;	../../../platform/cc2530dk/RC522/RC522.c:584: return InitStatus;
      000A5C 90r00r28         [24] 3008 	mov	dptr,#_InitStatus
      000A5F E0               [24] 3009 	movx	a,@dptr
      000A60 FF               [12] 3010 	mov	r7,a
      000A61 F5 82            [12] 3011 	mov	dpl,a
                                   3012 ;	../../../platform/cc2530dk/RC522/RC522.c:585: }
      000A63 02r00r00         [24] 3013 	ljmp	__sdcc_banked_ret
                                   3014 ;------------------------------------------------------------
                                   3015 ;Allocation info for local variables in function 'M500PcdConfigISOType'
                                   3016 ;------------------------------------------------------------
                                   3017 ;ucType                    Allocated to registers r7 
                                   3018 ;------------------------------------------------------------
                                   3019 ;	../../../platform/cc2530dk/RC522/RC522.c:598: void M500PcdConfigISOType ( unsigned char ucType )
                                   3020 ;	-----------------------------------------
                                   3021 ;	 function M500PcdConfigISOType
                                   3022 ;	-----------------------------------------
      000A66                       3023 _M500PcdConfigISOType:
      000A66 AF 82            [24] 3024 	mov	r7,dpl
                                   3025 ;	../../../platform/cc2530dk/RC522/RC522.c:600: if ( ucType == 'A')                     //ISO14443_A
      000A68 BF 41 02         [24] 3026 	cjne	r7,#0x41,00109$
      000A6B 80 03            [24] 3027 	sjmp	00110$
      000A6D                       3028 00109$:
      000A6D 02r00r00         [24] 3029 	ljmp	__sdcc_banked_ret
      000A70                       3030 00110$:
                                   3031 ;	../../../platform/cc2530dk/RC522/RC522.c:602: ClearBitMask ( Status2Reg, 0x08 );
      000A70 74 08            [12] 3032 	mov	a,#0x08
      000A72 C0 E0            [24] 3033 	push	acc
      000A74 75 82 08         [24] 3034 	mov	dpl,#0x08
      000A77 78rE9            [12] 3035 	mov	r0,#_ClearBitMask
      000A79 79s08            [12] 3036 	mov	r1,#(_ClearBitMask >> 8)
      000A7B 7As00            [12] 3037 	mov	r2,#(_ClearBitMask >> 16)
      000A7D 12r00r00         [24] 3038 	lcall	__sdcc_banked_call
      000A80 15 81            [12] 3039 	dec	sp
                                   3040 ;	../../../platform/cc2530dk/RC522/RC522.c:604: WriteRawRC ( ModeReg, 0x3D );//3F
      000A82 74 3D            [12] 3041 	mov	a,#0x3d
      000A84 C0 E0            [24] 3042 	push	acc
      000A86 75 82 11         [24] 3043 	mov	dpl,#0x11
      000A89 78r90            [12] 3044 	mov	r0,#_WriteRawRC
      000A8B 79s08            [12] 3045 	mov	r1,#(_WriteRawRC >> 8)
      000A8D 7As00            [12] 3046 	mov	r2,#(_WriteRawRC >> 16)
      000A8F 12r00r00         [24] 3047 	lcall	__sdcc_banked_call
      000A92 15 81            [12] 3048 	dec	sp
                                   3049 ;	../../../platform/cc2530dk/RC522/RC522.c:606: WriteRawRC ( RxSelReg, 0x86 );//84
      000A94 74 86            [12] 3050 	mov	a,#0x86
      000A96 C0 E0            [24] 3051 	push	acc
      000A98 75 82 17         [24] 3052 	mov	dpl,#0x17
      000A9B 78r90            [12] 3053 	mov	r0,#_WriteRawRC
      000A9D 79s08            [12] 3054 	mov	r1,#(_WriteRawRC >> 8)
      000A9F 7As00            [12] 3055 	mov	r2,#(_WriteRawRC >> 16)
      000AA1 12r00r00         [24] 3056 	lcall	__sdcc_banked_call
      000AA4 15 81            [12] 3057 	dec	sp
                                   3058 ;	../../../platform/cc2530dk/RC522/RC522.c:608: WriteRawRC( RFCfgReg, 0x7F );   //4F
      000AA6 74 7F            [12] 3059 	mov	a,#0x7f
      000AA8 C0 E0            [24] 3060 	push	acc
      000AAA 75 82 26         [24] 3061 	mov	dpl,#0x26
      000AAD 78r90            [12] 3062 	mov	r0,#_WriteRawRC
      000AAF 79s08            [12] 3063 	mov	r1,#(_WriteRawRC >> 8)
      000AB1 7As00            [12] 3064 	mov	r2,#(_WriteRawRC >> 16)
      000AB3 12r00r00         [24] 3065 	lcall	__sdcc_banked_call
      000AB6 15 81            [12] 3066 	dec	sp
                                   3067 ;	../../../platform/cc2530dk/RC522/RC522.c:610: WriteRawRC( TReloadRegL, 30 );//tmoLength);// TReloadVal = 'h6a =tmoLength(dec) 
      000AB8 74 1E            [12] 3068 	mov	a,#0x1e
      000ABA C0 E0            [24] 3069 	push	acc
      000ABC 75 82 2D         [24] 3070 	mov	dpl,#0x2d
      000ABF 78r90            [12] 3071 	mov	r0,#_WriteRawRC
      000AC1 79s08            [12] 3072 	mov	r1,#(_WriteRawRC >> 8)
      000AC3 7As00            [12] 3073 	mov	r2,#(_WriteRawRC >> 16)
      000AC5 12r00r00         [24] 3074 	lcall	__sdcc_banked_call
      000AC8 15 81            [12] 3075 	dec	sp
                                   3076 ;	../../../platform/cc2530dk/RC522/RC522.c:612: WriteRawRC ( TReloadRegH, 0 );
      000ACA E4               [12] 3077 	clr	a
      000ACB C0 E0            [24] 3078 	push	acc
      000ACD 75 82 2C         [24] 3079 	mov	dpl,#0x2c
      000AD0 78r90            [12] 3080 	mov	r0,#_WriteRawRC
      000AD2 79s08            [12] 3081 	mov	r1,#(_WriteRawRC >> 8)
      000AD4 7As00            [12] 3082 	mov	r2,#(_WriteRawRC >> 16)
      000AD6 12r00r00         [24] 3083 	lcall	__sdcc_banked_call
      000AD9 15 81            [12] 3084 	dec	sp
                                   3085 ;	../../../platform/cc2530dk/RC522/RC522.c:614: WriteRawRC ( TModeReg, 0x8D );
      000ADB 74 8D            [12] 3086 	mov	a,#0x8d
      000ADD C0 E0            [24] 3087 	push	acc
      000ADF 75 82 2A         [24] 3088 	mov	dpl,#0x2a
      000AE2 78r90            [12] 3089 	mov	r0,#_WriteRawRC
      000AE4 79s08            [12] 3090 	mov	r1,#(_WriteRawRC >> 8)
      000AE6 7As00            [12] 3091 	mov	r2,#(_WriteRawRC >> 16)
      000AE8 12r00r00         [24] 3092 	lcall	__sdcc_banked_call
      000AEB 15 81            [12] 3093 	dec	sp
                                   3094 ;	../../../platform/cc2530dk/RC522/RC522.c:616: WriteRawRC ( TPrescalerReg, 0x3E );
      000AED 74 3E            [12] 3095 	mov	a,#0x3e
      000AEF C0 E0            [24] 3096 	push	acc
      000AF1 75 82 2B         [24] 3097 	mov	dpl,#0x2b
      000AF4 78r90            [12] 3098 	mov	r0,#_WriteRawRC
      000AF6 79s08            [12] 3099 	mov	r1,#(_WriteRawRC >> 8)
      000AF8 7As00            [12] 3100 	mov	r2,#(_WriteRawRC >> 16)
      000AFA 12r00r00         [24] 3101 	lcall	__sdcc_banked_call
      000AFD 15 81            [12] 3102 	dec	sp
                                   3103 ;	../../../platform/cc2530dk/RC522/RC522.c:618: delay_us ( 2 );
      000AFF 90 00 02         [24] 3104 	mov	dptr,#0x0002
      000B02 78r00            [12] 3105 	mov	r0,#_delay_us
      000B04 79s00            [12] 3106 	mov	r1,#(_delay_us >> 8)
      000B06 7As00            [12] 3107 	mov	r2,#(_delay_us >> 16)
      000B08 12r00r00         [24] 3108 	lcall	__sdcc_banked_call
                                   3109 ;	../../../platform/cc2530dk/RC522/RC522.c:620: PcdAntennaOn ();//	
      000B0B 78r15            [12] 3110 	mov	r0,#_PcdAntennaOn
      000B0D 79s09            [12] 3111 	mov	r1,#(_PcdAntennaOn >> 8)
      000B0F 7As00            [12] 3112 	mov	r2,#(_PcdAntennaOn >> 16)
      000B11 12r00r00         [24] 3113 	lcall	__sdcc_banked_call
                                   3114 ;	../../../platform/cc2530dk/RC522/RC522.c:622: }
      000B14 02r00r00         [24] 3115 	ljmp	__sdcc_banked_ret
                                   3116 ;------------------------------------------------------------
                                   3117 ;Allocation info for local variables in function 'PcdComMF522'
                                   3118 ;------------------------------------------------------------
                                   3119 ;pInData                   Allocated to stack - sp -10
                                   3120 ;ucInLenByte               Allocated to stack - sp -11
                                   3121 ;pOutData                  Allocated to stack - sp -14
                                   3122 ;pOutLenBit                Allocated to stack - sp -17
                                   3123 ;ucCommand                 Allocated to registers r7 
                                   3124 ;cStatus                   Allocated to registers r6 
                                   3125 ;ucIrqEn                   Allocated to stack - sp -2
                                   3126 ;ucWaitFor                 Allocated to stack - sp -1
                                   3127 ;ucLastBits                Allocated to registers r4 
                                   3128 ;ucN                       Allocated to stack - sp +0
                                   3129 ;ul                        Allocated to registers 
                                   3130 ;sloc0                     Allocated to stack - sp -4
                                   3131 ;------------------------------------------------------------
                                   3132 ;	../../../platform/cc2530dk/RC522/RC522.c:639: char PcdComMF522 ( unsigned char ucCommand, unsigned char * pInData, unsigned char ucInLenByte, unsigned char * pOutData, int * pOutLenBit )		
                                   3133 ;	-----------------------------------------
                                   3134 ;	 function PcdComMF522
                                   3135 ;	-----------------------------------------
      000B17                       3136 _PcdComMF522:
      000B17 E5 81            [12] 3137 	mov	a,sp
      000B19 24 05            [12] 3138 	add	a,#0x05
      000B1B F5 81            [12] 3139 	mov	sp,a
      000B1D AF 82            [24] 3140 	mov	r7,dpl
                                   3141 ;	../../../platform/cc2530dk/RC522/RC522.c:641: char cStatus = MI_ERR;
      000B1F 7E BB            [12] 3142 	mov	r6,#0xbb
                                   3143 ;	../../../platform/cc2530dk/RC522/RC522.c:642: unsigned char ucIrqEn   = 0x00;
      000B21 A8 81            [24] 3144 	mov	r0,sp
      000B23 18               [12] 3145 	dec	r0
      000B24 18               [12] 3146 	dec	r0
      000B25 76 00            [12] 3147 	mov	@r0,#0x00
                                   3148 ;	../../../platform/cc2530dk/RC522/RC522.c:643: unsigned char ucWaitFor = 0x00;
      000B27 A8 81            [24] 3149 	mov	r0,sp
      000B29 18               [12] 3150 	dec	r0
      000B2A 76 00            [12] 3151 	mov	@r0,#0x00
                                   3152 ;	../../../platform/cc2530dk/RC522/RC522.c:649: switch ( ucCommand )
      000B2C BF 0C 02         [24] 3153 	cjne	r7,#0x0c,00226$
      000B2F 80 10            [24] 3154 	sjmp	00102$
      000B31                       3155 00226$:
      000B31 BF 0E 18         [24] 3156 	cjne	r7,#0x0e,00104$
                                   3157 ;	../../../platform/cc2530dk/RC522/RC522.c:652: ucIrqEn   = 0x12;		//ErrIEn  IdleIEn
      000B34 A8 81            [24] 3158 	mov	r0,sp
      000B36 18               [12] 3159 	dec	r0
      000B37 18               [12] 3160 	dec	r0
      000B38 76 12            [12] 3161 	mov	@r0,#0x12
                                   3162 ;	../../../platform/cc2530dk/RC522/RC522.c:653: ucWaitFor = 0x10;		// 
      000B3A A8 81            [24] 3163 	mov	r0,sp
      000B3C 18               [12] 3164 	dec	r0
      000B3D 76 10            [12] 3165 	mov	@r0,#0x10
                                   3166 ;	../../../platform/cc2530dk/RC522/RC522.c:654: break;
                                   3167 ;	../../../platform/cc2530dk/RC522/RC522.c:656: case PCD_TRANSCEIVE:		// 
      000B3F 80 0B            [24] 3168 	sjmp	00104$
      000B41                       3169 00102$:
                                   3170 ;	../../../platform/cc2530dk/RC522/RC522.c:657: ucIrqEn   = 0x77;		//TxIEn RxIEn IdleIEn LoAlertIEn ErrIEn TimerIEn
      000B41 A8 81            [24] 3171 	mov	r0,sp
      000B43 18               [12] 3172 	dec	r0
      000B44 18               [12] 3173 	dec	r0
      000B45 76 77            [12] 3174 	mov	@r0,#0x77
                                   3175 ;	../../../platform/cc2530dk/RC522/RC522.c:658: ucWaitFor = 0x30;		//  
      000B47 A8 81            [24] 3176 	mov	r0,sp
      000B49 18               [12] 3177 	dec	r0
      000B4A 76 30            [12] 3178 	mov	@r0,#0x30
                                   3179 ;	../../../platform/cc2530dk/RC522/RC522.c:664: }
      000B4C                       3180 00104$:
                                   3181 ;	../../../platform/cc2530dk/RC522/RC522.c:666: WriteRawRC ( ComIEnReg, ucIrqEn | 0x80 );		//IRqInvIRQStatus1RegIRq 
      000B4C A8 81            [24] 3182 	mov	r0,sp
      000B4E 18               [12] 3183 	dec	r0
      000B4F 18               [12] 3184 	dec	r0
      000B50 74 80            [12] 3185 	mov	a,#0x80
      000B52 46               [12] 3186 	orl	a,@r0
      000B53 FB               [12] 3187 	mov	r3,a
      000B54 C0 07            [24] 3188 	push	ar7
      000B56 C0 06            [24] 3189 	push	ar6
      000B58 C0 03            [24] 3190 	push	ar3
      000B5A 75 82 02         [24] 3191 	mov	dpl,#0x02
      000B5D 78r90            [12] 3192 	mov	r0,#_WriteRawRC
      000B5F 79s08            [12] 3193 	mov	r1,#(_WriteRawRC >> 8)
      000B61 7As00            [12] 3194 	mov	r2,#(_WriteRawRC >> 16)
      000B63 12r00r00         [24] 3195 	lcall	__sdcc_banked_call
      000B66 15 81            [12] 3196 	dec	sp
                                   3197 ;	../../../platform/cc2530dk/RC522/RC522.c:667: ClearBitMask ( ComIrqReg, 0x80 );			//Set1CommIRqReg
      000B68 74 80            [12] 3198 	mov	a,#0x80
      000B6A C0 E0            [24] 3199 	push	acc
      000B6C 75 82 04         [24] 3200 	mov	dpl,#0x04
      000B6F 78rE9            [12] 3201 	mov	r0,#_ClearBitMask
      000B71 79s08            [12] 3202 	mov	r1,#(_ClearBitMask >> 8)
      000B73 7As00            [12] 3203 	mov	r2,#(_ClearBitMask >> 16)
      000B75 12r00r00         [24] 3204 	lcall	__sdcc_banked_call
      000B78 15 81            [12] 3205 	dec	sp
                                   3206 ;	../../../platform/cc2530dk/RC522/RC522.c:668: WriteRawRC ( CommandReg, PCD_IDLE );		//
      000B7A E4               [12] 3207 	clr	a
      000B7B C0 E0            [24] 3208 	push	acc
      000B7D 75 82 01         [24] 3209 	mov	dpl,#0x01
      000B80 78r90            [12] 3210 	mov	r0,#_WriteRawRC
      000B82 79s08            [12] 3211 	mov	r1,#(_WriteRawRC >> 8)
      000B84 7As00            [12] 3212 	mov	r2,#(_WriteRawRC >> 16)
      000B86 12r00r00         [24] 3213 	lcall	__sdcc_banked_call
      000B89 15 81            [12] 3214 	dec	sp
                                   3215 ;	../../../platform/cc2530dk/RC522/RC522.c:669: SetBitMask ( FIFOLevelReg, 0x80 );			//FlushBufferFIFOErrRegBufferOvfl
      000B8B 74 80            [12] 3216 	mov	a,#0x80
      000B8D C0 E0            [24] 3217 	push	acc
      000B8F 75 82 0A         [24] 3218 	mov	dpl,#0x0a
      000B92 78rBE            [12] 3219 	mov	r0,#_SetBitMask
      000B94 79s08            [12] 3220 	mov	r1,#(_SetBitMask >> 8)
      000B96 7As00            [12] 3221 	mov	r2,#(_SetBitMask >> 16)
      000B98 12r00r00         [24] 3222 	lcall	__sdcc_banked_call
      000B9B 15 81            [12] 3223 	dec	sp
      000B9D D0 06            [24] 3224 	pop	ar6
      000B9F D0 07            [24] 3225 	pop	ar7
                                   3226 ;	../../../platform/cc2530dk/RC522/RC522.c:671: for ( ul = 0; ul < ucInLenByte; ul ++ )
      000BA1 7A 00            [12] 3227 	mov	r2,#0x00
      000BA3 7B 00            [12] 3228 	mov	r3,#0x00
      000BA5                       3229 00131$:
      000BA5 C0 06            [24] 3230 	push	ar6
      000BA7 E5 81            [12] 3231 	mov	a,sp
      000BA9 24 F4            [12] 3232 	add	a,#0xf4
      000BAB F8               [12] 3233 	mov	r0,a
      000BAC 86 05            [24] 3234 	mov	ar5,@r0
      000BAE 7E 00            [12] 3235 	mov	r6,#0x00
      000BB0 C3               [12] 3236 	clr	c
      000BB1 EA               [12] 3237 	mov	a,r2
      000BB2 9D               [12] 3238 	subb	a,r5
      000BB3 EB               [12] 3239 	mov	a,r3
      000BB4 64 80            [12] 3240 	xrl	a,#0x80
      000BB6 8E F0            [24] 3241 	mov	b,r6
      000BB8 63 F0 80         [24] 3242 	xrl	b,#0x80
      000BBB 95 F0            [12] 3243 	subb	a,b
      000BBD D0 06            [24] 3244 	pop	ar6
      000BBF 50 44            [24] 3245 	jnc	00105$
                                   3246 ;	../../../platform/cc2530dk/RC522/RC522.c:672: WriteRawRC ( FIFODataReg, pInData [ ul ] );    		//FIFOdata
      000BC1 C0 06            [24] 3247 	push	ar6
      000BC3 E5 81            [12] 3248 	mov	a,sp
      000BC5 24 F5            [12] 3249 	add	a,#0xf5
      000BC7 F8               [12] 3250 	mov	r0,a
      000BC8 EA               [12] 3251 	mov	a,r2
      000BC9 26               [12] 3252 	add	a,@r0
      000BCA FC               [12] 3253 	mov	r4,a
      000BCB EB               [12] 3254 	mov	a,r3
      000BCC 08               [12] 3255 	inc	r0
      000BCD 36               [12] 3256 	addc	a,@r0
      000BCE FD               [12] 3257 	mov	r5,a
      000BCF 08               [12] 3258 	inc	r0
      000BD0 86 06            [24] 3259 	mov	ar6,@r0
      000BD2 8C 82            [24] 3260 	mov	dpl,r4
      000BD4 8D 83            [24] 3261 	mov	dph,r5
      000BD6 8E F0            [24] 3262 	mov	b,r6
      000BD8 12r00r00         [24] 3263 	lcall	__gptrget
      000BDB FC               [12] 3264 	mov	r4,a
      000BDC C0 07            [24] 3265 	push	ar7
      000BDE C0 06            [24] 3266 	push	ar6
      000BE0 C0 03            [24] 3267 	push	ar3
      000BE2 C0 02            [24] 3268 	push	ar2
      000BE4 C0 04            [24] 3269 	push	ar4
      000BE6 75 82 09         [24] 3270 	mov	dpl,#0x09
      000BE9 78r90            [12] 3271 	mov	r0,#_WriteRawRC
      000BEB 79s08            [12] 3272 	mov	r1,#(_WriteRawRC >> 8)
      000BED 7As00            [12] 3273 	mov	r2,#(_WriteRawRC >> 16)
      000BEF 12r00r00         [24] 3274 	lcall	__sdcc_banked_call
      000BF2 15 81            [12] 3275 	dec	sp
      000BF4 D0 02            [24] 3276 	pop	ar2
      000BF6 D0 03            [24] 3277 	pop	ar3
      000BF8 D0 06            [24] 3278 	pop	ar6
      000BFA D0 07            [24] 3279 	pop	ar7
                                   3280 ;	../../../platform/cc2530dk/RC522/RC522.c:671: for ( ul = 0; ul < ucInLenByte; ul ++ )
      000BFC 0A               [12] 3281 	inc	r2
      000BFD BA 00 01         [24] 3282 	cjne	r2,#0x00,00230$
      000C00 0B               [12] 3283 	inc	r3
      000C01                       3284 00230$:
      000C01 D0 06            [24] 3285 	pop	ar6
      000C03 80 A0            [24] 3286 	sjmp	00131$
      000C05                       3287 00105$:
                                   3288 ;	../../../platform/cc2530dk/RC522/RC522.c:674: WriteRawRC ( CommandReg, ucCommand );					//
      000C05 C0 07            [24] 3289 	push	ar7
      000C07 C0 06            [24] 3290 	push	ar6
      000C09 C0 07            [24] 3291 	push	ar7
      000C0B 75 82 01         [24] 3292 	mov	dpl,#0x01
      000C0E 78r90            [12] 3293 	mov	r0,#_WriteRawRC
      000C10 79s08            [12] 3294 	mov	r1,#(_WriteRawRC >> 8)
      000C12 7As00            [12] 3295 	mov	r2,#(_WriteRawRC >> 16)
      000C14 12r00r00         [24] 3296 	lcall	__sdcc_banked_call
      000C17 15 81            [12] 3297 	dec	sp
      000C19 D0 06            [24] 3298 	pop	ar6
      000C1B D0 07            [24] 3299 	pop	ar7
                                   3300 ;	../../../platform/cc2530dk/RC522/RC522.c:677: if ( ucCommand == PCD_TRANSCEIVE )
      000C1D BF 0C 1A         [24] 3301 	cjne	r7,#0x0c,00107$
                                   3302 ;	../../../platform/cc2530dk/RC522/RC522.c:678: SetBitMask(BitFramingReg,0x80);  				//StartSend 
      000C20 C0 07            [24] 3303 	push	ar7
      000C22 C0 06            [24] 3304 	push	ar6
      000C24 74 80            [12] 3305 	mov	a,#0x80
      000C26 C0 E0            [24] 3306 	push	acc
      000C28 75 82 0D         [24] 3307 	mov	dpl,#0x0d
      000C2B 78rBE            [12] 3308 	mov	r0,#_SetBitMask
      000C2D 79s08            [12] 3309 	mov	r1,#(_SetBitMask >> 8)
      000C2F 7As00            [12] 3310 	mov	r2,#(_SetBitMask >> 16)
      000C31 12r00r00         [24] 3311 	lcall	__sdcc_banked_call
      000C34 15 81            [12] 3312 	dec	sp
      000C36 D0 06            [24] 3313 	pop	ar6
      000C38 D0 07            [24] 3314 	pop	ar7
      000C3A                       3315 00107$:
                                   3316 ;	../../../platform/cc2530dk/RC522/RC522.c:680: ul = 1000;//M125ms
      000C3A 7C E8            [12] 3317 	mov	r4,#0xe8
      000C3C 7D 03            [12] 3318 	mov	r5,#0x03
                                   3319 ;	../../../platform/cc2530dk/RC522/RC522.c:682: do 														// 	
      000C3E                       3320 00110$:
                                   3321 ;	../../../platform/cc2530dk/RC522/RC522.c:684: ucN = ReadRawRC ( ComIrqReg );							//
      000C3E 75 82 04         [24] 3322 	mov	dpl,#0x04
      000C41 C0 07            [24] 3323 	push	ar7
      000C43 C0 06            [24] 3324 	push	ar6
      000C45 C0 05            [24] 3325 	push	ar5
      000C47 C0 04            [24] 3326 	push	ar4
      000C49 78r62            [12] 3327 	mov	r0,#_ReadRawRC
      000C4B 79s08            [12] 3328 	mov	r1,#(_ReadRawRC >> 8)
      000C4D 7As00            [12] 3329 	mov	r2,#(_ReadRawRC >> 16)
      000C4F 12r00r00         [24] 3330 	lcall	__sdcc_banked_call
      000C52 AB 82            [24] 3331 	mov	r3,dpl
      000C54 D0 04            [24] 3332 	pop	ar4
      000C56 D0 05            [24] 3333 	pop	ar5
      000C58 D0 06            [24] 3334 	pop	ar6
      000C5A D0 07            [24] 3335 	pop	ar7
                                   3336 ;	../../../platform/cc2530dk/RC522/RC522.c:685: ul --;
      000C5C 1C               [12] 3337 	dec	r4
      000C5D BC FF 01         [24] 3338 	cjne	r4,#0xff,00233$
      000C60 1D               [12] 3339 	dec	r5
      000C61                       3340 00233$:
                                   3341 ;	../../../platform/cc2530dk/RC522/RC522.c:686: } while ( ( ul != 0 ) && ( ! ( ucN & 0x01 ) ) && ( ! ( ucN & ucWaitFor ) ) );		//i=0,
      000C61 EC               [12] 3342 	mov	a,r4
      000C62 4D               [12] 3343 	orl	a,r5
      000C63 60 0B            [24] 3344 	jz	00156$
      000C65 EB               [12] 3345 	mov	a,r3
      000C66 20 E0 07         [24] 3346 	jb	acc.0,00156$
      000C69 A8 81            [24] 3347 	mov	r0,sp
      000C6B 18               [12] 3348 	dec	r0
      000C6C E6               [12] 3349 	mov	a,@r0
      000C6D 5B               [12] 3350 	anl	a,r3
      000C6E 60 CE            [24] 3351 	jz	00110$
      000C70                       3352 00156$:
                                   3353 ;	../../../platform/cc2530dk/RC522/RC522.c:688: ClearBitMask ( BitFramingReg, 0x80 );					//StartSend
      000C70 C0 07            [24] 3354 	push	ar7
      000C72 C0 06            [24] 3355 	push	ar6
      000C74 C0 05            [24] 3356 	push	ar5
      000C76 C0 04            [24] 3357 	push	ar4
      000C78 C0 03            [24] 3358 	push	ar3
      000C7A 74 80            [12] 3359 	mov	a,#0x80
      000C7C C0 E0            [24] 3360 	push	acc
      000C7E 75 82 0D         [24] 3361 	mov	dpl,#0x0d
      000C81 78rE9            [12] 3362 	mov	r0,#_ClearBitMask
      000C83 79s08            [12] 3363 	mov	r1,#(_ClearBitMask >> 8)
      000C85 7As00            [12] 3364 	mov	r2,#(_ClearBitMask >> 16)
      000C87 12r00r00         [24] 3365 	lcall	__sdcc_banked_call
      000C8A 15 81            [12] 3366 	dec	sp
      000C8C D0 03            [24] 3367 	pop	ar3
      000C8E D0 04            [24] 3368 	pop	ar4
      000C90 D0 05            [24] 3369 	pop	ar5
      000C92 D0 06            [24] 3370 	pop	ar6
      000C94 D0 07            [24] 3371 	pop	ar7
                                   3372 ;	../../../platform/cc2530dk/RC522/RC522.c:690: if ( ul != 0 )
      000C96 EC               [12] 3373 	mov	a,r4
      000C97 4D               [12] 3374 	orl	a,r5
      000C98 70 03            [24] 3375 	jnz	00237$
      000C9A 02r0DrF6         [24] 3376 	ljmp	00129$
      000C9D                       3377 00237$:
                                   3378 ;	../../../platform/cc2530dk/RC522/RC522.c:692: if ( ! ( ReadRawRC ( ErrorReg ) & 0x1B ) )			//BufferOfI CollErr ParityErr ProtocolErr
      000C9D 75 82 06         [24] 3379 	mov	dpl,#0x06
      000CA0 C0 07            [24] 3380 	push	ar7
      000CA2 C0 03            [24] 3381 	push	ar3
      000CA4 78r62            [12] 3382 	mov	r0,#_ReadRawRC
      000CA6 79s08            [12] 3383 	mov	r1,#(_ReadRawRC >> 8)
      000CA8 7As00            [12] 3384 	mov	r2,#(_ReadRawRC >> 16)
      000CAA 12r00r00         [24] 3385 	lcall	__sdcc_banked_call
      000CAD E5 82            [12] 3386 	mov	a,dpl
      000CAF D0 03            [24] 3387 	pop	ar3
      000CB1 D0 07            [24] 3388 	pop	ar7
      000CB3 54 1B            [12] 3389 	anl	a,#0x1b
      000CB5 60 03            [24] 3390 	jz	00239$
      000CB7 02r0DrF4         [24] 3391 	ljmp	00126$
      000CBA                       3392 00239$:
                                   3393 ;	../../../platform/cc2530dk/RC522/RC522.c:694: cStatus = MI_OK;
      000CBA 7E 26            [12] 3394 	mov	r6,#0x26
                                   3395 ;	../../../platform/cc2530dk/RC522/RC522.c:696: if ( ucN & ucIrqEn & 0x01 )					//
      000CBC A8 81            [24] 3396 	mov	r0,sp
      000CBE 18               [12] 3397 	dec	r0
      000CBF 18               [12] 3398 	dec	r0
      000CC0 E6               [12] 3399 	mov	a,@r0
      000CC1 5B               [12] 3400 	anl	a,r3
      000CC2 30 E0 02         [24] 3401 	jnb	acc.0,00114$
                                   3402 ;	../../../platform/cc2530dk/RC522/RC522.c:697: cStatus = MI_NOTAGERR;   
      000CC5 7E CC            [12] 3403 	mov	r6,#0xcc
      000CC7                       3404 00114$:
                                   3405 ;	../../../platform/cc2530dk/RC522/RC522.c:699: if ( ucCommand == PCD_TRANSCEIVE )
      000CC7 BF 0C 02         [24] 3406 	cjne	r7,#0x0c,00241$
      000CCA 80 03            [24] 3407 	sjmp	00242$
      000CCC                       3408 00241$:
      000CCC 02r0DrF6         [24] 3409 	ljmp	00129$
      000CCF                       3410 00242$:
                                   3411 ;	../../../platform/cc2530dk/RC522/RC522.c:701: ucN = ReadRawRC ( FIFOLevelReg );			//FIFO
      000CCF 75 82 0A         [24] 3412 	mov	dpl,#0x0a
      000CD2 C0 06            [24] 3413 	push	ar6
      000CD4 78r62            [12] 3414 	mov	r0,#_ReadRawRC
      000CD6 79s08            [12] 3415 	mov	r1,#(_ReadRawRC >> 8)
      000CD8 7As00            [12] 3416 	mov	r2,#(_ReadRawRC >> 16)
      000CDA 12r00r00         [24] 3417 	lcall	__sdcc_banked_call
      000CDD AF 82            [24] 3418 	mov	r7,dpl
      000CDF D0 06            [24] 3419 	pop	ar6
      000CE1 A8 81            [24] 3420 	mov	r0,sp
      000CE3 A6 07            [24] 3421 	mov	@r0,ar7
                                   3422 ;	../../../platform/cc2530dk/RC522/RC522.c:703: ucLastBits = ReadRawRC ( ControlReg ) & 0x07;	//
      000CE5 75 82 0C         [24] 3423 	mov	dpl,#0x0c
      000CE8 C0 06            [24] 3424 	push	ar6
      000CEA 78r62            [12] 3425 	mov	r0,#_ReadRawRC
      000CEC 79s08            [12] 3426 	mov	r1,#(_ReadRawRC >> 8)
      000CEE 7As00            [12] 3427 	mov	r2,#(_ReadRawRC >> 16)
      000CF0 12r00r00         [24] 3428 	lcall	__sdcc_banked_call
      000CF3 AD 82            [24] 3429 	mov	r5,dpl
      000CF5 D0 06            [24] 3430 	pop	ar6
      000CF7 53 05 07         [24] 3431 	anl	ar5,#0x07
                                   3432 ;	../../../platform/cc2530dk/RC522/RC522.c:705: if ( ucLastBits )
      000CFA ED               [12] 3433 	mov	a,r5
      000CFB FC               [12] 3434 	mov	r4,a
      000CFC 60 54            [24] 3435 	jz	00116$
                                   3436 ;	../../../platform/cc2530dk/RC522/RC522.c:706: * pOutLenBit = ( ucN - 1 ) * 8 + ucLastBits;   	//N1+ 
      000CFE C0 06            [24] 3437 	push	ar6
      000D00 E5 81            [12] 3438 	mov	a,sp
      000D02 24 EE            [12] 3439 	add	a,#0xee
      000D04 F8               [12] 3440 	mov	r0,a
      000D05 86 02            [24] 3441 	mov	ar2,@r0
      000D07 08               [12] 3442 	inc	r0
      000D08 86 03            [24] 3443 	mov	ar3,@r0
      000D0A 08               [12] 3444 	inc	r0
      000D0B 86 05            [24] 3445 	mov	ar5,@r0
      000D0D A8 81            [24] 3446 	mov	r0,sp
      000D0F 18               [12] 3447 	dec	r0
      000D10 86 06            [24] 3448 	mov	ar6,@r0
      000D12 7F 00            [12] 3449 	mov	r7,#0x00
      000D14 1E               [12] 3450 	dec	r6
      000D15 BE FF 01         [24] 3451 	cjne	r6,#0xff,00244$
      000D18 1F               [12] 3452 	dec	r7
      000D19                       3453 00244$:
      000D19 E5 81            [12] 3454 	mov	a,sp
      000D1B 24 FB            [12] 3455 	add	a,#0xfb
      000D1D F8               [12] 3456 	mov	r0,a
      000D1E A6 06            [24] 3457 	mov	@r0,ar6
      000D20 EF               [12] 3458 	mov	a,r7
      000D21 C4               [12] 3459 	swap	a
      000D22 03               [12] 3460 	rr	a
      000D23 54 F8            [12] 3461 	anl	a,#0xf8
      000D25 C6               [12] 3462 	xch	a,@r0
      000D26 C4               [12] 3463 	swap	a
      000D27 03               [12] 3464 	rr	a
      000D28 C6               [12] 3465 	xch	a,@r0
      000D29 66               [12] 3466 	xrl	a,@r0
      000D2A C6               [12] 3467 	xch	a,@r0
      000D2B 54 F8            [12] 3468 	anl	a,#0xf8
      000D2D C6               [12] 3469 	xch	a,@r0
      000D2E 66               [12] 3470 	xrl	a,@r0
      000D2F 08               [12] 3471 	inc	r0
      000D30 F6               [12] 3472 	mov	@r0,a
      000D31 7F 00            [12] 3473 	mov	r7,#0x00
      000D33 E5 81            [12] 3474 	mov	a,sp
      000D35 24 FB            [12] 3475 	add	a,#0xfb
      000D37 F8               [12] 3476 	mov	r0,a
      000D38 EC               [12] 3477 	mov	a,r4
      000D39 26               [12] 3478 	add	a,@r0
      000D3A FC               [12] 3479 	mov	r4,a
      000D3B EF               [12] 3480 	mov	a,r7
      000D3C 08               [12] 3481 	inc	r0
      000D3D 36               [12] 3482 	addc	a,@r0
      000D3E FF               [12] 3483 	mov	r7,a
      000D3F 8A 82            [24] 3484 	mov	dpl,r2
      000D41 8B 83            [24] 3485 	mov	dph,r3
      000D43 8D F0            [24] 3486 	mov	b,r5
      000D45 EC               [12] 3487 	mov	a,r4
      000D46 12r00r00         [24] 3488 	lcall	__gptrput
      000D49 A3               [24] 3489 	inc	dptr
      000D4A EF               [12] 3490 	mov	a,r7
      000D4B 12r00r00         [24] 3491 	lcall	__gptrput
      000D4E D0 06            [24] 3492 	pop	ar6
      000D50 80 2F            [24] 3493 	sjmp	00117$
      000D52                       3494 00116$:
                                   3495 ;	../../../platform/cc2530dk/RC522/RC522.c:708: * pOutLenBit = ucN * 8;   					//
      000D52 E5 81            [12] 3496 	mov	a,sp
      000D54 24 EF            [12] 3497 	add	a,#0xef
      000D56 F8               [12] 3498 	mov	r0,a
      000D57 86 04            [24] 3499 	mov	ar4,@r0
      000D59 08               [12] 3500 	inc	r0
      000D5A 86 05            [24] 3501 	mov	ar5,@r0
      000D5C 08               [12] 3502 	inc	r0
      000D5D 86 07            [24] 3503 	mov	ar7,@r0
      000D5F A8 81            [24] 3504 	mov	r0,sp
      000D61 86 02            [24] 3505 	mov	ar2,@r0
      000D63 E4               [12] 3506 	clr	a
      000D64 03               [12] 3507 	rr	a
      000D65 54 F8            [12] 3508 	anl	a,#0xf8
      000D67 CA               [12] 3509 	xch	a,r2
      000D68 C4               [12] 3510 	swap	a
      000D69 03               [12] 3511 	rr	a
      000D6A CA               [12] 3512 	xch	a,r2
      000D6B 6A               [12] 3513 	xrl	a,r2
      000D6C CA               [12] 3514 	xch	a,r2
      000D6D 54 F8            [12] 3515 	anl	a,#0xf8
      000D6F CA               [12] 3516 	xch	a,r2
      000D70 6A               [12] 3517 	xrl	a,r2
      000D71 FB               [12] 3518 	mov	r3,a
      000D72 8C 82            [24] 3519 	mov	dpl,r4
      000D74 8D 83            [24] 3520 	mov	dph,r5
      000D76 8F F0            [24] 3521 	mov	b,r7
      000D78 EA               [12] 3522 	mov	a,r2
      000D79 12r00r00         [24] 3523 	lcall	__gptrput
      000D7C A3               [24] 3524 	inc	dptr
      000D7D EB               [12] 3525 	mov	a,r3
      000D7E 12r00r00         [24] 3526 	lcall	__gptrput
      000D81                       3527 00117$:
                                   3528 ;	../../../platform/cc2530dk/RC522/RC522.c:710: if ( ucN == 0 )		
      000D81 A8 81            [24] 3529 	mov	r0,sp
      000D83 E6               [12] 3530 	mov	a,@r0
      000D84 70 04            [24] 3531 	jnz	00119$
                                   3532 ;	../../../platform/cc2530dk/RC522/RC522.c:711: ucN = 1;    
      000D86 A8 81            [24] 3533 	mov	r0,sp
      000D88 76 01            [12] 3534 	mov	@r0,#0x01
      000D8A                       3535 00119$:
                                   3536 ;	../../../platform/cc2530dk/RC522/RC522.c:713: if ( ucN > MAXRLEN )
      000D8A A8 81            [24] 3537 	mov	r0,sp
      000D8C E6               [12] 3538 	mov	a,@r0
      000D8D 24 ED            [12] 3539 	add	a,#0xff - 0x12
      000D8F 50 04            [24] 3540 	jnc	00121$
                                   3541 ;	../../../platform/cc2530dk/RC522/RC522.c:714: ucN = MAXRLEN;   
      000D91 A8 81            [24] 3542 	mov	r0,sp
      000D93 76 12            [12] 3543 	mov	@r0,#0x12
      000D95                       3544 00121$:
                                   3545 ;	../../../platform/cc2530dk/RC522/RC522.c:716: for ( ul = 0; ul < ucN; ul ++ )
      000D95 7D 00            [12] 3546 	mov	r5,#0x00
      000D97 7F 00            [12] 3547 	mov	r7,#0x00
      000D99                       3548 00134$:
      000D99 A8 81            [24] 3549 	mov	r0,sp
      000D9B 86 03            [24] 3550 	mov	ar3,@r0
      000D9D 7C 00            [12] 3551 	mov	r4,#0x00
      000D9F C3               [12] 3552 	clr	c
      000DA0 ED               [12] 3553 	mov	a,r5
      000DA1 9B               [12] 3554 	subb	a,r3
      000DA2 EF               [12] 3555 	mov	a,r7
      000DA3 64 80            [12] 3556 	xrl	a,#0x80
      000DA5 8C F0            [24] 3557 	mov	b,r4
      000DA7 63 F0 80         [24] 3558 	xrl	b,#0x80
      000DAA 95 F0            [12] 3559 	subb	a,b
      000DAC 50 48            [24] 3560 	jnc	00129$
                                   3561 ;	../../../platform/cc2530dk/RC522/RC522.c:717: pOutData [ ul ] = ReadRawRC ( FIFODataReg );   
      000DAE C0 06            [24] 3562 	push	ar6
      000DB0 E5 81            [12] 3563 	mov	a,sp
      000DB2 24 F1            [12] 3564 	add	a,#0xf1
      000DB4 F8               [12] 3565 	mov	r0,a
      000DB5 ED               [12] 3566 	mov	a,r5
      000DB6 26               [12] 3567 	add	a,@r0
      000DB7 FA               [12] 3568 	mov	r2,a
      000DB8 EF               [12] 3569 	mov	a,r7
      000DB9 08               [12] 3570 	inc	r0
      000DBA 36               [12] 3571 	addc	a,@r0
      000DBB FB               [12] 3572 	mov	r3,a
      000DBC 08               [12] 3573 	inc	r0
      000DBD 86 04            [24] 3574 	mov	ar4,@r0
      000DBF 75 82 09         [24] 3575 	mov	dpl,#0x09
      000DC2 C0 07            [24] 3576 	push	ar7
      000DC4 C0 05            [24] 3577 	push	ar5
      000DC6 C0 04            [24] 3578 	push	ar4
      000DC8 C0 03            [24] 3579 	push	ar3
      000DCA C0 02            [24] 3580 	push	ar2
      000DCC 78r62            [12] 3581 	mov	r0,#_ReadRawRC
      000DCE 79s08            [12] 3582 	mov	r1,#(_ReadRawRC >> 8)
      000DD0 7As00            [12] 3583 	mov	r2,#(_ReadRawRC >> 16)
      000DD2 12r00r00         [24] 3584 	lcall	__sdcc_banked_call
      000DD5 AE 82            [24] 3585 	mov	r6,dpl
      000DD7 D0 02            [24] 3586 	pop	ar2
      000DD9 D0 03            [24] 3587 	pop	ar3
      000DDB D0 04            [24] 3588 	pop	ar4
      000DDD D0 05            [24] 3589 	pop	ar5
      000DDF D0 07            [24] 3590 	pop	ar7
      000DE1 8A 82            [24] 3591 	mov	dpl,r2
      000DE3 8B 83            [24] 3592 	mov	dph,r3
      000DE5 8C F0            [24] 3593 	mov	b,r4
      000DE7 EE               [12] 3594 	mov	a,r6
      000DE8 12r00r00         [24] 3595 	lcall	__gptrput
                                   3596 ;	../../../platform/cc2530dk/RC522/RC522.c:716: for ( ul = 0; ul < ucN; ul ++ )
      000DEB 0D               [12] 3597 	inc	r5
      000DEC BD 00 01         [24] 3598 	cjne	r5,#0x00,00248$
      000DEF 0F               [12] 3599 	inc	r7
      000DF0                       3600 00248$:
      000DF0 D0 06            [24] 3601 	pop	ar6
      000DF2 80 A5            [24] 3602 	sjmp	00134$
      000DF4                       3603 00126$:
                                   3604 ;	../../../platform/cc2530dk/RC522/RC522.c:723: cStatus = MI_ERR;   
      000DF4 7E BB            [12] 3605 	mov	r6,#0xbb
      000DF6                       3606 00129$:
                                   3607 ;	../../../platform/cc2530dk/RC522/RC522.c:726: SetBitMask ( ControlReg, 0x80 );           // stop timer now
      000DF6 C0 06            [24] 3608 	push	ar6
      000DF8 74 80            [12] 3609 	mov	a,#0x80
      000DFA C0 E0            [24] 3610 	push	acc
      000DFC 75 82 0C         [24] 3611 	mov	dpl,#0x0c
      000DFF 78rBE            [12] 3612 	mov	r0,#_SetBitMask
      000E01 79s08            [12] 3613 	mov	r1,#(_SetBitMask >> 8)
      000E03 7As00            [12] 3614 	mov	r2,#(_SetBitMask >> 16)
      000E05 12r00r00         [24] 3615 	lcall	__sdcc_banked_call
      000E08 15 81            [12] 3616 	dec	sp
                                   3617 ;	../../../platform/cc2530dk/RC522/RC522.c:727: WriteRawRC ( CommandReg, PCD_IDLE ); 
      000E0A E4               [12] 3618 	clr	a
      000E0B C0 E0            [24] 3619 	push	acc
      000E0D 75 82 01         [24] 3620 	mov	dpl,#0x01
      000E10 78r90            [12] 3621 	mov	r0,#_WriteRawRC
      000E12 79s08            [12] 3622 	mov	r1,#(_WriteRawRC >> 8)
      000E14 7As00            [12] 3623 	mov	r2,#(_WriteRawRC >> 16)
      000E16 12r00r00         [24] 3624 	lcall	__sdcc_banked_call
      000E19 15 81            [12] 3625 	dec	sp
      000E1B D0 06            [24] 3626 	pop	ar6
                                   3627 ;	../../../platform/cc2530dk/RC522/RC522.c:729: return cStatus;
      000E1D 8E 82            [24] 3628 	mov	dpl,r6
                                   3629 ;	../../../platform/cc2530dk/RC522/RC522.c:730: }
      000E1F E5 81            [12] 3630 	mov	a,sp
      000E21 24 FB            [12] 3631 	add	a,#0xfb
      000E23 F5 81            [12] 3632 	mov	sp,a
      000E25 02r00r00         [24] 3633 	ljmp	__sdcc_banked_ret
                                   3634 ;------------------------------------------------------------
                                   3635 ;Allocation info for local variables in function 'PcdRequest'
                                   3636 ;------------------------------------------------------------
                                   3637 ;pTagType                  Allocated to stack - sp -28
                                   3638 ;ucReq_code                Allocated to registers r7 
                                   3639 ;cStatus                   Allocated to registers r7 
                                   3640 ;ucComMF522Buf             Allocated to stack - sp -19
                                   3641 ;ulLen                     Allocated to stack - sp -1
                                   3642 ;sloc0                     Allocated to stack - sp -22
                                   3643 ;------------------------------------------------------------
                                   3644 ;	../../../platform/cc2530dk/RC522/RC522.c:751: char PcdRequest ( unsigned char ucReq_code, unsigned char * pTagType)
                                   3645 ;	-----------------------------------------
                                   3646 ;	 function PcdRequest
                                   3647 ;	-----------------------------------------
      000E28                       3648 _PcdRequest:
      000E28 E5 81            [12] 3649 	mov	a,sp
      000E2A 24 17            [12] 3650 	add	a,#0x17
      000E2C F5 81            [12] 3651 	mov	sp,a
      000E2E AF 82            [24] 3652 	mov	r7,dpl
                                   3653 ;	../../../platform/cc2530dk/RC522/RC522.c:757: ClearBitMask ( Status2Reg, 0x08 );	//MIFARECyptol
      000E30 C0 07            [24] 3654 	push	ar7
      000E32 74 08            [12] 3655 	mov	a,#0x08
      000E34 C0 E0            [24] 3656 	push	acc
      000E36 75 82 08         [24] 3657 	mov	dpl,#0x08
      000E39 78rE9            [12] 3658 	mov	r0,#_ClearBitMask
      000E3B 79s08            [12] 3659 	mov	r1,#(_ClearBitMask >> 8)
      000E3D 7As00            [12] 3660 	mov	r2,#(_ClearBitMask >> 16)
      000E3F 12r00r00         [24] 3661 	lcall	__sdcc_banked_call
      000E42 15 81            [12] 3662 	dec	sp
                                   3663 ;	../../../platform/cc2530dk/RC522/RC522.c:758: WriteRawRC ( BitFramingReg, 0x07 );	//	 
      000E44 74 07            [12] 3664 	mov	a,#0x07
      000E46 C0 E0            [24] 3665 	push	acc
      000E48 75 82 0D         [24] 3666 	mov	dpl,#0x0d
      000E4B 78r90            [12] 3667 	mov	r0,#_WriteRawRC
      000E4D 79s08            [12] 3668 	mov	r1,#(_WriteRawRC >> 8)
      000E4F 7As00            [12] 3669 	mov	r2,#(_WriteRawRC >> 16)
      000E51 12r00r00         [24] 3670 	lcall	__sdcc_banked_call
      000E54 15 81            [12] 3671 	dec	sp
                                   3672 ;	../../../platform/cc2530dk/RC522/RC522.c:759: SetBitMask ( TxControlReg, 0x03 );	//TX1,TX213.56
      000E56 74 03            [12] 3673 	mov	a,#0x03
      000E58 C0 E0            [24] 3674 	push	acc
      000E5A 75 82 14         [24] 3675 	mov	dpl,#0x14
      000E5D 78rBE            [12] 3676 	mov	r0,#_SetBitMask
      000E5F 79s08            [12] 3677 	mov	r1,#(_SetBitMask >> 8)
      000E61 7As00            [12] 3678 	mov	r2,#(_SetBitMask >> 16)
      000E63 12r00r00         [24] 3679 	lcall	__sdcc_banked_call
      000E66 15 81            [12] 3680 	dec	sp
      000E68 D0 07            [24] 3681 	pop	ar7
                                   3682 ;	../../../platform/cc2530dk/RC522/RC522.c:761: ucComMF522Buf [ 0 ] = ucReq_code;		// 
      000E6A E5 81            [12] 3683 	mov	a,sp
      000E6C 24 ED            [12] 3684 	add	a,#0xed
      000E6E F9               [12] 3685 	mov	r1,a
      000E6F A7 07            [24] 3686 	mov	@r1,ar7
                                   3687 ;	../../../platform/cc2530dk/RC522/RC522.c:763: cStatus = PcdComMF522 ( PCD_TRANSCEIVE,	ucComMF522Buf, 1, ucComMF522Buf, & ulLen );	//  
      000E71 AF 81            [24] 3688 	mov	r7,sp
      000E73 1F               [12] 3689 	dec	r7
      000E74 7E 00            [12] 3690 	mov	r6,#0x00
      000E76 7D 40            [12] 3691 	mov	r5,#0x40
      000E78 89 04            [24] 3692 	mov	ar4,r1
      000E7A E5 81            [12] 3693 	mov	a,sp
      000E7C 24 EA            [12] 3694 	add	a,#0xea
      000E7E F8               [12] 3695 	mov	r0,a
      000E7F A6 04            [24] 3696 	mov	@r0,ar4
      000E81 08               [12] 3697 	inc	r0
      000E82 76 00            [12] 3698 	mov	@r0,#0x00
      000E84 08               [12] 3699 	inc	r0
      000E85 76 40            [12] 3700 	mov	@r0,#0x40
      000E87 89 04            [24] 3701 	mov	ar4,r1
      000E89 7B 00            [12] 3702 	mov	r3,#0x00
      000E8B 7A 40            [12] 3703 	mov	r2,#0x40
      000E8D C0 07            [24] 3704 	push	ar7
      000E8F C0 06            [24] 3705 	push	ar6
      000E91 C0 05            [24] 3706 	push	ar5
      000E93 E5 81            [12] 3707 	mov	a,sp
      000E95 24 E7            [12] 3708 	add	a,#0xe7
      000E97 F8               [12] 3709 	mov	r0,a
      000E98 E6               [12] 3710 	mov	a,@r0
      000E99 C0 E0            [24] 3711 	push	acc
      000E9B 08               [12] 3712 	inc	r0
      000E9C E6               [12] 3713 	mov	a,@r0
      000E9D C0 E0            [24] 3714 	push	acc
      000E9F 08               [12] 3715 	inc	r0
      000EA0 E6               [12] 3716 	mov	a,@r0
      000EA1 C0 E0            [24] 3717 	push	acc
      000EA3 74 01            [12] 3718 	mov	a,#0x01
      000EA5 C0 E0            [24] 3719 	push	acc
      000EA7 C0 04            [24] 3720 	push	ar4
      000EA9 C0 03            [24] 3721 	push	ar3
      000EAB C0 02            [24] 3722 	push	ar2
      000EAD 75 82 0C         [24] 3723 	mov	dpl,#0x0c
      000EB0 78r17            [12] 3724 	mov	r0,#_PcdComMF522
      000EB2 79s0B            [12] 3725 	mov	r1,#(_PcdComMF522 >> 8)
      000EB4 7As00            [12] 3726 	mov	r2,#(_PcdComMF522 >> 16)
      000EB6 12r00r00         [24] 3727 	lcall	__sdcc_banked_call
      000EB9 AF 82            [24] 3728 	mov	r7,dpl
      000EBB E5 81            [12] 3729 	mov	a,sp
      000EBD 24 F6            [12] 3730 	add	a,#0xf6
      000EBF F5 81            [12] 3731 	mov	sp,a
                                   3732 ;	../../../platform/cc2530dk/RC522/RC522.c:765: if ( ( cStatus == MI_OK ) && ( ulLen == 0x10 ) )	// 
      000EC1 BF 26 3C         [24] 3733 	cjne	r7,#0x26,00102$
      000EC4 A8 81            [24] 3734 	mov	r0,sp
      000EC6 18               [12] 3735 	dec	r0
      000EC7 B6 10 36         [24] 3736 	cjne	@r0,#0x10,00102$
      000ECA 08               [12] 3737 	inc	r0
      000ECB B6 00 32         [24] 3738 	cjne	@r0,#0x00,00102$
                                   3739 ;	../../../platform/cc2530dk/RC522/RC522.c:767: * pTagType = ucComMF522Buf [ 0 ];
      000ECE E5 81            [12] 3740 	mov	a,sp
      000ED0 24 E4            [12] 3741 	add	a,#0xe4
      000ED2 F8               [12] 3742 	mov	r0,a
      000ED3 86 04            [24] 3743 	mov	ar4,@r0
      000ED5 08               [12] 3744 	inc	r0
      000ED6 86 05            [24] 3745 	mov	ar5,@r0
      000ED8 08               [12] 3746 	inc	r0
      000ED9 86 06            [24] 3747 	mov	ar6,@r0
      000EDB E5 81            [12] 3748 	mov	a,sp
      000EDD 24 ED            [12] 3749 	add	a,#0xed
      000EDF F9               [12] 3750 	mov	r1,a
      000EE0 87 03            [24] 3751 	mov	ar3,@r1
      000EE2 8C 82            [24] 3752 	mov	dpl,r4
      000EE4 8D 83            [24] 3753 	mov	dph,r5
      000EE6 8E F0            [24] 3754 	mov	b,r6
      000EE8 EB               [12] 3755 	mov	a,r3
      000EE9 12r00r00         [24] 3756 	lcall	__gptrput
                                   3757 ;	../../../platform/cc2530dk/RC522/RC522.c:768: * ( pTagType + 1 ) = ucComMF522Buf [ 1 ];
      000EEC 0C               [12] 3758 	inc	r4
      000EED BC 00 01         [24] 3759 	cjne	r4,#0x00,00119$
      000EF0 0D               [12] 3760 	inc	r5
      000EF1                       3761 00119$:
      000EF1 09               [12] 3762 	inc	r1
      000EF2 87 03            [24] 3763 	mov	ar3,@r1
      000EF4 8C 82            [24] 3764 	mov	dpl,r4
      000EF6 8D 83            [24] 3765 	mov	dph,r5
      000EF8 8E F0            [24] 3766 	mov	b,r6
      000EFA EB               [12] 3767 	mov	a,r3
      000EFB 12r00r00         [24] 3768 	lcall	__gptrput
      000EFE 80 02            [24] 3769 	sjmp	00103$
      000F00                       3770 00102$:
                                   3771 ;	../../../platform/cc2530dk/RC522/RC522.c:772: cStatus = MI_ERR;
      000F00 7F BB            [12] 3772 	mov	r7,#0xbb
      000F02                       3773 00103$:
                                   3774 ;	../../../platform/cc2530dk/RC522/RC522.c:775: return cStatus; 
      000F02 8F 82            [24] 3775 	mov	dpl,r7
                                   3776 ;	../../../platform/cc2530dk/RC522/RC522.c:776: }
      000F04 E5 81            [12] 3777 	mov	a,sp
      000F06 24 E9            [12] 3778 	add	a,#0xe9
      000F08 F5 81            [12] 3779 	mov	sp,a
      000F0A 02r00r00         [24] 3780 	ljmp	__sdcc_banked_ret
                                   3781 ;------------------------------------------------------------
                                   3782 ;Allocation info for local variables in function 'PcdAnticoll'
                                   3783 ;------------------------------------------------------------
                                   3784 ;pSnr                      Allocated to stack - sp -26
                                   3785 ;cStatus                   Allocated to registers r7 
                                   3786 ;uc                        Allocated to registers 
                                   3787 ;ucSnr_check               Allocated to stack - sp -20
                                   3788 ;ucComMF522Buf             Allocated to stack - sp -19
                                   3789 ;ulLen                     Allocated to stack - sp -1
                                   3790 ;sloc0                     Allocated to stack - sp -23
                                   3791 ;------------------------------------------------------------
                                   3792 ;	../../../platform/cc2530dk/RC522/RC522.c:789: char PcdAnticoll ( unsigned char * pSnr )
                                   3793 ;	-----------------------------------------
                                   3794 ;	 function PcdAnticoll
                                   3795 ;	-----------------------------------------
      000F0D                       3796 _PcdAnticoll:
      000F0D C0 82            [24] 3797 	push	dpl
      000F0F C0 83            [24] 3798 	push	dph
      000F11 C0 F0            [24] 3799 	push	b
      000F13 E5 81            [12] 3800 	mov	a,sp
      000F15 24 18            [12] 3801 	add	a,#0x18
                                   3802 ;	../../../platform/cc2530dk/RC522/RC522.c:792: unsigned char uc, ucSnr_check = 0;
      000F17 F5 81            [12] 3803 	mov	sp,a
      000F19 24 EC            [12] 3804 	add	a,#0xec
      000F1B F8               [12] 3805 	mov	r0,a
      000F1C 76 00            [12] 3806 	mov	@r0,#0x00
                                   3807 ;	../../../platform/cc2530dk/RC522/RC522.c:797: ClearBitMask ( Status2Reg, 0x08 );		//MFCryptol On MFAuthent
      000F1E 74 08            [12] 3808 	mov	a,#0x08
      000F20 C0 E0            [24] 3809 	push	acc
      000F22 75 82 08         [24] 3810 	mov	dpl,#0x08
      000F25 78rE9            [12] 3811 	mov	r0,#_ClearBitMask
      000F27 79s08            [12] 3812 	mov	r1,#(_ClearBitMask >> 8)
      000F29 7As00            [12] 3813 	mov	r2,#(_ClearBitMask >> 16)
      000F2B 12r00r00         [24] 3814 	lcall	__sdcc_banked_call
      000F2E 15 81            [12] 3815 	dec	sp
                                   3816 ;	../../../platform/cc2530dk/RC522/RC522.c:798: WriteRawRC ( BitFramingReg, 0x00);		// 
      000F30 E4               [12] 3817 	clr	a
      000F31 C0 E0            [24] 3818 	push	acc
      000F33 75 82 0D         [24] 3819 	mov	dpl,#0x0d
      000F36 78r90            [12] 3820 	mov	r0,#_WriteRawRC
      000F38 79s08            [12] 3821 	mov	r1,#(_WriteRawRC >> 8)
      000F3A 7As00            [12] 3822 	mov	r2,#(_WriteRawRC >> 16)
      000F3C 12r00r00         [24] 3823 	lcall	__sdcc_banked_call
      000F3F 15 81            [12] 3824 	dec	sp
                                   3825 ;	../../../platform/cc2530dk/RC522/RC522.c:799: ClearBitMask ( CollReg, 0x80 );			//ValuesAfterColl
      000F41 74 80            [12] 3826 	mov	a,#0x80
      000F43 C0 E0            [24] 3827 	push	acc
      000F45 75 82 0E         [24] 3828 	mov	dpl,#0x0e
      000F48 78rE9            [12] 3829 	mov	r0,#_ClearBitMask
      000F4A 79s08            [12] 3830 	mov	r1,#(_ClearBitMask >> 8)
      000F4C 7As00            [12] 3831 	mov	r2,#(_ClearBitMask >> 16)
      000F4E 12r00r00         [24] 3832 	lcall	__sdcc_banked_call
      000F51 15 81            [12] 3833 	dec	sp
                                   3834 ;	../../../platform/cc2530dk/RC522/RC522.c:801: ucComMF522Buf [ 0 ] = 0x93;	//
      000F53 E5 81            [12] 3835 	mov	a,sp
      000F55 24 ED            [12] 3836 	add	a,#0xed
      000F57 F9               [12] 3837 	mov	r1,a
      000F58 77 93            [12] 3838 	mov	@r1,#0x93
                                   3839 ;	../../../platform/cc2530dk/RC522/RC522.c:802: ucComMF522Buf [ 1 ] = 0x20;
      000F5A E9               [12] 3840 	mov	a,r1
      000F5B 04               [12] 3841 	inc	a
      000F5C F8               [12] 3842 	mov	r0,a
      000F5D 76 20            [12] 3843 	mov	@r0,#0x20
                                   3844 ;	../../../platform/cc2530dk/RC522/RC522.c:804: cStatus = PcdComMF522 ( PCD_TRANSCEIVE, ucComMF522Buf, 2, ucComMF522Buf, & ulLen);//
      000F5F AB 81            [24] 3845 	mov	r3,sp
      000F61 1B               [12] 3846 	dec	r3
      000F62 8B 02            [24] 3847 	mov	ar2,r3
      000F64 7B 00            [12] 3848 	mov	r3,#0x00
      000F66 7F 40            [12] 3849 	mov	r7,#0x40
      000F68 89 06            [24] 3850 	mov	ar6,r1
      000F6A E5 81            [12] 3851 	mov	a,sp
      000F6C 24 E9            [12] 3852 	add	a,#0xe9
      000F6E F8               [12] 3853 	mov	r0,a
      000F6F A6 06            [24] 3854 	mov	@r0,ar6
      000F71 08               [12] 3855 	inc	r0
      000F72 76 00            [12] 3856 	mov	@r0,#0x00
      000F74 08               [12] 3857 	inc	r0
      000F75 76 40            [12] 3858 	mov	@r0,#0x40
      000F77 89 06            [24] 3859 	mov	ar6,r1
      000F79 7D 00            [12] 3860 	mov	r5,#0x00
      000F7B 7C 40            [12] 3861 	mov	r4,#0x40
      000F7D C0 02            [24] 3862 	push	ar2
      000F7F C0 03            [24] 3863 	push	ar3
      000F81 C0 07            [24] 3864 	push	ar7
      000F83 E5 81            [12] 3865 	mov	a,sp
      000F85 24 E6            [12] 3866 	add	a,#0xe6
      000F87 F8               [12] 3867 	mov	r0,a
      000F88 E6               [12] 3868 	mov	a,@r0
      000F89 C0 E0            [24] 3869 	push	acc
      000F8B 08               [12] 3870 	inc	r0
      000F8C E6               [12] 3871 	mov	a,@r0
      000F8D C0 E0            [24] 3872 	push	acc
      000F8F 08               [12] 3873 	inc	r0
      000F90 E6               [12] 3874 	mov	a,@r0
      000F91 C0 E0            [24] 3875 	push	acc
      000F93 74 02            [12] 3876 	mov	a,#0x02
      000F95 C0 E0            [24] 3877 	push	acc
      000F97 C0 06            [24] 3878 	push	ar6
      000F99 C0 05            [24] 3879 	push	ar5
      000F9B C0 04            [24] 3880 	push	ar4
      000F9D 75 82 0C         [24] 3881 	mov	dpl,#0x0c
      000FA0 78r17            [12] 3882 	mov	r0,#_PcdComMF522
      000FA2 79s0B            [12] 3883 	mov	r1,#(_PcdComMF522 >> 8)
      000FA4 7As00            [12] 3884 	mov	r2,#(_PcdComMF522 >> 16)
      000FA6 12r00r00         [24] 3885 	lcall	__sdcc_banked_call
      000FA9 AF 82            [24] 3886 	mov	r7,dpl
      000FAB E5 81            [12] 3887 	mov	a,sp
      000FAD 24 F6            [12] 3888 	add	a,#0xf6
      000FAF F5 81            [12] 3889 	mov	sp,a
                                   3890 ;	../../../platform/cc2530dk/RC522/RC522.c:806: if ( cStatus == MI_OK)		//
      000FB1 BF 26 4F         [24] 3891 	cjne	r7,#0x26,00105$
                                   3892 ;	../../../platform/cc2530dk/RC522/RC522.c:808: for ( uc = 0; uc < 4; uc ++ )
      000FB4 7E 00            [12] 3893 	mov	r6,#0x00
      000FB6 E5 81            [12] 3894 	mov	a,sp
      000FB8 24 ED            [12] 3895 	add	a,#0xed
      000FBA FD               [12] 3896 	mov	r5,a
      000FBB                       3897 00106$:
                                   3898 ;	../../../platform/cc2530dk/RC522/RC522.c:810: * ( pSnr + uc )  = ucComMF522Buf [ uc ];			//UID
      000FBB C0 07            [24] 3899 	push	ar7
      000FBD E5 81            [12] 3900 	mov	a,sp
      000FBF 24 E5            [12] 3901 	add	a,#0xe5
      000FC1 F8               [12] 3902 	mov	r0,a
      000FC2 EE               [12] 3903 	mov	a,r6
      000FC3 26               [12] 3904 	add	a,@r0
      000FC4 FA               [12] 3905 	mov	r2,a
      000FC5 E4               [12] 3906 	clr	a
      000FC6 08               [12] 3907 	inc	r0
      000FC7 36               [12] 3908 	addc	a,@r0
      000FC8 FB               [12] 3909 	mov	r3,a
      000FC9 08               [12] 3910 	inc	r0
      000FCA 86 04            [24] 3911 	mov	ar4,@r0
      000FCC EE               [12] 3912 	mov	a,r6
      000FCD 2D               [12] 3913 	add	a,r5
      000FCE F9               [12] 3914 	mov	r1,a
      000FCF 87 07            [24] 3915 	mov	ar7,@r1
      000FD1 8A 82            [24] 3916 	mov	dpl,r2
      000FD3 8B 83            [24] 3917 	mov	dph,r3
      000FD5 8C F0            [24] 3918 	mov	b,r4
      000FD7 EF               [12] 3919 	mov	a,r7
      000FD8 12r00r00         [24] 3920 	lcall	__gptrput
                                   3921 ;	../../../platform/cc2530dk/RC522/RC522.c:811: ucSnr_check ^= ucComMF522Buf [ uc ];
      000FDB 87 07            [24] 3922 	mov	ar7,@r1
      000FDD E5 81            [12] 3923 	mov	a,sp
      000FDF 24 EB            [12] 3924 	add	a,#0xeb
      000FE1 F8               [12] 3925 	mov	r0,a
      000FE2 EF               [12] 3926 	mov	a,r7
      000FE3 66               [12] 3927 	xrl	a,@r0
      000FE4 F6               [12] 3928 	mov	@r0,a
                                   3929 ;	../../../platform/cc2530dk/RC522/RC522.c:808: for ( uc = 0; uc < 4; uc ++ )
      000FE5 0E               [12] 3930 	inc	r6
      000FE6 BE 04 00         [24] 3931 	cjne	r6,#0x04,00133$
      000FE9                       3932 00133$:
      000FE9 D0 07            [24] 3933 	pop	ar7
      000FEB 40 CE            [24] 3934 	jc	00106$
                                   3935 ;	../../../platform/cc2530dk/RC522/RC522.c:814: if ( ucSnr_check != ucComMF522Buf [ uc ] )
      000FED E5 81            [12] 3936 	mov	a,sp
      000FEF 24 ED            [12] 3937 	add	a,#0xed
      000FF1 FD               [12] 3938 	mov	r5,a
      000FF2 2E               [12] 3939 	add	a,r6
      000FF3 F9               [12] 3940 	mov	r1,a
      000FF4 87 06            [24] 3941 	mov	ar6,@r1
      000FF6 E5 81            [12] 3942 	mov	a,sp
      000FF8 24 EC            [12] 3943 	add	a,#0xec
      000FFA F8               [12] 3944 	mov	r0,a
      000FFB E6               [12] 3945 	mov	a,@r0
      000FFC B5 06 02         [24] 3946 	cjne	a,ar6,00135$
      000FFF 80 02            [24] 3947 	sjmp	00105$
      001001                       3948 00135$:
                                   3949 ;	../../../platform/cc2530dk/RC522/RC522.c:816: cStatus = MI_ERR; 
      001001 7F BB            [12] 3950 	mov	r7,#0xbb
      001003                       3951 00105$:
                                   3952 ;	../../../platform/cc2530dk/RC522/RC522.c:821: SetBitMask ( CollReg, 0x80 );
      001003 C0 07            [24] 3953 	push	ar7
      001005 74 80            [12] 3954 	mov	a,#0x80
      001007 C0 E0            [24] 3955 	push	acc
      001009 75 82 0E         [24] 3956 	mov	dpl,#0x0e
      00100C 78rBE            [12] 3957 	mov	r0,#_SetBitMask
      00100E 79s08            [12] 3958 	mov	r1,#(_SetBitMask >> 8)
      001010 7As00            [12] 3959 	mov	r2,#(_SetBitMask >> 16)
      001012 12r00r00         [24] 3960 	lcall	__sdcc_banked_call
      001015 15 81            [12] 3961 	dec	sp
      001017 D0 07            [24] 3962 	pop	ar7
                                   3963 ;	../../../platform/cc2530dk/RC522/RC522.c:824: return cStatus;
      001019 8F 82            [24] 3964 	mov	dpl,r7
                                   3965 ;	../../../platform/cc2530dk/RC522/RC522.c:827: }
      00101B E5 81            [12] 3966 	mov	a,sp
      00101D 24 E5            [12] 3967 	add	a,#0xe5
      00101F F5 81            [12] 3968 	mov	sp,a
      001021 02r00r00         [24] 3969 	ljmp	__sdcc_banked_ret
                                   3970 ;------------------------------------------------------------
                                   3971 ;Allocation info for local variables in function 'CalulateCRC'
                                   3972 ;------------------------------------------------------------
                                   3973 ;ucLen                     Allocated to stack - sp -6
                                   3974 ;pOutData                  Allocated to stack - sp -9
                                   3975 ;pIndata                   Allocated to stack - sp -2
                                   3976 ;uc                        Allocated to registers 
                                   3977 ;ucN                       Allocated to registers r6 
                                   3978 ;------------------------------------------------------------
                                   3979 ;	../../../platform/cc2530dk/RC522/RC522.c:842: void CalulateCRC ( unsigned char * pIndata, unsigned char ucLen, unsigned char * pOutData )
                                   3980 ;	-----------------------------------------
                                   3981 ;	 function CalulateCRC
                                   3982 ;	-----------------------------------------
      001024                       3983 _CalulateCRC:
      001024 C0 82            [24] 3984 	push	dpl
      001026 C0 83            [24] 3985 	push	dph
      001028 C0 F0            [24] 3986 	push	b
                                   3987 ;	../../../platform/cc2530dk/RC522/RC522.c:847: ClearBitMask(DivIrqReg,0x04);
      00102A 74 04            [12] 3988 	mov	a,#0x04
      00102C C0 E0            [24] 3989 	push	acc
      00102E 75 82 05         [24] 3990 	mov	dpl,#0x05
      001031 78rE9            [12] 3991 	mov	r0,#_ClearBitMask
      001033 79s08            [12] 3992 	mov	r1,#(_ClearBitMask >> 8)
      001035 7As00            [12] 3993 	mov	r2,#(_ClearBitMask >> 16)
      001037 12r00r00         [24] 3994 	lcall	__sdcc_banked_call
      00103A 15 81            [12] 3995 	dec	sp
                                   3996 ;	../../../platform/cc2530dk/RC522/RC522.c:849: WriteRawRC(CommandReg,PCD_IDLE);
      00103C E4               [12] 3997 	clr	a
      00103D C0 E0            [24] 3998 	push	acc
      00103F 75 82 01         [24] 3999 	mov	dpl,#0x01
      001042 78r90            [12] 4000 	mov	r0,#_WriteRawRC
      001044 79s08            [12] 4001 	mov	r1,#(_WriteRawRC >> 8)
      001046 7As00            [12] 4002 	mov	r2,#(_WriteRawRC >> 16)
      001048 12r00r00         [24] 4003 	lcall	__sdcc_banked_call
      00104B 15 81            [12] 4004 	dec	sp
                                   4005 ;	../../../platform/cc2530dk/RC522/RC522.c:851: SetBitMask(FIFOLevelReg,0x80);
      00104D 74 80            [12] 4006 	mov	a,#0x80
      00104F C0 E0            [24] 4007 	push	acc
      001051 75 82 0A         [24] 4008 	mov	dpl,#0x0a
      001054 78rBE            [12] 4009 	mov	r0,#_SetBitMask
      001056 79s08            [12] 4010 	mov	r1,#(_SetBitMask >> 8)
      001058 7As00            [12] 4011 	mov	r2,#(_SetBitMask >> 16)
      00105A 12r00r00         [24] 4012 	lcall	__sdcc_banked_call
      00105D 15 81            [12] 4013 	dec	sp
                                   4014 ;	../../../platform/cc2530dk/RC522/RC522.c:853: for ( uc = 0; uc < ucLen; uc ++)
      00105F 7C 00            [12] 4015 	mov	r4,#0x00
      001061                       4016 00107$:
      001061 E5 81            [12] 4017 	mov	a,sp
      001063 24 FA            [12] 4018 	add	a,#0xfa
      001065 F8               [12] 4019 	mov	r0,a
      001066 C3               [12] 4020 	clr	c
      001067 EC               [12] 4021 	mov	a,r4
      001068 96               [12] 4022 	subb	a,@r0
      001069 50 2F            [24] 4023 	jnc	00101$
                                   4024 ;	../../../platform/cc2530dk/RC522/RC522.c:854: WriteRawRC ( FIFODataReg, * ( pIndata + uc ) );   
      00106B A8 81            [24] 4025 	mov	r0,sp
      00106D 18               [12] 4026 	dec	r0
      00106E 18               [12] 4027 	dec	r0
      00106F EC               [12] 4028 	mov	a,r4
      001070 26               [12] 4029 	add	a,@r0
      001071 FA               [12] 4030 	mov	r2,a
      001072 E4               [12] 4031 	clr	a
      001073 08               [12] 4032 	inc	r0
      001074 36               [12] 4033 	addc	a,@r0
      001075 FB               [12] 4034 	mov	r3,a
      001076 08               [12] 4035 	inc	r0
      001077 86 07            [24] 4036 	mov	ar7,@r0
      001079 8A 82            [24] 4037 	mov	dpl,r2
      00107B 8B 83            [24] 4038 	mov	dph,r3
      00107D 8F F0            [24] 4039 	mov	b,r7
      00107F 12r00r00         [24] 4040 	lcall	__gptrget
      001082 FA               [12] 4041 	mov	r2,a
      001083 C0 04            [24] 4042 	push	ar4
      001085 C0 02            [24] 4043 	push	ar2
      001087 75 82 09         [24] 4044 	mov	dpl,#0x09
      00108A 78r90            [12] 4045 	mov	r0,#_WriteRawRC
      00108C 79s08            [12] 4046 	mov	r1,#(_WriteRawRC >> 8)
      00108E 7As00            [12] 4047 	mov	r2,#(_WriteRawRC >> 16)
      001090 12r00r00         [24] 4048 	lcall	__sdcc_banked_call
      001093 15 81            [12] 4049 	dec	sp
      001095 D0 04            [24] 4050 	pop	ar4
                                   4051 ;	../../../platform/cc2530dk/RC522/RC522.c:853: for ( uc = 0; uc < ucLen; uc ++)
      001097 0C               [12] 4052 	inc	r4
      001098 80 C7            [24] 4053 	sjmp	00107$
      00109A                       4054 00101$:
                                   4055 ;	../../../platform/cc2530dk/RC522/RC522.c:856: WriteRawRC ( CommandReg, PCD_CALCCRC );
      00109A 74 03            [12] 4056 	mov	a,#0x03
      00109C C0 E0            [24] 4057 	push	acc
      00109E 75 82 01         [24] 4058 	mov	dpl,#0x01
      0010A1 78r90            [12] 4059 	mov	r0,#_WriteRawRC
      0010A3 79s08            [12] 4060 	mov	r1,#(_WriteRawRC >> 8)
      0010A5 7As00            [12] 4061 	mov	r2,#(_WriteRawRC >> 16)
      0010A7 12r00r00         [24] 4062 	lcall	__sdcc_banked_call
      0010AA 15 81            [12] 4063 	dec	sp
                                   4064 ;	../../../platform/cc2530dk/RC522/RC522.c:858: uc = 0xFF;
      0010AC 7F FF            [12] 4065 	mov	r7,#0xff
                                   4066 ;	../../../platform/cc2530dk/RC522/RC522.c:860: do 
      0010AE                       4067 00103$:
                                   4068 ;	../../../platform/cc2530dk/RC522/RC522.c:862: ucN = ReadRawRC ( DivIrqReg );
      0010AE 75 82 05         [24] 4069 	mov	dpl,#0x05
      0010B1 C0 07            [24] 4070 	push	ar7
      0010B3 78r62            [12] 4071 	mov	r0,#_ReadRawRC
      0010B5 79s08            [12] 4072 	mov	r1,#(_ReadRawRC >> 8)
      0010B7 7As00            [12] 4073 	mov	r2,#(_ReadRawRC >> 16)
      0010B9 12r00r00         [24] 4074 	lcall	__sdcc_banked_call
      0010BC AE 82            [24] 4075 	mov	r6,dpl
      0010BE D0 07            [24] 4076 	pop	ar7
                                   4077 ;	../../../platform/cc2530dk/RC522/RC522.c:863: uc --;
      0010C0 1F               [12] 4078 	dec	r7
                                   4079 ;	../../../platform/cc2530dk/RC522/RC522.c:864: } while ( ( uc != 0 ) && ! ( ucN & 0x04 ) );
      0010C1 EF               [12] 4080 	mov	a,r7
      0010C2 60 04            [24] 4081 	jz	00105$
      0010C4 EE               [12] 4082 	mov	a,r6
      0010C5 30 E2 E6         [24] 4083 	jnb	acc.2,00103$
      0010C8                       4084 00105$:
                                   4085 ;	../../../platform/cc2530dk/RC522/RC522.c:866: pOutData [ 0 ] = ReadRawRC ( CRCResultRegL );
      0010C8 E5 81            [12] 4086 	mov	a,sp
      0010CA 24 F7            [12] 4087 	add	a,#0xf7
      0010CC F8               [12] 4088 	mov	r0,a
      0010CD 86 05            [24] 4089 	mov	ar5,@r0
      0010CF 08               [12] 4090 	inc	r0
      0010D0 86 06            [24] 4091 	mov	ar6,@r0
      0010D2 08               [12] 4092 	inc	r0
      0010D3 86 07            [24] 4093 	mov	ar7,@r0
      0010D5 75 82 22         [24] 4094 	mov	dpl,#0x22
      0010D8 C0 07            [24] 4095 	push	ar7
      0010DA C0 06            [24] 4096 	push	ar6
      0010DC C0 05            [24] 4097 	push	ar5
      0010DE 78r62            [12] 4098 	mov	r0,#_ReadRawRC
      0010E0 79s08            [12] 4099 	mov	r1,#(_ReadRawRC >> 8)
      0010E2 7As00            [12] 4100 	mov	r2,#(_ReadRawRC >> 16)
      0010E4 12r00r00         [24] 4101 	lcall	__sdcc_banked_call
      0010E7 AC 82            [24] 4102 	mov	r4,dpl
      0010E9 D0 05            [24] 4103 	pop	ar5
      0010EB D0 06            [24] 4104 	pop	ar6
      0010ED D0 07            [24] 4105 	pop	ar7
      0010EF 8D 82            [24] 4106 	mov	dpl,r5
      0010F1 8E 83            [24] 4107 	mov	dph,r6
      0010F3 8F F0            [24] 4108 	mov	b,r7
      0010F5 EC               [12] 4109 	mov	a,r4
      0010F6 12r00r00         [24] 4110 	lcall	__gptrput
                                   4111 ;	../../../platform/cc2530dk/RC522/RC522.c:867: pOutData [ 1 ] = ReadRawRC ( CRCResultRegM );
      0010F9 0D               [12] 4112 	inc	r5
      0010FA BD 00 01         [24] 4113 	cjne	r5,#0x00,00136$
      0010FD 0E               [12] 4114 	inc	r6
      0010FE                       4115 00136$:
      0010FE 75 82 21         [24] 4116 	mov	dpl,#0x21
      001101 C0 07            [24] 4117 	push	ar7
      001103 C0 06            [24] 4118 	push	ar6
      001105 C0 05            [24] 4119 	push	ar5
      001107 78r62            [12] 4120 	mov	r0,#_ReadRawRC
      001109 79s08            [12] 4121 	mov	r1,#(_ReadRawRC >> 8)
      00110B 7As00            [12] 4122 	mov	r2,#(_ReadRawRC >> 16)
      00110D 12r00r00         [24] 4123 	lcall	__sdcc_banked_call
      001110 AC 82            [24] 4124 	mov	r4,dpl
      001112 D0 05            [24] 4125 	pop	ar5
      001114 D0 06            [24] 4126 	pop	ar6
      001116 D0 07            [24] 4127 	pop	ar7
      001118 8D 82            [24] 4128 	mov	dpl,r5
      00111A 8E 83            [24] 4129 	mov	dph,r6
      00111C 8F F0            [24] 4130 	mov	b,r7
      00111E EC               [12] 4131 	mov	a,r4
      00111F 12r00r00         [24] 4132 	lcall	__gptrput
                                   4133 ;	../../../platform/cc2530dk/RC522/RC522.c:870: }
      001122 15 81            [12] 4134 	dec	sp
      001124 15 81            [12] 4135 	dec	sp
      001126 15 81            [12] 4136 	dec	sp
      001128 02r00r00         [24] 4137 	ljmp	__sdcc_banked_ret
                                   4138 ;------------------------------------------------------------
                                   4139 ;Allocation info for local variables in function 'PcdSelect'
                                   4140 ;------------------------------------------------------------
                                   4141 ;pSnr                      Allocated to stack - sp -6
                                   4142 ;ucN                       Allocated to registers r7 
                                   4143 ;uc                        Allocated to registers 
                                   4144 ;ulLen                     Allocated to stack - sp -1
                                   4145 ;sloc0                     Allocated to stack - sp -3
                                   4146 ;------------------------------------------------------------
                                   4147 ;	../../../platform/cc2530dk/RC522/RC522.c:884: char PcdSelect ( unsigned char * pSnr )
                                   4148 ;	-----------------------------------------
                                   4149 ;	 function PcdSelect
                                   4150 ;	-----------------------------------------
      00112B                       4151 _PcdSelect:
      00112B C0 82            [24] 4152 	push	dpl
      00112D C0 83            [24] 4153 	push	dph
      00112F C0 F0            [24] 4154 	push	b
      001131 E5 81            [12] 4155 	mov	a,sp
      001133 24 04            [12] 4156 	add	a,#0x04
      001135 F5 81            [12] 4157 	mov	sp,a
                                   4158 ;	../../../platform/cc2530dk/RC522/RC522.c:891: ucComMF522Buf0 [ 0 ] = PICC_ANTICOLL1;
      001137 90r00r34         [24] 4159 	mov	dptr,#_ucComMF522Buf0
      00113A 74 93            [12] 4160 	mov	a,#0x93
      00113C F0               [24] 4161 	movx	@dptr,a
                                   4162 ;	../../../platform/cc2530dk/RC522/RC522.c:892: ucComMF522Buf0 [ 1 ] = 0x70;
      00113D 90r00r35         [24] 4163 	mov	dptr,#(_ucComMF522Buf0 + 0x0001)
      001140 74 70            [12] 4164 	mov	a,#0x70
      001142 F0               [24] 4165 	movx	@dptr,a
                                   4166 ;	../../../platform/cc2530dk/RC522/RC522.c:893: ucComMF522Buf0 [ 6 ] = 0;
      001143 90r00r3A         [24] 4167 	mov	dptr,#(_ucComMF522Buf0 + 0x0006)
      001146 E4               [12] 4168 	clr	a
      001147 F0               [24] 4169 	movx	@dptr,a
                                   4170 ;	../../../platform/cc2530dk/RC522/RC522.c:895: for ( uc = 0; uc < 4; uc ++ )
      001148 7C 00            [12] 4171 	mov	r4,#0x00
      00114A                       4172 00106$:
                                   4173 ;	../../../platform/cc2530dk/RC522/RC522.c:897: ucComMF522Buf0 [ uc + 2 ] = * ( pSnr + uc );
      00114A 8C 03            [24] 4174 	mov	ar3,r4
      00114C 0B               [12] 4175 	inc	r3
      00114D 0B               [12] 4176 	inc	r3
      00114E EB               [12] 4177 	mov	a,r3
      00114F 33               [12] 4178 	rlc	a
      001150 95 E0            [12] 4179 	subb	a,acc
      001152 FA               [12] 4180 	mov	r2,a
      001153 E5 81            [12] 4181 	mov	a,sp
      001155 24 FD            [12] 4182 	add	a,#0xfd
      001157 F8               [12] 4183 	mov	r0,a
      001158 EB               [12] 4184 	mov	a,r3
      001159 24r34            [12] 4185 	add	a,#_ucComMF522Buf0
      00115B F6               [12] 4186 	mov	@r0,a
      00115C EA               [12] 4187 	mov	a,r2
      00115D 34s00            [12] 4188 	addc	a,#(_ucComMF522Buf0 >> 8)
      00115F 08               [12] 4189 	inc	r0
      001160 F6               [12] 4190 	mov	@r0,a
      001161 E5 81            [12] 4191 	mov	a,sp
      001163 24 FA            [12] 4192 	add	a,#0xfa
      001165 F8               [12] 4193 	mov	r0,a
      001166 EC               [12] 4194 	mov	a,r4
      001167 26               [12] 4195 	add	a,@r0
      001168 FD               [12] 4196 	mov	r5,a
      001169 E4               [12] 4197 	clr	a
      00116A 08               [12] 4198 	inc	r0
      00116B 36               [12] 4199 	addc	a,@r0
      00116C FE               [12] 4200 	mov	r6,a
      00116D 08               [12] 4201 	inc	r0
      00116E 86 07            [24] 4202 	mov	ar7,@r0
      001170 8D 82            [24] 4203 	mov	dpl,r5
      001172 8E 83            [24] 4204 	mov	dph,r6
      001174 8F F0            [24] 4205 	mov	b,r7
      001176 12r00r00         [24] 4206 	lcall	__gptrget
      001179 FB               [12] 4207 	mov	r3,a
      00117A E5 81            [12] 4208 	mov	a,sp
      00117C 24 FD            [12] 4209 	add	a,#0xfd
      00117E F8               [12] 4210 	mov	r0,a
      00117F 86 82            [24] 4211 	mov	dpl,@r0
      001181 08               [12] 4212 	inc	r0
      001182 86 83            [24] 4213 	mov	dph,@r0
      001184 EB               [12] 4214 	mov	a,r3
      001185 F0               [24] 4215 	movx	@dptr,a
                                   4216 ;	../../../platform/cc2530dk/RC522/RC522.c:898: ucComMF522Buf0 [ 6 ] ^= * ( pSnr + uc );
      001186 90r00r3A         [24] 4217 	mov	dptr,#(_ucComMF522Buf0 + 0x0006)
      001189 E0               [24] 4218 	movx	a,@dptr
      00118A FB               [12] 4219 	mov	r3,a
      00118B 8D 82            [24] 4220 	mov	dpl,r5
      00118D 8E 83            [24] 4221 	mov	dph,r6
      00118F 8F F0            [24] 4222 	mov	b,r7
      001191 12r00r00         [24] 4223 	lcall	__gptrget
      001194 62 03            [12] 4224 	xrl	ar3,a
      001196 90r00r3A         [24] 4225 	mov	dptr,#(_ucComMF522Buf0 + 0x0006)
      001199 EB               [12] 4226 	mov	a,r3
      00119A F0               [24] 4227 	movx	@dptr,a
                                   4228 ;	../../../platform/cc2530dk/RC522/RC522.c:895: for ( uc = 0; uc < 4; uc ++ )
      00119B 0C               [12] 4229 	inc	r4
      00119C BC 04 00         [24] 4230 	cjne	r4,#0x04,00131$
      00119F                       4231 00131$:
      00119F 40 A9            [24] 4232 	jc	00106$
                                   4233 ;	../../../platform/cc2530dk/RC522/RC522.c:901: CalulateCRC ( ucComMF522Buf0, 7, & ucComMF522Buf0 [ 7 ] );
      0011A1 74r3B            [12] 4234 	mov	a,#(_ucComMF522Buf0 + 0x0007)
      0011A3 C0 E0            [24] 4235 	push	acc
      0011A5 74s00            [12] 4236 	mov	a,#((_ucComMF522Buf0 + 0x0007) >> 8)
      0011A7 C0 E0            [24] 4237 	push	acc
      0011A9 E4               [12] 4238 	clr	a
      0011AA C0 E0            [24] 4239 	push	acc
      0011AC 74 07            [12] 4240 	mov	a,#0x07
      0011AE C0 E0            [24] 4241 	push	acc
      0011B0 90r00r34         [24] 4242 	mov	dptr,#_ucComMF522Buf0
      0011B3 75 F0 00         [24] 4243 	mov	b,#0x00
      0011B6 78r24            [12] 4244 	mov	r0,#_CalulateCRC
      0011B8 79s10            [12] 4245 	mov	r1,#(_CalulateCRC >> 8)
      0011BA 7As00            [12] 4246 	mov	r2,#(_CalulateCRC >> 16)
      0011BC 12r00r00         [24] 4247 	lcall	__sdcc_banked_call
      0011BF E5 81            [12] 4248 	mov	a,sp
      0011C1 24 FC            [12] 4249 	add	a,#0xfc
      0011C3 F5 81            [12] 4250 	mov	sp,a
                                   4251 ;	../../../platform/cc2530dk/RC522/RC522.c:903: ClearBitMask ( Status2Reg, 0x08 );
      0011C5 74 08            [12] 4252 	mov	a,#0x08
      0011C7 C0 E0            [24] 4253 	push	acc
      0011C9 75 82 08         [24] 4254 	mov	dpl,#0x08
      0011CC 78rE9            [12] 4255 	mov	r0,#_ClearBitMask
      0011CE 79s08            [12] 4256 	mov	r1,#(_ClearBitMask >> 8)
      0011D0 7As00            [12] 4257 	mov	r2,#(_ClearBitMask >> 16)
      0011D2 12r00r00         [24] 4258 	lcall	__sdcc_banked_call
      0011D5 15 81            [12] 4259 	dec	sp
                                   4260 ;	../../../platform/cc2530dk/RC522/RC522.c:905: ucN = PcdComMF522 ( PCD_TRANSCEIVE, ucComMF522Buf0, 9, ucComMF522Buf0, & ulLen );
      0011D7 AF 81            [24] 4261 	mov	r7,sp
      0011D9 1F               [12] 4262 	dec	r7
      0011DA 7E 00            [12] 4263 	mov	r6,#0x00
      0011DC 7D 40            [12] 4264 	mov	r5,#0x40
      0011DE C0 07            [24] 4265 	push	ar7
      0011E0 C0 06            [24] 4266 	push	ar6
      0011E2 C0 05            [24] 4267 	push	ar5
      0011E4 74r34            [12] 4268 	mov	a,#_ucComMF522Buf0
      0011E6 C0 E0            [24] 4269 	push	acc
      0011E8 74s00            [12] 4270 	mov	a,#(_ucComMF522Buf0 >> 8)
      0011EA C0 E0            [24] 4271 	push	acc
      0011EC E4               [12] 4272 	clr	a
      0011ED C0 E0            [24] 4273 	push	acc
      0011EF 74 09            [12] 4274 	mov	a,#0x09
      0011F1 C0 E0            [24] 4275 	push	acc
      0011F3 74r34            [12] 4276 	mov	a,#_ucComMF522Buf0
      0011F5 C0 E0            [24] 4277 	push	acc
      0011F7 74s00            [12] 4278 	mov	a,#(_ucComMF522Buf0 >> 8)
      0011F9 C0 E0            [24] 4279 	push	acc
      0011FB E4               [12] 4280 	clr	a
      0011FC C0 E0            [24] 4281 	push	acc
      0011FE 75 82 0C         [24] 4282 	mov	dpl,#0x0c
      001201 78r17            [12] 4283 	mov	r0,#_PcdComMF522
      001203 79s0B            [12] 4284 	mov	r1,#(_PcdComMF522 >> 8)
      001205 7As00            [12] 4285 	mov	r2,#(_PcdComMF522 >> 16)
      001207 12r00r00         [24] 4286 	lcall	__sdcc_banked_call
      00120A AF 82            [24] 4287 	mov	r7,dpl
      00120C E5 81            [12] 4288 	mov	a,sp
      00120E 24 F6            [12] 4289 	add	a,#0xf6
      001210 F5 81            [12] 4290 	mov	sp,a
                                   4291 ;	../../../platform/cc2530dk/RC522/RC522.c:907: if ( ( ucN == MI_OK ) && ( ulLen == 0x18 ) )
      001212 BF 26 0E         [24] 4292 	cjne	r7,#0x26,00103$
      001215 A8 81            [24] 4293 	mov	r0,sp
      001217 18               [12] 4294 	dec	r0
      001218 B6 18 08         [24] 4295 	cjne	@r0,#0x18,00103$
      00121B 08               [12] 4296 	inc	r0
      00121C B6 00 04         [24] 4297 	cjne	@r0,#0x00,00103$
                                   4298 ;	../../../platform/cc2530dk/RC522/RC522.c:908: ucN = MI_OK;  
      00121F 7F 26            [12] 4299 	mov	r7,#0x26
      001221 80 02            [24] 4300 	sjmp	00104$
      001223                       4301 00103$:
                                   4302 ;	../../../platform/cc2530dk/RC522/RC522.c:910: ucN = MI_ERR;    
      001223 7F BB            [12] 4303 	mov	r7,#0xbb
      001225                       4304 00104$:
                                   4305 ;	../../../platform/cc2530dk/RC522/RC522.c:912: return ucN;
      001225 8F 82            [24] 4306 	mov	dpl,r7
                                   4307 ;	../../../platform/cc2530dk/RC522/RC522.c:914: }
      001227 E5 81            [12] 4308 	mov	a,sp
      001229 24 F9            [12] 4309 	add	a,#0xf9
      00122B F5 81            [12] 4310 	mov	sp,a
      00122D 02r00r00         [24] 4311 	ljmp	__sdcc_banked_ret
                                   4312 ;------------------------------------------------------------
                                   4313 ;Allocation info for local variables in function 'PcdAuthState'
                                   4314 ;------------------------------------------------------------
                                   4315 ;ucAddr                    Allocated to stack - sp -26
                                   4316 ;pKey                      Allocated to stack - sp -29
                                   4317 ;pSnr                      Allocated to stack - sp -32
                                   4318 ;ucAuth_mode               Allocated to registers r7 
                                   4319 ;cStatus                   Allocated to registers r7 
                                   4320 ;uc                        Allocated to registers 
                                   4321 ;ucComMF522Buf             Allocated to stack - sp -19
                                   4322 ;ulLen                     Allocated to stack - sp -1
                                   4323 ;sloc0                     Allocated to stack - sp -22
                                   4324 ;------------------------------------------------------------
                                   4325 ;	../../../platform/cc2530dk/RC522/RC522.c:932: char PcdAuthState ( unsigned char ucAuth_mode, unsigned char ucAddr, unsigned char * pKey, unsigned char * pSnr )
                                   4326 ;	-----------------------------------------
                                   4327 ;	 function PcdAuthState
                                   4328 ;	-----------------------------------------
      001230                       4329 _PcdAuthState:
      001230 E5 81            [12] 4330 	mov	a,sp
      001232 24 17            [12] 4331 	add	a,#0x17
                                   4332 ;	../../../platform/cc2530dk/RC522/RC522.c:939: ucComMF522Buf [ 0 ] = ucAuth_mode;
      001234 F5 81            [12] 4333 	mov	sp,a
      001236 AF 82            [24] 4334 	mov	r7,dpl
      001238 24 ED            [12] 4335 	add	a,#0xed
      00123A F9               [12] 4336 	mov	r1,a
      00123B A7 07            [24] 4337 	mov	@r1,ar7
                                   4338 ;	../../../platform/cc2530dk/RC522/RC522.c:940: ucComMF522Buf [ 1 ] = ucAddr;
      00123D E9               [12] 4339 	mov	a,r1
      00123E 04               [12] 4340 	inc	a
      00123F F8               [12] 4341 	mov	r0,a
      001240 E5 81            [12] 4342 	mov	a,sp
      001242 24 E6            [12] 4343 	add	a,#0xe6
      001244 F9               [12] 4344 	mov	r1,a
      001245 E7               [12] 4345 	mov	a,@r1
      001246 F6               [12] 4346 	mov	@r0,a
                                   4347 ;	../../../platform/cc2530dk/RC522/RC522.c:942: for ( uc = 0; uc < 6; uc ++ )
      001247 7F 00            [12] 4348 	mov	r7,#0x00
      001249 E5 81            [12] 4349 	mov	a,sp
      00124B 24 ED            [12] 4350 	add	a,#0xed
      00124D FE               [12] 4351 	mov	r6,a
      00124E                       4352 00106$:
                                   4353 ;	../../../platform/cc2530dk/RC522/RC522.c:943: ucComMF522Buf [ uc + 2 ] = * ( pKey + uc );   
      00124E 8F 05            [24] 4354 	mov	ar5,r7
      001250 74 02            [12] 4355 	mov	a,#0x02
      001252 2D               [12] 4356 	add	a,r5
      001253 2E               [12] 4357 	add	a,r6
      001254 F9               [12] 4358 	mov	r1,a
      001255 E5 81            [12] 4359 	mov	a,sp
      001257 24 E3            [12] 4360 	add	a,#0xe3
      001259 F8               [12] 4361 	mov	r0,a
      00125A EF               [12] 4362 	mov	a,r7
      00125B 26               [12] 4363 	add	a,@r0
      00125C FB               [12] 4364 	mov	r3,a
      00125D E4               [12] 4365 	clr	a
      00125E 08               [12] 4366 	inc	r0
      00125F 36               [12] 4367 	addc	a,@r0
      001260 FC               [12] 4368 	mov	r4,a
      001261 08               [12] 4369 	inc	r0
      001262 86 05            [24] 4370 	mov	ar5,@r0
      001264 8B 82            [24] 4371 	mov	dpl,r3
      001266 8C 83            [24] 4372 	mov	dph,r4
      001268 8D F0            [24] 4373 	mov	b,r5
      00126A 12r00r00         [24] 4374 	lcall	__gptrget
      00126D FB               [12] 4375 	mov	r3,a
      00126E F7               [12] 4376 	mov	@r1,a
                                   4377 ;	../../../platform/cc2530dk/RC522/RC522.c:942: for ( uc = 0; uc < 6; uc ++ )
      00126F 0F               [12] 4378 	inc	r7
      001270 BF 06 00         [24] 4379 	cjne	r7,#0x06,00139$
      001273                       4380 00139$:
      001273 40 D9            [24] 4381 	jc	00106$
                                   4382 ;	../../../platform/cc2530dk/RC522/RC522.c:945: for ( uc = 0; uc < 6; uc ++ )
      001275 7F 00            [12] 4383 	mov	r7,#0x00
      001277 E5 81            [12] 4384 	mov	a,sp
      001279 24 ED            [12] 4385 	add	a,#0xed
      00127B FE               [12] 4386 	mov	r6,a
      00127C                       4387 00108$:
                                   4388 ;	../../../platform/cc2530dk/RC522/RC522.c:946: ucComMF522Buf [ uc + 8 ] = * ( pSnr + uc );   
      00127C 8F 05            [24] 4389 	mov	ar5,r7
      00127E 74 08            [12] 4390 	mov	a,#0x08
      001280 2D               [12] 4391 	add	a,r5
      001281 2E               [12] 4392 	add	a,r6
      001282 F9               [12] 4393 	mov	r1,a
      001283 E5 81            [12] 4394 	mov	a,sp
      001285 24 E0            [12] 4395 	add	a,#0xe0
      001287 F8               [12] 4396 	mov	r0,a
      001288 EF               [12] 4397 	mov	a,r7
      001289 26               [12] 4398 	add	a,@r0
      00128A FB               [12] 4399 	mov	r3,a
      00128B E4               [12] 4400 	clr	a
      00128C 08               [12] 4401 	inc	r0
      00128D 36               [12] 4402 	addc	a,@r0
      00128E FC               [12] 4403 	mov	r4,a
      00128F 08               [12] 4404 	inc	r0
      001290 86 05            [24] 4405 	mov	ar5,@r0
      001292 8B 82            [24] 4406 	mov	dpl,r3
      001294 8C 83            [24] 4407 	mov	dph,r4
      001296 8D F0            [24] 4408 	mov	b,r5
      001298 12r00r00         [24] 4409 	lcall	__gptrget
      00129B F7               [12] 4410 	mov	@r1,a
                                   4411 ;	../../../platform/cc2530dk/RC522/RC522.c:945: for ( uc = 0; uc < 6; uc ++ )
      00129C 0F               [12] 4412 	inc	r7
      00129D BF 06 00         [24] 4413 	cjne	r7,#0x06,00141$
      0012A0                       4414 00141$:
      0012A0 40 DA            [24] 4415 	jc	00108$
                                   4416 ;	../../../platform/cc2530dk/RC522/RC522.c:948: cStatus = PcdComMF522 ( PCD_AUTHENT, ucComMF522Buf, 12, ucComMF522Buf, & ulLen );
      0012A2 AF 81            [24] 4417 	mov	r7,sp
      0012A4 1F               [12] 4418 	dec	r7
      0012A5 E5 81            [12] 4419 	mov	a,sp
      0012A7 24 EA            [12] 4420 	add	a,#0xea
      0012A9 F8               [12] 4421 	mov	r0,a
      0012AA A6 07            [24] 4422 	mov	@r0,ar7
      0012AC 08               [12] 4423 	inc	r0
      0012AD 76 00            [12] 4424 	mov	@r0,#0x00
      0012AF 08               [12] 4425 	inc	r0
      0012B0 76 40            [12] 4426 	mov	@r0,#0x40
      0012B2 E5 81            [12] 4427 	mov	a,sp
      0012B4 24 ED            [12] 4428 	add	a,#0xed
      0012B6 FC               [12] 4429 	mov	r4,a
      0012B7 FA               [12] 4430 	mov	r2,a
      0012B8 7B 00            [12] 4431 	mov	r3,#0x00
      0012BA 7F 40            [12] 4432 	mov	r7,#0x40
      0012BC 7E 00            [12] 4433 	mov	r6,#0x00
      0012BE 7D 40            [12] 4434 	mov	r5,#0x40
      0012C0 E5 81            [12] 4435 	mov	a,sp
      0012C2 24 EA            [12] 4436 	add	a,#0xea
      0012C4 F8               [12] 4437 	mov	r0,a
      0012C5 E6               [12] 4438 	mov	a,@r0
      0012C6 C0 E0            [24] 4439 	push	acc
      0012C8 08               [12] 4440 	inc	r0
      0012C9 E6               [12] 4441 	mov	a,@r0
      0012CA C0 E0            [24] 4442 	push	acc
      0012CC 08               [12] 4443 	inc	r0
      0012CD E6               [12] 4444 	mov	a,@r0
      0012CE C0 E0            [24] 4445 	push	acc
      0012D0 C0 02            [24] 4446 	push	ar2
      0012D2 C0 03            [24] 4447 	push	ar3
      0012D4 C0 07            [24] 4448 	push	ar7
      0012D6 74 0C            [12] 4449 	mov	a,#0x0c
      0012D8 C0 E0            [24] 4450 	push	acc
      0012DA C0 04            [24] 4451 	push	ar4
      0012DC C0 06            [24] 4452 	push	ar6
      0012DE C0 05            [24] 4453 	push	ar5
      0012E0 75 82 0E         [24] 4454 	mov	dpl,#0x0e
      0012E3 78r17            [12] 4455 	mov	r0,#_PcdComMF522
      0012E5 79s0B            [12] 4456 	mov	r1,#(_PcdComMF522 >> 8)
      0012E7 7As00            [12] 4457 	mov	r2,#(_PcdComMF522 >> 16)
      0012E9 12r00r00         [24] 4458 	lcall	__sdcc_banked_call
      0012EC AF 82            [24] 4459 	mov	r7,dpl
      0012EE E5 81            [12] 4460 	mov	a,sp
      0012F0 24 F6            [12] 4461 	add	a,#0xf6
      0012F2 F5 81            [12] 4462 	mov	sp,a
                                   4463 ;	../../../platform/cc2530dk/RC522/RC522.c:950: if ( ( cStatus != MI_OK ) || ( ! ( ReadRawRC ( Status2Reg ) & 0x08 ) ) )
      0012F4 BF 26 15         [24] 4464 	cjne	r7,#0x26,00103$
      0012F7 75 82 08         [24] 4465 	mov	dpl,#0x08
      0012FA C0 07            [24] 4466 	push	ar7
      0012FC 78r62            [12] 4467 	mov	r0,#_ReadRawRC
      0012FE 79s08            [12] 4468 	mov	r1,#(_ReadRawRC >> 8)
      001300 7As00            [12] 4469 	mov	r2,#(_ReadRawRC >> 16)
      001302 12r00r00         [24] 4470 	lcall	__sdcc_banked_call
      001305 E5 82            [12] 4471 	mov	a,dpl
      001307 D0 07            [24] 4472 	pop	ar7
      001309 20 E3 02         [24] 4473 	jb	acc.3,00104$
      00130C                       4474 00103$:
                                   4475 ;	../../../platform/cc2530dk/RC522/RC522.c:951: cStatus = MI_ERR;   
      00130C 7F BB            [12] 4476 	mov	r7,#0xbb
      00130E                       4477 00104$:
                                   4478 ;	../../../platform/cc2530dk/RC522/RC522.c:953: return cStatus;
      00130E 8F 82            [24] 4479 	mov	dpl,r7
                                   4480 ;	../../../platform/cc2530dk/RC522/RC522.c:955: }
      001310 E5 81            [12] 4481 	mov	a,sp
      001312 24 E9            [12] 4482 	add	a,#0xe9
      001314 F5 81            [12] 4483 	mov	sp,a
      001316 02r00r00         [24] 4484 	ljmp	__sdcc_banked_ret
                                   4485 ;------------------------------------------------------------
                                   4486 ;Allocation info for local variables in function 'PcdWrite'
                                   4487 ;------------------------------------------------------------
                                   4488 ;pData                     Allocated to stack - sp -28
                                   4489 ;ucAddr                    Allocated to registers r7 
                                   4490 ;cStatus                   Allocated to registers r7 
                                   4491 ;uc                        Allocated to registers 
                                   4492 ;ucComMF522Buf             Allocated to stack - sp -19
                                   4493 ;ulLen                     Allocated to stack - sp -1
                                   4494 ;sloc0                     Allocated to stack - sp -22
                                   4495 ;sloc1                     Allocated to stack - sp +4
                                   4496 ;------------------------------------------------------------
                                   4497 ;	../../../platform/cc2530dk/RC522/RC522.c:969: char PcdWrite ( unsigned char ucAddr, unsigned char * pData )
                                   4498 ;	-----------------------------------------
                                   4499 ;	 function PcdWrite
                                   4500 ;	-----------------------------------------
      001319                       4501 _PcdWrite:
      001319 E5 81            [12] 4502 	mov	a,sp
      00131B 24 17            [12] 4503 	add	a,#0x17
                                   4504 ;	../../../platform/cc2530dk/RC522/RC522.c:976: ucComMF522Buf [ 0 ] = PICC_WRITE;
      00131D F5 81            [12] 4505 	mov	sp,a
      00131F AF 82            [24] 4506 	mov	r7,dpl
      001321 24 ED            [12] 4507 	add	a,#0xed
      001323 F9               [12] 4508 	mov	r1,a
      001324 77 A0            [12] 4509 	mov	@r1,#0xa0
                                   4510 ;	../../../platform/cc2530dk/RC522/RC522.c:977: ucComMF522Buf [ 1 ] = ucAddr;
      001326 E9               [12] 4511 	mov	a,r1
      001327 04               [12] 4512 	inc	a
      001328 F8               [12] 4513 	mov	r0,a
      001329 A6 07            [24] 4514 	mov	@r0,ar7
                                   4515 ;	../../../platform/cc2530dk/RC522/RC522.c:979: CalulateCRC ( ucComMF522Buf, 2, & ucComMF522Buf [ 2 ] );
      00132B 74 02            [12] 4516 	mov	a,#0x02
      00132D 29               [12] 4517 	add	a,r1
      00132E FF               [12] 4518 	mov	r7,a
      00132F 7E 00            [12] 4519 	mov	r6,#0x00
      001331 7D 40            [12] 4520 	mov	r5,#0x40
      001333 89 04            [24] 4521 	mov	ar4,r1
      001335 7B 00            [12] 4522 	mov	r3,#0x00
      001337 7A 40            [12] 4523 	mov	r2,#0x40
      001339 C0 01            [24] 4524 	push	ar1
      00133B C0 07            [24] 4525 	push	ar7
      00133D C0 06            [24] 4526 	push	ar6
      00133F C0 05            [24] 4527 	push	ar5
      001341 74 02            [12] 4528 	mov	a,#0x02
      001343 C0 E0            [24] 4529 	push	acc
      001345 8C 82            [24] 4530 	mov	dpl,r4
      001347 8B 83            [24] 4531 	mov	dph,r3
      001349 8A F0            [24] 4532 	mov	b,r2
      00134B 78r24            [12] 4533 	mov	r0,#_CalulateCRC
      00134D 79s10            [12] 4534 	mov	r1,#(_CalulateCRC >> 8)
      00134F 7As00            [12] 4535 	mov	r2,#(_CalulateCRC >> 16)
      001351 12r00r00         [24] 4536 	lcall	__sdcc_banked_call
      001354 E5 81            [12] 4537 	mov	a,sp
      001356 24 FC            [12] 4538 	add	a,#0xfc
      001358 F5 81            [12] 4539 	mov	sp,a
      00135A D0 01            [24] 4540 	pop	ar1
                                   4541 ;	../../../platform/cc2530dk/RC522/RC522.c:981: cStatus = PcdComMF522 ( PCD_TRANSCEIVE, ucComMF522Buf, 4, ucComMF522Buf, & ulLen );
      00135C AF 81            [24] 4542 	mov	r7,sp
      00135E 1F               [12] 4543 	dec	r7
      00135F 7E 00            [12] 4544 	mov	r6,#0x00
      001361 7D 40            [12] 4545 	mov	r5,#0x40
      001363 89 04            [24] 4546 	mov	ar4,r1
      001365 E5 81            [12] 4547 	mov	a,sp
      001367 24 EA            [12] 4548 	add	a,#0xea
      001369 F8               [12] 4549 	mov	r0,a
      00136A A6 04            [24] 4550 	mov	@r0,ar4
      00136C 08               [12] 4551 	inc	r0
      00136D 76 00            [12] 4552 	mov	@r0,#0x00
      00136F 08               [12] 4553 	inc	r0
      001370 76 40            [12] 4554 	mov	@r0,#0x40
      001372 89 04            [24] 4555 	mov	ar4,r1
      001374 7B 00            [12] 4556 	mov	r3,#0x00
      001376 7A 40            [12] 4557 	mov	r2,#0x40
      001378 C0 07            [24] 4558 	push	ar7
      00137A C0 06            [24] 4559 	push	ar6
      00137C C0 05            [24] 4560 	push	ar5
      00137E E5 81            [12] 4561 	mov	a,sp
      001380 24 E7            [12] 4562 	add	a,#0xe7
      001382 F8               [12] 4563 	mov	r0,a
      001383 E6               [12] 4564 	mov	a,@r0
      001384 C0 E0            [24] 4565 	push	acc
      001386 08               [12] 4566 	inc	r0
      001387 E6               [12] 4567 	mov	a,@r0
      001388 C0 E0            [24] 4568 	push	acc
      00138A 08               [12] 4569 	inc	r0
      00138B E6               [12] 4570 	mov	a,@r0
      00138C C0 E0            [24] 4571 	push	acc
      00138E 74 04            [12] 4572 	mov	a,#0x04
      001390 C0 E0            [24] 4573 	push	acc
      001392 C0 04            [24] 4574 	push	ar4
      001394 C0 03            [24] 4575 	push	ar3
      001396 C0 02            [24] 4576 	push	ar2
      001398 75 82 0C         [24] 4577 	mov	dpl,#0x0c
      00139B 78r17            [12] 4578 	mov	r0,#_PcdComMF522
      00139D 79s0B            [12] 4579 	mov	r1,#(_PcdComMF522 >> 8)
      00139F 7As00            [12] 4580 	mov	r2,#(_PcdComMF522 >> 16)
      0013A1 12r00r00         [24] 4581 	lcall	__sdcc_banked_call
      0013A4 AF 82            [24] 4582 	mov	r7,dpl
      0013A6 E5 81            [12] 4583 	mov	a,sp
      0013A8 24 F6            [12] 4584 	add	a,#0xf6
      0013AA F5 81            [12] 4585 	mov	sp,a
                                   4586 ;	../../../platform/cc2530dk/RC522/RC522.c:983: if ( ( cStatus != MI_OK ) || ( ulLen != 4 ) || ( ( ucComMF522Buf [ 0 ] & 0x0F ) != 0x0A ) )
      0013AC BF 26 1E         [24] 4587 	cjne	r7,#0x26,00101$
      0013AF A8 81            [24] 4588 	mov	r0,sp
      0013B1 18               [12] 4589 	dec	r0
      0013B2 B6 04 18         [24] 4590 	cjne	@r0,#0x04,00101$
      0013B5 08               [12] 4591 	inc	r0
      0013B6 B6 00 14         [24] 4592 	cjne	@r0,#0x00,00101$
      0013B9 E5 81            [12] 4593 	mov	a,sp
      0013BB 24 ED            [12] 4594 	add	a,#0xed
      0013BD F9               [12] 4595 	mov	r1,a
      0013BE 87 06            [24] 4596 	mov	ar6,@r1
      0013C0 53 06 0F         [24] 4597 	anl	ar6,#0x0f
      0013C3 7D 00            [12] 4598 	mov	r5,#0x00
      0013C5 BE 0A 05         [24] 4599 	cjne	r6,#0x0a,00149$
      0013C8 BD 00 02         [24] 4600 	cjne	r5,#0x00,00149$
      0013CB 80 02            [24] 4601 	sjmp	00102$
      0013CD                       4602 00149$:
      0013CD                       4603 00101$:
                                   4604 ;	../../../platform/cc2530dk/RC522/RC522.c:984: cStatus = MI_ERR;   
      0013CD 7F BB            [12] 4605 	mov	r7,#0xbb
      0013CF                       4606 00102$:
                                   4607 ;	../../../platform/cc2530dk/RC522/RC522.c:986: if ( cStatus == MI_OK )
      0013CF BF 26 02         [24] 4608 	cjne	r7,#0x26,00150$
      0013D2 80 03            [24] 4609 	sjmp	00151$
      0013D4                       4610 00150$:
      0013D4 02r14rBD         [24] 4611 	ljmp	00111$
      0013D7                       4612 00151$:
                                   4613 ;	../../../platform/cc2530dk/RC522/RC522.c:989: for ( uc = 0; uc < 16; uc ++ )
      0013D7 7E 00            [12] 4614 	mov	r6,#0x00
      0013D9 E5 81            [12] 4615 	mov	a,sp
      0013DB 24 ED            [12] 4616 	add	a,#0xed
      0013DD FD               [12] 4617 	mov	r5,a
      0013DE                       4618 00112$:
                                   4619 ;	../../../platform/cc2530dk/RC522/RC522.c:990: ucComMF522Buf [ uc ] = * ( pData + uc );  
      0013DE EE               [12] 4620 	mov	a,r6
      0013DF 2D               [12] 4621 	add	a,r5
      0013E0 F9               [12] 4622 	mov	r1,a
      0013E1 E5 81            [12] 4623 	mov	a,sp
      0013E3 24 E4            [12] 4624 	add	a,#0xe4
      0013E5 F8               [12] 4625 	mov	r0,a
      0013E6 EE               [12] 4626 	mov	a,r6
      0013E7 26               [12] 4627 	add	a,@r0
      0013E8 FA               [12] 4628 	mov	r2,a
      0013E9 E4               [12] 4629 	clr	a
      0013EA 08               [12] 4630 	inc	r0
      0013EB 36               [12] 4631 	addc	a,@r0
      0013EC FB               [12] 4632 	mov	r3,a
      0013ED 08               [12] 4633 	inc	r0
      0013EE 86 04            [24] 4634 	mov	ar4,@r0
      0013F0 8A 82            [24] 4635 	mov	dpl,r2
      0013F2 8B 83            [24] 4636 	mov	dph,r3
      0013F4 8C F0            [24] 4637 	mov	b,r4
      0013F6 12r00r00         [24] 4638 	lcall	__gptrget
      0013F9 F7               [12] 4639 	mov	@r1,a
                                   4640 ;	../../../platform/cc2530dk/RC522/RC522.c:989: for ( uc = 0; uc < 16; uc ++ )
      0013FA 0E               [12] 4641 	inc	r6
      0013FB BE 10 00         [24] 4642 	cjne	r6,#0x10,00152$
      0013FE                       4643 00152$:
      0013FE 40 DE            [24] 4644 	jc	00112$
                                   4645 ;	../../../platform/cc2530dk/RC522/RC522.c:992: CalulateCRC ( ucComMF522Buf, 16, & ucComMF522Buf [ 16 ] );
      001400 E5 81            [12] 4646 	mov	a,sp
      001402 24 ED            [12] 4647 	add	a,#0xed
      001404 FE               [12] 4648 	mov	r6,a
      001405 24 10            [12] 4649 	add	a,#0x10
      001407 FD               [12] 4650 	mov	r5,a
      001408 E5 81            [12] 4651 	mov	a,sp
      00140A 24 EA            [12] 4652 	add	a,#0xea
      00140C F8               [12] 4653 	mov	r0,a
      00140D A6 05            [24] 4654 	mov	@r0,ar5
      00140F 08               [12] 4655 	inc	r0
      001410 76 00            [12] 4656 	mov	@r0,#0x00
      001412 08               [12] 4657 	inc	r0
      001413 76 40            [12] 4658 	mov	@r0,#0x40
      001415 8E 02            [24] 4659 	mov	ar2,r6
      001417 7C 00            [12] 4660 	mov	r4,#0x00
      001419 7D 40            [12] 4661 	mov	r5,#0x40
      00141B C0 06            [24] 4662 	push	ar6
      00141D E5 81            [12] 4663 	mov	a,sp
      00141F 24 E9            [12] 4664 	add	a,#0xe9
      001421 F8               [12] 4665 	mov	r0,a
      001422 E6               [12] 4666 	mov	a,@r0
      001423 C0 E0            [24] 4667 	push	acc
      001425 08               [12] 4668 	inc	r0
      001426 E6               [12] 4669 	mov	a,@r0
      001427 C0 E0            [24] 4670 	push	acc
      001429 08               [12] 4671 	inc	r0
      00142A E6               [12] 4672 	mov	a,@r0
      00142B C0 E0            [24] 4673 	push	acc
      00142D 74 10            [12] 4674 	mov	a,#0x10
      00142F C0 E0            [24] 4675 	push	acc
      001431 8A 82            [24] 4676 	mov	dpl,r2
      001433 8C 83            [24] 4677 	mov	dph,r4
      001435 8D F0            [24] 4678 	mov	b,r5
      001437 78r24            [12] 4679 	mov	r0,#_CalulateCRC
      001439 79s10            [12] 4680 	mov	r1,#(_CalulateCRC >> 8)
      00143B 7As00            [12] 4681 	mov	r2,#(_CalulateCRC >> 16)
      00143D 12r00r00         [24] 4682 	lcall	__sdcc_banked_call
      001440 E5 81            [12] 4683 	mov	a,sp
      001442 24 FC            [12] 4684 	add	a,#0xfc
      001444 F5 81            [12] 4685 	mov	sp,a
      001446 D0 06            [24] 4686 	pop	ar6
                                   4687 ;	../../../platform/cc2530dk/RC522/RC522.c:994: cStatus = PcdComMF522 ( PCD_TRANSCEIVE, ucComMF522Buf, 18, ucComMF522Buf, & ulLen );
      001448 AD 81            [24] 4688 	mov	r5,sp
      00144A 1D               [12] 4689 	dec	r5
      00144B E5 81            [12] 4690 	mov	a,sp
      00144D 24 EA            [12] 4691 	add	a,#0xea
      00144F F8               [12] 4692 	mov	r0,a
      001450 A6 05            [24] 4693 	mov	@r0,ar5
      001452 08               [12] 4694 	inc	r0
      001453 76 00            [12] 4695 	mov	@r0,#0x00
      001455 08               [12] 4696 	inc	r0
      001456 76 40            [12] 4697 	mov	@r0,#0x40
      001458 8E 02            [24] 4698 	mov	ar2,r6
      00145A 7F 00            [12] 4699 	mov	r7,#0x00
      00145C 7C 40            [12] 4700 	mov	r4,#0x40
      00145E 8E 03            [24] 4701 	mov	ar3,r6
      001460 7D 00            [12] 4702 	mov	r5,#0x00
      001462 7E 40            [12] 4703 	mov	r6,#0x40
      001464 E5 81            [12] 4704 	mov	a,sp
      001466 24 EA            [12] 4705 	add	a,#0xea
      001468 F8               [12] 4706 	mov	r0,a
      001469 E6               [12] 4707 	mov	a,@r0
      00146A C0 E0            [24] 4708 	push	acc
      00146C 08               [12] 4709 	inc	r0
      00146D E6               [12] 4710 	mov	a,@r0
      00146E C0 E0            [24] 4711 	push	acc
      001470 08               [12] 4712 	inc	r0
      001471 E6               [12] 4713 	mov	a,@r0
      001472 C0 E0            [24] 4714 	push	acc
      001474 C0 02            [24] 4715 	push	ar2
      001476 C0 07            [24] 4716 	push	ar7
      001478 C0 04            [24] 4717 	push	ar4
      00147A 74 12            [12] 4718 	mov	a,#0x12
      00147C C0 E0            [24] 4719 	push	acc
      00147E C0 03            [24] 4720 	push	ar3
      001480 C0 05            [24] 4721 	push	ar5
      001482 C0 06            [24] 4722 	push	ar6
      001484 75 82 0C         [24] 4723 	mov	dpl,#0x0c
      001487 78r17            [12] 4724 	mov	r0,#_PcdComMF522
      001489 79s0B            [12] 4725 	mov	r1,#(_PcdComMF522 >> 8)
      00148B 7As00            [12] 4726 	mov	r2,#(_PcdComMF522 >> 16)
      00148D 12r00r00         [24] 4727 	lcall	__sdcc_banked_call
      001490 AE 82            [24] 4728 	mov	r6,dpl
      001492 E5 81            [12] 4729 	mov	a,sp
      001494 24 F6            [12] 4730 	add	a,#0xf6
      001496 F5 81            [12] 4731 	mov	sp,a
      001498 8E 07            [24] 4732 	mov	ar7,r6
                                   4733 ;	../../../platform/cc2530dk/RC522/RC522.c:996: if ( ( cStatus != MI_OK ) || ( ulLen != 4 ) || ( ( ucComMF522Buf [ 0 ] & 0x0F ) != 0x0A ) )
      00149A BF 26 1E         [24] 4734 	cjne	r7,#0x26,00106$
      00149D A8 81            [24] 4735 	mov	r0,sp
      00149F 18               [12] 4736 	dec	r0
      0014A0 B6 04 18         [24] 4737 	cjne	@r0,#0x04,00106$
      0014A3 08               [12] 4738 	inc	r0
      0014A4 B6 00 14         [24] 4739 	cjne	@r0,#0x00,00106$
      0014A7 E5 81            [12] 4740 	mov	a,sp
      0014A9 24 ED            [12] 4741 	add	a,#0xed
      0014AB F9               [12] 4742 	mov	r1,a
      0014AC 87 06            [24] 4743 	mov	ar6,@r1
      0014AE 53 06 0F         [24] 4744 	anl	ar6,#0x0f
      0014B1 7D 00            [12] 4745 	mov	r5,#0x00
      0014B3 BE 0A 05         [24] 4746 	cjne	r6,#0x0a,00158$
      0014B6 BD 00 02         [24] 4747 	cjne	r5,#0x00,00158$
      0014B9 80 02            [24] 4748 	sjmp	00111$
      0014BB                       4749 00158$:
      0014BB                       4750 00106$:
                                   4751 ;	../../../platform/cc2530dk/RC522/RC522.c:997: cStatus = MI_ERR;   
      0014BB 7F BB            [12] 4752 	mov	r7,#0xbb
      0014BD                       4753 00111$:
                                   4754 ;	../../../platform/cc2530dk/RC522/RC522.c:1001: return cStatus;
      0014BD 8F 82            [24] 4755 	mov	dpl,r7
                                   4756 ;	../../../platform/cc2530dk/RC522/RC522.c:1003: }
      0014BF E5 81            [12] 4757 	mov	a,sp
      0014C1 24 E9            [12] 4758 	add	a,#0xe9
      0014C3 F5 81            [12] 4759 	mov	sp,a
      0014C5 02r00r00         [24] 4760 	ljmp	__sdcc_banked_ret
                                   4761 ;------------------------------------------------------------
                                   4762 ;Allocation info for local variables in function 'PcdRead'
                                   4763 ;------------------------------------------------------------
                                   4764 ;pData                     Allocated to stack - sp -28
                                   4765 ;ucAddr                    Allocated to registers r7 
                                   4766 ;cStatus                   Allocated to registers r7 
                                   4767 ;uc                        Allocated to registers 
                                   4768 ;ucComMF522Buf             Allocated to stack - sp -19
                                   4769 ;ulLen                     Allocated to stack - sp -1
                                   4770 ;sloc0                     Allocated to stack - sp -22
                                   4771 ;------------------------------------------------------------
                                   4772 ;	../../../platform/cc2530dk/RC522/RC522.c:1017: char PcdRead ( unsigned char ucAddr, unsigned char * pData )
                                   4773 ;	-----------------------------------------
                                   4774 ;	 function PcdRead
                                   4775 ;	-----------------------------------------
      0014C8                       4776 _PcdRead:
      0014C8 E5 81            [12] 4777 	mov	a,sp
      0014CA 24 17            [12] 4778 	add	a,#0x17
                                   4779 ;	../../../platform/cc2530dk/RC522/RC522.c:1024: ucComMF522Buf [ 0 ] = PICC_READ;
      0014CC F5 81            [12] 4780 	mov	sp,a
      0014CE AF 82            [24] 4781 	mov	r7,dpl
      0014D0 24 ED            [12] 4782 	add	a,#0xed
      0014D2 F9               [12] 4783 	mov	r1,a
      0014D3 77 30            [12] 4784 	mov	@r1,#0x30
                                   4785 ;	../../../platform/cc2530dk/RC522/RC522.c:1025: ucComMF522Buf [ 1 ] = ucAddr;
      0014D5 E9               [12] 4786 	mov	a,r1
      0014D6 04               [12] 4787 	inc	a
      0014D7 F8               [12] 4788 	mov	r0,a
      0014D8 A6 07            [24] 4789 	mov	@r0,ar7
                                   4790 ;	../../../platform/cc2530dk/RC522/RC522.c:1027: CalulateCRC ( ucComMF522Buf, 2, & ucComMF522Buf [ 2 ] );
      0014DA 74 02            [12] 4791 	mov	a,#0x02
      0014DC 29               [12] 4792 	add	a,r1
      0014DD FF               [12] 4793 	mov	r7,a
      0014DE 7E 00            [12] 4794 	mov	r6,#0x00
      0014E0 7D 40            [12] 4795 	mov	r5,#0x40
      0014E2 89 04            [24] 4796 	mov	ar4,r1
      0014E4 7B 00            [12] 4797 	mov	r3,#0x00
      0014E6 7A 40            [12] 4798 	mov	r2,#0x40
      0014E8 C0 01            [24] 4799 	push	ar1
      0014EA C0 07            [24] 4800 	push	ar7
      0014EC C0 06            [24] 4801 	push	ar6
      0014EE C0 05            [24] 4802 	push	ar5
      0014F0 74 02            [12] 4803 	mov	a,#0x02
      0014F2 C0 E0            [24] 4804 	push	acc
      0014F4 8C 82            [24] 4805 	mov	dpl,r4
      0014F6 8B 83            [24] 4806 	mov	dph,r3
      0014F8 8A F0            [24] 4807 	mov	b,r2
      0014FA 78r24            [12] 4808 	mov	r0,#_CalulateCRC
      0014FC 79s10            [12] 4809 	mov	r1,#(_CalulateCRC >> 8)
      0014FE 7As00            [12] 4810 	mov	r2,#(_CalulateCRC >> 16)
      001500 12r00r00         [24] 4811 	lcall	__sdcc_banked_call
      001503 E5 81            [12] 4812 	mov	a,sp
      001505 24 FC            [12] 4813 	add	a,#0xfc
      001507 F5 81            [12] 4814 	mov	sp,a
      001509 D0 01            [24] 4815 	pop	ar1
                                   4816 ;	../../../platform/cc2530dk/RC522/RC522.c:1029: cStatus = PcdComMF522 ( PCD_TRANSCEIVE, ucComMF522Buf, 4, ucComMF522Buf, & ulLen );
      00150B AF 81            [24] 4817 	mov	r7,sp
      00150D 1F               [12] 4818 	dec	r7
      00150E 7E 00            [12] 4819 	mov	r6,#0x00
      001510 7D 40            [12] 4820 	mov	r5,#0x40
      001512 89 04            [24] 4821 	mov	ar4,r1
      001514 E5 81            [12] 4822 	mov	a,sp
      001516 24 EA            [12] 4823 	add	a,#0xea
      001518 F8               [12] 4824 	mov	r0,a
      001519 A6 04            [24] 4825 	mov	@r0,ar4
      00151B 08               [12] 4826 	inc	r0
      00151C 76 00            [12] 4827 	mov	@r0,#0x00
      00151E 08               [12] 4828 	inc	r0
      00151F 76 40            [12] 4829 	mov	@r0,#0x40
      001521 89 04            [24] 4830 	mov	ar4,r1
      001523 7B 00            [12] 4831 	mov	r3,#0x00
      001525 7A 40            [12] 4832 	mov	r2,#0x40
      001527 C0 07            [24] 4833 	push	ar7
      001529 C0 06            [24] 4834 	push	ar6
      00152B C0 05            [24] 4835 	push	ar5
      00152D E5 81            [12] 4836 	mov	a,sp
      00152F 24 E7            [12] 4837 	add	a,#0xe7
      001531 F8               [12] 4838 	mov	r0,a
      001532 E6               [12] 4839 	mov	a,@r0
      001533 C0 E0            [24] 4840 	push	acc
      001535 08               [12] 4841 	inc	r0
      001536 E6               [12] 4842 	mov	a,@r0
      001537 C0 E0            [24] 4843 	push	acc
      001539 08               [12] 4844 	inc	r0
      00153A E6               [12] 4845 	mov	a,@r0
      00153B C0 E0            [24] 4846 	push	acc
      00153D 74 04            [12] 4847 	mov	a,#0x04
      00153F C0 E0            [24] 4848 	push	acc
      001541 C0 04            [24] 4849 	push	ar4
      001543 C0 03            [24] 4850 	push	ar3
      001545 C0 02            [24] 4851 	push	ar2
      001547 75 82 0C         [24] 4852 	mov	dpl,#0x0c
      00154A 78r17            [12] 4853 	mov	r0,#_PcdComMF522
      00154C 79s0B            [12] 4854 	mov	r1,#(_PcdComMF522 >> 8)
      00154E 7As00            [12] 4855 	mov	r2,#(_PcdComMF522 >> 16)
      001550 12r00r00         [24] 4856 	lcall	__sdcc_banked_call
      001553 AF 82            [24] 4857 	mov	r7,dpl
      001555 E5 81            [12] 4858 	mov	a,sp
      001557 24 F6            [12] 4859 	add	a,#0xf6
      001559 F5 81            [12] 4860 	mov	sp,a
                                   4861 ;	../../../platform/cc2530dk/RC522/RC522.c:1031: if ( ( cStatus == MI_OK ) && ( ulLen == 0x90 ) )
      00155B BF 26 3B         [24] 4862 	cjne	r7,#0x26,00103$
      00155E A8 81            [24] 4863 	mov	r0,sp
      001560 18               [12] 4864 	dec	r0
      001561 B6 90 35         [24] 4865 	cjne	@r0,#0x90,00103$
      001564 08               [12] 4866 	inc	r0
      001565 B6 00 31         [24] 4867 	cjne	@r0,#0x00,00103$
                                   4868 ;	../../../platform/cc2530dk/RC522/RC522.c:1033: for ( uc = 0; uc < 16; uc ++ )
      001568 7E 00            [12] 4869 	mov	r6,#0x00
      00156A E5 81            [12] 4870 	mov	a,sp
      00156C 24 ED            [12] 4871 	add	a,#0xed
      00156E FD               [12] 4872 	mov	r5,a
      00156F                       4873 00106$:
                                   4874 ;	../../../platform/cc2530dk/RC522/RC522.c:1034: * ( pData + uc ) = ucComMF522Buf [ uc ];   
      00156F C0 07            [24] 4875 	push	ar7
      001571 E5 81            [12] 4876 	mov	a,sp
      001573 24 E3            [12] 4877 	add	a,#0xe3
      001575 F8               [12] 4878 	mov	r0,a
      001576 EE               [12] 4879 	mov	a,r6
      001577 26               [12] 4880 	add	a,@r0
      001578 FA               [12] 4881 	mov	r2,a
      001579 E4               [12] 4882 	clr	a
      00157A 08               [12] 4883 	inc	r0
      00157B 36               [12] 4884 	addc	a,@r0
      00157C FB               [12] 4885 	mov	r3,a
      00157D 08               [12] 4886 	inc	r0
      00157E 86 04            [24] 4887 	mov	ar4,@r0
      001580 EE               [12] 4888 	mov	a,r6
      001581 2D               [12] 4889 	add	a,r5
      001582 F9               [12] 4890 	mov	r1,a
      001583 87 07            [24] 4891 	mov	ar7,@r1
      001585 8A 82            [24] 4892 	mov	dpl,r2
      001587 8B 83            [24] 4893 	mov	dph,r3
      001589 8C F0            [24] 4894 	mov	b,r4
      00158B EF               [12] 4895 	mov	a,r7
      00158C 12r00r00         [24] 4896 	lcall	__gptrput
                                   4897 ;	../../../platform/cc2530dk/RC522/RC522.c:1033: for ( uc = 0; uc < 16; uc ++ )
      00158F 0E               [12] 4898 	inc	r6
      001590 BE 10 00         [24] 4899 	cjne	r6,#0x10,00131$
      001593                       4900 00131$:
      001593 D0 07            [24] 4901 	pop	ar7
      001595 40 D8            [24] 4902 	jc	00106$
      001597 80 02            [24] 4903 	sjmp	00104$
      001599                       4904 00103$:
                                   4905 ;	../../../platform/cc2530dk/RC522/RC522.c:1038: cStatus = MI_ERR;   
      001599 7F BB            [12] 4906 	mov	r7,#0xbb
      00159B                       4907 00104$:
                                   4908 ;	../../../platform/cc2530dk/RC522/RC522.c:1040: return cStatus;
      00159B 8F 82            [24] 4909 	mov	dpl,r7
                                   4910 ;	../../../platform/cc2530dk/RC522/RC522.c:1042: }
      00159D E5 81            [12] 4911 	mov	a,sp
      00159F 24 E9            [12] 4912 	add	a,#0xe9
      0015A1 F5 81            [12] 4913 	mov	sp,a
      0015A3 02r00r00         [24] 4914 	ljmp	__sdcc_banked_ret
                                   4915 ;------------------------------------------------------------
                                   4916 ;Allocation info for local variables in function 'PcdHalt'
                                   4917 ;------------------------------------------------------------
                                   4918 ;ucComMF522Buf             Allocated to stack - sp -19
                                   4919 ;ulLen                     Allocated to stack - sp -1
                                   4920 ;sloc0                     Allocated to stack - sp -22
                                   4921 ;------------------------------------------------------------
                                   4922 ;	../../../platform/cc2530dk/RC522/RC522.c:1055: char PcdHalt( void )
                                   4923 ;	-----------------------------------------
                                   4924 ;	 function PcdHalt
                                   4925 ;	-----------------------------------------
      0015A6                       4926 _PcdHalt:
      0015A6 E5 81            [12] 4927 	mov	a,sp
      0015A8 24 17            [12] 4928 	add	a,#0x17
                                   4929 ;	../../../platform/cc2530dk/RC522/RC522.c:1060: ucComMF522Buf [ 0 ] = PICC_HALT;
      0015AA F5 81            [12] 4930 	mov	sp,a
      0015AC 24 ED            [12] 4931 	add	a,#0xed
      0015AE F9               [12] 4932 	mov	r1,a
      0015AF 77 50            [12] 4933 	mov	@r1,#0x50
                                   4934 ;	../../../platform/cc2530dk/RC522/RC522.c:1061: ucComMF522Buf [ 1 ] = 0;
      0015B1 E9               [12] 4935 	mov	a,r1
      0015B2 04               [12] 4936 	inc	a
      0015B3 F8               [12] 4937 	mov	r0,a
      0015B4 76 00            [12] 4938 	mov	@r0,#0x00
                                   4939 ;	../../../platform/cc2530dk/RC522/RC522.c:1063: CalulateCRC ( ucComMF522Buf, 2, & ucComMF522Buf [ 2 ] );
      0015B6 74 02            [12] 4940 	mov	a,#0x02
      0015B8 29               [12] 4941 	add	a,r1
      0015B9 FF               [12] 4942 	mov	r7,a
      0015BA 7E 00            [12] 4943 	mov	r6,#0x00
      0015BC 7D 40            [12] 4944 	mov	r5,#0x40
      0015BE 89 04            [24] 4945 	mov	ar4,r1
      0015C0 7B 00            [12] 4946 	mov	r3,#0x00
      0015C2 7A 40            [12] 4947 	mov	r2,#0x40
      0015C4 C0 01            [24] 4948 	push	ar1
      0015C6 C0 07            [24] 4949 	push	ar7
      0015C8 C0 06            [24] 4950 	push	ar6
      0015CA C0 05            [24] 4951 	push	ar5
      0015CC 74 02            [12] 4952 	mov	a,#0x02
      0015CE C0 E0            [24] 4953 	push	acc
      0015D0 8C 82            [24] 4954 	mov	dpl,r4
      0015D2 8B 83            [24] 4955 	mov	dph,r3
      0015D4 8A F0            [24] 4956 	mov	b,r2
      0015D6 78r24            [12] 4957 	mov	r0,#_CalulateCRC
      0015D8 79s10            [12] 4958 	mov	r1,#(_CalulateCRC >> 8)
      0015DA 7As00            [12] 4959 	mov	r2,#(_CalulateCRC >> 16)
      0015DC 12r00r00         [24] 4960 	lcall	__sdcc_banked_call
      0015DF E5 81            [12] 4961 	mov	a,sp
      0015E1 24 FC            [12] 4962 	add	a,#0xfc
      0015E3 F5 81            [12] 4963 	mov	sp,a
      0015E5 D0 01            [24] 4964 	pop	ar1
                                   4965 ;	../../../platform/cc2530dk/RC522/RC522.c:1064: PcdComMF522 ( PCD_TRANSCEIVE, ucComMF522Buf, 4, ucComMF522Buf, & ulLen );
      0015E7 AF 81            [24] 4966 	mov	r7,sp
      0015E9 1F               [12] 4967 	dec	r7
      0015EA 7E 00            [12] 4968 	mov	r6,#0x00
      0015EC 7D 40            [12] 4969 	mov	r5,#0x40
      0015EE 89 04            [24] 4970 	mov	ar4,r1
      0015F0 E5 81            [12] 4971 	mov	a,sp
      0015F2 24 EA            [12] 4972 	add	a,#0xea
      0015F4 F8               [12] 4973 	mov	r0,a
      0015F5 A6 04            [24] 4974 	mov	@r0,ar4
      0015F7 08               [12] 4975 	inc	r0
      0015F8 76 00            [12] 4976 	mov	@r0,#0x00
      0015FA 08               [12] 4977 	inc	r0
      0015FB 76 40            [12] 4978 	mov	@r0,#0x40
      0015FD 89 04            [24] 4979 	mov	ar4,r1
      0015FF 7B 00            [12] 4980 	mov	r3,#0x00
      001601 7A 40            [12] 4981 	mov	r2,#0x40
      001603 C0 07            [24] 4982 	push	ar7
      001605 C0 06            [24] 4983 	push	ar6
      001607 C0 05            [24] 4984 	push	ar5
      001609 E5 81            [12] 4985 	mov	a,sp
      00160B 24 E7            [12] 4986 	add	a,#0xe7
      00160D F8               [12] 4987 	mov	r0,a
      00160E E6               [12] 4988 	mov	a,@r0
      00160F C0 E0            [24] 4989 	push	acc
      001611 08               [12] 4990 	inc	r0
      001612 E6               [12] 4991 	mov	a,@r0
      001613 C0 E0            [24] 4992 	push	acc
      001615 08               [12] 4993 	inc	r0
      001616 E6               [12] 4994 	mov	a,@r0
      001617 C0 E0            [24] 4995 	push	acc
      001619 74 04            [12] 4996 	mov	a,#0x04
      00161B C0 E0            [24] 4997 	push	acc
      00161D C0 04            [24] 4998 	push	ar4
      00161F C0 03            [24] 4999 	push	ar3
      001621 C0 02            [24] 5000 	push	ar2
      001623 75 82 0C         [24] 5001 	mov	dpl,#0x0c
      001626 78r17            [12] 5002 	mov	r0,#_PcdComMF522
      001628 79s0B            [12] 5003 	mov	r1,#(_PcdComMF522 >> 8)
      00162A 7As00            [12] 5004 	mov	r2,#(_PcdComMF522 >> 16)
      00162C 12r00r00         [24] 5005 	lcall	__sdcc_banked_call
      00162F E5 81            [12] 5006 	mov	a,sp
      001631 24 F6            [12] 5007 	add	a,#0xf6
      001633 F5 81            [12] 5008 	mov	sp,a
                                   5009 ;	../../../platform/cc2530dk/RC522/RC522.c:1066: return MI_OK;
      001635 75 82 26         [24] 5010 	mov	dpl,#0x26
                                   5011 ;	../../../platform/cc2530dk/RC522/RC522.c:1068: }
      001638 E5 81            [12] 5012 	mov	a,sp
      00163A 24 E9            [12] 5013 	add	a,#0xe9
      00163C F5 81            [12] 5014 	mov	sp,a
      00163E 02r00r00         [24] 5015 	ljmp	__sdcc_banked_ret
                                   5016 ;------------------------------------------------------------
                                   5017 ;Allocation info for local variables in function 'IC_CMT'
                                   5018 ;------------------------------------------------------------
                                   5019 ;KEY                       Allocated to stack - sp -9
                                   5020 ;RW                        Allocated to stack - sp -10
                                   5021 ;Dat                       Allocated to stack - sp -13
                                   5022 ;UID                       Allocated to registers r5 r6 r7 
                                   5023 ;ucArray_ID                Allocated to stack - sp -3
                                   5024 ;------------------------------------------------------------
                                   5025 ;	../../../platform/cc2530dk/RC522/RC522.c:1071: void IC_CMT ( unsigned char * UID, unsigned char * KEY, unsigned char RW, unsigned char * Dat )
                                   5026 ;	-----------------------------------------
                                   5027 ;	 function IC_CMT
                                   5028 ;	-----------------------------------------
      001641                       5029 _IC_CMT:
      001641 E5 81            [12] 5030 	mov	a,sp
      001643 24 04            [12] 5031 	add	a,#0x04
      001645 F5 81            [12] 5032 	mov	sp,a
      001647 AD 82            [24] 5033 	mov	r5,dpl
      001649 AE 83            [24] 5034 	mov	r6,dph
      00164B AF F0            [24] 5035 	mov	r7,b
                                   5036 ;	../../../platform/cc2530dk/RC522/RC522.c:1073: unsigned char ucArray_ID [ 4 ] = { 0 };//ICUID(IC)
      00164D E5 81            [12] 5037 	mov	a,sp
      00164F 24 FD            [12] 5038 	add	a,#0xfd
      001651 F9               [12] 5039 	mov	r1,a
      001652 77 00            [12] 5040 	mov	@r1,#0x00
      001654 E9               [12] 5041 	mov	a,r1
      001655 04               [12] 5042 	inc	a
      001656 F8               [12] 5043 	mov	r0,a
      001657 76 00            [12] 5044 	mov	@r0,#0x00
      001659 74 02            [12] 5045 	mov	a,#0x02
      00165B 29               [12] 5046 	add	a,r1
      00165C F8               [12] 5047 	mov	r0,a
      00165D 76 00            [12] 5048 	mov	@r0,#0x00
      00165F 74 03            [12] 5049 	mov	a,#0x03
      001661 29               [12] 5050 	add	a,r1
      001662 F8               [12] 5051 	mov	r0,a
      001663 76 00            [12] 5052 	mov	@r0,#0x00
                                   5053 ;	../../../platform/cc2530dk/RC522/RC522.c:1076: PcdRequest ( 0x52, ucArray_ID );//
      001665 89 04            [24] 5054 	mov	ar4,r1
      001667 7B 00            [12] 5055 	mov	r3,#0x00
      001669 7A 40            [12] 5056 	mov	r2,#0x40
      00166B C0 07            [24] 5057 	push	ar7
      00166D C0 06            [24] 5058 	push	ar6
      00166F C0 05            [24] 5059 	push	ar5
      001671 C0 01            [24] 5060 	push	ar1
      001673 C0 04            [24] 5061 	push	ar4
      001675 C0 03            [24] 5062 	push	ar3
      001677 C0 02            [24] 5063 	push	ar2
      001679 75 82 52         [24] 5064 	mov	dpl,#0x52
      00167C 78r28            [12] 5065 	mov	r0,#_PcdRequest
      00167E 79s0E            [12] 5066 	mov	r1,#(_PcdRequest >> 8)
      001680 7As00            [12] 5067 	mov	r2,#(_PcdRequest >> 16)
      001682 12r00r00         [24] 5068 	lcall	__sdcc_banked_call
      001685 15 81            [12] 5069 	dec	sp
      001687 15 81            [12] 5070 	dec	sp
      001689 15 81            [12] 5071 	dec	sp
      00168B D0 01            [24] 5072 	pop	ar1
                                   5073 ;	../../../platform/cc2530dk/RC522/RC522.c:1078: PcdAnticoll ( ucArray_ID );//
      00168D 89 04            [24] 5074 	mov	ar4,r1
      00168F 7B 00            [12] 5075 	mov	r3,#0x00
      001691 7A 40            [12] 5076 	mov	r2,#0x40
      001693 8C 82            [24] 5077 	mov	dpl,r4
      001695 8B 83            [24] 5078 	mov	dph,r3
      001697 8A F0            [24] 5079 	mov	b,r2
      001699 78r0D            [12] 5080 	mov	r0,#_PcdAnticoll
      00169B 79s0F            [12] 5081 	mov	r1,#(_PcdAnticoll >> 8)
      00169D 7As00            [12] 5082 	mov	r2,#(_PcdAnticoll >> 16)
      00169F 12r00r00         [24] 5083 	lcall	__sdcc_banked_call
      0016A2 D0 05            [24] 5084 	pop	ar5
      0016A4 D0 06            [24] 5085 	pop	ar6
      0016A6 D0 07            [24] 5086 	pop	ar7
                                   5087 ;	../../../platform/cc2530dk/RC522/RC522.c:1080: PcdSelect ( UID );//
      0016A8 8D 82            [24] 5088 	mov	dpl,r5
      0016AA 8E 83            [24] 5089 	mov	dph,r6
      0016AC 8F F0            [24] 5090 	mov	b,r7
      0016AE C0 07            [24] 5091 	push	ar7
      0016B0 C0 06            [24] 5092 	push	ar6
      0016B2 C0 05            [24] 5093 	push	ar5
      0016B4 78r2B            [12] 5094 	mov	r0,#_PcdSelect
      0016B6 79s11            [12] 5095 	mov	r1,#(_PcdSelect >> 8)
      0016B8 7As00            [12] 5096 	mov	r2,#(_PcdSelect >> 16)
      0016BA 12r00r00         [24] 5097 	lcall	__sdcc_banked_call
      0016BD D0 05            [24] 5098 	pop	ar5
      0016BF D0 06            [24] 5099 	pop	ar6
      0016C1 D0 07            [24] 5100 	pop	ar7
                                   5101 ;	../../../platform/cc2530dk/RC522/RC522.c:1082: PcdAuthState ( 0x60, 0x10, KEY, UID );//
      0016C3 C0 05            [24] 5102 	push	ar5
      0016C5 C0 06            [24] 5103 	push	ar6
      0016C7 C0 07            [24] 5104 	push	ar7
      0016C9 E5 81            [12] 5105 	mov	a,sp
      0016CB 24 F4            [12] 5106 	add	a,#0xf4
      0016CD F8               [12] 5107 	mov	r0,a
      0016CE E6               [12] 5108 	mov	a,@r0
      0016CF C0 E0            [24] 5109 	push	acc
      0016D1 08               [12] 5110 	inc	r0
      0016D2 E6               [12] 5111 	mov	a,@r0
      0016D3 C0 E0            [24] 5112 	push	acc
      0016D5 08               [12] 5113 	inc	r0
      0016D6 E6               [12] 5114 	mov	a,@r0
      0016D7 C0 E0            [24] 5115 	push	acc
      0016D9 74 10            [12] 5116 	mov	a,#0x10
      0016DB C0 E0            [24] 5117 	push	acc
      0016DD 75 82 60         [24] 5118 	mov	dpl,#0x60
      0016E0 78r30            [12] 5119 	mov	r0,#_PcdAuthState
      0016E2 79s12            [12] 5120 	mov	r1,#(_PcdAuthState >> 8)
      0016E4 7As00            [12] 5121 	mov	r2,#(_PcdAuthState >> 16)
      0016E6 12r00r00         [24] 5122 	lcall	__sdcc_banked_call
      0016E9 E5 81            [12] 5123 	mov	a,sp
      0016EB 24 F9            [12] 5124 	add	a,#0xf9
                                   5125 ;	../../../platform/cc2530dk/RC522/RC522.c:1085: if ( RW )//10
      0016ED F5 81            [12] 5126 	mov	sp,a
      0016EF 24 F6            [12] 5127 	add	a,#0xf6
      0016F1 F8               [12] 5128 	mov	r0,a
      0016F2 E6               [12] 5129 	mov	a,@r0
      0016F3 60 24            [24] 5130 	jz	00102$
                                   5131 ;	../../../platform/cc2530dk/RC522/RC522.c:1086: PcdRead ( 0x10, Dat );
      0016F5 E5 81            [12] 5132 	mov	a,sp
      0016F7 24 F3            [12] 5133 	add	a,#0xf3
      0016F9 F8               [12] 5134 	mov	r0,a
      0016FA E6               [12] 5135 	mov	a,@r0
      0016FB C0 E0            [24] 5136 	push	acc
      0016FD 08               [12] 5137 	inc	r0
      0016FE E6               [12] 5138 	mov	a,@r0
      0016FF C0 E0            [24] 5139 	push	acc
      001701 08               [12] 5140 	inc	r0
      001702 E6               [12] 5141 	mov	a,@r0
      001703 C0 E0            [24] 5142 	push	acc
      001705 75 82 10         [24] 5143 	mov	dpl,#0x10
      001708 78rC8            [12] 5144 	mov	r0,#_PcdRead
      00170A 79s14            [12] 5145 	mov	r1,#(_PcdRead >> 8)
      00170C 7As00            [12] 5146 	mov	r2,#(_PcdRead >> 16)
      00170E 12r00r00         [24] 5147 	lcall	__sdcc_banked_call
      001711 15 81            [12] 5148 	dec	sp
      001713 15 81            [12] 5149 	dec	sp
      001715 15 81            [12] 5150 	dec	sp
      001717 80 22            [24] 5151 	sjmp	00103$
      001719                       5152 00102$:
                                   5153 ;	../../../platform/cc2530dk/RC522/RC522.c:1089: PcdWrite ( 0x10, Dat );
      001719 E5 81            [12] 5154 	mov	a,sp
      00171B 24 F3            [12] 5155 	add	a,#0xf3
      00171D F8               [12] 5156 	mov	r0,a
      00171E E6               [12] 5157 	mov	a,@r0
      00171F C0 E0            [24] 5158 	push	acc
      001721 08               [12] 5159 	inc	r0
      001722 E6               [12] 5160 	mov	a,@r0
      001723 C0 E0            [24] 5161 	push	acc
      001725 08               [12] 5162 	inc	r0
      001726 E6               [12] 5163 	mov	a,@r0
      001727 C0 E0            [24] 5164 	push	acc
      001729 75 82 10         [24] 5165 	mov	dpl,#0x10
      00172C 78r19            [12] 5166 	mov	r0,#_PcdWrite
      00172E 79s13            [12] 5167 	mov	r1,#(_PcdWrite >> 8)
      001730 7As00            [12] 5168 	mov	r2,#(_PcdWrite >> 16)
      001732 12r00r00         [24] 5169 	lcall	__sdcc_banked_call
      001735 15 81            [12] 5170 	dec	sp
      001737 15 81            [12] 5171 	dec	sp
      001739 15 81            [12] 5172 	dec	sp
      00173B                       5173 00103$:
                                   5174 ;	../../../platform/cc2530dk/RC522/RC522.c:1092: PcdHalt ();
      00173B 78rA6            [12] 5175 	mov	r0,#_PcdHalt
      00173D 79s15            [12] 5176 	mov	r1,#(_PcdHalt >> 8)
      00173F 7As00            [12] 5177 	mov	r2,#(_PcdHalt >> 16)
      001741 12r00r00         [24] 5178 	lcall	__sdcc_banked_call
                                   5179 ;	../../../platform/cc2530dk/RC522/RC522.c:1094: }
      001744 E5 81            [12] 5180 	mov	a,sp
      001746 24 FC            [12] 5181 	add	a,#0xfc
      001748 F5 81            [12] 5182 	mov	sp,a
      00174A 02r00r00         [24] 5183 	ljmp	__sdcc_banked_ret
                                   5184 	.area CSEG    (CODE)
                                   5185 	.area CONST   (CODE)
      000000                       5186 ___str_0:
      000000 30 78                 5187 	.ascii "0x"
      000002 00                    5188 	.db 0x00
                                   5189 	.area XINIT   (CODE)
      000000                       5190 __xinit__icd:
      000000 00 00                 5191 	.byte #0x00,#0x00	;  0
      000002                       5192 __xinit__i:
      000002 00                    5193 	.db #0x00	; 0
      000003                       5194 __xinit__IC_Card_Exist:
      000003 00                    5195 	.db #0x00	; 0
      000004                       5196 __xinit__pk:
      000004 FF                    5197 	.db #0xff	; 255
      000005 FF                    5198 	.db #0xff	; 255
      000006 FF                    5199 	.db #0xff	; 255
      000007 FF                    5200 	.db #0xff	; 255
      000008 FF                    5201 	.db #0xff	; 255
      000009 FF                    5202 	.db #0xff	; 255
      00000A                       5203 __xinit__ucArray_ID:
      00000A 00                    5204 	.db #0x00	; 0
      00000B 00                    5205 	.db #0x00	; 0
      00000C 00                    5206 	.db #0x00	; 0
      00000D 00                    5207 	.db #0x00	; 0
      00000E 00                    5208 	.db 0x00
      00000F 00                    5209 	.db 0x00
      000010 00                    5210 	.db 0x00
      000011 00                    5211 	.db 0x00
      000012 00                    5212 	.db 0x00
      000013 00                    5213 	.db 0x00
      000014                       5214 __xinit__date1:
      000014 00                    5215 	.db #0x00	; 0
      000015 00                    5216 	.db 0x00
      000016 00                    5217 	.db 0x00
      000017 00                    5218 	.db 0x00
      000018 00                    5219 	.db 0x00
      000019 00                    5220 	.db 0x00
      00001A 00                    5221 	.db 0x00
      00001B 00                    5222 	.db 0x00
      00001C 00                    5223 	.db 0x00
      00001D 00                    5224 	.db 0x00
      00001E 00                    5225 	.db 0x00
      00001F 00                    5226 	.db 0x00
      000020 00                    5227 	.db 0x00
      000021 00                    5228 	.db 0x00
      000022 00                    5229 	.db 0x00
      000023 00                    5230 	.db 0x00
      000024 00                    5231 	.db 0x00
      000025 00                    5232 	.db 0x00
      000026 00                    5233 	.db 0x00
      000027 00                    5234 	.db 0x00
      000028                       5235 __xinit__InitStatus:
      000028 00                    5236 	.db #0x00	; 0
                                   5237 	.area CABS    (ABS,CODE)
